ARM GAS  /tmp/ccpoO1YS.s 			page 1


   1              		.cpu cortex-m7
   2              		.arch armv7e-m
   3              		.fpu fpv5-d16
   4              		.eabi_attribute 28, 1
   5              		.eabi_attribute 20, 1
   6              		.eabi_attribute 21, 1
   7              		.eabi_attribute 23, 3
   8              		.eabi_attribute 24, 1
   9              		.eabi_attribute 25, 1
  10              		.eabi_attribute 26, 1
  11              		.eabi_attribute 30, 1
  12              		.eabi_attribute 34, 1
  13              		.eabi_attribute 18, 4
  14              		.file	"_icm20948.c"
  15              		.text
  16              	.Ltext0:
  17              		.cfi_sections	.debug_frame
  18              		.file 1 "Drivers/icmDriver/_icm20948.c"
  19              		.section	.text.Dma_Mpu_Config_Callback,"ax",%progbits
  20              		.align	1
  21              		.global	Dma_Mpu_Config_Callback
  22              		.syntax unified
  23              		.thumb
  24              		.thumb_func
  26              	Dma_Mpu_Config_Callback:
  27              	.LFB895:
   1:Drivers/icmDriver/_icm20948.c **** #include "_icm20948.h"
   2:Drivers/icmDriver/_icm20948.c **** 
   3:Drivers/icmDriver/_icm20948.c **** #define SPI_DmaBuffSize (uint8_t)24
   4:Drivers/icmDriver/_icm20948.c **** __attribute__((aligned(4))) uint8_t icm_tx_buffer[SPI_DmaBuffSize];
   5:Drivers/icmDriver/_icm20948.c **** __attribute__((aligned(4))) uint8_t icm_rx_buffer[SPI_DmaBuffSize] = {0, 0, 0, 0};
   6:Drivers/icmDriver/_icm20948.c **** 
   7:Drivers/icmDriver/_icm20948.c **** __attribute__((aligned(4))) uint8_t debug_string[32];
   8:Drivers/icmDriver/_icm20948.c **** 
   9:Drivers/icmDriver/_icm20948.c **** void Select_Bank(uint8_t bank );
  10:Drivers/icmDriver/_icm20948.c **** // void delay_ms(uint16_t ms);
  11:Drivers/icmDriver/_icm20948.c **** // static uint8_t is_dma_trnsmit();
  12:Drivers/icmDriver/_icm20948.c **** static uint8_t is_icm_dma_transmit();
  13:Drivers/icmDriver/_icm20948.c **** uint8_t Spi_Dma_Read(uint8_t reg);
  14:Drivers/icmDriver/_icm20948.c **** void Spi_Dma_Write(uint8_t reg, uint8_t data);
  15:Drivers/icmDriver/_icm20948.c **** 
  16:Drivers/icmDriver/_icm20948.c **** icm20948Config_t icm20948Config = {.dmaTX_callback = NULL};
  17:Drivers/icmDriver/_icm20948.c **** mpuData_t raw_data;
  18:Drivers/icmDriver/_icm20948.c **** 
  19:Drivers/icmDriver/_icm20948.c **** // state IQR data
  20:Drivers/icmDriver/_icm20948.c **** 
  21:Drivers/icmDriver/_icm20948.c **** #define icm_spi_Enable() GPIOA->BSRR = GPIO_BSRR_BR3;
  22:Drivers/icmDriver/_icm20948.c **** #define icm_spi_Disable() GPIOA->BSRR = GPIO_BSRR_BS3;
  23:Drivers/icmDriver/_icm20948.c **** 
  24:Drivers/icmDriver/_icm20948.c **** #define time_iqr_GET(byte) (uint8_t)((1 << 0) & byte)
  25:Drivers/icmDriver/_icm20948.c **** #define dmaTX_iqr_GET(byte) (uint8_t)((1 << 1) & byte)
  26:Drivers/icmDriver/_icm20948.c **** #define dmaRX_iqr_GET(byte) (uint8_t)((1 << 2) & byte)
  27:Drivers/icmDriver/_icm20948.c **** // #define is_data_read(byte)  (uint8_t)((1 << 3) & byte)
  28:Drivers/icmDriver/_icm20948.c **** // #define time_iqr_end(byte)  (uint8_t)((1 << 0) & byte)
  29:Drivers/icmDriver/_icm20948.c **** #define dmaTX_iqr_SET(byte) SET_BIT(byte, 0x02)
  30:Drivers/icmDriver/_icm20948.c **** #define dmaRX_iqr_SET(byte) SET_BIT(byte, 0x04)
  31:Drivers/icmDriver/_icm20948.c **** #define dmaTX_iqr_CLEAR(byte) CLEAR_BIT(byte, 0x02)
ARM GAS  /tmp/ccpoO1YS.s 			page 2


  32:Drivers/icmDriver/_icm20948.c **** #define dmaRX_iqr_CLEAR(byte) CLEAR_BIT(byte, 0x04)
  33:Drivers/icmDriver/_icm20948.c **** 
  34:Drivers/icmDriver/_icm20948.c **** #define TX_DMA_SPI DMA2_Stream3
  35:Drivers/icmDriver/_icm20948.c **** #define RX_DMA_SPI DMA2_Stream2
  36:Drivers/icmDriver/_icm20948.c **** 
  37:Drivers/icmDriver/_icm20948.c **** //
  38:Drivers/icmDriver/_icm20948.c **** mpuData_t icm20948_getData(){
  39:Drivers/icmDriver/_icm20948.c ****     #define D icm20948Config.data
  40:Drivers/icmDriver/_icm20948.c ****         D.ax = LE_CONVERTER(icm_rx_buffer[1], icm_rx_buffer[2]) *   icm20948Config.inv_accel_sens;
  41:Drivers/icmDriver/_icm20948.c ****         D.ay = LE_CONVERTER(icm_rx_buffer[3], icm_rx_buffer[4]) *   icm20948Config.inv_accel_sens;
  42:Drivers/icmDriver/_icm20948.c ****         D.az = LE_CONVERTER(icm_rx_buffer[5], icm_rx_buffer[6]) *   icm20948Config.inv_accel_sens;
  43:Drivers/icmDriver/_icm20948.c ****         D.gx = LE_CONVERTER(icm_rx_buffer[7], icm_rx_buffer[8]) *   icm20948Config.inv_gyro_sens;
  44:Drivers/icmDriver/_icm20948.c ****         D.gy = LE_CONVERTER(icm_rx_buffer[9], icm_rx_buffer[10]) *  icm20948Config.inv_gyro_sens;
  45:Drivers/icmDriver/_icm20948.c ****         D.gz = LE_CONVERTER(icm_rx_buffer[11], icm_rx_buffer[12]) * icm20948Config.inv_gyro_sens;
  46:Drivers/icmDriver/_icm20948.c ****         D.mx = MAG_CONVERTER(icm_rx_buffer[17], icm_rx_buffer[16]);
  47:Drivers/icmDriver/_icm20948.c ****         D.my = MAG_CONVERTER(icm_rx_buffer[19], icm_rx_buffer[18]);
  48:Drivers/icmDriver/_icm20948.c ****         D.mz = MAG_CONVERTER(icm_rx_buffer[21], icm_rx_buffer[20]);
  49:Drivers/icmDriver/_icm20948.c ****     #undef D
  50:Drivers/icmDriver/_icm20948.c ****     return icm20948Config.data;
  51:Drivers/icmDriver/_icm20948.c **** }
  52:Drivers/icmDriver/_icm20948.c **** void Select_Bank(uint8_t bank){
  53:Drivers/icmDriver/_icm20948.c **** 	Spi_Dma_Write(0x7F, bank<<4);
  54:Drivers/icmDriver/_icm20948.c **** 	delay_ms(5);
  55:Drivers/icmDriver/_icm20948.c **** }
  56:Drivers/icmDriver/_icm20948.c **** void Dma_Mpu_Config_Callback()
  57:Drivers/icmDriver/_icm20948.c **** {
  28              		.loc 1 57 1 view -0
  29              		.cfi_startproc
  30              		@ args = 0, pretend = 0, frame = 0
  31              		@ frame_needed = 0, uses_anonymous_args = 0
  32              		@ link register save eliminated.
  58:Drivers/icmDriver/_icm20948.c ****     icm20948Config.is_data_read = 0;
  33              		.loc 1 58 5 view .LVU1
  34              		.loc 1 58 33 is_stmt 0 view .LVU2
  35 0000 024B     		ldr	r3, .L2
  36 0002 0022     		movs	r2, #0
  37 0004 83F84820 		strb	r2, [r3, #72]
  59:Drivers/icmDriver/_icm20948.c **** }
  38              		.loc 1 59 1 view .LVU3
  39 0008 7047     		bx	lr
  40              	.L3:
  41 000a 00BF     		.align	2
  42              	.L2:
  43 000c 00000000 		.word	icm20948Config
  44              		.cfi_endproc
  45              	.LFE895:
  47              		.section	.text.Dma_Transmit_Callback,"ax",%progbits
  48              		.align	1
  49              		.global	Dma_Transmit_Callback
  50              		.syntax unified
  51              		.thumb
  52              		.thumb_func
  54              	Dma_Transmit_Callback:
  55              	.LFB896:
  60:Drivers/icmDriver/_icm20948.c **** void Dma_Transmit_Callback()
  61:Drivers/icmDriver/_icm20948.c **** {
  56              		.loc 1 61 1 is_stmt 1 view -0
ARM GAS  /tmp/ccpoO1YS.s 			page 3


  57              		.cfi_startproc
  58              		@ args = 0, pretend = 0, frame = 0
  59              		@ frame_needed = 0, uses_anonymous_args = 0
  60              		@ link register save eliminated.
  62:Drivers/icmDriver/_icm20948.c ****     icm_spi_Disable();
  61              		.loc 1 62 5 view .LVU5
  62 0000 4B4B     		ldr	r3, .L7
  63 0002 0822     		movs	r2, #8
  64 0004 9A61     		str	r2, [r3, #24]
  65              		.loc 1 62 22 view .LVU6
  63:Drivers/icmDriver/_icm20948.c ****     // icm20948Config.data = raw_data;
  64:Drivers/icmDriver/_icm20948.c ****     raw_data.ax = LE_CONVERTER(icm_rx_buffer[1], icm_rx_buffer[2]) *   icm20948Config.inv_accel_sen
  66              		.loc 1 64 5 view .LVU7
  67              		.loc 1 64 19 is_stmt 0 view .LVU8
  68 0006 4B4B     		ldr	r3, .L7+4
  69 0008 5978     		ldrb	r1, [r3, #1]	@ zero_extendqisi2
  70 000a 9A78     		ldrb	r2, [r3, #2]	@ zero_extendqisi2
  71 000c 42EA0122 		orr	r2, r2, r1, lsl #8
  72 0010 12B2     		sxth	r2, r2
  73 0012 07EE902A 		vmov	s15, r2	@ int
  74              		.loc 1 64 86 view .LVU9
  75 0016 4848     		ldr	r0, .L7+8
  76 0018 90ED137A 		vldr.32	s14, [r0, #76]
  77              		.loc 1 64 68 view .LVU10
  78 001c F8EEE77A 		vcvt.f32.s32	s15, s15
  79 0020 67EE877A 		vmul.f32	s15, s15, s14
  80              		.loc 1 64 17 view .LVU11
  81 0024 454A     		ldr	r2, .L7+12
  82 0026 C2ED017A 		vstr.32	s15, [r2, #4]
  65:Drivers/icmDriver/_icm20948.c ****     raw_data.ay = LE_CONVERTER(icm_rx_buffer[3], icm_rx_buffer[4]) *   icm20948Config.inv_accel_sen
  83              		.loc 1 65 5 is_stmt 1 view .LVU12
  84              		.loc 1 65 19 is_stmt 0 view .LVU13
  85 002a 93F803C0 		ldrb	ip, [r3, #3]	@ zero_extendqisi2
  86 002e 1979     		ldrb	r1, [r3, #4]	@ zero_extendqisi2
  87 0030 41EA0C21 		orr	r1, r1, ip, lsl #8
  88 0034 09B2     		sxth	r1, r1
  89 0036 07EE901A 		vmov	s15, r1	@ int
  90              		.loc 1 65 68 view .LVU14
  91 003a F8EEE77A 		vcvt.f32.s32	s15, s15
  92 003e 67EE877A 		vmul.f32	s15, s15, s14
  93              		.loc 1 65 17 view .LVU15
  94 0042 C2ED027A 		vstr.32	s15, [r2, #8]
  66:Drivers/icmDriver/_icm20948.c ****     raw_data.az = LE_CONVERTER(icm_rx_buffer[5], icm_rx_buffer[6]) *   icm20948Config.inv_accel_sen
  95              		.loc 1 66 5 is_stmt 1 view .LVU16
  96              		.loc 1 66 19 is_stmt 0 view .LVU17
  97 0046 93F805C0 		ldrb	ip, [r3, #5]	@ zero_extendqisi2
  98 004a 9979     		ldrb	r1, [r3, #6]	@ zero_extendqisi2
  99 004c 41EA0C21 		orr	r1, r1, ip, lsl #8
 100 0050 09B2     		sxth	r1, r1
 101 0052 07EE901A 		vmov	s15, r1	@ int
 102              		.loc 1 66 68 view .LVU18
 103 0056 F8EEE77A 		vcvt.f32.s32	s15, s15
 104 005a 67EE877A 		vmul.f32	s15, s15, s14
 105              		.loc 1 66 17 view .LVU19
 106 005e C2ED037A 		vstr.32	s15, [r2, #12]
  67:Drivers/icmDriver/_icm20948.c ****     raw_data.gx = LE_CONVERTER(icm_rx_buffer[7], icm_rx_buffer[8]) *   icm20948Config.inv_gyro_sens
 107              		.loc 1 67 5 is_stmt 1 view .LVU20
ARM GAS  /tmp/ccpoO1YS.s 			page 4


 108              		.loc 1 67 19 is_stmt 0 view .LVU21
 109 0062 93F807C0 		ldrb	ip, [r3, #7]	@ zero_extendqisi2
 110 0066 197A     		ldrb	r1, [r3, #8]	@ zero_extendqisi2
 111 0068 41EA0C21 		orr	r1, r1, ip, lsl #8
 112 006c 09B2     		sxth	r1, r1
 113 006e 07EE901A 		vmov	s15, r1	@ int
 114              		.loc 1 67 86 view .LVU22
 115 0072 90ED147A 		vldr.32	s14, [r0, #80]
 116              		.loc 1 67 68 view .LVU23
 117 0076 F8EEE77A 		vcvt.f32.s32	s15, s15
 118 007a 67EE877A 		vmul.f32	s15, s15, s14
 119              		.loc 1 67 17 view .LVU24
 120 007e C2ED047A 		vstr.32	s15, [r2, #16]
  68:Drivers/icmDriver/_icm20948.c ****     raw_data.gy = LE_CONVERTER(icm_rx_buffer[9], icm_rx_buffer[10]) *  icm20948Config.inv_gyro_sens
 121              		.loc 1 68 5 is_stmt 1 view .LVU25
 122              		.loc 1 68 19 is_stmt 0 view .LVU26
 123 0082 93F809C0 		ldrb	ip, [r3, #9]	@ zero_extendqisi2
 124 0086 997A     		ldrb	r1, [r3, #10]	@ zero_extendqisi2
 125 0088 41EA0C21 		orr	r1, r1, ip, lsl #8
 126 008c 09B2     		sxth	r1, r1
 127 008e 07EE901A 		vmov	s15, r1	@ int
 128              		.loc 1 68 69 view .LVU27
 129 0092 F8EEE77A 		vcvt.f32.s32	s15, s15
 130 0096 67EE877A 		vmul.f32	s15, s15, s14
 131              		.loc 1 68 17 view .LVU28
 132 009a C2ED057A 		vstr.32	s15, [r2, #20]
  69:Drivers/icmDriver/_icm20948.c ****     raw_data.gz = LE_CONVERTER(icm_rx_buffer[11], icm_rx_buffer[12]) * icm20948Config.inv_gyro_sens
 133              		.loc 1 69 5 is_stmt 1 view .LVU29
 134              		.loc 1 69 19 is_stmt 0 view .LVU30
 135 009e 93F80BC0 		ldrb	ip, [r3, #11]	@ zero_extendqisi2
 136 00a2 197B     		ldrb	r1, [r3, #12]	@ zero_extendqisi2
 137 00a4 41EA0C21 		orr	r1, r1, ip, lsl #8
 138 00a8 09B2     		sxth	r1, r1
 139 00aa 07EE901A 		vmov	s15, r1	@ int
 140              		.loc 1 69 70 view .LVU31
 141 00ae F8EEE77A 		vcvt.f32.s32	s15, s15
 142 00b2 67EE877A 		vmul.f32	s15, s15, s14
 143              		.loc 1 69 17 view .LVU32
 144 00b6 C2ED067A 		vstr.32	s15, [r2, #24]
  70:Drivers/icmDriver/_icm20948.c ****     raw_data.mx = MAG_CONVERTER(icm_rx_buffer[17], icm_rx_buffer[16]);
 145              		.loc 1 70 5 is_stmt 1 view .LVU33
 146              		.loc 1 70 19 is_stmt 0 view .LVU34
 147 00ba 93F811C0 		ldrb	ip, [r3, #17]	@ zero_extendqisi2
 148 00be 197C     		ldrb	r1, [r3, #16]	@ zero_extendqisi2
 149 00c0 41EA0C21 		orr	r1, r1, ip, lsl #8
 150 00c4 09B2     		sxth	r1, r1
 151 00c6 07EE901A 		vmov	s15, r1	@ int
 152 00ca F8EEE77A 		vcvt.f32.s32	s15, s15
 153 00ce 9FED1C7A 		vldr.32	s14, .L7+16
 154 00d2 67EE877A 		vmul.f32	s15, s15, s14
 155              		.loc 1 70 17 view .LVU35
 156 00d6 C2ED077A 		vstr.32	s15, [r2, #28]
  71:Drivers/icmDriver/_icm20948.c ****     raw_data.my = MAG_CONVERTER(icm_rx_buffer[19], icm_rx_buffer[18]);
 157              		.loc 1 71 5 is_stmt 1 view .LVU36
 158              		.loc 1 71 19 is_stmt 0 view .LVU37
 159 00da 93F813C0 		ldrb	ip, [r3, #19]	@ zero_extendqisi2
 160 00de 997C     		ldrb	r1, [r3, #18]	@ zero_extendqisi2
ARM GAS  /tmp/ccpoO1YS.s 			page 5


 161 00e0 41EA0C21 		orr	r1, r1, ip, lsl #8
 162 00e4 09B2     		sxth	r1, r1
 163 00e6 07EE901A 		vmov	s15, r1	@ int
 164 00ea F8EEE77A 		vcvt.f32.s32	s15, s15
 165 00ee 67EE877A 		vmul.f32	s15, s15, s14
 166              		.loc 1 71 17 view .LVU38
 167 00f2 C2ED087A 		vstr.32	s15, [r2, #32]
  72:Drivers/icmDriver/_icm20948.c ****     raw_data.mz = MAG_CONVERTER(icm_rx_buffer[21], icm_rx_buffer[20]);
 168              		.loc 1 72 5 is_stmt 1 view .LVU39
 169              		.loc 1 72 19 is_stmt 0 view .LVU40
 170 00f6 597D     		ldrb	r1, [r3, #21]	@ zero_extendqisi2
 171 00f8 1B7D     		ldrb	r3, [r3, #20]	@ zero_extendqisi2
 172 00fa 43EA0123 		orr	r3, r3, r1, lsl #8
 173 00fe 1BB2     		sxth	r3, r3
 174 0100 07EE903A 		vmov	s15, r3	@ int
 175 0104 F8EEE77A 		vcvt.f32.s32	s15, s15
 176 0108 67EE877A 		vmul.f32	s15, s15, s14
 177              		.loc 1 72 17 view .LVU41
 178 010c C2ED097A 		vstr.32	s15, [r2, #36]
  73:Drivers/icmDriver/_icm20948.c ****     raw_data.time = icm20948Config.timer;
 179              		.loc 1 73 5 is_stmt 1 view .LVU42
 180              		.loc 1 73 35 is_stmt 0 view .LVU43
 181 0110 836B     		ldr	r3, [r0, #56]
 182              		.loc 1 73 19 view .LVU44
 183 0112 9362     		str	r3, [r2, #40]
  74:Drivers/icmDriver/_icm20948.c ****     icm20948Config.mesurement_flag = 0;
 184              		.loc 1 74 5 is_stmt 1 view .LVU45
 185              		.loc 1 74 36 is_stmt 0 view .LVU46
 186 0114 0023     		movs	r3, #0
 187 0116 80F85530 		strb	r3, [r0, #85]
  75:Drivers/icmDriver/_icm20948.c ****     if ((icm20948Config.prescalerCount == icm20948Config.prescaler))
 188              		.loc 1 75 5 is_stmt 1 view .LVU47
 189              		.loc 1 75 24 is_stmt 0 view .LVU48
 190 011a 4268     		ldr	r2, [r0, #4]
 191              		.loc 1 75 57 view .LVU49
 192 011c 0368     		ldr	r3, [r0]
 193              		.loc 1 75 8 view .LVU50
 194 011e 9A42     		cmp	r2, r3
 195 0120 00D0     		beq	.L6
 196              	.L4:
  76:Drivers/icmDriver/_icm20948.c ****     {
  77:Drivers/icmDriver/_icm20948.c ****         icm20948Config.is_data_read = 1;
  78:Drivers/icmDriver/_icm20948.c ****         icm20948Config.prescalerCount = 0;
  79:Drivers/icmDriver/_icm20948.c ****     }
  80:Drivers/icmDriver/_icm20948.c **** }
 197              		.loc 1 80 1 view .LVU51
 198 0122 7047     		bx	lr
 199              	.L6:
  77:Drivers/icmDriver/_icm20948.c ****         icm20948Config.prescalerCount = 0;
 200              		.loc 1 77 9 is_stmt 1 view .LVU52
  77:Drivers/icmDriver/_icm20948.c ****         icm20948Config.prescalerCount = 0;
 201              		.loc 1 77 37 is_stmt 0 view .LVU53
 202 0124 0122     		movs	r2, #1
 203 0126 80F84820 		strb	r2, [r0, #72]
  78:Drivers/icmDriver/_icm20948.c ****     }
 204              		.loc 1 78 9 is_stmt 1 view .LVU54
  78:Drivers/icmDriver/_icm20948.c ****     }
ARM GAS  /tmp/ccpoO1YS.s 			page 6


 205              		.loc 1 78 39 is_stmt 0 view .LVU55
 206 012a 0022     		movs	r2, #0
 207 012c 4260     		str	r2, [r0, #4]
 208              		.loc 1 80 1 view .LVU56
 209 012e F8E7     		b	.L4
 210              	.L8:
 211              		.align	2
 212              	.L7:
 213 0130 00000240 		.word	1073872896
 214 0134 00000000 		.word	icm_rx_buffer
 215 0138 00000000 		.word	icm20948Config
 216 013c 00000000 		.word	raw_data
 217 0140 9A99193E 		.word	1041865114
 218              		.cfi_endproc
 219              	.LFE896:
 221              		.section	.text.is_icm_dma_transmit,"ax",%progbits
 222              		.align	1
 223              		.syntax unified
 224              		.thumb
 225              		.thumb_func
 227              	is_icm_dma_transmit:
 228              	.LFB909:
  81:Drivers/icmDriver/_icm20948.c **** void DMA2_Stream2_IRQHandler(void)
  82:Drivers/icmDriver/_icm20948.c **** {
  83:Drivers/icmDriver/_icm20948.c ****     if (DMA2->LISR & DMA_LISR_TCIF2)
  84:Drivers/icmDriver/_icm20948.c ****     { // Transfer Complete
  85:Drivers/icmDriver/_icm20948.c ****         DMA2->LIFCR |= DMA_LIFCR_CTCIF2;
  86:Drivers/icmDriver/_icm20948.c **** 
  87:Drivers/icmDriver/_icm20948.c ****         icm_spi_Disable();
  88:Drivers/icmDriver/_icm20948.c ****         dmaRX_iqr_SET(icm20948Config.stateIQR);
  89:Drivers/icmDriver/_icm20948.c **** 
  90:Drivers/icmDriver/_icm20948.c ****         if (icm20948Config.dmaTX_callback)
  91:Drivers/icmDriver/_icm20948.c ****             icm20948Config.dmaTX_callback();
  92:Drivers/icmDriver/_icm20948.c ****     }
  93:Drivers/icmDriver/_icm20948.c **** }
  94:Drivers/icmDriver/_icm20948.c **** void DMA2_Stream3_IRQHandler(void)
  95:Drivers/icmDriver/_icm20948.c **** {
  96:Drivers/icmDriver/_icm20948.c ****     if (DMA2->LISR & DMA_LISR_TCIF3)
  97:Drivers/icmDriver/_icm20948.c ****     { // Resiwer Complete
  98:Drivers/icmDriver/_icm20948.c **** 
  99:Drivers/icmDriver/_icm20948.c ****         // addElement(icm_rx_buffer, SPI_DmaBuffSize);
 100:Drivers/icmDriver/_icm20948.c ****         DMA2->LIFCR |= DMA_LIFCR_CTCIF3;
 101:Drivers/icmDriver/_icm20948.c ****         dmaTX_iqr_SET(icm20948Config.stateIQR);
 102:Drivers/icmDriver/_icm20948.c ****     }
 103:Drivers/icmDriver/_icm20948.c **** }
 104:Drivers/icmDriver/_icm20948.c **** void TIM2_IRQHandler(void)
 105:Drivers/icmDriver/_icm20948.c **** {
 106:Drivers/icmDriver/_icm20948.c ****     if (TIM2->SR & TIM_SR_UIF)
 107:Drivers/icmDriver/_icm20948.c ****     {
 108:Drivers/icmDriver/_icm20948.c ****         TIM2->SR = ~TIM_SR_UIF;
 109:Drivers/icmDriver/_icm20948.c ****         icm_spi_Enable();
 110:Drivers/icmDriver/_icm20948.c ****         dmaRX_iqr_CLEAR(icm20948Config.stateIQR);
 111:Drivers/icmDriver/_icm20948.c ****         dmaTX_iqr_CLEAR(icm20948Config.stateIQR);
 112:Drivers/icmDriver/_icm20948.c ****         Dma_Start(TX_DMA_SPI, icm_tx_buffer, SPI_DmaBuffSize);
 113:Drivers/icmDriver/_icm20948.c ****         Dma_Start(RX_DMA_SPI, icm_rx_buffer, SPI_DmaBuffSize);
 114:Drivers/icmDriver/_icm20948.c ****         icm20948Config.mesurement_flag = 1;
 115:Drivers/icmDriver/_icm20948.c ****         icm20948Config.prescalerCount += 1;
ARM GAS  /tmp/ccpoO1YS.s 			page 7


 116:Drivers/icmDriver/_icm20948.c ****         icm20948Config.timer +=1;
 117:Drivers/icmDriver/_icm20948.c ****     }
 118:Drivers/icmDriver/_icm20948.c **** }
 119:Drivers/icmDriver/_icm20948.c **** 
 120:Drivers/icmDriver/_icm20948.c **** // #define is_gyro_accel_config_change (uint8_t)(0x03 & icm20948Config.changeStatus)
 121:Drivers/icmDriver/_icm20948.c **** // #define is_accel_config_change (uint8_t)(0x01 & icm20948Config.changeStatus)
 122:Drivers/icmDriver/_icm20948.c **** // #define is_gyro_config_change (uint8_t)(0x02 & icm20948Config.changeStatus)
 123:Drivers/icmDriver/_icm20948.c **** // #define is_presc_config_change (uint8_t)(0x04 & icm20948Config.changeStatus)
 124:Drivers/icmDriver/_icm20948.c **** 
 125:Drivers/icmDriver/_icm20948.c **** // #define accel_config_change_clear CLEAR_BIT(icm20948Config.changeStatus, 0x01)
 126:Drivers/icmDriver/_icm20948.c **** // #define gyro_config_change_clear CLEAR_BIT(icm20948Config.changeStatus, 0x02)
 127:Drivers/icmDriver/_icm20948.c **** // #define presc_config_change_clear CLEAR_BIT(icm20948Config.changeStatus, 0x04)
 128:Drivers/icmDriver/_icm20948.c **** 
 129:Drivers/icmDriver/_icm20948.c **** // #define accel_config_change_set SET_BIT(icm20948Config.changeStatus, 0x01)
 130:Drivers/icmDriver/_icm20948.c **** // #define gyro_config_change_set SET_BIT(icm20948Config.changeStatus, 0x02)
 131:Drivers/icmDriver/_icm20948.c **** // #define presc_config_change_set SET_BIT(icm20948Config.changeStatus, 0x04)
 132:Drivers/icmDriver/_icm20948.c **** 
 133:Drivers/icmDriver/_icm20948.c **** void change_in_flow(uint32_t prescaler)
 134:Drivers/icmDriver/_icm20948.c **** {
 135:Drivers/icmDriver/_icm20948.c **** 
 136:Drivers/icmDriver/_icm20948.c ****     icm20948_stop_mesurement();
 137:Drivers/icmDriver/_icm20948.c ****     while (!is_icm_dma_transmit())
 138:Drivers/icmDriver/_icm20948.c ****     {
 139:Drivers/icmDriver/_icm20948.c ****         __NOP();
 140:Drivers/icmDriver/_icm20948.c ****     }
 141:Drivers/icmDriver/_icm20948.c **** 
 142:Drivers/icmDriver/_icm20948.c ****     if (is_presc_config_change)
 143:Drivers/icmDriver/_icm20948.c ****     {
 144:Drivers/icmDriver/_icm20948.c ****         icm20948Config.prescaler = prescaler;
 145:Drivers/icmDriver/_icm20948.c ****         icm20948Config.prescalerCount = 0;
 146:Drivers/icmDriver/_icm20948.c ****     }
 147:Drivers/icmDriver/_icm20948.c ****     if (is_gyro_accel_config_change)
 148:Drivers/icmDriver/_icm20948.c ****     {
 149:Drivers/icmDriver/_icm20948.c **** 
 150:Drivers/icmDriver/_icm20948.c ****         icm20948Config.dmaTX_callback = Dma_Mpu_Config_Callback;
 151:Drivers/icmDriver/_icm20948.c ****         Spi1_Disable();
 152:Drivers/icmDriver/_icm20948.c ****         MODIFY_REG(SPI1->CR1, SPI_CR1_BR_Msk, SPI_BAUDRATEPRESCALER_DIV128);
 153:Drivers/icmDriver/_icm20948.c ****         Spi1_Enable();
 154:Drivers/icmDriver/_icm20948.c **** 
 155:Drivers/icmDriver/_icm20948.c ****         SET_BIT(SPI1->CR2, SPI_CR2_TXDMAEN | SPI_CR2_RXDMAEN);
 156:Drivers/icmDriver/_icm20948.c **** 
 157:Drivers/icmDriver/_icm20948.c ****         LL_GPIO_TogglePin(LD1_GPIO_Port, LD1_Pin);
 158:Drivers/icmDriver/_icm20948.c ****         delay_ms(100);
 159:Drivers/icmDriver/_icm20948.c **** 
 160:Drivers/icmDriver/_icm20948.c ****         LL_GPIO_TogglePin(LD1_GPIO_Port, LD1_Pin);
 161:Drivers/icmDriver/_icm20948.c ****         LL_GPIO_TogglePin(LD3_GPIO_Port, LD3_Pin);
 162:Drivers/icmDriver/_icm20948.c ****         Select_Bank(2);
 163:Drivers/icmDriver/_icm20948.c ****         // delay_ms(1);
 164:Drivers/icmDriver/_icm20948.c **** 
 165:Drivers/icmDriver/_icm20948.c ****         if (is_accel_config_change)
 166:Drivers/icmDriver/_icm20948.c ****         {
 167:Drivers/icmDriver/_icm20948.c **** 
 168:Drivers/icmDriver/_icm20948.c ****             uint8_t temp = Spi_Dma_Read(B2_ACCEL_CONFIG);
 169:Drivers/icmDriver/_icm20948.c ****             MODIFY_REG(temp, (0x03 << 1), icm20948Config.accel_conf);
 170:Drivers/icmDriver/_icm20948.c ****             Spi_Dma_Write(B2_ACCEL_CONFIG, temp);
 171:Drivers/icmDriver/_icm20948.c ****             icm20948Config.inv_accel_sens = ((float)(1 << icm20948Config.accel_conf)) * 2.0f / 3276
 172:Drivers/icmDriver/_icm20948.c ****         }
ARM GAS  /tmp/ccpoO1YS.s 			page 8


 173:Drivers/icmDriver/_icm20948.c ****         if (is_gyro_config_change)
 174:Drivers/icmDriver/_icm20948.c ****         {
 175:Drivers/icmDriver/_icm20948.c **** 
 176:Drivers/icmDriver/_icm20948.c ****             uint8_t temp = Spi_Dma_Read(B2_GYRO_CONFIG_1);
 177:Drivers/icmDriver/_icm20948.c ****             MODIFY_REG(temp, (0x03 << 1), icm20948Config.gyro_conf);
 178:Drivers/icmDriver/_icm20948.c ****             Spi_Dma_Write(B2_GYRO_CONFIG_1, temp);
 179:Drivers/icmDriver/_icm20948.c ****             icm20948Config.inv_gyro_sens = ((float)(1 << icm20948Config.gyro_conf)) * 250.0f / 3276
 180:Drivers/icmDriver/_icm20948.c ****         }
 181:Drivers/icmDriver/_icm20948.c **** 
 182:Drivers/icmDriver/_icm20948.c ****         Select_Bank(0);
 183:Drivers/icmDriver/_icm20948.c ****         Spi1_Disable();
 184:Drivers/icmDriver/_icm20948.c ****         MODIFY_REG(SPI1->CR1, SPI_CR1_BR_Msk, SPI_BAUDRATEPRESCALER_DIV16);
 185:Drivers/icmDriver/_icm20948.c ****         Spi1_Enable();
 186:Drivers/icmDriver/_icm20948.c ****         SET_BIT(SPI1->CR2, SPI_CR2_TXDMAEN | SPI_CR2_RXDMAEN);
 187:Drivers/icmDriver/_icm20948.c ****     }
 188:Drivers/icmDriver/_icm20948.c **** 
 189:Drivers/icmDriver/_icm20948.c ****     icm20948Config.dmaTX_callback = Dma_Transmit_Callback;
 190:Drivers/icmDriver/_icm20948.c ****     icm20948_start_mesurement();
 191:Drivers/icmDriver/_icm20948.c **** }
 192:Drivers/icmDriver/_icm20948.c **** 
 193:Drivers/icmDriver/_icm20948.c **** void icm20948_init()
 194:Drivers/icmDriver/_icm20948.c **** {
 195:Drivers/icmDriver/_icm20948.c **** 
 196:Drivers/icmDriver/_icm20948.c ****     SET_BIT(RCC->AHB1ENR, RCC_AHB1ENR_GPIOAEN);
 197:Drivers/icmDriver/_icm20948.c ****     SET_BIT(RCC->AHB1ENR, RCC_AHB1ENR_GPIODEN);
 198:Drivers/icmDriver/_icm20948.c **** 
 199:Drivers/icmDriver/_icm20948.c ****     uint32_t Gpio_Moder_Msk = GPIO_MODER_MODER3_Msk | GPIO_MODER_MODER5_Msk | GPIO_MODER_MODER6_Msk
 200:Drivers/icmDriver/_icm20948.c ****     uint32_t Gpio_Moder = GPIO_MODER_MODER5_1 | GPIO_MODER_MODER6_1 | GPIO_MODER_MODER3_0;
 201:Drivers/icmDriver/_icm20948.c ****     MODIFY_REG(GPIOA->MODER, Gpio_Moder_Msk, Gpio_Moder);
 202:Drivers/icmDriver/_icm20948.c ****     MODIFY_REG(GPIOD->MODER, GPIO_MODER_MODER7_Msk, GPIO_MODER_MODER7_1);
 203:Drivers/icmDriver/_icm20948.c **** 
 204:Drivers/icmDriver/_icm20948.c ****     uint32_t Gpio_Arf_0 = (AF05 << GPIO_AFRL_AFRL5_Pos) | (AF05 << GPIO_AFRL_AFRL6_Pos);
 205:Drivers/icmDriver/_icm20948.c ****     uint32_t Gpio_Arf_Msk = GPIO_AFRL_AFRL5_Msk | GPIO_AFRL_AFRL6_Msk;
 206:Drivers/icmDriver/_icm20948.c ****     MODIFY_REG(GPIOA->AFR[0], Gpio_Arf_Msk, Gpio_Arf_0);
 207:Drivers/icmDriver/_icm20948.c ****     MODIFY_REG(GPIOD->AFR[0], GPIO_AFRL_AFRL7_Msk, (AF05 << GPIO_AFRL_AFRL7_Pos));
 208:Drivers/icmDriver/_icm20948.c **** 
 209:Drivers/icmDriver/_icm20948.c ****     SET_BIT(RCC->APB2ENR, RCC_APB2ENR_SPI1EN);
 210:Drivers/icmDriver/_icm20948.c ****     uint32_t Spi_Cr1 = 0;
 211:Drivers/icmDriver/_icm20948.c ****     uint32_t Spi_Cr2 = 0;
 212:Drivers/icmDriver/_icm20948.c ****     Spi_Cr1 = SPI_CR1_MSTR | SPI_CR1_SSM | SPI_CR1_SSI | SPI_BAUDRATEPRESCALER_DIV128;
 213:Drivers/icmDriver/_icm20948.c ****     //				|SPI_CR1_CPOL | SPI_CR1_CPHA;
 214:Drivers/icmDriver/_icm20948.c ****     Spi_Cr2 = SPI_DATAWIDTH_8BIT | SPI_CR2_FRXTH;
 215:Drivers/icmDriver/_icm20948.c ****     WRITE_REG(SPI1->CR1, Spi_Cr1);
 216:Drivers/icmDriver/_icm20948.c ****     WRITE_REG(SPI1->CR2, Spi_Cr2);
 217:Drivers/icmDriver/_icm20948.c **** 
 218:Drivers/icmDriver/_icm20948.c ****     /*---------------------------------------------------*/
 219:Drivers/icmDriver/_icm20948.c ****     /*---------------------------------------------------*/
 220:Drivers/icmDriver/_icm20948.c ****     /*---------------------------------------------------*/
 221:Drivers/icmDriver/_icm20948.c ****     /*---------------------------------------------------*/
 222:Drivers/icmDriver/_icm20948.c ****     // TX_DMA_INIT Stream DMA2_Stream3
 223:Drivers/icmDriver/_icm20948.c **** 
 224:Drivers/icmDriver/_icm20948.c ****     SET_BIT(RCC->AHB1ENR, RCC_AHB1ENR_DMA2EN);
 225:Drivers/icmDriver/_icm20948.c ****     Dma_Disable(DMA2_Stream3);
 226:Drivers/icmDriver/_icm20948.c ****     Dma_Disable(DMA2_Stream2);
 227:Drivers/icmDriver/_icm20948.c **** 
 228:Drivers/icmDriver/_icm20948.c ****     uint32_t Dma2_Lifcr = DMA_LIFCR_CTCIF3 | DMA_LIFCR_CHTIF3 | DMA_LIFCR_CTEIF3 |
 229:Drivers/icmDriver/_icm20948.c ****                           DMA_LIFCR_CDMEIF3 | DMA_LIFCR_CFEIF3 |
ARM GAS  /tmp/ccpoO1YS.s 			page 9


 230:Drivers/icmDriver/_icm20948.c ****                           DMA_LIFCR_CTCIF2 | DMA_LIFCR_CHTIF2 | DMA_LIFCR_CTEIF2 |
 231:Drivers/icmDriver/_icm20948.c ****                           DMA_LIFCR_CDMEIF2 | DMA_LIFCR_CFEIF2;
 232:Drivers/icmDriver/_icm20948.c ****     SET_BIT(DMA2->LIFCR, Dma2_Lifcr);
 233:Drivers/icmDriver/_icm20948.c **** 
 234:Drivers/icmDriver/_icm20948.c ****     uint32_t Dma2_Stream3_Cr = (DMA_CHSEL(3)) | DMA_SxCR_PL_0 |
 235:Drivers/icmDriver/_icm20948.c ****                                DMA_SxCR_MINC | DMA_SxCR_TCIE |
 236:Drivers/icmDriver/_icm20948.c ****                                DMA_SxCR_DIR_0;
 237:Drivers/icmDriver/_icm20948.c ****     CLEAR_REG(DMA2_Stream3->CR);
 238:Drivers/icmDriver/_icm20948.c ****     SET_BIT(DMA2_Stream3->CR, Dma2_Stream3_Cr);
 239:Drivers/icmDriver/_icm20948.c **** 
 240:Drivers/icmDriver/_icm20948.c ****     uint32_t Dma2_Stream2_Cr = (DMA_CHSEL(3)) | DMA_SxCR_PL_0 |
 241:Drivers/icmDriver/_icm20948.c ****                                DMA_SxCR_MINC | DMA_SxCR_TCIE;
 242:Drivers/icmDriver/_icm20948.c ****     CLEAR_REG(DMA2_Stream2->CR);
 243:Drivers/icmDriver/_icm20948.c ****     SET_BIT(DMA2_Stream2->CR, Dma2_Stream2_Cr);
 244:Drivers/icmDriver/_icm20948.c ****     // RX_DMA_INIT Stream DMA2_Stream2
 245:Drivers/icmDriver/_icm20948.c **** 
 246:Drivers/icmDriver/_icm20948.c ****     DMA2_Stream3->PAR = (uint32_t)&(SPI1->DR);
 247:Drivers/icmDriver/_icm20948.c ****     DMA2_Stream2->PAR = (uint32_t)&(SPI1->DR); // rx
 248:Drivers/icmDriver/_icm20948.c **** 
 249:Drivers/icmDriver/_icm20948.c ****     NVIC_EnableIRQ(DMA2_Stream2_IRQn);
 250:Drivers/icmDriver/_icm20948.c ****     NVIC_EnableIRQ(DMA2_Stream3_IRQn);
 251:Drivers/icmDriver/_icm20948.c ****     NVIC_SetPriority(DMA2_Stream2_IRQn, 5);
 252:Drivers/icmDriver/_icm20948.c ****     NVIC_SetPriority(DMA2_Stream3_IRQn, 5);
 253:Drivers/icmDriver/_icm20948.c ****     for (uint8_t i = 0; i < SPI_DmaBuffSize; i++)
 254:Drivers/icmDriver/_icm20948.c ****     {
 255:Drivers/icmDriver/_icm20948.c ****         icm_tx_buffer[i] = 0;
 256:Drivers/icmDriver/_icm20948.c ****         icm_rx_buffer[i] = 0;
 257:Drivers/icmDriver/_icm20948.c ****     }
 258:Drivers/icmDriver/_icm20948.c ****     icm20948Config.data.byte[0] = '#';
 259:Drivers/icmDriver/_icm20948.c ****     icm20948Config.data.byte[1] = '#';
 260:Drivers/icmDriver/_icm20948.c ****     icm20948Config.data.byte[2] = '#';
 261:Drivers/icmDriver/_icm20948.c ****     icm20948Config.data.byte[3] = '#';
 262:Drivers/icmDriver/_icm20948.c **** 
 263:Drivers/icmDriver/_icm20948.c ****     icm_spi_Disable();
 264:Drivers/icmDriver/_icm20948.c ****     // TIM2 ------------------------------------------- //
 265:Drivers/icmDriver/_icm20948.c ****     SET_BIT(RCC->APB1ENR, RCC_APB1ENR_TIM2EN);
 266:Drivers/icmDriver/_icm20948.c ****     CLEAR_REG(TIM2->CR1);
 267:Drivers/icmDriver/_icm20948.c ****     CLEAR_REG(TIM2->CR2);
 268:Drivers/icmDriver/_icm20948.c ****     TIM2->PSC = icm20948Config.timPre;
 269:Drivers/icmDriver/_icm20948.c ****     TIM2->ARR = icm20948Config.timArr;
 270:Drivers/icmDriver/_icm20948.c ****     CLEAR_BIT(TIM2->SR, TIM_SR_UIF); // 1e3 čéąĖą║ąŠą▓: 1e-6 * 1e3 = 1e-3 c
 271:Drivers/icmDriver/_icm20948.c ****     SET_BIT(TIM2->DIER, TIM_DIER_UIE);
 272:Drivers/icmDriver/_icm20948.c ****     NVIC_EnableIRQ(TIM2_IRQn);
 273:Drivers/icmDriver/_icm20948.c ****     NVIC_SetPriority(TIM2_IRQn, 0);
 274:Drivers/icmDriver/_icm20948.c **** 
 275:Drivers/icmDriver/_icm20948.c ****     icm20948Config.dmaTX_callback = Dma_Mpu_Config_Callback;
 276:Drivers/icmDriver/_icm20948.c ****     // TIM7 ------------------------------------------- //
 277:Drivers/icmDriver/_icm20948.c ****     RCC->APB1ENR |= RCC_APB1ENR_TIM7EN;
 278:Drivers/icmDriver/_icm20948.c ****     CLEAR_REG(TIM7->CR1);
 279:Drivers/icmDriver/_icm20948.c ****     CLEAR_REG(TIM7->CR2);
 280:Drivers/icmDriver/_icm20948.c ****     TIM7->PSC = 10799;          // ąöąĄą╗ąĖčéąĄą╗čī 96: 96 MHz / 96 => 1 čéąĖą║ 1e-4 s. =>
 281:Drivers/icmDriver/_icm20948.c ****     TIM7->ARR = 9;              // 10 čéąĖą║ąŠą▓: 1e-4 * 1e1 = 1e-3 c
 282:Drivers/icmDriver/_icm20948.c ****     TIM7->SR = ~TIM_SR_UIF;     // ąĪą▒čĆąŠčü čäą╗ą░ą│ą░ ąŠą▒ąĮąŠą▓ą╗ąĄąĮąĖčÅ
 283:Drivers/icmDriver/_icm20948.c ****     TIM7->DIER |= TIM_DIER_UIE; // ąĀą░ąĘčĆąĄčłąĖčéčī ą┐čĆąĄčĆčŗą▓ą░ąĮąĖąĄ ą┐ąŠ ą┐ąĄčĆąĄą┐ąŠą╗ąĮąĄą
 284:Drivers/icmDriver/_icm20948.c ****     // TIM7->CR1 |= TIM_CR1_CEN;
 285:Drivers/icmDriver/_icm20948.c ****     NVIC_EnableIRQ(TIM7_IRQn);
 286:Drivers/icmDriver/_icm20948.c ****     NVIC_SetPriority(TIM7_IRQn, 0);
ARM GAS  /tmp/ccpoO1YS.s 			page 10


 287:Drivers/icmDriver/_icm20948.c **** }
 288:Drivers/icmDriver/_icm20948.c **** volatile uint16_t timerCount = 0;
 289:Drivers/icmDriver/_icm20948.c **** void delay_ms(uint16_t ms)
 290:Drivers/icmDriver/_icm20948.c **** {
 291:Drivers/icmDriver/_icm20948.c **** 
 292:Drivers/icmDriver/_icm20948.c ****     // LL_GPIO_TogglePin(LD2_GPIO_Port, LD2_Pin);
 293:Drivers/icmDriver/_icm20948.c ****     timerCount = ms;
 294:Drivers/icmDriver/_icm20948.c ****     // TIM7->CNT = 0;
 295:Drivers/icmDriver/_icm20948.c ****     NVIC_EnableIRQ(TIM7_IRQn);
 296:Drivers/icmDriver/_icm20948.c ****     TIM7->CR1 |= TIM_CR1_CEN;
 297:Drivers/icmDriver/_icm20948.c ****     while (timerCount)
 298:Drivers/icmDriver/_icm20948.c ****     {
 299:Drivers/icmDriver/_icm20948.c ****         __NOP();
 300:Drivers/icmDriver/_icm20948.c ****     }
 301:Drivers/icmDriver/_icm20948.c ****     NVIC_DisableIRQ(TIM7_IRQn);
 302:Drivers/icmDriver/_icm20948.c ****     // CLEAR_BIT(TIM7->CR1, TIM_CR1_CEN);
 303:Drivers/icmDriver/_icm20948.c ****     timerCount = 0;
 304:Drivers/icmDriver/_icm20948.c **** }
 305:Drivers/icmDriver/_icm20948.c **** void TIM7_IRQHandler(void)
 306:Drivers/icmDriver/_icm20948.c **** {
 307:Drivers/icmDriver/_icm20948.c ****     if (TIM7->SR & TIM_SR_UIF)
 308:Drivers/icmDriver/_icm20948.c ****     {
 309:Drivers/icmDriver/_icm20948.c ****         TIM7->SR = ~TIM_SR_UIF;
 310:Drivers/icmDriver/_icm20948.c ****         timerCount--;
 311:Drivers/icmDriver/_icm20948.c ****     }
 312:Drivers/icmDriver/_icm20948.c **** }
 313:Drivers/icmDriver/_icm20948.c **** 
 314:Drivers/icmDriver/_icm20948.c **** void icm20948_start_mesurement()
 315:Drivers/icmDriver/_icm20948.c **** {
 316:Drivers/icmDriver/_icm20948.c ****     SET_BIT(TIM2->CR1, TIM_CR1_CEN);
 317:Drivers/icmDriver/_icm20948.c **** }
 318:Drivers/icmDriver/_icm20948.c **** void icm20948_stop_mesurement()
 319:Drivers/icmDriver/_icm20948.c **** {
 320:Drivers/icmDriver/_icm20948.c ****     CLEAR_BIT(TIM2->CR1, TIM_CR1_CEN);
 321:Drivers/icmDriver/_icm20948.c **** }
 322:Drivers/icmDriver/_icm20948.c **** 
 323:Drivers/icmDriver/_icm20948.c **** void icm20948_start()
 324:Drivers/icmDriver/_icm20948.c **** {
 325:Drivers/icmDriver/_icm20948.c **** 
 326:Drivers/icmDriver/_icm20948.c ****     LL_GPIO_TogglePin(LD2_GPIO_Port,LD2_Pin);
 327:Drivers/icmDriver/_icm20948.c ****     Spi1_Enable();
 328:Drivers/icmDriver/_icm20948.c ****     SET_BIT(SPI1->CR2, SPI_CR2_TXDMAEN | SPI_CR2_RXDMAEN);
 329:Drivers/icmDriver/_icm20948.c ****     Select_Bank(0);
 330:Drivers/icmDriver/_icm20948.c ****     delay_ms(5);
 331:Drivers/icmDriver/_icm20948.c ****     uint8_t temp = 0x00;
 332:Drivers/icmDriver/_icm20948.c ****     // ą©ą░ą│ 1.2: ąĪą▒čĆąŠčü čāčüčéčĆąŠą╣čüčéą▓ą░
 333:Drivers/icmDriver/_icm20948.c ****     temp = Spi_Dma_Read(B0_PWR_MGMT_1);
 334:Drivers/icmDriver/_icm20948.c ****     temp |= 0x80;
 335:Drivers/icmDriver/_icm20948.c ****     Spi_Dma_Write(B0_PWR_MGMT_1, 0x80);
 336:Drivers/icmDriver/_icm20948.c ****     delay_ms(500);
 337:Drivers/icmDriver/_icm20948.c **** 
 338:Drivers/icmDriver/_icm20948.c ****     // ą©ą░ą│ 2: ą¤čĆąŠą▒čāąČą┤ąĄąĮąĖąĄ čāčüčéčĆąŠą╣čüčéą▓ą░
 339:Drivers/icmDriver/_icm20948.c ****     temp = 0x01;
 340:Drivers/icmDriver/_icm20948.c ****     Spi_Dma_Write(B0_PWR_MGMT_1, temp);
 341:Drivers/icmDriver/_icm20948.c ****     delay_ms(300);
 342:Drivers/icmDriver/_icm20948.c **** 
 343:Drivers/icmDriver/_icm20948.c ****     LL_GPIO_TogglePin(LD2_GPIO_Port,LD2_Pin);
ARM GAS  /tmp/ccpoO1YS.s 			page 11


 344:Drivers/icmDriver/_icm20948.c ****     // ą©ą░ą│ 3: ąÆčŗą▒ąŠčĆ čćą░čüąŠą▓ (ą▒ąĖčé 1)
 345:Drivers/icmDriver/_icm20948.c ****     temp = 0x01;
 346:Drivers/icmDriver/_icm20948.c ****     Spi_Dma_Write(B0_PWR_MGMT_1, temp);
 347:Drivers/icmDriver/_icm20948.c ****     delay_ms(100);
 348:Drivers/icmDriver/_icm20948.c **** 
 349:Drivers/icmDriver/_icm20948.c ****     // ą©ą░ą│ 4: SPI ąĖąĮčéąĄčĆčäąĄą╣čü
 350:Drivers/icmDriver/_icm20948.c ****     temp = 0x10;
 351:Drivers/icmDriver/_icm20948.c ****     Spi_Dma_Write(B0_USER_CTRL, temp);
 352:Drivers/icmDriver/_icm20948.c ****     delay_ms(10);
 353:Drivers/icmDriver/_icm20948.c **** 
 354:Drivers/icmDriver/_icm20948.c ****     LL_GPIO_TogglePin(LD2_GPIO_Port,LD2_Pin);
 355:Drivers/icmDriver/_icm20948.c ****     Select_Bank(2);
 356:Drivers/icmDriver/_icm20948.c **** 
 357:Drivers/icmDriver/_icm20948.c ****     uint8_t accel_config = 0x01 | (icm20948Config.accel_conf << 1);
 358:Drivers/icmDriver/_icm20948.c ****     Spi_Dma_Write(B2_ACCEL_CONFIG, accel_config);
 359:Drivers/icmDriver/_icm20948.c ****     delay_ms(40);
 360:Drivers/icmDriver/_icm20948.c ****     uint8_t gyro_config = 0x01 | (icm20948Config.gyro_conf << 1);
 361:Drivers/icmDriver/_icm20948.c ****     Spi_Dma_Write(B2_GYRO_CONFIG_1, gyro_config);
 362:Drivers/icmDriver/_icm20948.c ****     delay_ms(40);
 363:Drivers/icmDriver/_icm20948.c **** 
 364:Drivers/icmDriver/_icm20948.c ****     icm20948Config.inv_accel_sens = ((float)(1 << icm20948Config.accel_conf)) * 2.0f / 32767.0f;
 365:Drivers/icmDriver/_icm20948.c ****     icm20948Config.inv_gyro_sens = ((float)(1 << icm20948Config.gyro_conf)) * 250.0f / 32767.0f;
 366:Drivers/icmDriver/_icm20948.c ****     // ========== ąØąÉąĪąóąĀą×ąÖąÜąÉ ą£ąÉąōąØąśąóą×ą£ąĢąóąĀąÉ ==========
 367:Drivers/icmDriver/_icm20948.c ****     Spi_Dma_Write(B2_ODR_ALIGN_EN, 1); // ą▓čŗčĆą░ą▓ąĮąĖą▓ą░ąĮąĖąĄ ODR
 368:Drivers/icmDriver/_icm20948.c ****     delay_ms(5);
 369:Drivers/icmDriver/_icm20948.c **** 
 370:Drivers/icmDriver/_icm20948.c ****     Select_Bank(0);
 371:Drivers/icmDriver/_icm20948.c ****     delay_ms(5);
 372:Drivers/icmDriver/_icm20948.c **** 
 373:Drivers/icmDriver/_icm20948.c ****     temp = Spi_Dma_Read(B0_USER_CTRL); // čüą▒čĆąŠčü I2C Master
 374:Drivers/icmDriver/_icm20948.c ****     temp |= (1 << 1);
 375:Drivers/icmDriver/_icm20948.c ****     Spi_Dma_Write(B0_USER_CTRL, temp);
 376:Drivers/icmDriver/_icm20948.c ****     delay_ms(100); // ą▒čŗą╗ąŠ HAL_Delay(100)
 377:Drivers/icmDriver/_icm20948.c **** 
 378:Drivers/icmDriver/_icm20948.c ****     LL_GPIO_TogglePin(LD2_GPIO_Port,LD2_Pin);
 379:Drivers/icmDriver/_icm20948.c ****     temp = Spi_Dma_Read(B0_USER_CTRL); // ą▓ą║ą╗čÄčćąĖčéčī I2C Master
 380:Drivers/icmDriver/_icm20948.c ****     temp |= (1 << 5);
 381:Drivers/icmDriver/_icm20948.c ****     Spi_Dma_Write(B0_USER_CTRL, temp);
 382:Drivers/icmDriver/_icm20948.c ****     delay_ms(10); // ą▒čŗą╗ąŠ HAL_Delay(10)
 383:Drivers/icmDriver/_icm20948.c **** 
 384:Drivers/icmDriver/_icm20948.c ****     Select_Bank(3);
 385:Drivers/icmDriver/_icm20948.c ****     delay_ms(5);
 386:Drivers/icmDriver/_icm20948.c ****     Spi_Dma_Write(B3_I2C_MST_CTRL, 0x07); // čćą░čüčéąŠčéą░ I2C
 387:Drivers/icmDriver/_icm20948.c ****     delay_ms(10);
 388:Drivers/icmDriver/_icm20948.c **** 
 389:Drivers/icmDriver/_icm20948.c ****     Select_Bank(0);
 390:Drivers/icmDriver/_icm20948.c ****     delay_ms(5);
 391:Drivers/icmDriver/_icm20948.c ****     Spi_Dma_Write(B0_LP_CONFIG, (1 << 6)); // duty cycle mode
 392:Drivers/icmDriver/_icm20948.c ****     delay_ms(100);
 393:Drivers/icmDriver/_icm20948.c **** 
 394:Drivers/icmDriver/_icm20948.c ****     LL_GPIO_TogglePin(LD2_GPIO_Port,LD2_Pin);
 395:Drivers/icmDriver/_icm20948.c ****     Select_Bank(3);
 396:Drivers/icmDriver/_icm20948.c ****     delay_ms(5);
 397:Drivers/icmDriver/_icm20948.c ****     Spi_Dma_Write(B3_I2C_MST_ODR_CONFIG, 0x03); // ODR 137 ąōčå
 398:Drivers/icmDriver/_icm20948.c ****     delay_ms(10);
 399:Drivers/icmDriver/_icm20948.c **** 
 400:Drivers/icmDriver/_icm20948.c ****     // ąĪą▒čĆąŠčü ą╝ą░ą│ąĮąĖčéą░ (CNTL3 = 0x01)
ARM GAS  /tmp/ccpoO1YS.s 			page 12


 401:Drivers/icmDriver/_icm20948.c ****     Spi_Dma_Write(B3_I2C_SLV0_ADDR, MAG_SLAVE_ADDR);
 402:Drivers/icmDriver/_icm20948.c ****     Spi_Dma_Write(B3_I2C_SLV0_REG, MAG_CNTL3);
 403:Drivers/icmDriver/_icm20948.c ****     Spi_Dma_Write(B3_I2C_SLV0_DO, 0x01);
 404:Drivers/icmDriver/_icm20948.c ****     Spi_Dma_Write(B3_I2C_SLV0_CTRL, 0x80 | 0x01);
 405:Drivers/icmDriver/_icm20948.c ****     delay_ms(50);
 406:Drivers/icmDriver/_icm20948.c **** 
 407:Drivers/icmDriver/_icm20948.c ****     // ąØąĄą┐čĆąĄčĆčŗą▓ąĮčŗą╣ čĆąĄąČąĖą╝ 4 (CNTL2 = 0x08)
 408:Drivers/icmDriver/_icm20948.c ****     Spi_Dma_Write(B3_I2C_SLV0_ADDR, MAG_SLAVE_ADDR);
 409:Drivers/icmDriver/_icm20948.c ****     Spi_Dma_Write(B3_I2C_SLV0_REG, MAG_CNTL2);
 410:Drivers/icmDriver/_icm20948.c ****     Spi_Dma_Write(B3_I2C_SLV0_DO, (1 << 3));
 411:Drivers/icmDriver/_icm20948.c ****     Spi_Dma_Write(B3_I2C_SLV0_CTRL, 0x80 | 0x01);
 412:Drivers/icmDriver/_icm20948.c ****     delay_ms(50);
 413:Drivers/icmDriver/_icm20948.c **** 
 414:Drivers/icmDriver/_icm20948.c ****     LL_GPIO_TogglePin(LD2_GPIO_Port,LD2_Pin);
 415:Drivers/icmDriver/_icm20948.c ****     // ąÉą▓čéąŠą╝ą░čéąĖčćąĄčüą║ąŠąĄ čćčéąĄąĮąĖąĄ 9 ą▒ą░ą╣čé ąĮą░čćąĖąĮą░čÅ čü čĆąĄą│ąĖčüčéčĆą░ 0x10
 416:Drivers/icmDriver/_icm20948.c ****     Spi_Dma_Write(B3_I2C_SLV0_ADDR, MAG_SLAVE_ADDR | 0x80);
 417:Drivers/icmDriver/_icm20948.c ****     Spi_Dma_Write(B3_I2C_SLV0_REG, 0x10);
 418:Drivers/icmDriver/_icm20948.c ****     Spi_Dma_Write(B3_I2C_SLV0_CTRL, 0x80 | 9);
 419:Drivers/icmDriver/_icm20948.c ****     delay_ms(100);
 420:Drivers/icmDriver/_icm20948.c **** 
 421:Drivers/icmDriver/_icm20948.c ****     Select_Bank(0);
 422:Drivers/icmDriver/_icm20948.c ****     Spi_Dma_Write(B0_USER_CTRL, 0x20); // čāčüčéą░ąĮąŠą▓ąĖčéčī I2C_MST_EN = 1
 423:Drivers/icmDriver/_icm20948.c ****     delay_ms(100);                     // ą┤ą░čéčī ą▓čĆąĄą╝čÅ ąĮą░ ą┐ąĄčĆą▓čŗą╣ čåąĖą║ą╗
 424:Drivers/icmDriver/_icm20948.c ****                    // ąÆąŠąĘą▓čĆą░čé ą▓ Bank 0 ąĖ čćčéąĄąĮąĖąĄ WHO_AM_I
 425:Drivers/icmDriver/_icm20948.c ****     // LL_GPIO_TogglePin(LD2_GPIO_Port,LD2_Pin);
 426:Drivers/icmDriver/_icm20948.c ****     Select_Bank(0);
 427:Drivers/icmDriver/_icm20948.c ****     delay_ms(5);
 428:Drivers/icmDriver/_icm20948.c ****     uint8_t status = Spi_Dma_Read(B0_WHO_AM_I);
 429:Drivers/icmDriver/_icm20948.c ****     delay_ms(100);
 430:Drivers/icmDriver/_icm20948.c **** 
 431:Drivers/icmDriver/_icm20948.c ****     //	icm20948_update_gyro_config();
 432:Drivers/icmDriver/_icm20948.c ****     //	icm20948_update_accel_config();
 433:Drivers/icmDriver/_icm20948.c **** 
 434:Drivers/icmDriver/_icm20948.c ****     Spi1_Disable();
 435:Drivers/icmDriver/_icm20948.c ****     SET_BIT(SPI1->CR1, SPI_BAUDRATEPRESCALER_DIV16);
 436:Drivers/icmDriver/_icm20948.c ****     Spi1_Enable();
 437:Drivers/icmDriver/_icm20948.c ****     SET_BIT(SPI1->CR2, SPI_CR2_TXDMAEN | SPI_CR2_RXDMAEN);
 438:Drivers/icmDriver/_icm20948.c ****     icm_tx_buffer[0] = 0x80 | B0_ACCEL_XOUT_H;
 439:Drivers/icmDriver/_icm20948.c **** }
 440:Drivers/icmDriver/_icm20948.c **** 
 441:Drivers/icmDriver/_icm20948.c **** void Spi_Dma_Write(uint8_t reg, uint8_t data)
 442:Drivers/icmDriver/_icm20948.c **** {
 443:Drivers/icmDriver/_icm20948.c ****     dmaTX_iqr_CLEAR(icm20948Config.stateIQR);
 444:Drivers/icmDriver/_icm20948.c ****     dmaRX_iqr_CLEAR(icm20948Config.stateIQR);
 445:Drivers/icmDriver/_icm20948.c ****     debug_string[0] = reg;
 446:Drivers/icmDriver/_icm20948.c ****     debug_string[1] = data;
 447:Drivers/icmDriver/_icm20948.c ****     icm_spi_Enable();
 448:Drivers/icmDriver/_icm20948.c ****     Dma_Start(TX_DMA_SPI, debug_string, 2);
 449:Drivers/icmDriver/_icm20948.c ****     Dma_Start(RX_DMA_SPI, debug_string, 2);
 450:Drivers/icmDriver/_icm20948.c ****     while (!is_icm_dma_transmit())
 451:Drivers/icmDriver/_icm20948.c ****     {
 452:Drivers/icmDriver/_icm20948.c ****         __NOP();
 453:Drivers/icmDriver/_icm20948.c ****     }
 454:Drivers/icmDriver/_icm20948.c ****     icm_spi_Disable();
 455:Drivers/icmDriver/_icm20948.c **** }
 456:Drivers/icmDriver/_icm20948.c **** uint8_t Spi_Dma_Read(uint8_t reg)
 457:Drivers/icmDriver/_icm20948.c **** {
ARM GAS  /tmp/ccpoO1YS.s 			page 13


 458:Drivers/icmDriver/_icm20948.c **** 
 459:Drivers/icmDriver/_icm20948.c ****     dmaTX_iqr_CLEAR(icm20948Config.stateIQR);
 460:Drivers/icmDriver/_icm20948.c ****     dmaRX_iqr_CLEAR(icm20948Config.stateIQR);
 461:Drivers/icmDriver/_icm20948.c **** 
 462:Drivers/icmDriver/_icm20948.c ****     debug_string[0] = reg | 0x80;
 463:Drivers/icmDriver/_icm20948.c ****     debug_string[1] = 0;
 464:Drivers/icmDriver/_icm20948.c **** 
 465:Drivers/icmDriver/_icm20948.c ****     icm_spi_Enable();
 466:Drivers/icmDriver/_icm20948.c ****     Dma_Start(TX_DMA_SPI, debug_string, 2);
 467:Drivers/icmDriver/_icm20948.c ****     Dma_Start(RX_DMA_SPI, debug_string, 2);
 468:Drivers/icmDriver/_icm20948.c ****     while (!is_icm_dma_transmit())
 469:Drivers/icmDriver/_icm20948.c ****     {
 470:Drivers/icmDriver/_icm20948.c ****         __NOP();
 471:Drivers/icmDriver/_icm20948.c ****     }
 472:Drivers/icmDriver/_icm20948.c ****     icm_spi_Disable();
 473:Drivers/icmDriver/_icm20948.c ****     return debug_string[1];
 474:Drivers/icmDriver/_icm20948.c **** }
 475:Drivers/icmDriver/_icm20948.c **** static uint8_t is_icm_dma_transmit()
 476:Drivers/icmDriver/_icm20948.c **** {
 229              		.loc 1 476 1 is_stmt 1 view -0
 230              		.cfi_startproc
 231              		@ args = 0, pretend = 0, frame = 0
 232              		@ frame_needed = 0, uses_anonymous_args = 0
 233              		@ link register save eliminated.
 477:Drivers/icmDriver/_icm20948.c ****     if (dmaRX_iqr_GET(icm20948Config.stateIQR) && dmaTX_iqr_GET(icm20948Config.stateIQR))
 234              		.loc 1 477 5 view .LVU58
 235              		.loc 1 477 9 is_stmt 0 view .LVU59
 236 0000 094B     		ldr	r3, .L11
 237 0002 93F83630 		ldrb	r3, [r3, #54]	@ zero_extendqisi2
 238              		.loc 1 477 8 view .LVU60
 239 0006 13F00400 		ands	r0, r3, #4
 240 000a 0CD0     		beq	.L10
 241              		.loc 1 477 48 discriminator 1 view .LVU61
 242 000c 13F00200 		ands	r0, r3, #2
 243 0010 09D0     		beq	.L10
 478:Drivers/icmDriver/_icm20948.c ****     {
 479:Drivers/icmDriver/_icm20948.c **** 
 480:Drivers/icmDriver/_icm20948.c ****         dmaRX_iqr_CLEAR(icm20948Config.stateIQR);
 244              		.loc 1 480 9 is_stmt 1 view .LVU62
 245 0012 054A     		ldr	r2, .L11
 246 0014 23F00401 		bic	r1, r3, #4
 247 0018 82F83610 		strb	r1, [r2, #54]
 481:Drivers/icmDriver/_icm20948.c ****         dmaTX_iqr_CLEAR(icm20948Config.stateIQR);
 248              		.loc 1 481 9 view .LVU63
 249 001c 23F00603 		bic	r3, r3, #6
 250 0020 82F83630 		strb	r3, [r2, #54]
 482:Drivers/icmDriver/_icm20948.c ****         return 1;
 251              		.loc 1 482 9 view .LVU64
 252              		.loc 1 482 16 is_stmt 0 view .LVU65
 253 0024 0120     		movs	r0, #1
 254              	.L10:
 483:Drivers/icmDriver/_icm20948.c ****     }
 484:Drivers/icmDriver/_icm20948.c ****     else
 485:Drivers/icmDriver/_icm20948.c ****     {
 486:Drivers/icmDriver/_icm20948.c ****         return 0;
 487:Drivers/icmDriver/_icm20948.c ****     }
 488:Drivers/icmDriver/_icm20948.c **** }
ARM GAS  /tmp/ccpoO1YS.s 			page 14


 255              		.loc 1 488 1 view .LVU66
 256 0026 7047     		bx	lr
 257              	.L12:
 258              		.align	2
 259              	.L11:
 260 0028 00000000 		.word	icm20948Config
 261              		.cfi_endproc
 262              	.LFE909:
 264              		.section	.text.icm20948_getData,"ax",%progbits
 265              		.align	1
 266              		.global	icm20948_getData
 267              		.syntax unified
 268              		.thumb
 269              		.thumb_func
 271              	icm20948_getData:
 272              	.LVL0:
 273              	.LFB893:
  38:Drivers/icmDriver/_icm20948.c ****     #define D icm20948Config.data
 274              		.loc 1 38 29 is_stmt 1 view -0
 275              		.cfi_startproc
 276              		@ args = 0, pretend = 0, frame = 0
 277              		@ frame_needed = 0, uses_anonymous_args = 0
  38:Drivers/icmDriver/_icm20948.c ****     #define D icm20948Config.data
 278              		.loc 1 38 29 is_stmt 0 view .LVU68
 279 0000 10B5     		push	{r4, lr}
 280              	.LCFI0:
 281              		.cfi_def_cfa_offset 8
 282              		.cfi_offset 4, -8
 283              		.cfi_offset 14, -4
 284 0002 0446     		mov	r4, r0
  40:Drivers/icmDriver/_icm20948.c ****         D.ay = LE_CONVERTER(icm_rx_buffer[3], icm_rx_buffer[4]) *   icm20948Config.inv_accel_sens;
 285              		.loc 1 40 9 is_stmt 1 view .LVU69
  40:Drivers/icmDriver/_icm20948.c ****         D.ay = LE_CONVERTER(icm_rx_buffer[3], icm_rx_buffer[4]) *   icm20948Config.inv_accel_sens;
 286              		.loc 1 40 16 is_stmt 0 view .LVU70
 287 0004 464A     		ldr	r2, .L15
 288 0006 5178     		ldrb	r1, [r2, #1]	@ zero_extendqisi2
 289 0008 9378     		ldrb	r3, [r2, #2]	@ zero_extendqisi2
 290 000a 43EA0123 		orr	r3, r3, r1, lsl #8
 291 000e 1BB2     		sxth	r3, r3
 292 0010 07EE903A 		vmov	s15, r3	@ int
  40:Drivers/icmDriver/_icm20948.c ****         D.ay = LE_CONVERTER(icm_rx_buffer[3], icm_rx_buffer[4]) *   icm20948Config.inv_accel_sens;
 293              		.loc 1 40 83 view .LVU71
 294 0014 434B     		ldr	r3, .L15+4
 295 0016 93ED137A 		vldr.32	s14, [r3, #76]
  40:Drivers/icmDriver/_icm20948.c ****         D.ay = LE_CONVERTER(icm_rx_buffer[3], icm_rx_buffer[4]) *   icm20948Config.inv_accel_sens;
 296              		.loc 1 40 65 view .LVU72
 297 001a F8EEE77A 		vcvt.f32.s32	s15, s15
 298 001e 67EE877A 		vmul.f32	s15, s15, s14
  40:Drivers/icmDriver/_icm20948.c ****         D.ay = LE_CONVERTER(icm_rx_buffer[3], icm_rx_buffer[4]) *   icm20948Config.inv_accel_sens;
 299              		.loc 1 40 14 view .LVU73
 300 0022 C3ED037A 		vstr.32	s15, [r3, #12]
  41:Drivers/icmDriver/_icm20948.c ****         D.az = LE_CONVERTER(icm_rx_buffer[5], icm_rx_buffer[6]) *   icm20948Config.inv_accel_sens;
 301              		.loc 1 41 9 is_stmt 1 view .LVU74
  41:Drivers/icmDriver/_icm20948.c ****         D.az = LE_CONVERTER(icm_rx_buffer[5], icm_rx_buffer[6]) *   icm20948Config.inv_accel_sens;
 302              		.loc 1 41 16 is_stmt 0 view .LVU75
 303 0026 D078     		ldrb	r0, [r2, #3]	@ zero_extendqisi2
 304              	.LVL1:
ARM GAS  /tmp/ccpoO1YS.s 			page 15


  41:Drivers/icmDriver/_icm20948.c ****         D.az = LE_CONVERTER(icm_rx_buffer[5], icm_rx_buffer[6]) *   icm20948Config.inv_accel_sens;
 305              		.loc 1 41 16 view .LVU76
 306 0028 1179     		ldrb	r1, [r2, #4]	@ zero_extendqisi2
 307 002a 41EA0021 		orr	r1, r1, r0, lsl #8
 308 002e 09B2     		sxth	r1, r1
 309 0030 07EE901A 		vmov	s15, r1	@ int
  41:Drivers/icmDriver/_icm20948.c ****         D.az = LE_CONVERTER(icm_rx_buffer[5], icm_rx_buffer[6]) *   icm20948Config.inv_accel_sens;
 310              		.loc 1 41 65 view .LVU77
 311 0034 F8EEE77A 		vcvt.f32.s32	s15, s15
 312 0038 67EE877A 		vmul.f32	s15, s15, s14
  41:Drivers/icmDriver/_icm20948.c ****         D.az = LE_CONVERTER(icm_rx_buffer[5], icm_rx_buffer[6]) *   icm20948Config.inv_accel_sens;
 313              		.loc 1 41 14 view .LVU78
 314 003c C3ED047A 		vstr.32	s15, [r3, #16]
  42:Drivers/icmDriver/_icm20948.c ****         D.gx = LE_CONVERTER(icm_rx_buffer[7], icm_rx_buffer[8]) *   icm20948Config.inv_gyro_sens;
 315              		.loc 1 42 9 is_stmt 1 view .LVU79
  42:Drivers/icmDriver/_icm20948.c ****         D.gx = LE_CONVERTER(icm_rx_buffer[7], icm_rx_buffer[8]) *   icm20948Config.inv_gyro_sens;
 316              		.loc 1 42 16 is_stmt 0 view .LVU80
 317 0040 5079     		ldrb	r0, [r2, #5]	@ zero_extendqisi2
 318 0042 9179     		ldrb	r1, [r2, #6]	@ zero_extendqisi2
 319 0044 41EA0021 		orr	r1, r1, r0, lsl #8
 320 0048 09B2     		sxth	r1, r1
 321 004a 07EE901A 		vmov	s15, r1	@ int
  42:Drivers/icmDriver/_icm20948.c ****         D.gx = LE_CONVERTER(icm_rx_buffer[7], icm_rx_buffer[8]) *   icm20948Config.inv_gyro_sens;
 322              		.loc 1 42 65 view .LVU81
 323 004e F8EEE77A 		vcvt.f32.s32	s15, s15
 324 0052 67EE877A 		vmul.f32	s15, s15, s14
  42:Drivers/icmDriver/_icm20948.c ****         D.gx = LE_CONVERTER(icm_rx_buffer[7], icm_rx_buffer[8]) *   icm20948Config.inv_gyro_sens;
 325              		.loc 1 42 14 view .LVU82
 326 0056 C3ED057A 		vstr.32	s15, [r3, #20]
  43:Drivers/icmDriver/_icm20948.c ****         D.gy = LE_CONVERTER(icm_rx_buffer[9], icm_rx_buffer[10]) *  icm20948Config.inv_gyro_sens;
 327              		.loc 1 43 9 is_stmt 1 view .LVU83
  43:Drivers/icmDriver/_icm20948.c ****         D.gy = LE_CONVERTER(icm_rx_buffer[9], icm_rx_buffer[10]) *  icm20948Config.inv_gyro_sens;
 328              		.loc 1 43 16 is_stmt 0 view .LVU84
 329 005a D079     		ldrb	r0, [r2, #7]	@ zero_extendqisi2
 330 005c 117A     		ldrb	r1, [r2, #8]	@ zero_extendqisi2
 331 005e 41EA0021 		orr	r1, r1, r0, lsl #8
 332 0062 09B2     		sxth	r1, r1
 333 0064 07EE901A 		vmov	s15, r1	@ int
  43:Drivers/icmDriver/_icm20948.c ****         D.gy = LE_CONVERTER(icm_rx_buffer[9], icm_rx_buffer[10]) *  icm20948Config.inv_gyro_sens;
 334              		.loc 1 43 83 view .LVU85
 335 0068 93ED147A 		vldr.32	s14, [r3, #80]
  43:Drivers/icmDriver/_icm20948.c ****         D.gy = LE_CONVERTER(icm_rx_buffer[9], icm_rx_buffer[10]) *  icm20948Config.inv_gyro_sens;
 336              		.loc 1 43 65 view .LVU86
 337 006c F8EEE77A 		vcvt.f32.s32	s15, s15
 338 0070 67EE877A 		vmul.f32	s15, s15, s14
  43:Drivers/icmDriver/_icm20948.c ****         D.gy = LE_CONVERTER(icm_rx_buffer[9], icm_rx_buffer[10]) *  icm20948Config.inv_gyro_sens;
 339              		.loc 1 43 14 view .LVU87
 340 0074 C3ED067A 		vstr.32	s15, [r3, #24]
  44:Drivers/icmDriver/_icm20948.c ****         D.gz = LE_CONVERTER(icm_rx_buffer[11], icm_rx_buffer[12]) * icm20948Config.inv_gyro_sens;
 341              		.loc 1 44 9 is_stmt 1 view .LVU88
  44:Drivers/icmDriver/_icm20948.c ****         D.gz = LE_CONVERTER(icm_rx_buffer[11], icm_rx_buffer[12]) * icm20948Config.inv_gyro_sens;
 342              		.loc 1 44 16 is_stmt 0 view .LVU89
 343 0078 507A     		ldrb	r0, [r2, #9]	@ zero_extendqisi2
 344 007a 917A     		ldrb	r1, [r2, #10]	@ zero_extendqisi2
 345 007c 41EA0021 		orr	r1, r1, r0, lsl #8
 346 0080 09B2     		sxth	r1, r1
 347 0082 07EE901A 		vmov	s15, r1	@ int
ARM GAS  /tmp/ccpoO1YS.s 			page 16


  44:Drivers/icmDriver/_icm20948.c ****         D.gz = LE_CONVERTER(icm_rx_buffer[11], icm_rx_buffer[12]) * icm20948Config.inv_gyro_sens;
 348              		.loc 1 44 66 view .LVU90
 349 0086 F8EEE77A 		vcvt.f32.s32	s15, s15
 350 008a 67EE877A 		vmul.f32	s15, s15, s14
  44:Drivers/icmDriver/_icm20948.c ****         D.gz = LE_CONVERTER(icm_rx_buffer[11], icm_rx_buffer[12]) * icm20948Config.inv_gyro_sens;
 351              		.loc 1 44 14 view .LVU91
 352 008e C3ED077A 		vstr.32	s15, [r3, #28]
  45:Drivers/icmDriver/_icm20948.c ****         D.mx = MAG_CONVERTER(icm_rx_buffer[17], icm_rx_buffer[16]);
 353              		.loc 1 45 9 is_stmt 1 view .LVU92
  45:Drivers/icmDriver/_icm20948.c ****         D.mx = MAG_CONVERTER(icm_rx_buffer[17], icm_rx_buffer[16]);
 354              		.loc 1 45 16 is_stmt 0 view .LVU93
 355 0092 D07A     		ldrb	r0, [r2, #11]	@ zero_extendqisi2
 356 0094 117B     		ldrb	r1, [r2, #12]	@ zero_extendqisi2
 357 0096 41EA0021 		orr	r1, r1, r0, lsl #8
 358 009a 09B2     		sxth	r1, r1
 359 009c 07EE901A 		vmov	s15, r1	@ int
  45:Drivers/icmDriver/_icm20948.c ****         D.mx = MAG_CONVERTER(icm_rx_buffer[17], icm_rx_buffer[16]);
 360              		.loc 1 45 67 view .LVU94
 361 00a0 F8EEE77A 		vcvt.f32.s32	s15, s15
 362 00a4 67EE877A 		vmul.f32	s15, s15, s14
  45:Drivers/icmDriver/_icm20948.c ****         D.mx = MAG_CONVERTER(icm_rx_buffer[17], icm_rx_buffer[16]);
 363              		.loc 1 45 14 view .LVU95
 364 00a8 C3ED087A 		vstr.32	s15, [r3, #32]
  46:Drivers/icmDriver/_icm20948.c ****         D.my = MAG_CONVERTER(icm_rx_buffer[19], icm_rx_buffer[18]);
 365              		.loc 1 46 9 is_stmt 1 view .LVU96
  46:Drivers/icmDriver/_icm20948.c ****         D.my = MAG_CONVERTER(icm_rx_buffer[19], icm_rx_buffer[18]);
 366              		.loc 1 46 16 is_stmt 0 view .LVU97
 367 00ac 507C     		ldrb	r0, [r2, #17]	@ zero_extendqisi2
 368 00ae 117C     		ldrb	r1, [r2, #16]	@ zero_extendqisi2
 369 00b0 41EA0021 		orr	r1, r1, r0, lsl #8
 370 00b4 09B2     		sxth	r1, r1
 371 00b6 07EE901A 		vmov	s15, r1	@ int
 372 00ba F8EEE77A 		vcvt.f32.s32	s15, s15
 373 00be 9FED1A7A 		vldr.32	s14, .L15+8
 374 00c2 67EE877A 		vmul.f32	s15, s15, s14
  46:Drivers/icmDriver/_icm20948.c ****         D.my = MAG_CONVERTER(icm_rx_buffer[19], icm_rx_buffer[18]);
 375              		.loc 1 46 14 view .LVU98
 376 00c6 C3ED097A 		vstr.32	s15, [r3, #36]
  47:Drivers/icmDriver/_icm20948.c ****         D.mz = MAG_CONVERTER(icm_rx_buffer[21], icm_rx_buffer[20]);
 377              		.loc 1 47 9 is_stmt 1 view .LVU99
  47:Drivers/icmDriver/_icm20948.c ****         D.mz = MAG_CONVERTER(icm_rx_buffer[21], icm_rx_buffer[20]);
 378              		.loc 1 47 16 is_stmt 0 view .LVU100
 379 00ca D07C     		ldrb	r0, [r2, #19]	@ zero_extendqisi2
 380 00cc 917C     		ldrb	r1, [r2, #18]	@ zero_extendqisi2
 381 00ce 41EA0021 		orr	r1, r1, r0, lsl #8
 382 00d2 09B2     		sxth	r1, r1
 383 00d4 07EE901A 		vmov	s15, r1	@ int
 384 00d8 F8EEE77A 		vcvt.f32.s32	s15, s15
 385 00dc 67EE877A 		vmul.f32	s15, s15, s14
  47:Drivers/icmDriver/_icm20948.c ****         D.mz = MAG_CONVERTER(icm_rx_buffer[21], icm_rx_buffer[20]);
 386              		.loc 1 47 14 view .LVU101
 387 00e0 C3ED0A7A 		vstr.32	s15, [r3, #40]
  48:Drivers/icmDriver/_icm20948.c ****     #undef D
 388              		.loc 1 48 9 is_stmt 1 view .LVU102
  48:Drivers/icmDriver/_icm20948.c ****     #undef D
 389              		.loc 1 48 16 is_stmt 0 view .LVU103
 390 00e4 517D     		ldrb	r1, [r2, #21]	@ zero_extendqisi2
ARM GAS  /tmp/ccpoO1YS.s 			page 17


 391 00e6 127D     		ldrb	r2, [r2, #20]	@ zero_extendqisi2
 392 00e8 42EA0122 		orr	r2, r2, r1, lsl #8
 393 00ec 12B2     		sxth	r2, r2
 394 00ee 07EE902A 		vmov	s15, r2	@ int
 395 00f2 F8EEE77A 		vcvt.f32.s32	s15, s15
 396 00f6 67EE877A 		vmul.f32	s15, s15, s14
  48:Drivers/icmDriver/_icm20948.c ****     #undef D
 397              		.loc 1 48 14 view .LVU104
 398 00fa C3ED0B7A 		vstr.32	s15, [r3, #44]
  50:Drivers/icmDriver/_icm20948.c **** }
 399              		.loc 1 50 5 is_stmt 1 view .LVU105
  50:Drivers/icmDriver/_icm20948.c **** }
 400              		.loc 1 50 26 is_stmt 0 view .LVU106
 401 00fe A646     		mov	lr, r4
 402 0100 03F1080C 		add	ip, r3, #8
 403 0104 BCE80F00 		ldmia	ip!, {r0, r1, r2, r3}
 404 0108 AEE80F00 		stmia	lr!, {r0, r1, r2, r3}
 405 010c BCE80F00 		ldmia	ip!, {r0, r1, r2, r3}
 406 0110 AEE80F00 		stmia	lr!, {r0, r1, r2, r3}
 407 0114 9CE80700 		ldm	ip, {r0, r1, r2}
 408 0118 8EE80700 		stm	lr, {r0, r1, r2}
  51:Drivers/icmDriver/_icm20948.c **** void Select_Bank(uint8_t bank){
 409              		.loc 1 51 1 view .LVU107
 410 011c 2046     		mov	r0, r4
 411 011e 10BD     		pop	{r4, pc}
 412              	.LVL2:
 413              	.L16:
  51:Drivers/icmDriver/_icm20948.c **** void Select_Bank(uint8_t bank){
 414              		.loc 1 51 1 view .LVU108
 415              		.align	2
 416              	.L15:
 417 0120 00000000 		.word	icm_rx_buffer
 418 0124 00000000 		.word	icm20948Config
 419 0128 9A99193E 		.word	1041865114
 420              		.cfi_endproc
 421              	.LFE893:
 423              		.section	.text.DMA2_Stream2_IRQHandler,"ax",%progbits
 424              		.align	1
 425              		.global	DMA2_Stream2_IRQHandler
 426              		.syntax unified
 427              		.thumb
 428              		.thumb_func
 430              	DMA2_Stream2_IRQHandler:
 431              	.LFB897:
  82:Drivers/icmDriver/_icm20948.c ****     if (DMA2->LISR & DMA_LISR_TCIF2)
 432              		.loc 1 82 1 is_stmt 1 view -0
 433              		.cfi_startproc
 434              		@ args = 0, pretend = 0, frame = 0
 435              		@ frame_needed = 0, uses_anonymous_args = 0
 436 0000 08B5     		push	{r3, lr}
 437              	.LCFI1:
 438              		.cfi_def_cfa_offset 8
 439              		.cfi_offset 3, -8
 440              		.cfi_offset 14, -4
  83:Drivers/icmDriver/_icm20948.c ****     { // Transfer Complete
 441              		.loc 1 83 5 view .LVU110
  83:Drivers/icmDriver/_icm20948.c ****     { // Transfer Complete
ARM GAS  /tmp/ccpoO1YS.s 			page 18


 442              		.loc 1 83 13 is_stmt 0 view .LVU111
 443 0002 0D4B     		ldr	r3, .L20
 444 0004 1B68     		ldr	r3, [r3]
  83:Drivers/icmDriver/_icm20948.c ****     { // Transfer Complete
 445              		.loc 1 83 8 view .LVU112
 446 0006 13F4001F 		tst	r3, #2097152
 447 000a 13D0     		beq	.L17
  85:Drivers/icmDriver/_icm20948.c **** 
 448              		.loc 1 85 9 is_stmt 1 view .LVU113
  85:Drivers/icmDriver/_icm20948.c **** 
 449              		.loc 1 85 13 is_stmt 0 view .LVU114
 450 000c 0A4A     		ldr	r2, .L20
 451 000e 9368     		ldr	r3, [r2, #8]
  85:Drivers/icmDriver/_icm20948.c **** 
 452              		.loc 1 85 21 view .LVU115
 453 0010 43F40013 		orr	r3, r3, #2097152
 454 0014 9360     		str	r3, [r2, #8]
  87:Drivers/icmDriver/_icm20948.c ****         dmaRX_iqr_SET(icm20948Config.stateIQR);
 455              		.loc 1 87 9 is_stmt 1 view .LVU116
 456 0016 094B     		ldr	r3, .L20+4
 457 0018 0822     		movs	r2, #8
 458 001a 9A61     		str	r2, [r3, #24]
  87:Drivers/icmDriver/_icm20948.c ****         dmaRX_iqr_SET(icm20948Config.stateIQR);
 459              		.loc 1 87 26 view .LVU117
  88:Drivers/icmDriver/_icm20948.c **** 
 460              		.loc 1 88 9 view .LVU118
 461 001c 084B     		ldr	r3, .L20+8
 462 001e 93F83620 		ldrb	r2, [r3, #54]	@ zero_extendqisi2
 463 0022 42F00402 		orr	r2, r2, #4
 464 0026 83F83620 		strb	r2, [r3, #54]
  90:Drivers/icmDriver/_icm20948.c ****             icm20948Config.dmaTX_callback();
 465              		.loc 1 90 9 view .LVU119
  90:Drivers/icmDriver/_icm20948.c ****             icm20948Config.dmaTX_callback();
 466              		.loc 1 90 27 is_stmt 0 view .LVU120
 467 002a 5B6C     		ldr	r3, [r3, #68]
  90:Drivers/icmDriver/_icm20948.c ****             icm20948Config.dmaTX_callback();
 468              		.loc 1 90 12 view .LVU121
 469 002c 13B1     		cbz	r3, .L17
  91:Drivers/icmDriver/_icm20948.c ****     }
 470              		.loc 1 91 13 is_stmt 1 view .LVU122
  91:Drivers/icmDriver/_icm20948.c ****     }
 471              		.loc 1 91 27 is_stmt 0 view .LVU123
 472 002e 044B     		ldr	r3, .L20+8
 473 0030 5B6C     		ldr	r3, [r3, #68]
  91:Drivers/icmDriver/_icm20948.c ****     }
 474              		.loc 1 91 13 view .LVU124
 475 0032 9847     		blx	r3
 476              	.LVL3:
 477              	.L17:
  93:Drivers/icmDriver/_icm20948.c **** void DMA2_Stream3_IRQHandler(void)
 478              		.loc 1 93 1 view .LVU125
 479 0034 08BD     		pop	{r3, pc}
 480              	.L21:
 481 0036 00BF     		.align	2
 482              	.L20:
 483 0038 00640240 		.word	1073898496
 484 003c 00000240 		.word	1073872896
ARM GAS  /tmp/ccpoO1YS.s 			page 19


 485 0040 00000000 		.word	icm20948Config
 486              		.cfi_endproc
 487              	.LFE897:
 489              		.section	.text.DMA2_Stream3_IRQHandler,"ax",%progbits
 490              		.align	1
 491              		.global	DMA2_Stream3_IRQHandler
 492              		.syntax unified
 493              		.thumb
 494              		.thumb_func
 496              	DMA2_Stream3_IRQHandler:
 497              	.LFB898:
  95:Drivers/icmDriver/_icm20948.c ****     if (DMA2->LISR & DMA_LISR_TCIF3)
 498              		.loc 1 95 1 is_stmt 1 view -0
 499              		.cfi_startproc
 500              		@ args = 0, pretend = 0, frame = 0
 501              		@ frame_needed = 0, uses_anonymous_args = 0
 502              		@ link register save eliminated.
  96:Drivers/icmDriver/_icm20948.c ****     { // Resiwer Complete
 503              		.loc 1 96 5 view .LVU127
  96:Drivers/icmDriver/_icm20948.c ****     { // Resiwer Complete
 504              		.loc 1 96 13 is_stmt 0 view .LVU128
 505 0000 084B     		ldr	r3, .L24
 506 0002 1B68     		ldr	r3, [r3]
  96:Drivers/icmDriver/_icm20948.c ****     { // Resiwer Complete
 507              		.loc 1 96 8 view .LVU129
 508 0004 13F0006F 		tst	r3, #134217728
 509 0008 0BD0     		beq	.L22
 100:Drivers/icmDriver/_icm20948.c ****         dmaTX_iqr_SET(icm20948Config.stateIQR);
 510              		.loc 1 100 9 is_stmt 1 view .LVU130
 100:Drivers/icmDriver/_icm20948.c ****         dmaTX_iqr_SET(icm20948Config.stateIQR);
 511              		.loc 1 100 13 is_stmt 0 view .LVU131
 512 000a 064A     		ldr	r2, .L24
 513 000c 9368     		ldr	r3, [r2, #8]
 100:Drivers/icmDriver/_icm20948.c ****         dmaTX_iqr_SET(icm20948Config.stateIQR);
 514              		.loc 1 100 21 view .LVU132
 515 000e 43F00063 		orr	r3, r3, #134217728
 516 0012 9360     		str	r3, [r2, #8]
 101:Drivers/icmDriver/_icm20948.c ****     }
 517              		.loc 1 101 9 is_stmt 1 view .LVU133
 518 0014 044A     		ldr	r2, .L24+4
 519 0016 92F83630 		ldrb	r3, [r2, #54]	@ zero_extendqisi2
 520 001a 43F00203 		orr	r3, r3, #2
 521 001e 82F83630 		strb	r3, [r2, #54]
 522              	.L22:
 103:Drivers/icmDriver/_icm20948.c **** void TIM2_IRQHandler(void)
 523              		.loc 1 103 1 is_stmt 0 view .LVU134
 524 0022 7047     		bx	lr
 525              	.L25:
 526              		.align	2
 527              	.L24:
 528 0024 00640240 		.word	1073898496
 529 0028 00000000 		.word	icm20948Config
 530              		.cfi_endproc
 531              	.LFE898:
 533              		.section	.text.TIM2_IRQHandler,"ax",%progbits
 534              		.align	1
 535              		.global	TIM2_IRQHandler
ARM GAS  /tmp/ccpoO1YS.s 			page 20


 536              		.syntax unified
 537              		.thumb
 538              		.thumb_func
 540              	TIM2_IRQHandler:
 541              	.LFB899:
 105:Drivers/icmDriver/_icm20948.c ****     if (TIM2->SR & TIM_SR_UIF)
 542              		.loc 1 105 1 is_stmt 1 view -0
 543              		.cfi_startproc
 544              		@ args = 0, pretend = 0, frame = 0
 545              		@ frame_needed = 0, uses_anonymous_args = 0
 546              		@ link register save eliminated.
 106:Drivers/icmDriver/_icm20948.c ****     {
 547              		.loc 1 106 5 view .LVU136
 106:Drivers/icmDriver/_icm20948.c ****     {
 548              		.loc 1 106 13 is_stmt 0 view .LVU137
 549 0000 4FF08043 		mov	r3, #1073741824
 550 0004 1B69     		ldr	r3, [r3, #16]
 106:Drivers/icmDriver/_icm20948.c ****     {
 551              		.loc 1 106 8 view .LVU138
 552 0006 13F0010F 		tst	r3, #1
 553 000a 43D0     		beq	.L26
 108:Drivers/icmDriver/_icm20948.c ****         icm_spi_Enable();
 554              		.loc 1 108 9 is_stmt 1 view .LVU139
 108:Drivers/icmDriver/_icm20948.c ****         icm_spi_Enable();
 555              		.loc 1 108 18 is_stmt 0 view .LVU140
 556 000c 4FF08043 		mov	r3, #1073741824
 557 0010 6FF00102 		mvn	r2, #1
 558 0014 1A61     		str	r2, [r3, #16]
 109:Drivers/icmDriver/_icm20948.c ****         dmaRX_iqr_CLEAR(icm20948Config.stateIQR);
 559              		.loc 1 109 9 is_stmt 1 view .LVU141
 560 0016 03F50033 		add	r3, r3, #131072
 561 001a 4FF40022 		mov	r2, #524288
 562 001e 9A61     		str	r2, [r3, #24]
 109:Drivers/icmDriver/_icm20948.c ****         dmaRX_iqr_CLEAR(icm20948Config.stateIQR);
 563              		.loc 1 109 25 view .LVU142
 110:Drivers/icmDriver/_icm20948.c ****         dmaTX_iqr_CLEAR(icm20948Config.stateIQR);
 564              		.loc 1 110 9 view .LVU143
 565 0020 1D4A     		ldr	r2, .L30
 566 0022 92F83630 		ldrb	r3, [r2, #54]	@ zero_extendqisi2
 567 0026 23F00401 		bic	r1, r3, #4
 568 002a 82F83610 		strb	r1, [r2, #54]
 111:Drivers/icmDriver/_icm20948.c ****         Dma_Start(TX_DMA_SPI, icm_tx_buffer, SPI_DmaBuffSize);
 569              		.loc 1 111 9 view .LVU144
 570 002e 23F00603 		bic	r3, r3, #6
 571 0032 82F83630 		strb	r3, [r2, #54]
 112:Drivers/icmDriver/_icm20948.c ****         Dma_Start(RX_DMA_SPI, icm_rx_buffer, SPI_DmaBuffSize);
 572              		.loc 1 112 9 view .LVU145
 112:Drivers/icmDriver/_icm20948.c ****         Dma_Start(RX_DMA_SPI, icm_rx_buffer, SPI_DmaBuffSize);
 573              		.loc 1 112 9 view .LVU146
 112:Drivers/icmDriver/_icm20948.c ****         Dma_Start(RX_DMA_SPI, icm_rx_buffer, SPI_DmaBuffSize);
 574              		.loc 1 112 9 view .LVU147
 575 0036 194A     		ldr	r2, .L30+4
 576 0038 936D     		ldr	r3, [r2, #88]
 577 003a 23F00103 		bic	r3, r3, #1
 578 003e 9365     		str	r3, [r2, #88]
 112:Drivers/icmDriver/_icm20948.c ****         Dma_Start(RX_DMA_SPI, icm_rx_buffer, SPI_DmaBuffSize);
 579              		.loc 1 112 9 view .LVU148
ARM GAS  /tmp/ccpoO1YS.s 			page 21


 580              	.L28:
 112:Drivers/icmDriver/_icm20948.c ****         Dma_Start(RX_DMA_SPI, icm_rx_buffer, SPI_DmaBuffSize);
 581              		.loc 1 112 9 discriminator 2 view .LVU149
 582 0040 164B     		ldr	r3, .L30+4
 583 0042 9B6D     		ldr	r3, [r3, #88]
 584 0044 13F0010F 		tst	r3, #1
 585 0048 FAD1     		bne	.L28
 112:Drivers/icmDriver/_icm20948.c ****         Dma_Start(RX_DMA_SPI, icm_rx_buffer, SPI_DmaBuffSize);
 586              		.loc 1 112 9 discriminator 3 view .LVU150
 112:Drivers/icmDriver/_icm20948.c ****         Dma_Start(RX_DMA_SPI, icm_rx_buffer, SPI_DmaBuffSize);
 587              		.loc 1 112 9 discriminator 3 view .LVU151
 588 004a 144B     		ldr	r3, .L30+4
 589 004c 144A     		ldr	r2, .L30+8
 590 004e 5A66     		str	r2, [r3, #100]
 112:Drivers/icmDriver/_icm20948.c ****         Dma_Start(RX_DMA_SPI, icm_rx_buffer, SPI_DmaBuffSize);
 591              		.loc 1 112 9 view .LVU152
 112:Drivers/icmDriver/_icm20948.c ****         Dma_Start(RX_DMA_SPI, icm_rx_buffer, SPI_DmaBuffSize);
 592              		.loc 1 112 9 is_stmt 0 discriminator 3 view .LVU153
 593 0050 1822     		movs	r2, #24
 594 0052 DA65     		str	r2, [r3, #92]
 112:Drivers/icmDriver/_icm20948.c ****         Dma_Start(RX_DMA_SPI, icm_rx_buffer, SPI_DmaBuffSize);
 595              		.loc 1 112 9 is_stmt 1 view .LVU154
 112:Drivers/icmDriver/_icm20948.c ****         Dma_Start(RX_DMA_SPI, icm_rx_buffer, SPI_DmaBuffSize);
 596              		.loc 1 112 9 is_stmt 0 discriminator 3 view .LVU155
 597 0054 9A6D     		ldr	r2, [r3, #88]
 598 0056 42F00102 		orr	r2, r2, #1
 599 005a 9A65     		str	r2, [r3, #88]
 112:Drivers/icmDriver/_icm20948.c ****         Dma_Start(RX_DMA_SPI, icm_rx_buffer, SPI_DmaBuffSize);
 600              		.loc 1 112 9 is_stmt 1 view .LVU156
 113:Drivers/icmDriver/_icm20948.c ****         icm20948Config.mesurement_flag = 1;
 601              		.loc 1 113 9 view .LVU157
 113:Drivers/icmDriver/_icm20948.c ****         icm20948Config.mesurement_flag = 1;
 602              		.loc 1 113 9 view .LVU158
 113:Drivers/icmDriver/_icm20948.c ****         icm20948Config.mesurement_flag = 1;
 603              		.loc 1 113 9 view .LVU159
 604 005c 1A6C     		ldr	r2, [r3, #64]
 605 005e 22F00102 		bic	r2, r2, #1
 606 0062 1A64     		str	r2, [r3, #64]
 113:Drivers/icmDriver/_icm20948.c ****         icm20948Config.mesurement_flag = 1;
 607              		.loc 1 113 9 view .LVU160
 608              	.L29:
 113:Drivers/icmDriver/_icm20948.c ****         icm20948Config.mesurement_flag = 1;
 609              		.loc 1 113 9 discriminator 2 view .LVU161
 610 0064 0D4B     		ldr	r3, .L30+4
 611 0066 1B6C     		ldr	r3, [r3, #64]
 612 0068 13F0010F 		tst	r3, #1
 613 006c FAD1     		bne	.L29
 113:Drivers/icmDriver/_icm20948.c ****         icm20948Config.mesurement_flag = 1;
 614              		.loc 1 113 9 discriminator 3 view .LVU162
 113:Drivers/icmDriver/_icm20948.c ****         icm20948Config.mesurement_flag = 1;
 615              		.loc 1 113 9 discriminator 3 view .LVU163
 616 006e 0B4B     		ldr	r3, .L30+4
 617 0070 0C4A     		ldr	r2, .L30+12
 618 0072 DA64     		str	r2, [r3, #76]
 113:Drivers/icmDriver/_icm20948.c ****         icm20948Config.mesurement_flag = 1;
 619              		.loc 1 113 9 view .LVU164
 113:Drivers/icmDriver/_icm20948.c ****         icm20948Config.mesurement_flag = 1;
ARM GAS  /tmp/ccpoO1YS.s 			page 22


 620              		.loc 1 113 9 is_stmt 0 discriminator 3 view .LVU165
 621 0074 1822     		movs	r2, #24
 622 0076 5A64     		str	r2, [r3, #68]
 113:Drivers/icmDriver/_icm20948.c ****         icm20948Config.mesurement_flag = 1;
 623              		.loc 1 113 9 is_stmt 1 view .LVU166
 113:Drivers/icmDriver/_icm20948.c ****         icm20948Config.mesurement_flag = 1;
 624              		.loc 1 113 9 is_stmt 0 discriminator 3 view .LVU167
 625 0078 1A6C     		ldr	r2, [r3, #64]
 626 007a 42F00102 		orr	r2, r2, #1
 627 007e 1A64     		str	r2, [r3, #64]
 113:Drivers/icmDriver/_icm20948.c ****         icm20948Config.mesurement_flag = 1;
 628              		.loc 1 113 9 is_stmt 1 view .LVU168
 114:Drivers/icmDriver/_icm20948.c ****         icm20948Config.prescalerCount += 1;
 629              		.loc 1 114 9 view .LVU169
 114:Drivers/icmDriver/_icm20948.c ****         icm20948Config.prescalerCount += 1;
 630              		.loc 1 114 40 is_stmt 0 view .LVU170
 631 0080 054B     		ldr	r3, .L30
 632 0082 0122     		movs	r2, #1
 633 0084 83F85520 		strb	r2, [r3, #85]
 115:Drivers/icmDriver/_icm20948.c ****         icm20948Config.timer +=1;
 634              		.loc 1 115 9 is_stmt 1 view .LVU171
 115:Drivers/icmDriver/_icm20948.c ****         icm20948Config.timer +=1;
 635              		.loc 1 115 23 is_stmt 0 view .LVU172
 636 0088 5A68     		ldr	r2, [r3, #4]
 115:Drivers/icmDriver/_icm20948.c ****         icm20948Config.timer +=1;
 637              		.loc 1 115 39 view .LVU173
 638 008a 0132     		adds	r2, r2, #1
 639 008c 5A60     		str	r2, [r3, #4]
 116:Drivers/icmDriver/_icm20948.c ****     }
 640              		.loc 1 116 9 is_stmt 1 view .LVU174
 116:Drivers/icmDriver/_icm20948.c ****     }
 641              		.loc 1 116 23 is_stmt 0 view .LVU175
 642 008e 9A6B     		ldr	r2, [r3, #56]
 116:Drivers/icmDriver/_icm20948.c ****     }
 643              		.loc 1 116 30 view .LVU176
 644 0090 0132     		adds	r2, r2, #1
 645 0092 9A63     		str	r2, [r3, #56]
 646              	.L26:
 118:Drivers/icmDriver/_icm20948.c **** 
 647              		.loc 1 118 1 view .LVU177
 648 0094 7047     		bx	lr
 649              	.L31:
 650 0096 00BF     		.align	2
 651              	.L30:
 652 0098 00000000 		.word	icm20948Config
 653 009c 00640240 		.word	1073898496
 654 00a0 00000000 		.word	icm_tx_buffer
 655 00a4 00000000 		.word	icm_rx_buffer
 656              		.cfi_endproc
 657              	.LFE899:
 659              		.section	.text.icm20948_init,"ax",%progbits
 660              		.align	1
 661              		.global	icm20948_init
 662              		.syntax unified
 663              		.thumb
 664              		.thumb_func
 666              	icm20948_init:
ARM GAS  /tmp/ccpoO1YS.s 			page 23


 667              	.LFB901:
 194:Drivers/icmDriver/_icm20948.c **** 
 668              		.loc 1 194 1 is_stmt 1 view -0
 669              		.cfi_startproc
 670              		@ args = 0, pretend = 0, frame = 0
 671              		@ frame_needed = 0, uses_anonymous_args = 0
 672              		@ link register save eliminated.
 196:Drivers/icmDriver/_icm20948.c ****     SET_BIT(RCC->AHB1ENR, RCC_AHB1ENR_GPIODEN);
 673              		.loc 1 196 5 view .LVU179
 674 0000 594B     		ldr	r3, .L37
 675 0002 1A6B     		ldr	r2, [r3, #48]
 676 0004 42F00102 		orr	r2, r2, #1
 677 0008 1A63     		str	r2, [r3, #48]
 197:Drivers/icmDriver/_icm20948.c **** 
 678              		.loc 1 197 5 view .LVU180
 679 000a 1A6B     		ldr	r2, [r3, #48]
 680 000c 42F00802 		orr	r2, r2, #8
 681 0010 1A63     		str	r2, [r3, #48]
 199:Drivers/icmDriver/_icm20948.c ****     uint32_t Gpio_Moder = GPIO_MODER_MODER5_1 | GPIO_MODER_MODER6_1 | GPIO_MODER_MODER3_0;
 682              		.loc 1 199 5 view .LVU181
 683              	.LVL4:
 200:Drivers/icmDriver/_icm20948.c ****     MODIFY_REG(GPIOA->MODER, Gpio_Moder_Msk, Gpio_Moder);
 684              		.loc 1 200 5 view .LVU182
 201:Drivers/icmDriver/_icm20948.c ****     MODIFY_REG(GPIOD->MODER, GPIO_MODER_MODER7_Msk, GPIO_MODER_MODER7_1);
 685              		.loc 1 201 5 view .LVU183
 686 0012 5648     		ldr	r0, .L37+4
 687 0014 0268     		ldr	r2, [r0]
 688 0016 22F47352 		bic	r2, r2, #15552
 689 001a 42F42152 		orr	r2, r2, #10304
 690 001e 0260     		str	r2, [r0]
 202:Drivers/icmDriver/_icm20948.c **** 
 691              		.loc 1 202 5 view .LVU184
 692 0020 5349     		ldr	r1, .L37+8
 693 0022 0A68     		ldr	r2, [r1]
 694 0024 22F44042 		bic	r2, r2, #49152
 695 0028 42F40042 		orr	r2, r2, #32768
 696 002c 0A60     		str	r2, [r1]
 204:Drivers/icmDriver/_icm20948.c ****     uint32_t Gpio_Arf_Msk = GPIO_AFRL_AFRL5_Msk | GPIO_AFRL_AFRL6_Msk;
 697              		.loc 1 204 5 view .LVU185
 698              	.LVL5:
 205:Drivers/icmDriver/_icm20948.c ****     MODIFY_REG(GPIOA->AFR[0], Gpio_Arf_Msk, Gpio_Arf_0);
 699              		.loc 1 205 5 view .LVU186
 206:Drivers/icmDriver/_icm20948.c ****     MODIFY_REG(GPIOD->AFR[0], GPIO_AFRL_AFRL7_Msk, (AF05 << GPIO_AFRL_AFRL7_Pos));
 700              		.loc 1 206 5 view .LVU187
 701 002e 026A     		ldr	r2, [r0, #32]
 702 0030 22F07F62 		bic	r2, r2, #267386880
 703 0034 42F0AA62 		orr	r2, r2, #89128960
 704 0038 0262     		str	r2, [r0, #32]
 207:Drivers/icmDriver/_icm20948.c **** 
 705              		.loc 1 207 5 view .LVU188
 706 003a 0A6A     		ldr	r2, [r1, #32]
 707 003c 22F07042 		bic	r2, r2, #-268435456
 708 0040 42F0A042 		orr	r2, r2, #1342177280
 709 0044 0A62     		str	r2, [r1, #32]
 209:Drivers/icmDriver/_icm20948.c ****     uint32_t Spi_Cr1 = 0;
 710              		.loc 1 209 5 view .LVU189
 711 0046 5A6C     		ldr	r2, [r3, #68]
ARM GAS  /tmp/ccpoO1YS.s 			page 24


 712 0048 42F48052 		orr	r2, r2, #4096
 713 004c 5A64     		str	r2, [r3, #68]
 210:Drivers/icmDriver/_icm20948.c ****     uint32_t Spi_Cr2 = 0;
 714              		.loc 1 210 5 view .LVU190
 211:Drivers/icmDriver/_icm20948.c ****     Spi_Cr1 = SPI_CR1_MSTR | SPI_CR1_SSM | SPI_CR1_SSI | SPI_BAUDRATEPRESCALER_DIV128;
 715              		.loc 1 211 5 view .LVU191
 212:Drivers/icmDriver/_icm20948.c ****     //				|SPI_CR1_CPOL | SPI_CR1_CPHA;
 716              		.loc 1 212 5 view .LVU192
 717              	.LVL6:
 214:Drivers/icmDriver/_icm20948.c ****     WRITE_REG(SPI1->CR1, Spi_Cr1);
 718              		.loc 1 214 5 view .LVU193
 215:Drivers/icmDriver/_icm20948.c ****     WRITE_REG(SPI1->CR2, Spi_Cr2);
 719              		.loc 1 215 5 view .LVU194
 720 004e 494A     		ldr	r2, .L37+12
 721 0050 4FF44D71 		mov	r1, #820
 722 0054 1160     		str	r1, [r2]
 216:Drivers/icmDriver/_icm20948.c **** 
 723              		.loc 1 216 5 view .LVU195
 724 0056 4FF4B851 		mov	r1, #5888
 725 005a 5160     		str	r1, [r2, #4]
 224:Drivers/icmDriver/_icm20948.c ****     Dma_Disable(DMA2_Stream3);
 726              		.loc 1 224 5 view .LVU196
 727 005c 1A6B     		ldr	r2, [r3, #48]
 728 005e 42F48002 		orr	r2, r2, #4194304
 729 0062 1A63     		str	r2, [r3, #48]
 225:Drivers/icmDriver/_icm20948.c ****     Dma_Disable(DMA2_Stream2);
 730              		.loc 1 225 5 view .LVU197
 225:Drivers/icmDriver/_icm20948.c ****     Dma_Disable(DMA2_Stream2);
 731              		.loc 1 225 5 view .LVU198
 732 0064 444A     		ldr	r2, .L37+16
 733 0066 936D     		ldr	r3, [r2, #88]
 734 0068 23F00103 		bic	r3, r3, #1
 735 006c 9365     		str	r3, [r2, #88]
 225:Drivers/icmDriver/_icm20948.c ****     Dma_Disable(DMA2_Stream2);
 736              		.loc 1 225 5 view .LVU199
 737              	.L33:
 225:Drivers/icmDriver/_icm20948.c ****     Dma_Disable(DMA2_Stream2);
 738              		.loc 1 225 5 discriminator 2 view .LVU200
 739 006e 424B     		ldr	r3, .L37+16
 740 0070 9B6D     		ldr	r3, [r3, #88]
 741 0072 13F0010F 		tst	r3, #1
 742 0076 FAD1     		bne	.L33
 225:Drivers/icmDriver/_icm20948.c ****     Dma_Disable(DMA2_Stream2);
 743              		.loc 1 225 5 view .LVU201
 226:Drivers/icmDriver/_icm20948.c **** 
 744              		.loc 1 226 5 view .LVU202
 226:Drivers/icmDriver/_icm20948.c **** 
 745              		.loc 1 226 5 view .LVU203
 746 0078 3F4A     		ldr	r2, .L37+16
 747 007a 136C     		ldr	r3, [r2, #64]
 748 007c 23F00103 		bic	r3, r3, #1
 749 0080 1364     		str	r3, [r2, #64]
 226:Drivers/icmDriver/_icm20948.c **** 
 750              		.loc 1 226 5 view .LVU204
 751              	.L34:
 226:Drivers/icmDriver/_icm20948.c **** 
 752              		.loc 1 226 5 discriminator 2 view .LVU205
ARM GAS  /tmp/ccpoO1YS.s 			page 25


 753 0082 3D4B     		ldr	r3, .L37+16
 754 0084 1B6C     		ldr	r3, [r3, #64]
 755 0086 13F0010F 		tst	r3, #1
 756 008a FAD1     		bne	.L34
 226:Drivers/icmDriver/_icm20948.c **** 
 757              		.loc 1 226 5 view .LVU206
 228:Drivers/icmDriver/_icm20948.c ****                           DMA_LIFCR_CDMEIF3 | DMA_LIFCR_CFEIF3 |
 758              		.loc 1 228 5 view .LVU207
 759              	.LVL7:
 232:Drivers/icmDriver/_icm20948.c **** 
 760              		.loc 1 232 5 view .LVU208
 761 008c 3A4A     		ldr	r2, .L37+16
 762 008e 9168     		ldr	r1, [r2, #8]
 763 0090 3A4B     		ldr	r3, .L37+20
 764 0092 0B43     		orrs	r3, r3, r1
 765 0094 9360     		str	r3, [r2, #8]
 234:Drivers/icmDriver/_icm20948.c ****                                DMA_SxCR_MINC | DMA_SxCR_TCIE |
 766              		.loc 1 234 5 view .LVU209
 767              	.LVL8:
 237:Drivers/icmDriver/_icm20948.c ****     SET_BIT(DMA2_Stream3->CR, Dma2_Stream3_Cr);
 768              		.loc 1 237 5 view .LVU210
 769 0096 0023     		movs	r3, #0
 770 0098 9365     		str	r3, [r2, #88]
 238:Drivers/icmDriver/_icm20948.c **** 
 771              		.loc 1 238 5 view .LVU211
 772 009a 906D     		ldr	r0, [r2, #88]
 773 009c 3849     		ldr	r1, .L37+24
 774 009e 0143     		orrs	r1, r1, r0
 775 00a0 9165     		str	r1, [r2, #88]
 240:Drivers/icmDriver/_icm20948.c ****                                DMA_SxCR_MINC | DMA_SxCR_TCIE;
 776              		.loc 1 240 5 view .LVU212
 777              	.LVL9:
 242:Drivers/icmDriver/_icm20948.c ****     SET_BIT(DMA2_Stream2->CR, Dma2_Stream2_Cr);
 778              		.loc 1 242 5 view .LVU213
 779 00a2 1364     		str	r3, [r2, #64]
 243:Drivers/icmDriver/_icm20948.c ****     // RX_DMA_INIT Stream DMA2_Stream2
 780              		.loc 1 243 5 view .LVU214
 781 00a4 106C     		ldr	r0, [r2, #64]
 782 00a6 3749     		ldr	r1, .L37+28
 783 00a8 0143     		orrs	r1, r1, r0
 784 00aa 1164     		str	r1, [r2, #64]
 246:Drivers/icmDriver/_icm20948.c ****     DMA2_Stream2->PAR = (uint32_t)&(SPI1->DR); // rx
 785              		.loc 1 246 5 view .LVU215
 246:Drivers/icmDriver/_icm20948.c ****     DMA2_Stream2->PAR = (uint32_t)&(SPI1->DR); // rx
 786              		.loc 1 246 23 is_stmt 0 view .LVU216
 787 00ac 3649     		ldr	r1, .L37+32
 788 00ae 1166     		str	r1, [r2, #96]
 247:Drivers/icmDriver/_icm20948.c **** 
 789              		.loc 1 247 5 is_stmt 1 view .LVU217
 247:Drivers/icmDriver/_icm20948.c **** 
 790              		.loc 1 247 23 is_stmt 0 view .LVU218
 791 00b0 9164     		str	r1, [r2, #72]
 249:Drivers/icmDriver/_icm20948.c ****     NVIC_EnableIRQ(DMA2_Stream3_IRQn);
 792              		.loc 1 249 5 is_stmt 1 view .LVU219
 793              	.LVL10:
 794              	.LBB51:
 795              	.LBI51:
ARM GAS  /tmp/ccpoO1YS.s 			page 26


 796              		.file 2 "Drivers/CMSIS/Include/core_cm7.h"
   1:Drivers/CMSIS/Include/core_cm7.h **** /**************************************************************************//**
   2:Drivers/CMSIS/Include/core_cm7.h ****  * @file     core_cm7.h
   3:Drivers/CMSIS/Include/core_cm7.h ****  * @brief    CMSIS Cortex-M7 Core Peripheral Access Layer Header File
   4:Drivers/CMSIS/Include/core_cm7.h ****  * @version  V5.0.8
   5:Drivers/CMSIS/Include/core_cm7.h ****  * @date     04. June 2018
   6:Drivers/CMSIS/Include/core_cm7.h ****  ******************************************************************************/
   7:Drivers/CMSIS/Include/core_cm7.h **** /*
   8:Drivers/CMSIS/Include/core_cm7.h ****  * Copyright (c) 2009-2018 Arm Limited. All rights reserved.
   9:Drivers/CMSIS/Include/core_cm7.h ****  *
  10:Drivers/CMSIS/Include/core_cm7.h ****  * SPDX-License-Identifier: Apache-2.0
  11:Drivers/CMSIS/Include/core_cm7.h ****  *
  12:Drivers/CMSIS/Include/core_cm7.h ****  * Licensed under the Apache License, Version 2.0 (the License); you may
  13:Drivers/CMSIS/Include/core_cm7.h ****  * not use this file except in compliance with the License.
  14:Drivers/CMSIS/Include/core_cm7.h ****  * You may obtain a copy of the License at
  15:Drivers/CMSIS/Include/core_cm7.h ****  *
  16:Drivers/CMSIS/Include/core_cm7.h ****  * www.apache.org/licenses/LICENSE-2.0
  17:Drivers/CMSIS/Include/core_cm7.h ****  *
  18:Drivers/CMSIS/Include/core_cm7.h ****  * Unless required by applicable law or agreed to in writing, software
  19:Drivers/CMSIS/Include/core_cm7.h ****  * distributed under the License is distributed on an AS IS BASIS, WITHOUT
  20:Drivers/CMSIS/Include/core_cm7.h ****  * WARRANTIES OR CONDITIONS OF ANY KIND, either express or implied.
  21:Drivers/CMSIS/Include/core_cm7.h ****  * See the License for the specific language governing permissions and
  22:Drivers/CMSIS/Include/core_cm7.h ****  * limitations under the License.
  23:Drivers/CMSIS/Include/core_cm7.h ****  */
  24:Drivers/CMSIS/Include/core_cm7.h **** 
  25:Drivers/CMSIS/Include/core_cm7.h **** #if   defined ( __ICCARM__ )
  26:Drivers/CMSIS/Include/core_cm7.h ****   #pragma system_include         /* treat file as system include file for MISRA check */
  27:Drivers/CMSIS/Include/core_cm7.h **** #elif defined (__clang__)
  28:Drivers/CMSIS/Include/core_cm7.h ****   #pragma clang system_header   /* treat file as system include file */
  29:Drivers/CMSIS/Include/core_cm7.h **** #endif
  30:Drivers/CMSIS/Include/core_cm7.h **** 
  31:Drivers/CMSIS/Include/core_cm7.h **** #ifndef __CORE_CM7_H_GENERIC
  32:Drivers/CMSIS/Include/core_cm7.h **** #define __CORE_CM7_H_GENERIC
  33:Drivers/CMSIS/Include/core_cm7.h **** 
  34:Drivers/CMSIS/Include/core_cm7.h **** #include <stdint.h>
  35:Drivers/CMSIS/Include/core_cm7.h **** 
  36:Drivers/CMSIS/Include/core_cm7.h **** #ifdef __cplusplus
  37:Drivers/CMSIS/Include/core_cm7.h ****  extern "C" {
  38:Drivers/CMSIS/Include/core_cm7.h **** #endif
  39:Drivers/CMSIS/Include/core_cm7.h **** 
  40:Drivers/CMSIS/Include/core_cm7.h **** /**
  41:Drivers/CMSIS/Include/core_cm7.h ****   \page CMSIS_MISRA_Exceptions  MISRA-C:2004 Compliance Exceptions
  42:Drivers/CMSIS/Include/core_cm7.h ****   CMSIS violates the following MISRA-C:2004 rules:
  43:Drivers/CMSIS/Include/core_cm7.h **** 
  44:Drivers/CMSIS/Include/core_cm7.h ****    \li Required Rule 8.5, object/function definition in header file.<br>
  45:Drivers/CMSIS/Include/core_cm7.h ****      Function definitions in header files are used to allow 'inlining'.
  46:Drivers/CMSIS/Include/core_cm7.h **** 
  47:Drivers/CMSIS/Include/core_cm7.h ****    \li Required Rule 18.4, declaration of union type or object of union type: '{...}'.<br>
  48:Drivers/CMSIS/Include/core_cm7.h ****      Unions are used for effective representation of core registers.
  49:Drivers/CMSIS/Include/core_cm7.h **** 
  50:Drivers/CMSIS/Include/core_cm7.h ****    \li Advisory Rule 19.7, Function-like macro defined.<br>
  51:Drivers/CMSIS/Include/core_cm7.h ****      Function-like macros are used to allow more efficient code.
  52:Drivers/CMSIS/Include/core_cm7.h ****  */
  53:Drivers/CMSIS/Include/core_cm7.h **** 
  54:Drivers/CMSIS/Include/core_cm7.h **** 
  55:Drivers/CMSIS/Include/core_cm7.h **** /*******************************************************************************
  56:Drivers/CMSIS/Include/core_cm7.h ****  *                 CMSIS definitions
ARM GAS  /tmp/ccpoO1YS.s 			page 27


  57:Drivers/CMSIS/Include/core_cm7.h ****  ******************************************************************************/
  58:Drivers/CMSIS/Include/core_cm7.h **** /**
  59:Drivers/CMSIS/Include/core_cm7.h ****   \ingroup Cortex_M7
  60:Drivers/CMSIS/Include/core_cm7.h ****   @{
  61:Drivers/CMSIS/Include/core_cm7.h ****  */
  62:Drivers/CMSIS/Include/core_cm7.h **** 
  63:Drivers/CMSIS/Include/core_cm7.h **** #include "cmsis_version.h"
  64:Drivers/CMSIS/Include/core_cm7.h **** 
  65:Drivers/CMSIS/Include/core_cm7.h **** /* CMSIS CM7 definitions */
  66:Drivers/CMSIS/Include/core_cm7.h **** #define __CM7_CMSIS_VERSION_MAIN  (__CM_CMSIS_VERSION_MAIN)                  /*!< \deprecated [31:1
  67:Drivers/CMSIS/Include/core_cm7.h **** #define __CM7_CMSIS_VERSION_SUB   ( __CM_CMSIS_VERSION_SUB)                  /*!< \deprecated [15:0
  68:Drivers/CMSIS/Include/core_cm7.h **** #define __CM7_CMSIS_VERSION       ((__CM7_CMSIS_VERSION_MAIN << 16U) | \
  69:Drivers/CMSIS/Include/core_cm7.h ****                                     __CM7_CMSIS_VERSION_SUB           )      /*!< \deprecated CMSIS
  70:Drivers/CMSIS/Include/core_cm7.h **** 
  71:Drivers/CMSIS/Include/core_cm7.h **** #define __CORTEX_M                (7U)                                       /*!< Cortex-M Core */
  72:Drivers/CMSIS/Include/core_cm7.h **** 
  73:Drivers/CMSIS/Include/core_cm7.h **** /** __FPU_USED indicates whether an FPU is used or not.
  74:Drivers/CMSIS/Include/core_cm7.h ****     For this, __FPU_PRESENT has to be checked prior to making use of FPU specific registers and fun
  75:Drivers/CMSIS/Include/core_cm7.h **** */
  76:Drivers/CMSIS/Include/core_cm7.h **** #if defined ( __CC_ARM )
  77:Drivers/CMSIS/Include/core_cm7.h ****   #if defined __TARGET_FPU_VFP
  78:Drivers/CMSIS/Include/core_cm7.h ****     #if defined (__FPU_PRESENT) && (__FPU_PRESENT == 1U)
  79:Drivers/CMSIS/Include/core_cm7.h ****       #define __FPU_USED       1U
  80:Drivers/CMSIS/Include/core_cm7.h ****     #else
  81:Drivers/CMSIS/Include/core_cm7.h ****       #error "Compiler generates FPU instructions for a device without an FPU (check __FPU_PRESENT)
  82:Drivers/CMSIS/Include/core_cm7.h ****       #define __FPU_USED       0U
  83:Drivers/CMSIS/Include/core_cm7.h ****     #endif
  84:Drivers/CMSIS/Include/core_cm7.h ****   #else
  85:Drivers/CMSIS/Include/core_cm7.h ****     #define __FPU_USED         0U
  86:Drivers/CMSIS/Include/core_cm7.h ****   #endif
  87:Drivers/CMSIS/Include/core_cm7.h **** 
  88:Drivers/CMSIS/Include/core_cm7.h **** #elif defined (__ARMCC_VERSION) && (__ARMCC_VERSION >= 6010050)
  89:Drivers/CMSIS/Include/core_cm7.h ****   #if defined __ARM_PCS_VFP
  90:Drivers/CMSIS/Include/core_cm7.h ****     #if defined (__FPU_PRESENT) && (__FPU_PRESENT == 1U)
  91:Drivers/CMSIS/Include/core_cm7.h ****       #define __FPU_USED       1U
  92:Drivers/CMSIS/Include/core_cm7.h ****     #else
  93:Drivers/CMSIS/Include/core_cm7.h ****       #warning "Compiler generates FPU instructions for a device without an FPU (check __FPU_PRESEN
  94:Drivers/CMSIS/Include/core_cm7.h ****       #define __FPU_USED       0U
  95:Drivers/CMSIS/Include/core_cm7.h ****     #endif
  96:Drivers/CMSIS/Include/core_cm7.h ****   #else
  97:Drivers/CMSIS/Include/core_cm7.h ****     #define __FPU_USED         0U
  98:Drivers/CMSIS/Include/core_cm7.h ****   #endif
  99:Drivers/CMSIS/Include/core_cm7.h **** 
 100:Drivers/CMSIS/Include/core_cm7.h **** #elif defined ( __GNUC__ )
 101:Drivers/CMSIS/Include/core_cm7.h ****   #if defined (__VFP_FP__) && !defined(__SOFTFP__)
 102:Drivers/CMSIS/Include/core_cm7.h ****     #if defined (__FPU_PRESENT) && (__FPU_PRESENT == 1U)
 103:Drivers/CMSIS/Include/core_cm7.h ****       #define __FPU_USED       1U
 104:Drivers/CMSIS/Include/core_cm7.h ****     #else
 105:Drivers/CMSIS/Include/core_cm7.h ****       #error "Compiler generates FPU instructions for a device without an FPU (check __FPU_PRESENT)
 106:Drivers/CMSIS/Include/core_cm7.h ****       #define __FPU_USED       0U
 107:Drivers/CMSIS/Include/core_cm7.h ****     #endif
 108:Drivers/CMSIS/Include/core_cm7.h ****   #else
 109:Drivers/CMSIS/Include/core_cm7.h ****     #define __FPU_USED         0U
 110:Drivers/CMSIS/Include/core_cm7.h ****   #endif
 111:Drivers/CMSIS/Include/core_cm7.h **** 
 112:Drivers/CMSIS/Include/core_cm7.h **** #elif defined ( __ICCARM__ )
 113:Drivers/CMSIS/Include/core_cm7.h ****   #if defined __ARMVFP__
ARM GAS  /tmp/ccpoO1YS.s 			page 28


 114:Drivers/CMSIS/Include/core_cm7.h ****     #if defined (__FPU_PRESENT) && (__FPU_PRESENT == 1U)
 115:Drivers/CMSIS/Include/core_cm7.h ****       #define __FPU_USED       1U
 116:Drivers/CMSIS/Include/core_cm7.h ****     #else
 117:Drivers/CMSIS/Include/core_cm7.h ****       #error "Compiler generates FPU instructions for a device without an FPU (check __FPU_PRESENT)
 118:Drivers/CMSIS/Include/core_cm7.h ****       #define __FPU_USED       0U
 119:Drivers/CMSIS/Include/core_cm7.h ****     #endif
 120:Drivers/CMSIS/Include/core_cm7.h ****   #else
 121:Drivers/CMSIS/Include/core_cm7.h ****     #define __FPU_USED         0U
 122:Drivers/CMSIS/Include/core_cm7.h ****   #endif
 123:Drivers/CMSIS/Include/core_cm7.h **** 
 124:Drivers/CMSIS/Include/core_cm7.h **** #elif defined ( __TI_ARM__ )
 125:Drivers/CMSIS/Include/core_cm7.h ****   #if defined __TI_VFP_SUPPORT__
 126:Drivers/CMSIS/Include/core_cm7.h ****     #if defined (__FPU_PRESENT) && (__FPU_PRESENT == 1U)
 127:Drivers/CMSIS/Include/core_cm7.h ****       #define __FPU_USED       1U
 128:Drivers/CMSIS/Include/core_cm7.h ****     #else
 129:Drivers/CMSIS/Include/core_cm7.h ****       #error "Compiler generates FPU instructions for a device without an FPU (check __FPU_PRESENT)
 130:Drivers/CMSIS/Include/core_cm7.h ****       #define __FPU_USED       0U
 131:Drivers/CMSIS/Include/core_cm7.h ****     #endif
 132:Drivers/CMSIS/Include/core_cm7.h ****   #else
 133:Drivers/CMSIS/Include/core_cm7.h ****     #define __FPU_USED         0U
 134:Drivers/CMSIS/Include/core_cm7.h ****   #endif
 135:Drivers/CMSIS/Include/core_cm7.h **** 
 136:Drivers/CMSIS/Include/core_cm7.h **** #elif defined ( __TASKING__ )
 137:Drivers/CMSIS/Include/core_cm7.h ****   #if defined __FPU_VFP__
 138:Drivers/CMSIS/Include/core_cm7.h ****     #if defined (__FPU_PRESENT) && (__FPU_PRESENT == 1U)
 139:Drivers/CMSIS/Include/core_cm7.h ****       #define __FPU_USED       1U
 140:Drivers/CMSIS/Include/core_cm7.h ****     #else
 141:Drivers/CMSIS/Include/core_cm7.h ****       #error "Compiler generates FPU instructions for a device without an FPU (check __FPU_PRESENT)
 142:Drivers/CMSIS/Include/core_cm7.h ****       #define __FPU_USED       0U
 143:Drivers/CMSIS/Include/core_cm7.h ****     #endif
 144:Drivers/CMSIS/Include/core_cm7.h ****   #else
 145:Drivers/CMSIS/Include/core_cm7.h ****     #define __FPU_USED         0U
 146:Drivers/CMSIS/Include/core_cm7.h ****   #endif
 147:Drivers/CMSIS/Include/core_cm7.h **** 
 148:Drivers/CMSIS/Include/core_cm7.h **** #elif defined ( __CSMC__ )
 149:Drivers/CMSIS/Include/core_cm7.h ****   #if ( __CSMC__ & 0x400U)
 150:Drivers/CMSIS/Include/core_cm7.h ****     #if defined (__FPU_PRESENT) && (__FPU_PRESENT == 1U)
 151:Drivers/CMSIS/Include/core_cm7.h ****       #define __FPU_USED       1U
 152:Drivers/CMSIS/Include/core_cm7.h ****     #else
 153:Drivers/CMSIS/Include/core_cm7.h ****       #error "Compiler generates FPU instructions for a device without an FPU (check __FPU_PRESENT)
 154:Drivers/CMSIS/Include/core_cm7.h ****       #define __FPU_USED       0U
 155:Drivers/CMSIS/Include/core_cm7.h ****     #endif
 156:Drivers/CMSIS/Include/core_cm7.h ****   #else
 157:Drivers/CMSIS/Include/core_cm7.h ****     #define __FPU_USED         0U
 158:Drivers/CMSIS/Include/core_cm7.h ****   #endif
 159:Drivers/CMSIS/Include/core_cm7.h **** 
 160:Drivers/CMSIS/Include/core_cm7.h **** #endif
 161:Drivers/CMSIS/Include/core_cm7.h **** 
 162:Drivers/CMSIS/Include/core_cm7.h **** #include "cmsis_compiler.h"               /* CMSIS compiler specific defines */
 163:Drivers/CMSIS/Include/core_cm7.h **** 
 164:Drivers/CMSIS/Include/core_cm7.h **** 
 165:Drivers/CMSIS/Include/core_cm7.h **** #ifdef __cplusplus
 166:Drivers/CMSIS/Include/core_cm7.h **** }
 167:Drivers/CMSIS/Include/core_cm7.h **** #endif
 168:Drivers/CMSIS/Include/core_cm7.h **** 
 169:Drivers/CMSIS/Include/core_cm7.h **** #endif /* __CORE_CM7_H_GENERIC */
 170:Drivers/CMSIS/Include/core_cm7.h **** 
ARM GAS  /tmp/ccpoO1YS.s 			page 29


 171:Drivers/CMSIS/Include/core_cm7.h **** #ifndef __CMSIS_GENERIC
 172:Drivers/CMSIS/Include/core_cm7.h **** 
 173:Drivers/CMSIS/Include/core_cm7.h **** #ifndef __CORE_CM7_H_DEPENDANT
 174:Drivers/CMSIS/Include/core_cm7.h **** #define __CORE_CM7_H_DEPENDANT
 175:Drivers/CMSIS/Include/core_cm7.h **** 
 176:Drivers/CMSIS/Include/core_cm7.h **** #ifdef __cplusplus
 177:Drivers/CMSIS/Include/core_cm7.h ****  extern "C" {
 178:Drivers/CMSIS/Include/core_cm7.h **** #endif
 179:Drivers/CMSIS/Include/core_cm7.h **** 
 180:Drivers/CMSIS/Include/core_cm7.h **** /* check device defines and use defaults */
 181:Drivers/CMSIS/Include/core_cm7.h **** #if defined __CHECK_DEVICE_DEFINES
 182:Drivers/CMSIS/Include/core_cm7.h ****   #ifndef __CM7_REV
 183:Drivers/CMSIS/Include/core_cm7.h ****     #define __CM7_REV               0x0000U
 184:Drivers/CMSIS/Include/core_cm7.h ****     #warning "__CM7_REV not defined in device header file; using default!"
 185:Drivers/CMSIS/Include/core_cm7.h ****   #endif
 186:Drivers/CMSIS/Include/core_cm7.h **** 
 187:Drivers/CMSIS/Include/core_cm7.h ****   #ifndef __FPU_PRESENT
 188:Drivers/CMSIS/Include/core_cm7.h ****     #define __FPU_PRESENT             0U
 189:Drivers/CMSIS/Include/core_cm7.h ****     #warning "__FPU_PRESENT not defined in device header file; using default!"
 190:Drivers/CMSIS/Include/core_cm7.h ****   #endif
 191:Drivers/CMSIS/Include/core_cm7.h **** 
 192:Drivers/CMSIS/Include/core_cm7.h ****   #ifndef __MPU_PRESENT
 193:Drivers/CMSIS/Include/core_cm7.h ****     #define __MPU_PRESENT             0U
 194:Drivers/CMSIS/Include/core_cm7.h ****     #warning "__MPU_PRESENT not defined in device header file; using default!"
 195:Drivers/CMSIS/Include/core_cm7.h ****   #endif
 196:Drivers/CMSIS/Include/core_cm7.h **** 
 197:Drivers/CMSIS/Include/core_cm7.h ****   #ifndef __ICACHE_PRESENT
 198:Drivers/CMSIS/Include/core_cm7.h ****     #define __ICACHE_PRESENT          0U
 199:Drivers/CMSIS/Include/core_cm7.h ****     #warning "__ICACHE_PRESENT not defined in device header file; using default!"
 200:Drivers/CMSIS/Include/core_cm7.h ****   #endif
 201:Drivers/CMSIS/Include/core_cm7.h **** 
 202:Drivers/CMSIS/Include/core_cm7.h ****   #ifndef __DCACHE_PRESENT
 203:Drivers/CMSIS/Include/core_cm7.h ****     #define __DCACHE_PRESENT          0U
 204:Drivers/CMSIS/Include/core_cm7.h ****     #warning "__DCACHE_PRESENT not defined in device header file; using default!"
 205:Drivers/CMSIS/Include/core_cm7.h ****   #endif
 206:Drivers/CMSIS/Include/core_cm7.h **** 
 207:Drivers/CMSIS/Include/core_cm7.h ****   #ifndef __DTCM_PRESENT
 208:Drivers/CMSIS/Include/core_cm7.h ****     #define __DTCM_PRESENT            0U
 209:Drivers/CMSIS/Include/core_cm7.h ****     #warning "__DTCM_PRESENT        not defined in device header file; using default!"
 210:Drivers/CMSIS/Include/core_cm7.h ****   #endif
 211:Drivers/CMSIS/Include/core_cm7.h **** 
 212:Drivers/CMSIS/Include/core_cm7.h ****   #ifndef __NVIC_PRIO_BITS
 213:Drivers/CMSIS/Include/core_cm7.h ****     #define __NVIC_PRIO_BITS          3U
 214:Drivers/CMSIS/Include/core_cm7.h ****     #warning "__NVIC_PRIO_BITS not defined in device header file; using default!"
 215:Drivers/CMSIS/Include/core_cm7.h ****   #endif
 216:Drivers/CMSIS/Include/core_cm7.h **** 
 217:Drivers/CMSIS/Include/core_cm7.h ****   #ifndef __Vendor_SysTickConfig
 218:Drivers/CMSIS/Include/core_cm7.h ****     #define __Vendor_SysTickConfig    0U
 219:Drivers/CMSIS/Include/core_cm7.h ****     #warning "__Vendor_SysTickConfig not defined in device header file; using default!"
 220:Drivers/CMSIS/Include/core_cm7.h ****   #endif
 221:Drivers/CMSIS/Include/core_cm7.h **** #endif
 222:Drivers/CMSIS/Include/core_cm7.h **** 
 223:Drivers/CMSIS/Include/core_cm7.h **** /* IO definitions (access restrictions to peripheral registers) */
 224:Drivers/CMSIS/Include/core_cm7.h **** /**
 225:Drivers/CMSIS/Include/core_cm7.h ****     \defgroup CMSIS_glob_defs CMSIS Global Defines
 226:Drivers/CMSIS/Include/core_cm7.h **** 
 227:Drivers/CMSIS/Include/core_cm7.h ****     <strong>IO Type Qualifiers</strong> are used
ARM GAS  /tmp/ccpoO1YS.s 			page 30


 228:Drivers/CMSIS/Include/core_cm7.h ****     \li to specify the access to peripheral variables.
 229:Drivers/CMSIS/Include/core_cm7.h ****     \li for automatic generation of peripheral register debug information.
 230:Drivers/CMSIS/Include/core_cm7.h **** */
 231:Drivers/CMSIS/Include/core_cm7.h **** #ifdef __cplusplus
 232:Drivers/CMSIS/Include/core_cm7.h ****   #define   __I     volatile             /*!< Defines 'read only' permissions */
 233:Drivers/CMSIS/Include/core_cm7.h **** #else
 234:Drivers/CMSIS/Include/core_cm7.h ****   #define   __I     volatile const       /*!< Defines 'read only' permissions */
 235:Drivers/CMSIS/Include/core_cm7.h **** #endif
 236:Drivers/CMSIS/Include/core_cm7.h **** #define     __O     volatile             /*!< Defines 'write only' permissions */
 237:Drivers/CMSIS/Include/core_cm7.h **** #define     __IO    volatile             /*!< Defines 'read / write' permissions */
 238:Drivers/CMSIS/Include/core_cm7.h **** 
 239:Drivers/CMSIS/Include/core_cm7.h **** /* following defines should be used for structure members */
 240:Drivers/CMSIS/Include/core_cm7.h **** #define     __IM     volatile const      /*! Defines 'read only' structure member permissions */
 241:Drivers/CMSIS/Include/core_cm7.h **** #define     __OM     volatile            /*! Defines 'write only' structure member permissions */
 242:Drivers/CMSIS/Include/core_cm7.h **** #define     __IOM    volatile            /*! Defines 'read / write' structure member permissions */
 243:Drivers/CMSIS/Include/core_cm7.h **** 
 244:Drivers/CMSIS/Include/core_cm7.h **** /*@} end of group Cortex_M7 */
 245:Drivers/CMSIS/Include/core_cm7.h **** 
 246:Drivers/CMSIS/Include/core_cm7.h **** 
 247:Drivers/CMSIS/Include/core_cm7.h **** 
 248:Drivers/CMSIS/Include/core_cm7.h **** /*******************************************************************************
 249:Drivers/CMSIS/Include/core_cm7.h ****  *                 Register Abstraction
 250:Drivers/CMSIS/Include/core_cm7.h ****   Core Register contain:
 251:Drivers/CMSIS/Include/core_cm7.h ****   - Core Register
 252:Drivers/CMSIS/Include/core_cm7.h ****   - Core NVIC Register
 253:Drivers/CMSIS/Include/core_cm7.h ****   - Core SCB Register
 254:Drivers/CMSIS/Include/core_cm7.h ****   - Core SysTick Register
 255:Drivers/CMSIS/Include/core_cm7.h ****   - Core Debug Register
 256:Drivers/CMSIS/Include/core_cm7.h ****   - Core MPU Register
 257:Drivers/CMSIS/Include/core_cm7.h ****   - Core FPU Register
 258:Drivers/CMSIS/Include/core_cm7.h ****  ******************************************************************************/
 259:Drivers/CMSIS/Include/core_cm7.h **** /**
 260:Drivers/CMSIS/Include/core_cm7.h ****   \defgroup CMSIS_core_register Defines and Type Definitions
 261:Drivers/CMSIS/Include/core_cm7.h ****   \brief Type definitions and defines for Cortex-M processor based devices.
 262:Drivers/CMSIS/Include/core_cm7.h **** */
 263:Drivers/CMSIS/Include/core_cm7.h **** 
 264:Drivers/CMSIS/Include/core_cm7.h **** /**
 265:Drivers/CMSIS/Include/core_cm7.h ****   \ingroup    CMSIS_core_register
 266:Drivers/CMSIS/Include/core_cm7.h ****   \defgroup   CMSIS_CORE  Status and Control Registers
 267:Drivers/CMSIS/Include/core_cm7.h ****   \brief      Core Register type definitions.
 268:Drivers/CMSIS/Include/core_cm7.h ****   @{
 269:Drivers/CMSIS/Include/core_cm7.h ****  */
 270:Drivers/CMSIS/Include/core_cm7.h **** 
 271:Drivers/CMSIS/Include/core_cm7.h **** /**
 272:Drivers/CMSIS/Include/core_cm7.h ****   \brief  Union type to access the Application Program Status Register (APSR).
 273:Drivers/CMSIS/Include/core_cm7.h ****  */
 274:Drivers/CMSIS/Include/core_cm7.h **** typedef union
 275:Drivers/CMSIS/Include/core_cm7.h **** {
 276:Drivers/CMSIS/Include/core_cm7.h ****   struct
 277:Drivers/CMSIS/Include/core_cm7.h ****   {
 278:Drivers/CMSIS/Include/core_cm7.h ****     uint32_t _reserved0:16;              /*!< bit:  0..15  Reserved */
 279:Drivers/CMSIS/Include/core_cm7.h ****     uint32_t GE:4;                       /*!< bit: 16..19  Greater than or Equal flags */
 280:Drivers/CMSIS/Include/core_cm7.h ****     uint32_t _reserved1:7;               /*!< bit: 20..26  Reserved */
 281:Drivers/CMSIS/Include/core_cm7.h ****     uint32_t Q:1;                        /*!< bit:     27  Saturation condition flag */
 282:Drivers/CMSIS/Include/core_cm7.h ****     uint32_t V:1;                        /*!< bit:     28  Overflow condition code flag */
 283:Drivers/CMSIS/Include/core_cm7.h ****     uint32_t C:1;                        /*!< bit:     29  Carry condition code flag */
 284:Drivers/CMSIS/Include/core_cm7.h ****     uint32_t Z:1;                        /*!< bit:     30  Zero condition code flag */
ARM GAS  /tmp/ccpoO1YS.s 			page 31


 285:Drivers/CMSIS/Include/core_cm7.h ****     uint32_t N:1;                        /*!< bit:     31  Negative condition code flag */
 286:Drivers/CMSIS/Include/core_cm7.h ****   } b;                                   /*!< Structure used for bit  access */
 287:Drivers/CMSIS/Include/core_cm7.h ****   uint32_t w;                            /*!< Type      used for word access */
 288:Drivers/CMSIS/Include/core_cm7.h **** } APSR_Type;
 289:Drivers/CMSIS/Include/core_cm7.h **** 
 290:Drivers/CMSIS/Include/core_cm7.h **** /* APSR Register Definitions */
 291:Drivers/CMSIS/Include/core_cm7.h **** #define APSR_N_Pos                         31U                                            /*!< APSR
 292:Drivers/CMSIS/Include/core_cm7.h **** #define APSR_N_Msk                         (1UL << APSR_N_Pos)                            /*!< APSR
 293:Drivers/CMSIS/Include/core_cm7.h **** 
 294:Drivers/CMSIS/Include/core_cm7.h **** #define APSR_Z_Pos                         30U                                            /*!< APSR
 295:Drivers/CMSIS/Include/core_cm7.h **** #define APSR_Z_Msk                         (1UL << APSR_Z_Pos)                            /*!< APSR
 296:Drivers/CMSIS/Include/core_cm7.h **** 
 297:Drivers/CMSIS/Include/core_cm7.h **** #define APSR_C_Pos                         29U                                            /*!< APSR
 298:Drivers/CMSIS/Include/core_cm7.h **** #define APSR_C_Msk                         (1UL << APSR_C_Pos)                            /*!< APSR
 299:Drivers/CMSIS/Include/core_cm7.h **** 
 300:Drivers/CMSIS/Include/core_cm7.h **** #define APSR_V_Pos                         28U                                            /*!< APSR
 301:Drivers/CMSIS/Include/core_cm7.h **** #define APSR_V_Msk                         (1UL << APSR_V_Pos)                            /*!< APSR
 302:Drivers/CMSIS/Include/core_cm7.h **** 
 303:Drivers/CMSIS/Include/core_cm7.h **** #define APSR_Q_Pos                         27U                                            /*!< APSR
 304:Drivers/CMSIS/Include/core_cm7.h **** #define APSR_Q_Msk                         (1UL << APSR_Q_Pos)                            /*!< APSR
 305:Drivers/CMSIS/Include/core_cm7.h **** 
 306:Drivers/CMSIS/Include/core_cm7.h **** #define APSR_GE_Pos                        16U                                            /*!< APSR
 307:Drivers/CMSIS/Include/core_cm7.h **** #define APSR_GE_Msk                        (0xFUL << APSR_GE_Pos)                         /*!< APSR
 308:Drivers/CMSIS/Include/core_cm7.h **** 
 309:Drivers/CMSIS/Include/core_cm7.h **** 
 310:Drivers/CMSIS/Include/core_cm7.h **** /**
 311:Drivers/CMSIS/Include/core_cm7.h ****   \brief  Union type to access the Interrupt Program Status Register (IPSR).
 312:Drivers/CMSIS/Include/core_cm7.h ****  */
 313:Drivers/CMSIS/Include/core_cm7.h **** typedef union
 314:Drivers/CMSIS/Include/core_cm7.h **** {
 315:Drivers/CMSIS/Include/core_cm7.h ****   struct
 316:Drivers/CMSIS/Include/core_cm7.h ****   {
 317:Drivers/CMSIS/Include/core_cm7.h ****     uint32_t ISR:9;                      /*!< bit:  0.. 8  Exception number */
 318:Drivers/CMSIS/Include/core_cm7.h ****     uint32_t _reserved0:23;              /*!< bit:  9..31  Reserved */
 319:Drivers/CMSIS/Include/core_cm7.h ****   } b;                                   /*!< Structure used for bit  access */
 320:Drivers/CMSIS/Include/core_cm7.h ****   uint32_t w;                            /*!< Type      used for word access */
 321:Drivers/CMSIS/Include/core_cm7.h **** } IPSR_Type;
 322:Drivers/CMSIS/Include/core_cm7.h **** 
 323:Drivers/CMSIS/Include/core_cm7.h **** /* IPSR Register Definitions */
 324:Drivers/CMSIS/Include/core_cm7.h **** #define IPSR_ISR_Pos                        0U                                            /*!< IPSR
 325:Drivers/CMSIS/Include/core_cm7.h **** #define IPSR_ISR_Msk                       (0x1FFUL /*<< IPSR_ISR_Pos*/)                  /*!< IPSR
 326:Drivers/CMSIS/Include/core_cm7.h **** 
 327:Drivers/CMSIS/Include/core_cm7.h **** 
 328:Drivers/CMSIS/Include/core_cm7.h **** /**
 329:Drivers/CMSIS/Include/core_cm7.h ****   \brief  Union type to access the Special-Purpose Program Status Registers (xPSR).
 330:Drivers/CMSIS/Include/core_cm7.h ****  */
 331:Drivers/CMSIS/Include/core_cm7.h **** typedef union
 332:Drivers/CMSIS/Include/core_cm7.h **** {
 333:Drivers/CMSIS/Include/core_cm7.h ****   struct
 334:Drivers/CMSIS/Include/core_cm7.h ****   {
 335:Drivers/CMSIS/Include/core_cm7.h ****     uint32_t ISR:9;                      /*!< bit:  0.. 8  Exception number */
 336:Drivers/CMSIS/Include/core_cm7.h ****     uint32_t _reserved0:1;               /*!< bit:      9  Reserved */
 337:Drivers/CMSIS/Include/core_cm7.h ****     uint32_t ICI_IT_1:6;                 /*!< bit: 10..15  ICI/IT part 1 */
 338:Drivers/CMSIS/Include/core_cm7.h ****     uint32_t GE:4;                       /*!< bit: 16..19  Greater than or Equal flags */
 339:Drivers/CMSIS/Include/core_cm7.h ****     uint32_t _reserved1:4;               /*!< bit: 20..23  Reserved */
 340:Drivers/CMSIS/Include/core_cm7.h ****     uint32_t T:1;                        /*!< bit:     24  Thumb bit */
 341:Drivers/CMSIS/Include/core_cm7.h ****     uint32_t ICI_IT_2:2;                 /*!< bit: 25..26  ICI/IT part 2 */
ARM GAS  /tmp/ccpoO1YS.s 			page 32


 342:Drivers/CMSIS/Include/core_cm7.h ****     uint32_t Q:1;                        /*!< bit:     27  Saturation condition flag */
 343:Drivers/CMSIS/Include/core_cm7.h ****     uint32_t V:1;                        /*!< bit:     28  Overflow condition code flag */
 344:Drivers/CMSIS/Include/core_cm7.h ****     uint32_t C:1;                        /*!< bit:     29  Carry condition code flag */
 345:Drivers/CMSIS/Include/core_cm7.h ****     uint32_t Z:1;                        /*!< bit:     30  Zero condition code flag */
 346:Drivers/CMSIS/Include/core_cm7.h ****     uint32_t N:1;                        /*!< bit:     31  Negative condition code flag */
 347:Drivers/CMSIS/Include/core_cm7.h ****   } b;                                   /*!< Structure used for bit  access */
 348:Drivers/CMSIS/Include/core_cm7.h ****   uint32_t w;                            /*!< Type      used for word access */
 349:Drivers/CMSIS/Include/core_cm7.h **** } xPSR_Type;
 350:Drivers/CMSIS/Include/core_cm7.h **** 
 351:Drivers/CMSIS/Include/core_cm7.h **** /* xPSR Register Definitions */
 352:Drivers/CMSIS/Include/core_cm7.h **** #define xPSR_N_Pos                         31U                                            /*!< xPSR
 353:Drivers/CMSIS/Include/core_cm7.h **** #define xPSR_N_Msk                         (1UL << xPSR_N_Pos)                            /*!< xPSR
 354:Drivers/CMSIS/Include/core_cm7.h **** 
 355:Drivers/CMSIS/Include/core_cm7.h **** #define xPSR_Z_Pos                         30U                                            /*!< xPSR
 356:Drivers/CMSIS/Include/core_cm7.h **** #define xPSR_Z_Msk                         (1UL << xPSR_Z_Pos)                            /*!< xPSR
 357:Drivers/CMSIS/Include/core_cm7.h **** 
 358:Drivers/CMSIS/Include/core_cm7.h **** #define xPSR_C_Pos                         29U                                            /*!< xPSR
 359:Drivers/CMSIS/Include/core_cm7.h **** #define xPSR_C_Msk                         (1UL << xPSR_C_Pos)                            /*!< xPSR
 360:Drivers/CMSIS/Include/core_cm7.h **** 
 361:Drivers/CMSIS/Include/core_cm7.h **** #define xPSR_V_Pos                         28U                                            /*!< xPSR
 362:Drivers/CMSIS/Include/core_cm7.h **** #define xPSR_V_Msk                         (1UL << xPSR_V_Pos)                            /*!< xPSR
 363:Drivers/CMSIS/Include/core_cm7.h **** 
 364:Drivers/CMSIS/Include/core_cm7.h **** #define xPSR_Q_Pos                         27U                                            /*!< xPSR
 365:Drivers/CMSIS/Include/core_cm7.h **** #define xPSR_Q_Msk                         (1UL << xPSR_Q_Pos)                            /*!< xPSR
 366:Drivers/CMSIS/Include/core_cm7.h **** 
 367:Drivers/CMSIS/Include/core_cm7.h **** #define xPSR_ICI_IT_2_Pos                  25U                                            /*!< xPSR
 368:Drivers/CMSIS/Include/core_cm7.h **** #define xPSR_ICI_IT_2_Msk                  (3UL << xPSR_ICI_IT_2_Pos)                     /*!< xPSR
 369:Drivers/CMSIS/Include/core_cm7.h **** 
 370:Drivers/CMSIS/Include/core_cm7.h **** #define xPSR_T_Pos                         24U                                            /*!< xPSR
 371:Drivers/CMSIS/Include/core_cm7.h **** #define xPSR_T_Msk                         (1UL << xPSR_T_Pos)                            /*!< xPSR
 372:Drivers/CMSIS/Include/core_cm7.h **** 
 373:Drivers/CMSIS/Include/core_cm7.h **** #define xPSR_GE_Pos                        16U                                            /*!< xPSR
 374:Drivers/CMSIS/Include/core_cm7.h **** #define xPSR_GE_Msk                        (0xFUL << xPSR_GE_Pos)                         /*!< xPSR
 375:Drivers/CMSIS/Include/core_cm7.h **** 
 376:Drivers/CMSIS/Include/core_cm7.h **** #define xPSR_ICI_IT_1_Pos                  10U                                            /*!< xPSR
 377:Drivers/CMSIS/Include/core_cm7.h **** #define xPSR_ICI_IT_1_Msk                  (0x3FUL << xPSR_ICI_IT_1_Pos)                  /*!< xPSR
 378:Drivers/CMSIS/Include/core_cm7.h **** 
 379:Drivers/CMSIS/Include/core_cm7.h **** #define xPSR_ISR_Pos                        0U                                            /*!< xPSR
 380:Drivers/CMSIS/Include/core_cm7.h **** #define xPSR_ISR_Msk                       (0x1FFUL /*<< xPSR_ISR_Pos*/)                  /*!< xPSR
 381:Drivers/CMSIS/Include/core_cm7.h **** 
 382:Drivers/CMSIS/Include/core_cm7.h **** 
 383:Drivers/CMSIS/Include/core_cm7.h **** /**
 384:Drivers/CMSIS/Include/core_cm7.h ****   \brief  Union type to access the Control Registers (CONTROL).
 385:Drivers/CMSIS/Include/core_cm7.h ****  */
 386:Drivers/CMSIS/Include/core_cm7.h **** typedef union
 387:Drivers/CMSIS/Include/core_cm7.h **** {
 388:Drivers/CMSIS/Include/core_cm7.h ****   struct
 389:Drivers/CMSIS/Include/core_cm7.h ****   {
 390:Drivers/CMSIS/Include/core_cm7.h ****     uint32_t nPRIV:1;                    /*!< bit:      0  Execution privilege in Thread mode */
 391:Drivers/CMSIS/Include/core_cm7.h ****     uint32_t SPSEL:1;                    /*!< bit:      1  Stack to be used */
 392:Drivers/CMSIS/Include/core_cm7.h ****     uint32_t FPCA:1;                     /*!< bit:      2  FP extension active flag */
 393:Drivers/CMSIS/Include/core_cm7.h ****     uint32_t _reserved0:29;              /*!< bit:  3..31  Reserved */
 394:Drivers/CMSIS/Include/core_cm7.h ****   } b;                                   /*!< Structure used for bit  access */
 395:Drivers/CMSIS/Include/core_cm7.h ****   uint32_t w;                            /*!< Type      used for word access */
 396:Drivers/CMSIS/Include/core_cm7.h **** } CONTROL_Type;
 397:Drivers/CMSIS/Include/core_cm7.h **** 
 398:Drivers/CMSIS/Include/core_cm7.h **** /* CONTROL Register Definitions */
ARM GAS  /tmp/ccpoO1YS.s 			page 33


 399:Drivers/CMSIS/Include/core_cm7.h **** #define CONTROL_FPCA_Pos                    2U                                            /*!< CONT
 400:Drivers/CMSIS/Include/core_cm7.h **** #define CONTROL_FPCA_Msk                   (1UL << CONTROL_FPCA_Pos)                      /*!< CONT
 401:Drivers/CMSIS/Include/core_cm7.h **** 
 402:Drivers/CMSIS/Include/core_cm7.h **** #define CONTROL_SPSEL_Pos                   1U                                            /*!< CONT
 403:Drivers/CMSIS/Include/core_cm7.h **** #define CONTROL_SPSEL_Msk                  (1UL << CONTROL_SPSEL_Pos)                     /*!< CONT
 404:Drivers/CMSIS/Include/core_cm7.h **** 
 405:Drivers/CMSIS/Include/core_cm7.h **** #define CONTROL_nPRIV_Pos                   0U                                            /*!< CONT
 406:Drivers/CMSIS/Include/core_cm7.h **** #define CONTROL_nPRIV_Msk                  (1UL /*<< CONTROL_nPRIV_Pos*/)                 /*!< CONT
 407:Drivers/CMSIS/Include/core_cm7.h **** 
 408:Drivers/CMSIS/Include/core_cm7.h **** /*@} end of group CMSIS_CORE */
 409:Drivers/CMSIS/Include/core_cm7.h **** 
 410:Drivers/CMSIS/Include/core_cm7.h **** 
 411:Drivers/CMSIS/Include/core_cm7.h **** /**
 412:Drivers/CMSIS/Include/core_cm7.h ****   \ingroup    CMSIS_core_register
 413:Drivers/CMSIS/Include/core_cm7.h ****   \defgroup   CMSIS_NVIC  Nested Vectored Interrupt Controller (NVIC)
 414:Drivers/CMSIS/Include/core_cm7.h ****   \brief      Type definitions for the NVIC Registers
 415:Drivers/CMSIS/Include/core_cm7.h ****   @{
 416:Drivers/CMSIS/Include/core_cm7.h ****  */
 417:Drivers/CMSIS/Include/core_cm7.h **** 
 418:Drivers/CMSIS/Include/core_cm7.h **** /**
 419:Drivers/CMSIS/Include/core_cm7.h ****   \brief  Structure type to access the Nested Vectored Interrupt Controller (NVIC).
 420:Drivers/CMSIS/Include/core_cm7.h ****  */
 421:Drivers/CMSIS/Include/core_cm7.h **** typedef struct
 422:Drivers/CMSIS/Include/core_cm7.h **** {
 423:Drivers/CMSIS/Include/core_cm7.h ****   __IOM uint32_t ISER[8U];               /*!< Offset: 0x000 (R/W)  Interrupt Set Enable Register */
 424:Drivers/CMSIS/Include/core_cm7.h ****         uint32_t RESERVED0[24U];
 425:Drivers/CMSIS/Include/core_cm7.h ****   __IOM uint32_t ICER[8U];               /*!< Offset: 0x080 (R/W)  Interrupt Clear Enable Register 
 426:Drivers/CMSIS/Include/core_cm7.h ****         uint32_t RSERVED1[24U];
 427:Drivers/CMSIS/Include/core_cm7.h ****   __IOM uint32_t ISPR[8U];               /*!< Offset: 0x100 (R/W)  Interrupt Set Pending Register *
 428:Drivers/CMSIS/Include/core_cm7.h ****         uint32_t RESERVED2[24U];
 429:Drivers/CMSIS/Include/core_cm7.h ****   __IOM uint32_t ICPR[8U];               /*!< Offset: 0x180 (R/W)  Interrupt Clear Pending Register
 430:Drivers/CMSIS/Include/core_cm7.h ****         uint32_t RESERVED3[24U];
 431:Drivers/CMSIS/Include/core_cm7.h ****   __IOM uint32_t IABR[8U];               /*!< Offset: 0x200 (R/W)  Interrupt Active bit Register */
 432:Drivers/CMSIS/Include/core_cm7.h ****         uint32_t RESERVED4[56U];
 433:Drivers/CMSIS/Include/core_cm7.h ****   __IOM uint8_t  IP[240U];               /*!< Offset: 0x300 (R/W)  Interrupt Priority Register (8Bi
 434:Drivers/CMSIS/Include/core_cm7.h ****         uint32_t RESERVED5[644U];
 435:Drivers/CMSIS/Include/core_cm7.h ****   __OM  uint32_t STIR;                   /*!< Offset: 0xE00 ( /W)  Software Trigger Interrupt Regis
 436:Drivers/CMSIS/Include/core_cm7.h **** }  NVIC_Type;
 437:Drivers/CMSIS/Include/core_cm7.h **** 
 438:Drivers/CMSIS/Include/core_cm7.h **** /* Software Triggered Interrupt Register Definitions */
 439:Drivers/CMSIS/Include/core_cm7.h **** #define NVIC_STIR_INTID_Pos                 0U                                         /*!< STIR: I
 440:Drivers/CMSIS/Include/core_cm7.h **** #define NVIC_STIR_INTID_Msk                (0x1FFUL /*<< NVIC_STIR_INTID_Pos*/)        /*!< STIR: I
 441:Drivers/CMSIS/Include/core_cm7.h **** 
 442:Drivers/CMSIS/Include/core_cm7.h **** /*@} end of group CMSIS_NVIC */
 443:Drivers/CMSIS/Include/core_cm7.h **** 
 444:Drivers/CMSIS/Include/core_cm7.h **** 
 445:Drivers/CMSIS/Include/core_cm7.h **** /**
 446:Drivers/CMSIS/Include/core_cm7.h ****   \ingroup  CMSIS_core_register
 447:Drivers/CMSIS/Include/core_cm7.h ****   \defgroup CMSIS_SCB     System Control Block (SCB)
 448:Drivers/CMSIS/Include/core_cm7.h ****   \brief    Type definitions for the System Control Block Registers
 449:Drivers/CMSIS/Include/core_cm7.h ****   @{
 450:Drivers/CMSIS/Include/core_cm7.h ****  */
 451:Drivers/CMSIS/Include/core_cm7.h **** 
 452:Drivers/CMSIS/Include/core_cm7.h **** /**
 453:Drivers/CMSIS/Include/core_cm7.h ****   \brief  Structure type to access the System Control Block (SCB).
 454:Drivers/CMSIS/Include/core_cm7.h ****  */
 455:Drivers/CMSIS/Include/core_cm7.h **** typedef struct
ARM GAS  /tmp/ccpoO1YS.s 			page 34


 456:Drivers/CMSIS/Include/core_cm7.h **** {
 457:Drivers/CMSIS/Include/core_cm7.h ****   __IM  uint32_t CPUID;                  /*!< Offset: 0x000 (R/ )  CPUID Base Register */
 458:Drivers/CMSIS/Include/core_cm7.h ****   __IOM uint32_t ICSR;                   /*!< Offset: 0x004 (R/W)  Interrupt Control and State Regi
 459:Drivers/CMSIS/Include/core_cm7.h ****   __IOM uint32_t VTOR;                   /*!< Offset: 0x008 (R/W)  Vector Table Offset Register */
 460:Drivers/CMSIS/Include/core_cm7.h ****   __IOM uint32_t AIRCR;                  /*!< Offset: 0x00C (R/W)  Application Interrupt and Reset 
 461:Drivers/CMSIS/Include/core_cm7.h ****   __IOM uint32_t SCR;                    /*!< Offset: 0x010 (R/W)  System Control Register */
 462:Drivers/CMSIS/Include/core_cm7.h ****   __IOM uint32_t CCR;                    /*!< Offset: 0x014 (R/W)  Configuration Control Register *
 463:Drivers/CMSIS/Include/core_cm7.h ****   __IOM uint8_t  SHPR[12U];              /*!< Offset: 0x018 (R/W)  System Handlers Priority Registe
 464:Drivers/CMSIS/Include/core_cm7.h ****   __IOM uint32_t SHCSR;                  /*!< Offset: 0x024 (R/W)  System Handler Control and State
 465:Drivers/CMSIS/Include/core_cm7.h ****   __IOM uint32_t CFSR;                   /*!< Offset: 0x028 (R/W)  Configurable Fault Status Regist
 466:Drivers/CMSIS/Include/core_cm7.h ****   __IOM uint32_t HFSR;                   /*!< Offset: 0x02C (R/W)  HardFault Status Register */
 467:Drivers/CMSIS/Include/core_cm7.h ****   __IOM uint32_t DFSR;                   /*!< Offset: 0x030 (R/W)  Debug Fault Status Register */
 468:Drivers/CMSIS/Include/core_cm7.h ****   __IOM uint32_t MMFAR;                  /*!< Offset: 0x034 (R/W)  MemManage Fault Address Register
 469:Drivers/CMSIS/Include/core_cm7.h ****   __IOM uint32_t BFAR;                   /*!< Offset: 0x038 (R/W)  BusFault Address Register */
 470:Drivers/CMSIS/Include/core_cm7.h ****   __IOM uint32_t AFSR;                   /*!< Offset: 0x03C (R/W)  Auxiliary Fault Status Register 
 471:Drivers/CMSIS/Include/core_cm7.h ****   __IM  uint32_t ID_PFR[2U];             /*!< Offset: 0x040 (R/ )  Processor Feature Register */
 472:Drivers/CMSIS/Include/core_cm7.h ****   __IM  uint32_t ID_DFR;                 /*!< Offset: 0x048 (R/ )  Debug Feature Register */
 473:Drivers/CMSIS/Include/core_cm7.h ****   __IM  uint32_t ID_AFR;                 /*!< Offset: 0x04C (R/ )  Auxiliary Feature Register */
 474:Drivers/CMSIS/Include/core_cm7.h ****   __IM  uint32_t ID_MFR[4U];             /*!< Offset: 0x050 (R/ )  Memory Model Feature Register */
 475:Drivers/CMSIS/Include/core_cm7.h ****   __IM  uint32_t ID_ISAR[5U];            /*!< Offset: 0x060 (R/ )  Instruction Set Attributes Regis
 476:Drivers/CMSIS/Include/core_cm7.h ****         uint32_t RESERVED0[1U];
 477:Drivers/CMSIS/Include/core_cm7.h ****   __IM  uint32_t CLIDR;                  /*!< Offset: 0x078 (R/ )  Cache Level ID register */
 478:Drivers/CMSIS/Include/core_cm7.h ****   __IM  uint32_t CTR;                    /*!< Offset: 0x07C (R/ )  Cache Type register */
 479:Drivers/CMSIS/Include/core_cm7.h ****   __IM  uint32_t CCSIDR;                 /*!< Offset: 0x080 (R/ )  Cache Size ID Register */
 480:Drivers/CMSIS/Include/core_cm7.h ****   __IOM uint32_t CSSELR;                 /*!< Offset: 0x084 (R/W)  Cache Size Selection Register */
 481:Drivers/CMSIS/Include/core_cm7.h ****   __IOM uint32_t CPACR;                  /*!< Offset: 0x088 (R/W)  Coprocessor Access Control Regis
 482:Drivers/CMSIS/Include/core_cm7.h ****         uint32_t RESERVED3[93U];
 483:Drivers/CMSIS/Include/core_cm7.h ****   __OM  uint32_t STIR;                   /*!< Offset: 0x200 ( /W)  Software Triggered Interrupt Reg
 484:Drivers/CMSIS/Include/core_cm7.h ****         uint32_t RESERVED4[15U];
 485:Drivers/CMSIS/Include/core_cm7.h ****   __IM  uint32_t MVFR0;                  /*!< Offset: 0x240 (R/ )  Media and VFP Feature Register 0
 486:Drivers/CMSIS/Include/core_cm7.h ****   __IM  uint32_t MVFR1;                  /*!< Offset: 0x244 (R/ )  Media and VFP Feature Register 1
 487:Drivers/CMSIS/Include/core_cm7.h ****   __IM  uint32_t MVFR2;                  /*!< Offset: 0x248 (R/ )  Media and VFP Feature Register 2
 488:Drivers/CMSIS/Include/core_cm7.h ****         uint32_t RESERVED5[1U];
 489:Drivers/CMSIS/Include/core_cm7.h ****   __OM  uint32_t ICIALLU;                /*!< Offset: 0x250 ( /W)  I-Cache Invalidate All to PoU */
 490:Drivers/CMSIS/Include/core_cm7.h ****         uint32_t RESERVED6[1U];
 491:Drivers/CMSIS/Include/core_cm7.h ****   __OM  uint32_t ICIMVAU;                /*!< Offset: 0x258 ( /W)  I-Cache Invalidate by MVA to PoU
 492:Drivers/CMSIS/Include/core_cm7.h ****   __OM  uint32_t DCIMVAC;                /*!< Offset: 0x25C ( /W)  D-Cache Invalidate by MVA to PoC
 493:Drivers/CMSIS/Include/core_cm7.h ****   __OM  uint32_t DCISW;                  /*!< Offset: 0x260 ( /W)  D-Cache Invalidate by Set-way */
 494:Drivers/CMSIS/Include/core_cm7.h ****   __OM  uint32_t DCCMVAU;                /*!< Offset: 0x264 ( /W)  D-Cache Clean by MVA to PoU */
 495:Drivers/CMSIS/Include/core_cm7.h ****   __OM  uint32_t DCCMVAC;                /*!< Offset: 0x268 ( /W)  D-Cache Clean by MVA to PoC */
 496:Drivers/CMSIS/Include/core_cm7.h ****   __OM  uint32_t DCCSW;                  /*!< Offset: 0x26C ( /W)  D-Cache Clean by Set-way */
 497:Drivers/CMSIS/Include/core_cm7.h ****   __OM  uint32_t DCCIMVAC;               /*!< Offset: 0x270 ( /W)  D-Cache Clean and Invalidate by 
 498:Drivers/CMSIS/Include/core_cm7.h ****   __OM  uint32_t DCCISW;                 /*!< Offset: 0x274 ( /W)  D-Cache Clean and Invalidate by 
 499:Drivers/CMSIS/Include/core_cm7.h ****         uint32_t RESERVED7[6U];
 500:Drivers/CMSIS/Include/core_cm7.h ****   __IOM uint32_t ITCMCR;                 /*!< Offset: 0x290 (R/W)  Instruction Tightly-Coupled Memo
 501:Drivers/CMSIS/Include/core_cm7.h ****   __IOM uint32_t DTCMCR;                 /*!< Offset: 0x294 (R/W)  Data Tightly-Coupled Memory Cont
 502:Drivers/CMSIS/Include/core_cm7.h ****   __IOM uint32_t AHBPCR;                 /*!< Offset: 0x298 (R/W)  AHBP Control Register */
 503:Drivers/CMSIS/Include/core_cm7.h ****   __IOM uint32_t CACR;                   /*!< Offset: 0x29C (R/W)  L1 Cache Control Register */
 504:Drivers/CMSIS/Include/core_cm7.h ****   __IOM uint32_t AHBSCR;                 /*!< Offset: 0x2A0 (R/W)  AHB Slave Control Register */
 505:Drivers/CMSIS/Include/core_cm7.h ****         uint32_t RESERVED8[1U];
 506:Drivers/CMSIS/Include/core_cm7.h ****   __IOM uint32_t ABFSR;                  /*!< Offset: 0x2A8 (R/W)  Auxiliary Bus Fault Status Regis
 507:Drivers/CMSIS/Include/core_cm7.h **** } SCB_Type;
 508:Drivers/CMSIS/Include/core_cm7.h **** 
 509:Drivers/CMSIS/Include/core_cm7.h **** /* SCB CPUID Register Definitions */
 510:Drivers/CMSIS/Include/core_cm7.h **** #define SCB_CPUID_IMPLEMENTER_Pos          24U                                            /*!< SCB 
 511:Drivers/CMSIS/Include/core_cm7.h **** #define SCB_CPUID_IMPLEMENTER_Msk          (0xFFUL << SCB_CPUID_IMPLEMENTER_Pos)          /*!< SCB 
 512:Drivers/CMSIS/Include/core_cm7.h **** 
ARM GAS  /tmp/ccpoO1YS.s 			page 35


 513:Drivers/CMSIS/Include/core_cm7.h **** #define SCB_CPUID_VARIANT_Pos              20U                                            /*!< SCB 
 514:Drivers/CMSIS/Include/core_cm7.h **** #define SCB_CPUID_VARIANT_Msk              (0xFUL << SCB_CPUID_VARIANT_Pos)               /*!< SCB 
 515:Drivers/CMSIS/Include/core_cm7.h **** 
 516:Drivers/CMSIS/Include/core_cm7.h **** #define SCB_CPUID_ARCHITECTURE_Pos         16U                                            /*!< SCB 
 517:Drivers/CMSIS/Include/core_cm7.h **** #define SCB_CPUID_ARCHITECTURE_Msk         (0xFUL << SCB_CPUID_ARCHITECTURE_Pos)          /*!< SCB 
 518:Drivers/CMSIS/Include/core_cm7.h **** 
 519:Drivers/CMSIS/Include/core_cm7.h **** #define SCB_CPUID_PARTNO_Pos                4U                                            /*!< SCB 
 520:Drivers/CMSIS/Include/core_cm7.h **** #define SCB_CPUID_PARTNO_Msk               (0xFFFUL << SCB_CPUID_PARTNO_Pos)              /*!< SCB 
 521:Drivers/CMSIS/Include/core_cm7.h **** 
 522:Drivers/CMSIS/Include/core_cm7.h **** #define SCB_CPUID_REVISION_Pos              0U                                            /*!< SCB 
 523:Drivers/CMSIS/Include/core_cm7.h **** #define SCB_CPUID_REVISION_Msk             (0xFUL /*<< SCB_CPUID_REVISION_Pos*/)          /*!< SCB 
 524:Drivers/CMSIS/Include/core_cm7.h **** 
 525:Drivers/CMSIS/Include/core_cm7.h **** /* SCB Interrupt Control State Register Definitions */
 526:Drivers/CMSIS/Include/core_cm7.h **** #define SCB_ICSR_NMIPENDSET_Pos            31U                                            /*!< SCB 
 527:Drivers/CMSIS/Include/core_cm7.h **** #define SCB_ICSR_NMIPENDSET_Msk            (1UL << SCB_ICSR_NMIPENDSET_Pos)               /*!< SCB 
 528:Drivers/CMSIS/Include/core_cm7.h **** 
 529:Drivers/CMSIS/Include/core_cm7.h **** #define SCB_ICSR_PENDSVSET_Pos             28U                                            /*!< SCB 
 530:Drivers/CMSIS/Include/core_cm7.h **** #define SCB_ICSR_PENDSVSET_Msk             (1UL << SCB_ICSR_PENDSVSET_Pos)                /*!< SCB 
 531:Drivers/CMSIS/Include/core_cm7.h **** 
 532:Drivers/CMSIS/Include/core_cm7.h **** #define SCB_ICSR_PENDSVCLR_Pos             27U                                            /*!< SCB 
 533:Drivers/CMSIS/Include/core_cm7.h **** #define SCB_ICSR_PENDSVCLR_Msk             (1UL << SCB_ICSR_PENDSVCLR_Pos)                /*!< SCB 
 534:Drivers/CMSIS/Include/core_cm7.h **** 
 535:Drivers/CMSIS/Include/core_cm7.h **** #define SCB_ICSR_PENDSTSET_Pos             26U                                            /*!< SCB 
 536:Drivers/CMSIS/Include/core_cm7.h **** #define SCB_ICSR_PENDSTSET_Msk             (1UL << SCB_ICSR_PENDSTSET_Pos)                /*!< SCB 
 537:Drivers/CMSIS/Include/core_cm7.h **** 
 538:Drivers/CMSIS/Include/core_cm7.h **** #define SCB_ICSR_PENDSTCLR_Pos             25U                                            /*!< SCB 
 539:Drivers/CMSIS/Include/core_cm7.h **** #define SCB_ICSR_PENDSTCLR_Msk             (1UL << SCB_ICSR_PENDSTCLR_Pos)                /*!< SCB 
 540:Drivers/CMSIS/Include/core_cm7.h **** 
 541:Drivers/CMSIS/Include/core_cm7.h **** #define SCB_ICSR_ISRPREEMPT_Pos            23U                                            /*!< SCB 
 542:Drivers/CMSIS/Include/core_cm7.h **** #define SCB_ICSR_ISRPREEMPT_Msk            (1UL << SCB_ICSR_ISRPREEMPT_Pos)               /*!< SCB 
 543:Drivers/CMSIS/Include/core_cm7.h **** 
 544:Drivers/CMSIS/Include/core_cm7.h **** #define SCB_ICSR_ISRPENDING_Pos            22U                                            /*!< SCB 
 545:Drivers/CMSIS/Include/core_cm7.h **** #define SCB_ICSR_ISRPENDING_Msk            (1UL << SCB_ICSR_ISRPENDING_Pos)               /*!< SCB 
 546:Drivers/CMSIS/Include/core_cm7.h **** 
 547:Drivers/CMSIS/Include/core_cm7.h **** #define SCB_ICSR_VECTPENDING_Pos           12U                                            /*!< SCB 
 548:Drivers/CMSIS/Include/core_cm7.h **** #define SCB_ICSR_VECTPENDING_Msk           (0x1FFUL << SCB_ICSR_VECTPENDING_Pos)          /*!< SCB 
 549:Drivers/CMSIS/Include/core_cm7.h **** 
 550:Drivers/CMSIS/Include/core_cm7.h **** #define SCB_ICSR_RETTOBASE_Pos             11U                                            /*!< SCB 
 551:Drivers/CMSIS/Include/core_cm7.h **** #define SCB_ICSR_RETTOBASE_Msk             (1UL << SCB_ICSR_RETTOBASE_Pos)                /*!< SCB 
 552:Drivers/CMSIS/Include/core_cm7.h **** 
 553:Drivers/CMSIS/Include/core_cm7.h **** #define SCB_ICSR_VECTACTIVE_Pos             0U                                            /*!< SCB 
 554:Drivers/CMSIS/Include/core_cm7.h **** #define SCB_ICSR_VECTACTIVE_Msk            (0x1FFUL /*<< SCB_ICSR_VECTACTIVE_Pos*/)       /*!< SCB 
 555:Drivers/CMSIS/Include/core_cm7.h **** 
 556:Drivers/CMSIS/Include/core_cm7.h **** /* SCB Vector Table Offset Register Definitions */
 557:Drivers/CMSIS/Include/core_cm7.h **** #define SCB_VTOR_TBLOFF_Pos                 7U                                            /*!< SCB 
 558:Drivers/CMSIS/Include/core_cm7.h **** #define SCB_VTOR_TBLOFF_Msk                (0x1FFFFFFUL << SCB_VTOR_TBLOFF_Pos)           /*!< SCB 
 559:Drivers/CMSIS/Include/core_cm7.h **** 
 560:Drivers/CMSIS/Include/core_cm7.h **** /* SCB Application Interrupt and Reset Control Register Definitions */
 561:Drivers/CMSIS/Include/core_cm7.h **** #define SCB_AIRCR_VECTKEY_Pos              16U                                            /*!< SCB 
 562:Drivers/CMSIS/Include/core_cm7.h **** #define SCB_AIRCR_VECTKEY_Msk              (0xFFFFUL << SCB_AIRCR_VECTKEY_Pos)            /*!< SCB 
 563:Drivers/CMSIS/Include/core_cm7.h **** 
 564:Drivers/CMSIS/Include/core_cm7.h **** #define SCB_AIRCR_VECTKEYSTAT_Pos          16U                                            /*!< SCB 
 565:Drivers/CMSIS/Include/core_cm7.h **** #define SCB_AIRCR_VECTKEYSTAT_Msk          (0xFFFFUL << SCB_AIRCR_VECTKEYSTAT_Pos)        /*!< SCB 
 566:Drivers/CMSIS/Include/core_cm7.h **** 
 567:Drivers/CMSIS/Include/core_cm7.h **** #define SCB_AIRCR_ENDIANESS_Pos            15U                                            /*!< SCB 
 568:Drivers/CMSIS/Include/core_cm7.h **** #define SCB_AIRCR_ENDIANESS_Msk            (1UL << SCB_AIRCR_ENDIANESS_Pos)               /*!< SCB 
 569:Drivers/CMSIS/Include/core_cm7.h **** 
ARM GAS  /tmp/ccpoO1YS.s 			page 36


 570:Drivers/CMSIS/Include/core_cm7.h **** #define SCB_AIRCR_PRIGROUP_Pos              8U                                            /*!< SCB 
 571:Drivers/CMSIS/Include/core_cm7.h **** #define SCB_AIRCR_PRIGROUP_Msk             (7UL << SCB_AIRCR_PRIGROUP_Pos)                /*!< SCB 
 572:Drivers/CMSIS/Include/core_cm7.h **** 
 573:Drivers/CMSIS/Include/core_cm7.h **** #define SCB_AIRCR_SYSRESETREQ_Pos           2U                                            /*!< SCB 
 574:Drivers/CMSIS/Include/core_cm7.h **** #define SCB_AIRCR_SYSRESETREQ_Msk          (1UL << SCB_AIRCR_SYSRESETREQ_Pos)             /*!< SCB 
 575:Drivers/CMSIS/Include/core_cm7.h **** 
 576:Drivers/CMSIS/Include/core_cm7.h **** #define SCB_AIRCR_VECTCLRACTIVE_Pos         1U                                            /*!< SCB 
 577:Drivers/CMSIS/Include/core_cm7.h **** #define SCB_AIRCR_VECTCLRACTIVE_Msk        (1UL << SCB_AIRCR_VECTCLRACTIVE_Pos)           /*!< SCB 
 578:Drivers/CMSIS/Include/core_cm7.h **** 
 579:Drivers/CMSIS/Include/core_cm7.h **** #define SCB_AIRCR_VECTRESET_Pos             0U                                            /*!< SCB 
 580:Drivers/CMSIS/Include/core_cm7.h **** #define SCB_AIRCR_VECTRESET_Msk            (1UL /*<< SCB_AIRCR_VECTRESET_Pos*/)           /*!< SCB 
 581:Drivers/CMSIS/Include/core_cm7.h **** 
 582:Drivers/CMSIS/Include/core_cm7.h **** /* SCB System Control Register Definitions */
 583:Drivers/CMSIS/Include/core_cm7.h **** #define SCB_SCR_SEVONPEND_Pos               4U                                            /*!< SCB 
 584:Drivers/CMSIS/Include/core_cm7.h **** #define SCB_SCR_SEVONPEND_Msk              (1UL << SCB_SCR_SEVONPEND_Pos)                 /*!< SCB 
 585:Drivers/CMSIS/Include/core_cm7.h **** 
 586:Drivers/CMSIS/Include/core_cm7.h **** #define SCB_SCR_SLEEPDEEP_Pos               2U                                            /*!< SCB 
 587:Drivers/CMSIS/Include/core_cm7.h **** #define SCB_SCR_SLEEPDEEP_Msk              (1UL << SCB_SCR_SLEEPDEEP_Pos)                 /*!< SCB 
 588:Drivers/CMSIS/Include/core_cm7.h **** 
 589:Drivers/CMSIS/Include/core_cm7.h **** #define SCB_SCR_SLEEPONEXIT_Pos             1U                                            /*!< SCB 
 590:Drivers/CMSIS/Include/core_cm7.h **** #define SCB_SCR_SLEEPONEXIT_Msk            (1UL << SCB_SCR_SLEEPONEXIT_Pos)               /*!< SCB 
 591:Drivers/CMSIS/Include/core_cm7.h **** 
 592:Drivers/CMSIS/Include/core_cm7.h **** /* SCB Configuration Control Register Definitions */
 593:Drivers/CMSIS/Include/core_cm7.h **** #define SCB_CCR_BP_Pos                      18U                                           /*!< SCB 
 594:Drivers/CMSIS/Include/core_cm7.h **** #define SCB_CCR_BP_Msk                     (1UL << SCB_CCR_BP_Pos)                        /*!< SCB 
 595:Drivers/CMSIS/Include/core_cm7.h **** 
 596:Drivers/CMSIS/Include/core_cm7.h **** #define SCB_CCR_IC_Pos                      17U                                           /*!< SCB 
 597:Drivers/CMSIS/Include/core_cm7.h **** #define SCB_CCR_IC_Msk                     (1UL << SCB_CCR_IC_Pos)                        /*!< SCB 
 598:Drivers/CMSIS/Include/core_cm7.h **** 
 599:Drivers/CMSIS/Include/core_cm7.h **** #define SCB_CCR_DC_Pos                      16U                                           /*!< SCB 
 600:Drivers/CMSIS/Include/core_cm7.h **** #define SCB_CCR_DC_Msk                     (1UL << SCB_CCR_DC_Pos)                        /*!< SCB 
 601:Drivers/CMSIS/Include/core_cm7.h **** 
 602:Drivers/CMSIS/Include/core_cm7.h **** #define SCB_CCR_STKALIGN_Pos                9U                                            /*!< SCB 
 603:Drivers/CMSIS/Include/core_cm7.h **** #define SCB_CCR_STKALIGN_Msk               (1UL << SCB_CCR_STKALIGN_Pos)                  /*!< SCB 
 604:Drivers/CMSIS/Include/core_cm7.h **** 
 605:Drivers/CMSIS/Include/core_cm7.h **** #define SCB_CCR_BFHFNMIGN_Pos               8U                                            /*!< SCB 
 606:Drivers/CMSIS/Include/core_cm7.h **** #define SCB_CCR_BFHFNMIGN_Msk              (1UL << SCB_CCR_BFHFNMIGN_Pos)                 /*!< SCB 
 607:Drivers/CMSIS/Include/core_cm7.h **** 
 608:Drivers/CMSIS/Include/core_cm7.h **** #define SCB_CCR_DIV_0_TRP_Pos               4U                                            /*!< SCB 
 609:Drivers/CMSIS/Include/core_cm7.h **** #define SCB_CCR_DIV_0_TRP_Msk              (1UL << SCB_CCR_DIV_0_TRP_Pos)                 /*!< SCB 
 610:Drivers/CMSIS/Include/core_cm7.h **** 
 611:Drivers/CMSIS/Include/core_cm7.h **** #define SCB_CCR_UNALIGN_TRP_Pos             3U                                            /*!< SCB 
 612:Drivers/CMSIS/Include/core_cm7.h **** #define SCB_CCR_UNALIGN_TRP_Msk            (1UL << SCB_CCR_UNALIGN_TRP_Pos)               /*!< SCB 
 613:Drivers/CMSIS/Include/core_cm7.h **** 
 614:Drivers/CMSIS/Include/core_cm7.h **** #define SCB_CCR_USERSETMPEND_Pos            1U                                            /*!< SCB 
 615:Drivers/CMSIS/Include/core_cm7.h **** #define SCB_CCR_USERSETMPEND_Msk           (1UL << SCB_CCR_USERSETMPEND_Pos)              /*!< SCB 
 616:Drivers/CMSIS/Include/core_cm7.h **** 
 617:Drivers/CMSIS/Include/core_cm7.h **** #define SCB_CCR_NONBASETHRDENA_Pos          0U                                            /*!< SCB 
 618:Drivers/CMSIS/Include/core_cm7.h **** #define SCB_CCR_NONBASETHRDENA_Msk         (1UL /*<< SCB_CCR_NONBASETHRDENA_Pos*/)        /*!< SCB 
 619:Drivers/CMSIS/Include/core_cm7.h **** 
 620:Drivers/CMSIS/Include/core_cm7.h **** /* SCB System Handler Control and State Register Definitions */
 621:Drivers/CMSIS/Include/core_cm7.h **** #define SCB_SHCSR_USGFAULTENA_Pos          18U                                            /*!< SCB 
 622:Drivers/CMSIS/Include/core_cm7.h **** #define SCB_SHCSR_USGFAULTENA_Msk          (1UL << SCB_SHCSR_USGFAULTENA_Pos)             /*!< SCB 
 623:Drivers/CMSIS/Include/core_cm7.h **** 
 624:Drivers/CMSIS/Include/core_cm7.h **** #define SCB_SHCSR_BUSFAULTENA_Pos          17U                                            /*!< SCB 
 625:Drivers/CMSIS/Include/core_cm7.h **** #define SCB_SHCSR_BUSFAULTENA_Msk          (1UL << SCB_SHCSR_BUSFAULTENA_Pos)             /*!< SCB 
 626:Drivers/CMSIS/Include/core_cm7.h **** 
ARM GAS  /tmp/ccpoO1YS.s 			page 37


 627:Drivers/CMSIS/Include/core_cm7.h **** #define SCB_SHCSR_MEMFAULTENA_Pos          16U                                            /*!< SCB 
 628:Drivers/CMSIS/Include/core_cm7.h **** #define SCB_SHCSR_MEMFAULTENA_Msk          (1UL << SCB_SHCSR_MEMFAULTENA_Pos)             /*!< SCB 
 629:Drivers/CMSIS/Include/core_cm7.h **** 
 630:Drivers/CMSIS/Include/core_cm7.h **** #define SCB_SHCSR_SVCALLPENDED_Pos         15U                                            /*!< SCB 
 631:Drivers/CMSIS/Include/core_cm7.h **** #define SCB_SHCSR_SVCALLPENDED_Msk         (1UL << SCB_SHCSR_SVCALLPENDED_Pos)            /*!< SCB 
 632:Drivers/CMSIS/Include/core_cm7.h **** 
 633:Drivers/CMSIS/Include/core_cm7.h **** #define SCB_SHCSR_BUSFAULTPENDED_Pos       14U                                            /*!< SCB 
 634:Drivers/CMSIS/Include/core_cm7.h **** #define SCB_SHCSR_BUSFAULTPENDED_Msk       (1UL << SCB_SHCSR_BUSFAULTPENDED_Pos)          /*!< SCB 
 635:Drivers/CMSIS/Include/core_cm7.h **** 
 636:Drivers/CMSIS/Include/core_cm7.h **** #define SCB_SHCSR_MEMFAULTPENDED_Pos       13U                                            /*!< SCB 
 637:Drivers/CMSIS/Include/core_cm7.h **** #define SCB_SHCSR_MEMFAULTPENDED_Msk       (1UL << SCB_SHCSR_MEMFAULTPENDED_Pos)          /*!< SCB 
 638:Drivers/CMSIS/Include/core_cm7.h **** 
 639:Drivers/CMSIS/Include/core_cm7.h **** #define SCB_SHCSR_USGFAULTPENDED_Pos       12U                                            /*!< SCB 
 640:Drivers/CMSIS/Include/core_cm7.h **** #define SCB_SHCSR_USGFAULTPENDED_Msk       (1UL << SCB_SHCSR_USGFAULTPENDED_Pos)          /*!< SCB 
 641:Drivers/CMSIS/Include/core_cm7.h **** 
 642:Drivers/CMSIS/Include/core_cm7.h **** #define SCB_SHCSR_SYSTICKACT_Pos           11U                                            /*!< SCB 
 643:Drivers/CMSIS/Include/core_cm7.h **** #define SCB_SHCSR_SYSTICKACT_Msk           (1UL << SCB_SHCSR_SYSTICKACT_Pos)              /*!< SCB 
 644:Drivers/CMSIS/Include/core_cm7.h **** 
 645:Drivers/CMSIS/Include/core_cm7.h **** #define SCB_SHCSR_PENDSVACT_Pos            10U                                            /*!< SCB 
 646:Drivers/CMSIS/Include/core_cm7.h **** #define SCB_SHCSR_PENDSVACT_Msk            (1UL << SCB_SHCSR_PENDSVACT_Pos)               /*!< SCB 
 647:Drivers/CMSIS/Include/core_cm7.h **** 
 648:Drivers/CMSIS/Include/core_cm7.h **** #define SCB_SHCSR_MONITORACT_Pos            8U                                            /*!< SCB 
 649:Drivers/CMSIS/Include/core_cm7.h **** #define SCB_SHCSR_MONITORACT_Msk           (1UL << SCB_SHCSR_MONITORACT_Pos)              /*!< SCB 
 650:Drivers/CMSIS/Include/core_cm7.h **** 
 651:Drivers/CMSIS/Include/core_cm7.h **** #define SCB_SHCSR_SVCALLACT_Pos             7U                                            /*!< SCB 
 652:Drivers/CMSIS/Include/core_cm7.h **** #define SCB_SHCSR_SVCALLACT_Msk            (1UL << SCB_SHCSR_SVCALLACT_Pos)               /*!< SCB 
 653:Drivers/CMSIS/Include/core_cm7.h **** 
 654:Drivers/CMSIS/Include/core_cm7.h **** #define SCB_SHCSR_USGFAULTACT_Pos           3U                                            /*!< SCB 
 655:Drivers/CMSIS/Include/core_cm7.h **** #define SCB_SHCSR_USGFAULTACT_Msk          (1UL << SCB_SHCSR_USGFAULTACT_Pos)             /*!< SCB 
 656:Drivers/CMSIS/Include/core_cm7.h **** 
 657:Drivers/CMSIS/Include/core_cm7.h **** #define SCB_SHCSR_BUSFAULTACT_Pos           1U                                            /*!< SCB 
 658:Drivers/CMSIS/Include/core_cm7.h **** #define SCB_SHCSR_BUSFAULTACT_Msk          (1UL << SCB_SHCSR_BUSFAULTACT_Pos)             /*!< SCB 
 659:Drivers/CMSIS/Include/core_cm7.h **** 
 660:Drivers/CMSIS/Include/core_cm7.h **** #define SCB_SHCSR_MEMFAULTACT_Pos           0U                                            /*!< SCB 
 661:Drivers/CMSIS/Include/core_cm7.h **** #define SCB_SHCSR_MEMFAULTACT_Msk          (1UL /*<< SCB_SHCSR_MEMFAULTACT_Pos*/)         /*!< SCB 
 662:Drivers/CMSIS/Include/core_cm7.h **** 
 663:Drivers/CMSIS/Include/core_cm7.h **** /* SCB Configurable Fault Status Register Definitions */
 664:Drivers/CMSIS/Include/core_cm7.h **** #define SCB_CFSR_USGFAULTSR_Pos            16U                                            /*!< SCB 
 665:Drivers/CMSIS/Include/core_cm7.h **** #define SCB_CFSR_USGFAULTSR_Msk            (0xFFFFUL << SCB_CFSR_USGFAULTSR_Pos)          /*!< SCB 
 666:Drivers/CMSIS/Include/core_cm7.h **** 
 667:Drivers/CMSIS/Include/core_cm7.h **** #define SCB_CFSR_BUSFAULTSR_Pos             8U                                            /*!< SCB 
 668:Drivers/CMSIS/Include/core_cm7.h **** #define SCB_CFSR_BUSFAULTSR_Msk            (0xFFUL << SCB_CFSR_BUSFAULTSR_Pos)            /*!< SCB 
 669:Drivers/CMSIS/Include/core_cm7.h **** 
 670:Drivers/CMSIS/Include/core_cm7.h **** #define SCB_CFSR_MEMFAULTSR_Pos             0U                                            /*!< SCB 
 671:Drivers/CMSIS/Include/core_cm7.h **** #define SCB_CFSR_MEMFAULTSR_Msk            (0xFFUL /*<< SCB_CFSR_MEMFAULTSR_Pos*/)        /*!< SCB 
 672:Drivers/CMSIS/Include/core_cm7.h **** 
 673:Drivers/CMSIS/Include/core_cm7.h **** /* MemManage Fault Status Register (part of SCB Configurable Fault Status Register) */
 674:Drivers/CMSIS/Include/core_cm7.h **** #define SCB_CFSR_MMARVALID_Pos             (SCB_SHCSR_MEMFAULTACT_Pos + 7U)               /*!< SCB 
 675:Drivers/CMSIS/Include/core_cm7.h **** #define SCB_CFSR_MMARVALID_Msk             (1UL << SCB_CFSR_MMARVALID_Pos)                /*!< SCB 
 676:Drivers/CMSIS/Include/core_cm7.h **** 
 677:Drivers/CMSIS/Include/core_cm7.h **** #define SCB_CFSR_MLSPERR_Pos               (SCB_SHCSR_MEMFAULTACT_Pos + 5U)               /*!< SCB 
 678:Drivers/CMSIS/Include/core_cm7.h **** #define SCB_CFSR_MLSPERR_Msk               (1UL << SCB_CFSR_MLSPERR_Pos)                  /*!< SCB 
 679:Drivers/CMSIS/Include/core_cm7.h **** 
 680:Drivers/CMSIS/Include/core_cm7.h **** #define SCB_CFSR_MSTKERR_Pos               (SCB_SHCSR_MEMFAULTACT_Pos + 4U)               /*!< SCB 
 681:Drivers/CMSIS/Include/core_cm7.h **** #define SCB_CFSR_MSTKERR_Msk               (1UL << SCB_CFSR_MSTKERR_Pos)                  /*!< SCB 
 682:Drivers/CMSIS/Include/core_cm7.h **** 
 683:Drivers/CMSIS/Include/core_cm7.h **** #define SCB_CFSR_MUNSTKERR_Pos             (SCB_SHCSR_MEMFAULTACT_Pos + 3U)               /*!< SCB 
ARM GAS  /tmp/ccpoO1YS.s 			page 38


 684:Drivers/CMSIS/Include/core_cm7.h **** #define SCB_CFSR_MUNSTKERR_Msk             (1UL << SCB_CFSR_MUNSTKERR_Pos)                /*!< SCB 
 685:Drivers/CMSIS/Include/core_cm7.h **** 
 686:Drivers/CMSIS/Include/core_cm7.h **** #define SCB_CFSR_DACCVIOL_Pos              (SCB_SHCSR_MEMFAULTACT_Pos + 1U)               /*!< SCB 
 687:Drivers/CMSIS/Include/core_cm7.h **** #define SCB_CFSR_DACCVIOL_Msk              (1UL << SCB_CFSR_DACCVIOL_Pos)                 /*!< SCB 
 688:Drivers/CMSIS/Include/core_cm7.h **** 
 689:Drivers/CMSIS/Include/core_cm7.h **** #define SCB_CFSR_IACCVIOL_Pos              (SCB_SHCSR_MEMFAULTACT_Pos + 0U)               /*!< SCB 
 690:Drivers/CMSIS/Include/core_cm7.h **** #define SCB_CFSR_IACCVIOL_Msk              (1UL /*<< SCB_CFSR_IACCVIOL_Pos*/)             /*!< SCB 
 691:Drivers/CMSIS/Include/core_cm7.h **** 
 692:Drivers/CMSIS/Include/core_cm7.h **** /* BusFault Status Register (part of SCB Configurable Fault Status Register) */
 693:Drivers/CMSIS/Include/core_cm7.h **** #define SCB_CFSR_BFARVALID_Pos            (SCB_CFSR_BUSFAULTSR_Pos + 7U)                  /*!< SCB 
 694:Drivers/CMSIS/Include/core_cm7.h **** #define SCB_CFSR_BFARVALID_Msk            (1UL << SCB_CFSR_BFARVALID_Pos)                 /*!< SCB 
 695:Drivers/CMSIS/Include/core_cm7.h **** 
 696:Drivers/CMSIS/Include/core_cm7.h **** #define SCB_CFSR_LSPERR_Pos               (SCB_CFSR_BUSFAULTSR_Pos + 5U)                  /*!< SCB 
 697:Drivers/CMSIS/Include/core_cm7.h **** #define SCB_CFSR_LSPERR_Msk               (1UL << SCB_CFSR_LSPERR_Pos)                    /*!< SCB 
 698:Drivers/CMSIS/Include/core_cm7.h **** 
 699:Drivers/CMSIS/Include/core_cm7.h **** #define SCB_CFSR_STKERR_Pos               (SCB_CFSR_BUSFAULTSR_Pos + 4U)                  /*!< SCB 
 700:Drivers/CMSIS/Include/core_cm7.h **** #define SCB_CFSR_STKERR_Msk               (1UL << SCB_CFSR_STKERR_Pos)                    /*!< SCB 
 701:Drivers/CMSIS/Include/core_cm7.h **** 
 702:Drivers/CMSIS/Include/core_cm7.h **** #define SCB_CFSR_UNSTKERR_Pos             (SCB_CFSR_BUSFAULTSR_Pos + 3U)                  /*!< SCB 
 703:Drivers/CMSIS/Include/core_cm7.h **** #define SCB_CFSR_UNSTKERR_Msk             (1UL << SCB_CFSR_UNSTKERR_Pos)                  /*!< SCB 
 704:Drivers/CMSIS/Include/core_cm7.h **** 
 705:Drivers/CMSIS/Include/core_cm7.h **** #define SCB_CFSR_IMPRECISERR_Pos          (SCB_CFSR_BUSFAULTSR_Pos + 2U)                  /*!< SCB 
 706:Drivers/CMSIS/Include/core_cm7.h **** #define SCB_CFSR_IMPRECISERR_Msk          (1UL << SCB_CFSR_IMPRECISERR_Pos)               /*!< SCB 
 707:Drivers/CMSIS/Include/core_cm7.h **** 
 708:Drivers/CMSIS/Include/core_cm7.h **** #define SCB_CFSR_PRECISERR_Pos            (SCB_CFSR_BUSFAULTSR_Pos + 1U)                  /*!< SCB 
 709:Drivers/CMSIS/Include/core_cm7.h **** #define SCB_CFSR_PRECISERR_Msk            (1UL << SCB_CFSR_PRECISERR_Pos)                 /*!< SCB 
 710:Drivers/CMSIS/Include/core_cm7.h **** 
 711:Drivers/CMSIS/Include/core_cm7.h **** #define SCB_CFSR_IBUSERR_Pos              (SCB_CFSR_BUSFAULTSR_Pos + 0U)                  /*!< SCB 
 712:Drivers/CMSIS/Include/core_cm7.h **** #define SCB_CFSR_IBUSERR_Msk              (1UL << SCB_CFSR_IBUSERR_Pos)                   /*!< SCB 
 713:Drivers/CMSIS/Include/core_cm7.h **** 
 714:Drivers/CMSIS/Include/core_cm7.h **** /* UsageFault Status Register (part of SCB Configurable Fault Status Register) */
 715:Drivers/CMSIS/Include/core_cm7.h **** #define SCB_CFSR_DIVBYZERO_Pos            (SCB_CFSR_USGFAULTSR_Pos + 9U)                  /*!< SCB 
 716:Drivers/CMSIS/Include/core_cm7.h **** #define SCB_CFSR_DIVBYZERO_Msk            (1UL << SCB_CFSR_DIVBYZERO_Pos)                 /*!< SCB 
 717:Drivers/CMSIS/Include/core_cm7.h **** 
 718:Drivers/CMSIS/Include/core_cm7.h **** #define SCB_CFSR_UNALIGNED_Pos            (SCB_CFSR_USGFAULTSR_Pos + 8U)                  /*!< SCB 
 719:Drivers/CMSIS/Include/core_cm7.h **** #define SCB_CFSR_UNALIGNED_Msk            (1UL << SCB_CFSR_UNALIGNED_Pos)                 /*!< SCB 
 720:Drivers/CMSIS/Include/core_cm7.h **** 
 721:Drivers/CMSIS/Include/core_cm7.h **** #define SCB_CFSR_NOCP_Pos                 (SCB_CFSR_USGFAULTSR_Pos + 3U)                  /*!< SCB 
 722:Drivers/CMSIS/Include/core_cm7.h **** #define SCB_CFSR_NOCP_Msk                 (1UL << SCB_CFSR_NOCP_Pos)                      /*!< SCB 
 723:Drivers/CMSIS/Include/core_cm7.h **** 
 724:Drivers/CMSIS/Include/core_cm7.h **** #define SCB_CFSR_INVPC_Pos                (SCB_CFSR_USGFAULTSR_Pos + 2U)                  /*!< SCB 
 725:Drivers/CMSIS/Include/core_cm7.h **** #define SCB_CFSR_INVPC_Msk                (1UL << SCB_CFSR_INVPC_Pos)                     /*!< SCB 
 726:Drivers/CMSIS/Include/core_cm7.h **** 
 727:Drivers/CMSIS/Include/core_cm7.h **** #define SCB_CFSR_INVSTATE_Pos             (SCB_CFSR_USGFAULTSR_Pos + 1U)                  /*!< SCB 
 728:Drivers/CMSIS/Include/core_cm7.h **** #define SCB_CFSR_INVSTATE_Msk             (1UL << SCB_CFSR_INVSTATE_Pos)                  /*!< SCB 
 729:Drivers/CMSIS/Include/core_cm7.h **** 
 730:Drivers/CMSIS/Include/core_cm7.h **** #define SCB_CFSR_UNDEFINSTR_Pos           (SCB_CFSR_USGFAULTSR_Pos + 0U)                  /*!< SCB 
 731:Drivers/CMSIS/Include/core_cm7.h **** #define SCB_CFSR_UNDEFINSTR_Msk           (1UL << SCB_CFSR_UNDEFINSTR_Pos)                /*!< SCB 
 732:Drivers/CMSIS/Include/core_cm7.h **** 
 733:Drivers/CMSIS/Include/core_cm7.h **** /* SCB Hard Fault Status Register Definitions */
 734:Drivers/CMSIS/Include/core_cm7.h **** #define SCB_HFSR_DEBUGEVT_Pos              31U                                            /*!< SCB 
 735:Drivers/CMSIS/Include/core_cm7.h **** #define SCB_HFSR_DEBUGEVT_Msk              (1UL << SCB_HFSR_DEBUGEVT_Pos)                 /*!< SCB 
 736:Drivers/CMSIS/Include/core_cm7.h **** 
 737:Drivers/CMSIS/Include/core_cm7.h **** #define SCB_HFSR_FORCED_Pos                30U                                            /*!< SCB 
 738:Drivers/CMSIS/Include/core_cm7.h **** #define SCB_HFSR_FORCED_Msk                (1UL << SCB_HFSR_FORCED_Pos)                   /*!< SCB 
 739:Drivers/CMSIS/Include/core_cm7.h **** 
 740:Drivers/CMSIS/Include/core_cm7.h **** #define SCB_HFSR_VECTTBL_Pos                1U                                            /*!< SCB 
ARM GAS  /tmp/ccpoO1YS.s 			page 39


 741:Drivers/CMSIS/Include/core_cm7.h **** #define SCB_HFSR_VECTTBL_Msk               (1UL << SCB_HFSR_VECTTBL_Pos)                  /*!< SCB 
 742:Drivers/CMSIS/Include/core_cm7.h **** 
 743:Drivers/CMSIS/Include/core_cm7.h **** /* SCB Debug Fault Status Register Definitions */
 744:Drivers/CMSIS/Include/core_cm7.h **** #define SCB_DFSR_EXTERNAL_Pos               4U                                            /*!< SCB 
 745:Drivers/CMSIS/Include/core_cm7.h **** #define SCB_DFSR_EXTERNAL_Msk              (1UL << SCB_DFSR_EXTERNAL_Pos)                 /*!< SCB 
 746:Drivers/CMSIS/Include/core_cm7.h **** 
 747:Drivers/CMSIS/Include/core_cm7.h **** #define SCB_DFSR_VCATCH_Pos                 3U                                            /*!< SCB 
 748:Drivers/CMSIS/Include/core_cm7.h **** #define SCB_DFSR_VCATCH_Msk                (1UL << SCB_DFSR_VCATCH_Pos)                   /*!< SCB 
 749:Drivers/CMSIS/Include/core_cm7.h **** 
 750:Drivers/CMSIS/Include/core_cm7.h **** #define SCB_DFSR_DWTTRAP_Pos                2U                                            /*!< SCB 
 751:Drivers/CMSIS/Include/core_cm7.h **** #define SCB_DFSR_DWTTRAP_Msk               (1UL << SCB_DFSR_DWTTRAP_Pos)                  /*!< SCB 
 752:Drivers/CMSIS/Include/core_cm7.h **** 
 753:Drivers/CMSIS/Include/core_cm7.h **** #define SCB_DFSR_BKPT_Pos                   1U                                            /*!< SCB 
 754:Drivers/CMSIS/Include/core_cm7.h **** #define SCB_DFSR_BKPT_Msk                  (1UL << SCB_DFSR_BKPT_Pos)                     /*!< SCB 
 755:Drivers/CMSIS/Include/core_cm7.h **** 
 756:Drivers/CMSIS/Include/core_cm7.h **** #define SCB_DFSR_HALTED_Pos                 0U                                            /*!< SCB 
 757:Drivers/CMSIS/Include/core_cm7.h **** #define SCB_DFSR_HALTED_Msk                (1UL /*<< SCB_DFSR_HALTED_Pos*/)               /*!< SCB 
 758:Drivers/CMSIS/Include/core_cm7.h **** 
 759:Drivers/CMSIS/Include/core_cm7.h **** /* SCB Cache Level ID Register Definitions */
 760:Drivers/CMSIS/Include/core_cm7.h **** #define SCB_CLIDR_LOUU_Pos                 27U                                            /*!< SCB 
 761:Drivers/CMSIS/Include/core_cm7.h **** #define SCB_CLIDR_LOUU_Msk                 (7UL << SCB_CLIDR_LOUU_Pos)                    /*!< SCB 
 762:Drivers/CMSIS/Include/core_cm7.h **** 
 763:Drivers/CMSIS/Include/core_cm7.h **** #define SCB_CLIDR_LOC_Pos                  24U                                            /*!< SCB 
 764:Drivers/CMSIS/Include/core_cm7.h **** #define SCB_CLIDR_LOC_Msk                  (7UL << SCB_CLIDR_LOC_Pos)                     /*!< SCB 
 765:Drivers/CMSIS/Include/core_cm7.h **** 
 766:Drivers/CMSIS/Include/core_cm7.h **** /* SCB Cache Type Register Definitions */
 767:Drivers/CMSIS/Include/core_cm7.h **** #define SCB_CTR_FORMAT_Pos                 29U                                            /*!< SCB 
 768:Drivers/CMSIS/Include/core_cm7.h **** #define SCB_CTR_FORMAT_Msk                 (7UL << SCB_CTR_FORMAT_Pos)                    /*!< SCB 
 769:Drivers/CMSIS/Include/core_cm7.h **** 
 770:Drivers/CMSIS/Include/core_cm7.h **** #define SCB_CTR_CWG_Pos                    24U                                            /*!< SCB 
 771:Drivers/CMSIS/Include/core_cm7.h **** #define SCB_CTR_CWG_Msk                    (0xFUL << SCB_CTR_CWG_Pos)                     /*!< SCB 
 772:Drivers/CMSIS/Include/core_cm7.h **** 
 773:Drivers/CMSIS/Include/core_cm7.h **** #define SCB_CTR_ERG_Pos                    20U                                            /*!< SCB 
 774:Drivers/CMSIS/Include/core_cm7.h **** #define SCB_CTR_ERG_Msk                    (0xFUL << SCB_CTR_ERG_Pos)                     /*!< SCB 
 775:Drivers/CMSIS/Include/core_cm7.h **** 
 776:Drivers/CMSIS/Include/core_cm7.h **** #define SCB_CTR_DMINLINE_Pos               16U                                            /*!< SCB 
 777:Drivers/CMSIS/Include/core_cm7.h **** #define SCB_CTR_DMINLINE_Msk               (0xFUL << SCB_CTR_DMINLINE_Pos)                /*!< SCB 
 778:Drivers/CMSIS/Include/core_cm7.h **** 
 779:Drivers/CMSIS/Include/core_cm7.h **** #define SCB_CTR_IMINLINE_Pos                0U                                            /*!< SCB 
 780:Drivers/CMSIS/Include/core_cm7.h **** #define SCB_CTR_IMINLINE_Msk               (0xFUL /*<< SCB_CTR_IMINLINE_Pos*/)            /*!< SCB 
 781:Drivers/CMSIS/Include/core_cm7.h **** 
 782:Drivers/CMSIS/Include/core_cm7.h **** /* SCB Cache Size ID Register Definitions */
 783:Drivers/CMSIS/Include/core_cm7.h **** #define SCB_CCSIDR_WT_Pos                  31U                                            /*!< SCB 
 784:Drivers/CMSIS/Include/core_cm7.h **** #define SCB_CCSIDR_WT_Msk                  (1UL << SCB_CCSIDR_WT_Pos)                     /*!< SCB 
 785:Drivers/CMSIS/Include/core_cm7.h **** 
 786:Drivers/CMSIS/Include/core_cm7.h **** #define SCB_CCSIDR_WB_Pos                  30U                                            /*!< SCB 
 787:Drivers/CMSIS/Include/core_cm7.h **** #define SCB_CCSIDR_WB_Msk                  (1UL << SCB_CCSIDR_WB_Pos)                     /*!< SCB 
 788:Drivers/CMSIS/Include/core_cm7.h **** 
 789:Drivers/CMSIS/Include/core_cm7.h **** #define SCB_CCSIDR_RA_Pos                  29U                                            /*!< SCB 
 790:Drivers/CMSIS/Include/core_cm7.h **** #define SCB_CCSIDR_RA_Msk                  (1UL << SCB_CCSIDR_RA_Pos)                     /*!< SCB 
 791:Drivers/CMSIS/Include/core_cm7.h **** 
 792:Drivers/CMSIS/Include/core_cm7.h **** #define SCB_CCSIDR_WA_Pos                  28U                                            /*!< SCB 
 793:Drivers/CMSIS/Include/core_cm7.h **** #define SCB_CCSIDR_WA_Msk                  (1UL << SCB_CCSIDR_WA_Pos)                     /*!< SCB 
 794:Drivers/CMSIS/Include/core_cm7.h **** 
 795:Drivers/CMSIS/Include/core_cm7.h **** #define SCB_CCSIDR_NUMSETS_Pos             13U                                            /*!< SCB 
 796:Drivers/CMSIS/Include/core_cm7.h **** #define SCB_CCSIDR_NUMSETS_Msk             (0x7FFFUL << SCB_CCSIDR_NUMSETS_Pos)           /*!< SCB 
 797:Drivers/CMSIS/Include/core_cm7.h **** 
ARM GAS  /tmp/ccpoO1YS.s 			page 40


 798:Drivers/CMSIS/Include/core_cm7.h **** #define SCB_CCSIDR_ASSOCIATIVITY_Pos        3U                                            /*!< SCB 
 799:Drivers/CMSIS/Include/core_cm7.h **** #define SCB_CCSIDR_ASSOCIATIVITY_Msk       (0x3FFUL << SCB_CCSIDR_ASSOCIATIVITY_Pos)      /*!< SCB 
 800:Drivers/CMSIS/Include/core_cm7.h **** 
 801:Drivers/CMSIS/Include/core_cm7.h **** #define SCB_CCSIDR_LINESIZE_Pos             0U                                            /*!< SCB 
 802:Drivers/CMSIS/Include/core_cm7.h **** #define SCB_CCSIDR_LINESIZE_Msk            (7UL /*<< SCB_CCSIDR_LINESIZE_Pos*/)           /*!< SCB 
 803:Drivers/CMSIS/Include/core_cm7.h **** 
 804:Drivers/CMSIS/Include/core_cm7.h **** /* SCB Cache Size Selection Register Definitions */
 805:Drivers/CMSIS/Include/core_cm7.h **** #define SCB_CSSELR_LEVEL_Pos                1U                                            /*!< SCB 
 806:Drivers/CMSIS/Include/core_cm7.h **** #define SCB_CSSELR_LEVEL_Msk               (7UL << SCB_CSSELR_LEVEL_Pos)                  /*!< SCB 
 807:Drivers/CMSIS/Include/core_cm7.h **** 
 808:Drivers/CMSIS/Include/core_cm7.h **** #define SCB_CSSELR_IND_Pos                  0U                                            /*!< SCB 
 809:Drivers/CMSIS/Include/core_cm7.h **** #define SCB_CSSELR_IND_Msk                 (1UL /*<< SCB_CSSELR_IND_Pos*/)                /*!< SCB 
 810:Drivers/CMSIS/Include/core_cm7.h **** 
 811:Drivers/CMSIS/Include/core_cm7.h **** /* SCB Software Triggered Interrupt Register Definitions */
 812:Drivers/CMSIS/Include/core_cm7.h **** #define SCB_STIR_INTID_Pos                  0U                                            /*!< SCB 
 813:Drivers/CMSIS/Include/core_cm7.h **** #define SCB_STIR_INTID_Msk                 (0x1FFUL /*<< SCB_STIR_INTID_Pos*/)            /*!< SCB 
 814:Drivers/CMSIS/Include/core_cm7.h **** 
 815:Drivers/CMSIS/Include/core_cm7.h **** /* SCB D-Cache Invalidate by Set-way Register Definitions */
 816:Drivers/CMSIS/Include/core_cm7.h **** #define SCB_DCISW_WAY_Pos                  30U                                            /*!< SCB 
 817:Drivers/CMSIS/Include/core_cm7.h **** #define SCB_DCISW_WAY_Msk                  (3UL << SCB_DCISW_WAY_Pos)                     /*!< SCB 
 818:Drivers/CMSIS/Include/core_cm7.h **** 
 819:Drivers/CMSIS/Include/core_cm7.h **** #define SCB_DCISW_SET_Pos                   5U                                            /*!< SCB 
 820:Drivers/CMSIS/Include/core_cm7.h **** #define SCB_DCISW_SET_Msk                  (0x1FFUL << SCB_DCISW_SET_Pos)                 /*!< SCB 
 821:Drivers/CMSIS/Include/core_cm7.h **** 
 822:Drivers/CMSIS/Include/core_cm7.h **** /* SCB D-Cache Clean by Set-way Register Definitions */
 823:Drivers/CMSIS/Include/core_cm7.h **** #define SCB_DCCSW_WAY_Pos                  30U                                            /*!< SCB 
 824:Drivers/CMSIS/Include/core_cm7.h **** #define SCB_DCCSW_WAY_Msk                  (3UL << SCB_DCCSW_WAY_Pos)                     /*!< SCB 
 825:Drivers/CMSIS/Include/core_cm7.h **** 
 826:Drivers/CMSIS/Include/core_cm7.h **** #define SCB_DCCSW_SET_Pos                   5U                                            /*!< SCB 
 827:Drivers/CMSIS/Include/core_cm7.h **** #define SCB_DCCSW_SET_Msk                  (0x1FFUL << SCB_DCCSW_SET_Pos)                 /*!< SCB 
 828:Drivers/CMSIS/Include/core_cm7.h **** 
 829:Drivers/CMSIS/Include/core_cm7.h **** /* SCB D-Cache Clean and Invalidate by Set-way Register Definitions */
 830:Drivers/CMSIS/Include/core_cm7.h **** #define SCB_DCCISW_WAY_Pos                 30U                                            /*!< SCB 
 831:Drivers/CMSIS/Include/core_cm7.h **** #define SCB_DCCISW_WAY_Msk                 (3UL << SCB_DCCISW_WAY_Pos)                    /*!< SCB 
 832:Drivers/CMSIS/Include/core_cm7.h **** 
 833:Drivers/CMSIS/Include/core_cm7.h **** #define SCB_DCCISW_SET_Pos                  5U                                            /*!< SCB 
 834:Drivers/CMSIS/Include/core_cm7.h **** #define SCB_DCCISW_SET_Msk                 (0x1FFUL << SCB_DCCISW_SET_Pos)                /*!< SCB 
 835:Drivers/CMSIS/Include/core_cm7.h **** 
 836:Drivers/CMSIS/Include/core_cm7.h **** /* Instruction Tightly-Coupled Memory Control Register Definitions */
 837:Drivers/CMSIS/Include/core_cm7.h **** #define SCB_ITCMCR_SZ_Pos                   3U                                            /*!< SCB 
 838:Drivers/CMSIS/Include/core_cm7.h **** #define SCB_ITCMCR_SZ_Msk                  (0xFUL << SCB_ITCMCR_SZ_Pos)                   /*!< SCB 
 839:Drivers/CMSIS/Include/core_cm7.h **** 
 840:Drivers/CMSIS/Include/core_cm7.h **** #define SCB_ITCMCR_RETEN_Pos                2U                                            /*!< SCB 
 841:Drivers/CMSIS/Include/core_cm7.h **** #define SCB_ITCMCR_RETEN_Msk               (1UL << SCB_ITCMCR_RETEN_Pos)                  /*!< SCB 
 842:Drivers/CMSIS/Include/core_cm7.h **** 
 843:Drivers/CMSIS/Include/core_cm7.h **** #define SCB_ITCMCR_RMW_Pos                  1U                                            /*!< SCB 
 844:Drivers/CMSIS/Include/core_cm7.h **** #define SCB_ITCMCR_RMW_Msk                 (1UL << SCB_ITCMCR_RMW_Pos)                    /*!< SCB 
 845:Drivers/CMSIS/Include/core_cm7.h **** 
 846:Drivers/CMSIS/Include/core_cm7.h **** #define SCB_ITCMCR_EN_Pos                   0U                                            /*!< SCB 
 847:Drivers/CMSIS/Include/core_cm7.h **** #define SCB_ITCMCR_EN_Msk                  (1UL /*<< SCB_ITCMCR_EN_Pos*/)                 /*!< SCB 
 848:Drivers/CMSIS/Include/core_cm7.h **** 
 849:Drivers/CMSIS/Include/core_cm7.h **** /* Data Tightly-Coupled Memory Control Register Definitions */
 850:Drivers/CMSIS/Include/core_cm7.h **** #define SCB_DTCMCR_SZ_Pos                   3U                                            /*!< SCB 
 851:Drivers/CMSIS/Include/core_cm7.h **** #define SCB_DTCMCR_SZ_Msk                  (0xFUL << SCB_DTCMCR_SZ_Pos)                   /*!< SCB 
 852:Drivers/CMSIS/Include/core_cm7.h **** 
 853:Drivers/CMSIS/Include/core_cm7.h **** #define SCB_DTCMCR_RETEN_Pos                2U                                            /*!< SCB 
 854:Drivers/CMSIS/Include/core_cm7.h **** #define SCB_DTCMCR_RETEN_Msk               (1UL << SCB_DTCMCR_RETEN_Pos)                   /*!< SCB
ARM GAS  /tmp/ccpoO1YS.s 			page 41


 855:Drivers/CMSIS/Include/core_cm7.h **** 
 856:Drivers/CMSIS/Include/core_cm7.h **** #define SCB_DTCMCR_RMW_Pos                  1U                                            /*!< SCB 
 857:Drivers/CMSIS/Include/core_cm7.h **** #define SCB_DTCMCR_RMW_Msk                 (1UL << SCB_DTCMCR_RMW_Pos)                    /*!< SCB 
 858:Drivers/CMSIS/Include/core_cm7.h **** 
 859:Drivers/CMSIS/Include/core_cm7.h **** #define SCB_DTCMCR_EN_Pos                   0U                                            /*!< SCB 
 860:Drivers/CMSIS/Include/core_cm7.h **** #define SCB_DTCMCR_EN_Msk                  (1UL /*<< SCB_DTCMCR_EN_Pos*/)                 /*!< SCB 
 861:Drivers/CMSIS/Include/core_cm7.h **** 
 862:Drivers/CMSIS/Include/core_cm7.h **** /* AHBP Control Register Definitions */
 863:Drivers/CMSIS/Include/core_cm7.h **** #define SCB_AHBPCR_SZ_Pos                   1U                                            /*!< SCB 
 864:Drivers/CMSIS/Include/core_cm7.h **** #define SCB_AHBPCR_SZ_Msk                  (7UL << SCB_AHBPCR_SZ_Pos)                     /*!< SCB 
 865:Drivers/CMSIS/Include/core_cm7.h **** 
 866:Drivers/CMSIS/Include/core_cm7.h **** #define SCB_AHBPCR_EN_Pos                   0U                                            /*!< SCB 
 867:Drivers/CMSIS/Include/core_cm7.h **** #define SCB_AHBPCR_EN_Msk                  (1UL /*<< SCB_AHBPCR_EN_Pos*/)                 /*!< SCB 
 868:Drivers/CMSIS/Include/core_cm7.h **** 
 869:Drivers/CMSIS/Include/core_cm7.h **** /* L1 Cache Control Register Definitions */
 870:Drivers/CMSIS/Include/core_cm7.h **** #define SCB_CACR_FORCEWT_Pos                2U                                            /*!< SCB 
 871:Drivers/CMSIS/Include/core_cm7.h **** #define SCB_CACR_FORCEWT_Msk               (1UL << SCB_CACR_FORCEWT_Pos)                  /*!< SCB 
 872:Drivers/CMSIS/Include/core_cm7.h **** 
 873:Drivers/CMSIS/Include/core_cm7.h **** #define SCB_CACR_ECCEN_Pos                  1U                                            /*!< SCB 
 874:Drivers/CMSIS/Include/core_cm7.h **** #define SCB_CACR_ECCEN_Msk                 (1UL << SCB_CACR_ECCEN_Pos)                    /*!< SCB 
 875:Drivers/CMSIS/Include/core_cm7.h **** 
 876:Drivers/CMSIS/Include/core_cm7.h **** #define SCB_CACR_SIWT_Pos                   0U                                            /*!< SCB 
 877:Drivers/CMSIS/Include/core_cm7.h **** #define SCB_CACR_SIWT_Msk                  (1UL /*<< SCB_CACR_SIWT_Pos*/)                 /*!< SCB 
 878:Drivers/CMSIS/Include/core_cm7.h **** 
 879:Drivers/CMSIS/Include/core_cm7.h **** /* AHBS Control Register Definitions */
 880:Drivers/CMSIS/Include/core_cm7.h **** #define SCB_AHBSCR_INITCOUNT_Pos           11U                                            /*!< SCB 
 881:Drivers/CMSIS/Include/core_cm7.h **** #define SCB_AHBSCR_INITCOUNT_Msk           (0x1FUL << SCB_AHBPCR_INITCOUNT_Pos)           /*!< SCB 
 882:Drivers/CMSIS/Include/core_cm7.h **** 
 883:Drivers/CMSIS/Include/core_cm7.h **** #define SCB_AHBSCR_TPRI_Pos                 2U                                            /*!< SCB 
 884:Drivers/CMSIS/Include/core_cm7.h **** #define SCB_AHBSCR_TPRI_Msk                (0x1FFUL << SCB_AHBPCR_TPRI_Pos)               /*!< SCB 
 885:Drivers/CMSIS/Include/core_cm7.h **** 
 886:Drivers/CMSIS/Include/core_cm7.h **** #define SCB_AHBSCR_CTL_Pos                  0U                                            /*!< SCB 
 887:Drivers/CMSIS/Include/core_cm7.h **** #define SCB_AHBSCR_CTL_Msk                 (3UL /*<< SCB_AHBPCR_CTL_Pos*/)                /*!< SCB 
 888:Drivers/CMSIS/Include/core_cm7.h **** 
 889:Drivers/CMSIS/Include/core_cm7.h **** /* Auxiliary Bus Fault Status Register Definitions */
 890:Drivers/CMSIS/Include/core_cm7.h **** #define SCB_ABFSR_AXIMTYPE_Pos              8U                                            /*!< SCB 
 891:Drivers/CMSIS/Include/core_cm7.h **** #define SCB_ABFSR_AXIMTYPE_Msk             (3UL << SCB_ABFSR_AXIMTYPE_Pos)                /*!< SCB 
 892:Drivers/CMSIS/Include/core_cm7.h **** 
 893:Drivers/CMSIS/Include/core_cm7.h **** #define SCB_ABFSR_EPPB_Pos                  4U                                            /*!< SCB 
 894:Drivers/CMSIS/Include/core_cm7.h **** #define SCB_ABFSR_EPPB_Msk                 (1UL << SCB_ABFSR_EPPB_Pos)                    /*!< SCB 
 895:Drivers/CMSIS/Include/core_cm7.h **** 
 896:Drivers/CMSIS/Include/core_cm7.h **** #define SCB_ABFSR_AXIM_Pos                  3U                                            /*!< SCB 
 897:Drivers/CMSIS/Include/core_cm7.h **** #define SCB_ABFSR_AXIM_Msk                 (1UL << SCB_ABFSR_AXIM_Pos)                    /*!< SCB 
 898:Drivers/CMSIS/Include/core_cm7.h **** 
 899:Drivers/CMSIS/Include/core_cm7.h **** #define SCB_ABFSR_AHBP_Pos                  2U                                            /*!< SCB 
 900:Drivers/CMSIS/Include/core_cm7.h **** #define SCB_ABFSR_AHBP_Msk                 (1UL << SCB_ABFSR_AHBP_Pos)                    /*!< SCB 
 901:Drivers/CMSIS/Include/core_cm7.h **** 
 902:Drivers/CMSIS/Include/core_cm7.h **** #define SCB_ABFSR_DTCM_Pos                  1U                                            /*!< SCB 
 903:Drivers/CMSIS/Include/core_cm7.h **** #define SCB_ABFSR_DTCM_Msk                 (1UL << SCB_ABFSR_DTCM_Pos)                    /*!< SCB 
 904:Drivers/CMSIS/Include/core_cm7.h **** 
 905:Drivers/CMSIS/Include/core_cm7.h **** #define SCB_ABFSR_ITCM_Pos                  0U                                            /*!< SCB 
 906:Drivers/CMSIS/Include/core_cm7.h **** #define SCB_ABFSR_ITCM_Msk                 (1UL /*<< SCB_ABFSR_ITCM_Pos*/)                /*!< SCB 
 907:Drivers/CMSIS/Include/core_cm7.h **** 
 908:Drivers/CMSIS/Include/core_cm7.h **** /*@} end of group CMSIS_SCB */
 909:Drivers/CMSIS/Include/core_cm7.h **** 
 910:Drivers/CMSIS/Include/core_cm7.h **** 
 911:Drivers/CMSIS/Include/core_cm7.h **** /**
ARM GAS  /tmp/ccpoO1YS.s 			page 42


 912:Drivers/CMSIS/Include/core_cm7.h ****   \ingroup  CMSIS_core_register
 913:Drivers/CMSIS/Include/core_cm7.h ****   \defgroup CMSIS_SCnSCB System Controls not in SCB (SCnSCB)
 914:Drivers/CMSIS/Include/core_cm7.h ****   \brief    Type definitions for the System Control and ID Register not in the SCB
 915:Drivers/CMSIS/Include/core_cm7.h ****   @{
 916:Drivers/CMSIS/Include/core_cm7.h ****  */
 917:Drivers/CMSIS/Include/core_cm7.h **** 
 918:Drivers/CMSIS/Include/core_cm7.h **** /**
 919:Drivers/CMSIS/Include/core_cm7.h ****   \brief  Structure type to access the System Control and ID Register not in the SCB.
 920:Drivers/CMSIS/Include/core_cm7.h ****  */
 921:Drivers/CMSIS/Include/core_cm7.h **** typedef struct
 922:Drivers/CMSIS/Include/core_cm7.h **** {
 923:Drivers/CMSIS/Include/core_cm7.h ****         uint32_t RESERVED0[1U];
 924:Drivers/CMSIS/Include/core_cm7.h ****   __IM  uint32_t ICTR;                   /*!< Offset: 0x004 (R/ )  Interrupt Controller Type Regist
 925:Drivers/CMSIS/Include/core_cm7.h ****   __IOM uint32_t ACTLR;                  /*!< Offset: 0x008 (R/W)  Auxiliary Control Register */
 926:Drivers/CMSIS/Include/core_cm7.h **** } SCnSCB_Type;
 927:Drivers/CMSIS/Include/core_cm7.h **** 
 928:Drivers/CMSIS/Include/core_cm7.h **** /* Interrupt Controller Type Register Definitions */
 929:Drivers/CMSIS/Include/core_cm7.h **** #define SCnSCB_ICTR_INTLINESNUM_Pos         0U                                         /*!< ICTR: I
 930:Drivers/CMSIS/Include/core_cm7.h **** #define SCnSCB_ICTR_INTLINESNUM_Msk        (0xFUL /*<< SCnSCB_ICTR_INTLINESNUM_Pos*/)  /*!< ICTR: I
 931:Drivers/CMSIS/Include/core_cm7.h **** 
 932:Drivers/CMSIS/Include/core_cm7.h **** /* Auxiliary Control Register Definitions */
 933:Drivers/CMSIS/Include/core_cm7.h **** #define SCnSCB_ACTLR_DISITMATBFLUSH_Pos    12U                                         /*!< ACTLR: 
 934:Drivers/CMSIS/Include/core_cm7.h **** #define SCnSCB_ACTLR_DISITMATBFLUSH_Msk    (1UL << SCnSCB_ACTLR_DISITMATBFLUSH_Pos)    /*!< ACTLR: 
 935:Drivers/CMSIS/Include/core_cm7.h **** 
 936:Drivers/CMSIS/Include/core_cm7.h **** #define SCnSCB_ACTLR_DISRAMODE_Pos         11U                                         /*!< ACTLR: 
 937:Drivers/CMSIS/Include/core_cm7.h **** #define SCnSCB_ACTLR_DISRAMODE_Msk         (1UL << SCnSCB_ACTLR_DISRAMODE_Pos)         /*!< ACTLR: 
 938:Drivers/CMSIS/Include/core_cm7.h **** 
 939:Drivers/CMSIS/Include/core_cm7.h **** #define SCnSCB_ACTLR_FPEXCODIS_Pos         10U                                         /*!< ACTLR: 
 940:Drivers/CMSIS/Include/core_cm7.h **** #define SCnSCB_ACTLR_FPEXCODIS_Msk         (1UL << SCnSCB_ACTLR_FPEXCODIS_Pos)         /*!< ACTLR: 
 941:Drivers/CMSIS/Include/core_cm7.h **** 
 942:Drivers/CMSIS/Include/core_cm7.h **** #define SCnSCB_ACTLR_DISFOLD_Pos            2U                                         /*!< ACTLR: 
 943:Drivers/CMSIS/Include/core_cm7.h **** #define SCnSCB_ACTLR_DISFOLD_Msk           (1UL << SCnSCB_ACTLR_DISFOLD_Pos)           /*!< ACTLR: 
 944:Drivers/CMSIS/Include/core_cm7.h **** 
 945:Drivers/CMSIS/Include/core_cm7.h **** #define SCnSCB_ACTLR_DISMCYCINT_Pos         0U                                         /*!< ACTLR: 
 946:Drivers/CMSIS/Include/core_cm7.h **** #define SCnSCB_ACTLR_DISMCYCINT_Msk        (1UL /*<< SCnSCB_ACTLR_DISMCYCINT_Pos*/)    /*!< ACTLR: 
 947:Drivers/CMSIS/Include/core_cm7.h **** 
 948:Drivers/CMSIS/Include/core_cm7.h **** /*@} end of group CMSIS_SCnotSCB */
 949:Drivers/CMSIS/Include/core_cm7.h **** 
 950:Drivers/CMSIS/Include/core_cm7.h **** 
 951:Drivers/CMSIS/Include/core_cm7.h **** /**
 952:Drivers/CMSIS/Include/core_cm7.h ****   \ingroup  CMSIS_core_register
 953:Drivers/CMSIS/Include/core_cm7.h ****   \defgroup CMSIS_SysTick     System Tick Timer (SysTick)
 954:Drivers/CMSIS/Include/core_cm7.h ****   \brief    Type definitions for the System Timer Registers.
 955:Drivers/CMSIS/Include/core_cm7.h ****   @{
 956:Drivers/CMSIS/Include/core_cm7.h ****  */
 957:Drivers/CMSIS/Include/core_cm7.h **** 
 958:Drivers/CMSIS/Include/core_cm7.h **** /**
 959:Drivers/CMSIS/Include/core_cm7.h ****   \brief  Structure type to access the System Timer (SysTick).
 960:Drivers/CMSIS/Include/core_cm7.h ****  */
 961:Drivers/CMSIS/Include/core_cm7.h **** typedef struct
 962:Drivers/CMSIS/Include/core_cm7.h **** {
 963:Drivers/CMSIS/Include/core_cm7.h ****   __IOM uint32_t CTRL;                   /*!< Offset: 0x000 (R/W)  SysTick Control and Status Regis
 964:Drivers/CMSIS/Include/core_cm7.h ****   __IOM uint32_t LOAD;                   /*!< Offset: 0x004 (R/W)  SysTick Reload Value Register */
 965:Drivers/CMSIS/Include/core_cm7.h ****   __IOM uint32_t VAL;                    /*!< Offset: 0x008 (R/W)  SysTick Current Value Register *
 966:Drivers/CMSIS/Include/core_cm7.h ****   __IM  uint32_t CALIB;                  /*!< Offset: 0x00C (R/ )  SysTick Calibration Register */
 967:Drivers/CMSIS/Include/core_cm7.h **** } SysTick_Type;
 968:Drivers/CMSIS/Include/core_cm7.h **** 
ARM GAS  /tmp/ccpoO1YS.s 			page 43


 969:Drivers/CMSIS/Include/core_cm7.h **** /* SysTick Control / Status Register Definitions */
 970:Drivers/CMSIS/Include/core_cm7.h **** #define SysTick_CTRL_COUNTFLAG_Pos         16U                                            /*!< SysT
 971:Drivers/CMSIS/Include/core_cm7.h **** #define SysTick_CTRL_COUNTFLAG_Msk         (1UL << SysTick_CTRL_COUNTFLAG_Pos)            /*!< SysT
 972:Drivers/CMSIS/Include/core_cm7.h **** 
 973:Drivers/CMSIS/Include/core_cm7.h **** #define SysTick_CTRL_CLKSOURCE_Pos          2U                                            /*!< SysT
 974:Drivers/CMSIS/Include/core_cm7.h **** #define SysTick_CTRL_CLKSOURCE_Msk         (1UL << SysTick_CTRL_CLKSOURCE_Pos)            /*!< SysT
 975:Drivers/CMSIS/Include/core_cm7.h **** 
 976:Drivers/CMSIS/Include/core_cm7.h **** #define SysTick_CTRL_TICKINT_Pos            1U                                            /*!< SysT
 977:Drivers/CMSIS/Include/core_cm7.h **** #define SysTick_CTRL_TICKINT_Msk           (1UL << SysTick_CTRL_TICKINT_Pos)              /*!< SysT
 978:Drivers/CMSIS/Include/core_cm7.h **** 
 979:Drivers/CMSIS/Include/core_cm7.h **** #define SysTick_CTRL_ENABLE_Pos             0U                                            /*!< SysT
 980:Drivers/CMSIS/Include/core_cm7.h **** #define SysTick_CTRL_ENABLE_Msk            (1UL /*<< SysTick_CTRL_ENABLE_Pos*/)           /*!< SysT
 981:Drivers/CMSIS/Include/core_cm7.h **** 
 982:Drivers/CMSIS/Include/core_cm7.h **** /* SysTick Reload Register Definitions */
 983:Drivers/CMSIS/Include/core_cm7.h **** #define SysTick_LOAD_RELOAD_Pos             0U                                            /*!< SysT
 984:Drivers/CMSIS/Include/core_cm7.h **** #define SysTick_LOAD_RELOAD_Msk            (0xFFFFFFUL /*<< SysTick_LOAD_RELOAD_Pos*/)    /*!< SysT
 985:Drivers/CMSIS/Include/core_cm7.h **** 
 986:Drivers/CMSIS/Include/core_cm7.h **** /* SysTick Current Register Definitions */
 987:Drivers/CMSIS/Include/core_cm7.h **** #define SysTick_VAL_CURRENT_Pos             0U                                            /*!< SysT
 988:Drivers/CMSIS/Include/core_cm7.h **** #define SysTick_VAL_CURRENT_Msk            (0xFFFFFFUL /*<< SysTick_VAL_CURRENT_Pos*/)    /*!< SysT
 989:Drivers/CMSIS/Include/core_cm7.h **** 
 990:Drivers/CMSIS/Include/core_cm7.h **** /* SysTick Calibration Register Definitions */
 991:Drivers/CMSIS/Include/core_cm7.h **** #define SysTick_CALIB_NOREF_Pos            31U                                            /*!< SysT
 992:Drivers/CMSIS/Include/core_cm7.h **** #define SysTick_CALIB_NOREF_Msk            (1UL << SysTick_CALIB_NOREF_Pos)               /*!< SysT
 993:Drivers/CMSIS/Include/core_cm7.h **** 
 994:Drivers/CMSIS/Include/core_cm7.h **** #define SysTick_CALIB_SKEW_Pos             30U                                            /*!< SysT
 995:Drivers/CMSIS/Include/core_cm7.h **** #define SysTick_CALIB_SKEW_Msk             (1UL << SysTick_CALIB_SKEW_Pos)                /*!< SysT
 996:Drivers/CMSIS/Include/core_cm7.h **** 
 997:Drivers/CMSIS/Include/core_cm7.h **** #define SysTick_CALIB_TENMS_Pos             0U                                            /*!< SysT
 998:Drivers/CMSIS/Include/core_cm7.h **** #define SysTick_CALIB_TENMS_Msk            (0xFFFFFFUL /*<< SysTick_CALIB_TENMS_Pos*/)    /*!< SysT
 999:Drivers/CMSIS/Include/core_cm7.h **** 
1000:Drivers/CMSIS/Include/core_cm7.h **** /*@} end of group CMSIS_SysTick */
1001:Drivers/CMSIS/Include/core_cm7.h **** 
1002:Drivers/CMSIS/Include/core_cm7.h **** 
1003:Drivers/CMSIS/Include/core_cm7.h **** /**
1004:Drivers/CMSIS/Include/core_cm7.h ****   \ingroup  CMSIS_core_register
1005:Drivers/CMSIS/Include/core_cm7.h ****   \defgroup CMSIS_ITM     Instrumentation Trace Macrocell (ITM)
1006:Drivers/CMSIS/Include/core_cm7.h ****   \brief    Type definitions for the Instrumentation Trace Macrocell (ITM)
1007:Drivers/CMSIS/Include/core_cm7.h ****   @{
1008:Drivers/CMSIS/Include/core_cm7.h ****  */
1009:Drivers/CMSIS/Include/core_cm7.h **** 
1010:Drivers/CMSIS/Include/core_cm7.h **** /**
1011:Drivers/CMSIS/Include/core_cm7.h ****   \brief  Structure type to access the Instrumentation Trace Macrocell Register (ITM).
1012:Drivers/CMSIS/Include/core_cm7.h ****  */
1013:Drivers/CMSIS/Include/core_cm7.h **** typedef struct
1014:Drivers/CMSIS/Include/core_cm7.h **** {
1015:Drivers/CMSIS/Include/core_cm7.h ****   __OM  union
1016:Drivers/CMSIS/Include/core_cm7.h ****   {
1017:Drivers/CMSIS/Include/core_cm7.h ****     __OM  uint8_t    u8;                 /*!< Offset: 0x000 ( /W)  ITM Stimulus Port 8-bit */
1018:Drivers/CMSIS/Include/core_cm7.h ****     __OM  uint16_t   u16;                /*!< Offset: 0x000 ( /W)  ITM Stimulus Port 16-bit */
1019:Drivers/CMSIS/Include/core_cm7.h ****     __OM  uint32_t   u32;                /*!< Offset: 0x000 ( /W)  ITM Stimulus Port 32-bit */
1020:Drivers/CMSIS/Include/core_cm7.h ****   }  PORT [32U];                         /*!< Offset: 0x000 ( /W)  ITM Stimulus Port Registers */
1021:Drivers/CMSIS/Include/core_cm7.h ****         uint32_t RESERVED0[864U];
1022:Drivers/CMSIS/Include/core_cm7.h ****   __IOM uint32_t TER;                    /*!< Offset: 0xE00 (R/W)  ITM Trace Enable Register */
1023:Drivers/CMSIS/Include/core_cm7.h ****         uint32_t RESERVED1[15U];
1024:Drivers/CMSIS/Include/core_cm7.h ****   __IOM uint32_t TPR;                    /*!< Offset: 0xE40 (R/W)  ITM Trace Privilege Register */
1025:Drivers/CMSIS/Include/core_cm7.h ****         uint32_t RESERVED2[15U];
ARM GAS  /tmp/ccpoO1YS.s 			page 44


1026:Drivers/CMSIS/Include/core_cm7.h ****   __IOM uint32_t TCR;                    /*!< Offset: 0xE80 (R/W)  ITM Trace Control Register */
1027:Drivers/CMSIS/Include/core_cm7.h ****         uint32_t RESERVED3[29U];
1028:Drivers/CMSIS/Include/core_cm7.h ****   __OM  uint32_t IWR;                    /*!< Offset: 0xEF8 ( /W)  ITM Integration Write Register *
1029:Drivers/CMSIS/Include/core_cm7.h ****   __IM  uint32_t IRR;                    /*!< Offset: 0xEFC (R/ )  ITM Integration Read Register */
1030:Drivers/CMSIS/Include/core_cm7.h ****   __IOM uint32_t IMCR;                   /*!< Offset: 0xF00 (R/W)  ITM Integration Mode Control Reg
1031:Drivers/CMSIS/Include/core_cm7.h ****         uint32_t RESERVED4[43U];
1032:Drivers/CMSIS/Include/core_cm7.h ****   __OM  uint32_t LAR;                    /*!< Offset: 0xFB0 ( /W)  ITM Lock Access Register */
1033:Drivers/CMSIS/Include/core_cm7.h ****   __IM  uint32_t LSR;                    /*!< Offset: 0xFB4 (R/ )  ITM Lock Status Register */
1034:Drivers/CMSIS/Include/core_cm7.h ****         uint32_t RESERVED5[6U];
1035:Drivers/CMSIS/Include/core_cm7.h ****   __IM  uint32_t PID4;                   /*!< Offset: 0xFD0 (R/ )  ITM Peripheral Identification Re
1036:Drivers/CMSIS/Include/core_cm7.h ****   __IM  uint32_t PID5;                   /*!< Offset: 0xFD4 (R/ )  ITM Peripheral Identification Re
1037:Drivers/CMSIS/Include/core_cm7.h ****   __IM  uint32_t PID6;                   /*!< Offset: 0xFD8 (R/ )  ITM Peripheral Identification Re
1038:Drivers/CMSIS/Include/core_cm7.h ****   __IM  uint32_t PID7;                   /*!< Offset: 0xFDC (R/ )  ITM Peripheral Identification Re
1039:Drivers/CMSIS/Include/core_cm7.h ****   __IM  uint32_t PID0;                   /*!< Offset: 0xFE0 (R/ )  ITM Peripheral Identification Re
1040:Drivers/CMSIS/Include/core_cm7.h ****   __IM  uint32_t PID1;                   /*!< Offset: 0xFE4 (R/ )  ITM Peripheral Identification Re
1041:Drivers/CMSIS/Include/core_cm7.h ****   __IM  uint32_t PID2;                   /*!< Offset: 0xFE8 (R/ )  ITM Peripheral Identification Re
1042:Drivers/CMSIS/Include/core_cm7.h ****   __IM  uint32_t PID3;                   /*!< Offset: 0xFEC (R/ )  ITM Peripheral Identification Re
1043:Drivers/CMSIS/Include/core_cm7.h ****   __IM  uint32_t CID0;                   /*!< Offset: 0xFF0 (R/ )  ITM Component  Identification Re
1044:Drivers/CMSIS/Include/core_cm7.h ****   __IM  uint32_t CID1;                   /*!< Offset: 0xFF4 (R/ )  ITM Component  Identification Re
1045:Drivers/CMSIS/Include/core_cm7.h ****   __IM  uint32_t CID2;                   /*!< Offset: 0xFF8 (R/ )  ITM Component  Identification Re
1046:Drivers/CMSIS/Include/core_cm7.h ****   __IM  uint32_t CID3;                   /*!< Offset: 0xFFC (R/ )  ITM Component  Identification Re
1047:Drivers/CMSIS/Include/core_cm7.h **** } ITM_Type;
1048:Drivers/CMSIS/Include/core_cm7.h **** 
1049:Drivers/CMSIS/Include/core_cm7.h **** /* ITM Trace Privilege Register Definitions */
1050:Drivers/CMSIS/Include/core_cm7.h **** #define ITM_TPR_PRIVMASK_Pos                0U                                            /*!< ITM 
1051:Drivers/CMSIS/Include/core_cm7.h **** #define ITM_TPR_PRIVMASK_Msk               (0xFFFFFFFFUL /*<< ITM_TPR_PRIVMASK_Pos*/)     /*!< ITM 
1052:Drivers/CMSIS/Include/core_cm7.h **** 
1053:Drivers/CMSIS/Include/core_cm7.h **** /* ITM Trace Control Register Definitions */
1054:Drivers/CMSIS/Include/core_cm7.h **** #define ITM_TCR_BUSY_Pos                   23U                                            /*!< ITM 
1055:Drivers/CMSIS/Include/core_cm7.h **** #define ITM_TCR_BUSY_Msk                   (1UL << ITM_TCR_BUSY_Pos)                      /*!< ITM 
1056:Drivers/CMSIS/Include/core_cm7.h **** 
1057:Drivers/CMSIS/Include/core_cm7.h **** #define ITM_TCR_TraceBusID_Pos             16U                                            /*!< ITM 
1058:Drivers/CMSIS/Include/core_cm7.h **** #define ITM_TCR_TraceBusID_Msk             (0x7FUL << ITM_TCR_TraceBusID_Pos)             /*!< ITM 
1059:Drivers/CMSIS/Include/core_cm7.h **** 
1060:Drivers/CMSIS/Include/core_cm7.h **** #define ITM_TCR_GTSFREQ_Pos                10U                                            /*!< ITM 
1061:Drivers/CMSIS/Include/core_cm7.h **** #define ITM_TCR_GTSFREQ_Msk                (3UL << ITM_TCR_GTSFREQ_Pos)                   /*!< ITM 
1062:Drivers/CMSIS/Include/core_cm7.h **** 
1063:Drivers/CMSIS/Include/core_cm7.h **** #define ITM_TCR_TSPrescale_Pos              8U                                            /*!< ITM 
1064:Drivers/CMSIS/Include/core_cm7.h **** #define ITM_TCR_TSPrescale_Msk             (3UL << ITM_TCR_TSPrescale_Pos)                /*!< ITM 
1065:Drivers/CMSIS/Include/core_cm7.h **** 
1066:Drivers/CMSIS/Include/core_cm7.h **** #define ITM_TCR_SWOENA_Pos                  4U                                            /*!< ITM 
1067:Drivers/CMSIS/Include/core_cm7.h **** #define ITM_TCR_SWOENA_Msk                 (1UL << ITM_TCR_SWOENA_Pos)                    /*!< ITM 
1068:Drivers/CMSIS/Include/core_cm7.h **** 
1069:Drivers/CMSIS/Include/core_cm7.h **** #define ITM_TCR_DWTENA_Pos                  3U                                            /*!< ITM 
1070:Drivers/CMSIS/Include/core_cm7.h **** #define ITM_TCR_DWTENA_Msk                 (1UL << ITM_TCR_DWTENA_Pos)                    /*!< ITM 
1071:Drivers/CMSIS/Include/core_cm7.h **** 
1072:Drivers/CMSIS/Include/core_cm7.h **** #define ITM_TCR_SYNCENA_Pos                 2U                                            /*!< ITM 
1073:Drivers/CMSIS/Include/core_cm7.h **** #define ITM_TCR_SYNCENA_Msk                (1UL << ITM_TCR_SYNCENA_Pos)                   /*!< ITM 
1074:Drivers/CMSIS/Include/core_cm7.h **** 
1075:Drivers/CMSIS/Include/core_cm7.h **** #define ITM_TCR_TSENA_Pos                   1U                                            /*!< ITM 
1076:Drivers/CMSIS/Include/core_cm7.h **** #define ITM_TCR_TSENA_Msk                  (1UL << ITM_TCR_TSENA_Pos)                     /*!< ITM 
1077:Drivers/CMSIS/Include/core_cm7.h **** 
1078:Drivers/CMSIS/Include/core_cm7.h **** #define ITM_TCR_ITMENA_Pos                  0U                                            /*!< ITM 
1079:Drivers/CMSIS/Include/core_cm7.h **** #define ITM_TCR_ITMENA_Msk                 (1UL /*<< ITM_TCR_ITMENA_Pos*/)                /*!< ITM 
1080:Drivers/CMSIS/Include/core_cm7.h **** 
1081:Drivers/CMSIS/Include/core_cm7.h **** /* ITM Integration Write Register Definitions */
1082:Drivers/CMSIS/Include/core_cm7.h **** #define ITM_IWR_ATVALIDM_Pos                0U                                            /*!< ITM 
ARM GAS  /tmp/ccpoO1YS.s 			page 45


1083:Drivers/CMSIS/Include/core_cm7.h **** #define ITM_IWR_ATVALIDM_Msk               (1UL /*<< ITM_IWR_ATVALIDM_Pos*/)              /*!< ITM 
1084:Drivers/CMSIS/Include/core_cm7.h **** 
1085:Drivers/CMSIS/Include/core_cm7.h **** /* ITM Integration Read Register Definitions */
1086:Drivers/CMSIS/Include/core_cm7.h **** #define ITM_IRR_ATREADYM_Pos                0U                                            /*!< ITM 
1087:Drivers/CMSIS/Include/core_cm7.h **** #define ITM_IRR_ATREADYM_Msk               (1UL /*<< ITM_IRR_ATREADYM_Pos*/)              /*!< ITM 
1088:Drivers/CMSIS/Include/core_cm7.h **** 
1089:Drivers/CMSIS/Include/core_cm7.h **** /* ITM Integration Mode Control Register Definitions */
1090:Drivers/CMSIS/Include/core_cm7.h **** #define ITM_IMCR_INTEGRATION_Pos            0U                                            /*!< ITM 
1091:Drivers/CMSIS/Include/core_cm7.h **** #define ITM_IMCR_INTEGRATION_Msk           (1UL /*<< ITM_IMCR_INTEGRATION_Pos*/)          /*!< ITM 
1092:Drivers/CMSIS/Include/core_cm7.h **** 
1093:Drivers/CMSIS/Include/core_cm7.h **** /* ITM Lock Status Register Definitions */
1094:Drivers/CMSIS/Include/core_cm7.h **** #define ITM_LSR_ByteAcc_Pos                 2U                                            /*!< ITM 
1095:Drivers/CMSIS/Include/core_cm7.h **** #define ITM_LSR_ByteAcc_Msk                (1UL << ITM_LSR_ByteAcc_Pos)                   /*!< ITM 
1096:Drivers/CMSIS/Include/core_cm7.h **** 
1097:Drivers/CMSIS/Include/core_cm7.h **** #define ITM_LSR_Access_Pos                  1U                                            /*!< ITM 
1098:Drivers/CMSIS/Include/core_cm7.h **** #define ITM_LSR_Access_Msk                 (1UL << ITM_LSR_Access_Pos)                    /*!< ITM 
1099:Drivers/CMSIS/Include/core_cm7.h **** 
1100:Drivers/CMSIS/Include/core_cm7.h **** #define ITM_LSR_Present_Pos                 0U                                            /*!< ITM 
1101:Drivers/CMSIS/Include/core_cm7.h **** #define ITM_LSR_Present_Msk                (1UL /*<< ITM_LSR_Present_Pos*/)               /*!< ITM 
1102:Drivers/CMSIS/Include/core_cm7.h **** 
1103:Drivers/CMSIS/Include/core_cm7.h **** /*@}*/ /* end of group CMSIS_ITM */
1104:Drivers/CMSIS/Include/core_cm7.h **** 
1105:Drivers/CMSIS/Include/core_cm7.h **** 
1106:Drivers/CMSIS/Include/core_cm7.h **** /**
1107:Drivers/CMSIS/Include/core_cm7.h ****   \ingroup  CMSIS_core_register
1108:Drivers/CMSIS/Include/core_cm7.h ****   \defgroup CMSIS_DWT     Data Watchpoint and Trace (DWT)
1109:Drivers/CMSIS/Include/core_cm7.h ****   \brief    Type definitions for the Data Watchpoint and Trace (DWT)
1110:Drivers/CMSIS/Include/core_cm7.h ****   @{
1111:Drivers/CMSIS/Include/core_cm7.h ****  */
1112:Drivers/CMSIS/Include/core_cm7.h **** 
1113:Drivers/CMSIS/Include/core_cm7.h **** /**
1114:Drivers/CMSIS/Include/core_cm7.h ****   \brief  Structure type to access the Data Watchpoint and Trace Register (DWT).
1115:Drivers/CMSIS/Include/core_cm7.h ****  */
1116:Drivers/CMSIS/Include/core_cm7.h **** typedef struct
1117:Drivers/CMSIS/Include/core_cm7.h **** {
1118:Drivers/CMSIS/Include/core_cm7.h ****   __IOM uint32_t CTRL;                   /*!< Offset: 0x000 (R/W)  Control Register */
1119:Drivers/CMSIS/Include/core_cm7.h ****   __IOM uint32_t CYCCNT;                 /*!< Offset: 0x004 (R/W)  Cycle Count Register */
1120:Drivers/CMSIS/Include/core_cm7.h ****   __IOM uint32_t CPICNT;                 /*!< Offset: 0x008 (R/W)  CPI Count Register */
1121:Drivers/CMSIS/Include/core_cm7.h ****   __IOM uint32_t EXCCNT;                 /*!< Offset: 0x00C (R/W)  Exception Overhead Count Registe
1122:Drivers/CMSIS/Include/core_cm7.h ****   __IOM uint32_t SLEEPCNT;               /*!< Offset: 0x010 (R/W)  Sleep Count Register */
1123:Drivers/CMSIS/Include/core_cm7.h ****   __IOM uint32_t LSUCNT;                 /*!< Offset: 0x014 (R/W)  LSU Count Register */
1124:Drivers/CMSIS/Include/core_cm7.h ****   __IOM uint32_t FOLDCNT;                /*!< Offset: 0x018 (R/W)  Folded-instruction Count Registe
1125:Drivers/CMSIS/Include/core_cm7.h ****   __IM  uint32_t PCSR;                   /*!< Offset: 0x01C (R/ )  Program Counter Sample Register 
1126:Drivers/CMSIS/Include/core_cm7.h ****   __IOM uint32_t COMP0;                  /*!< Offset: 0x020 (R/W)  Comparator Register 0 */
1127:Drivers/CMSIS/Include/core_cm7.h ****   __IOM uint32_t MASK0;                  /*!< Offset: 0x024 (R/W)  Mask Register 0 */
1128:Drivers/CMSIS/Include/core_cm7.h ****   __IOM uint32_t FUNCTION0;              /*!< Offset: 0x028 (R/W)  Function Register 0 */
1129:Drivers/CMSIS/Include/core_cm7.h ****         uint32_t RESERVED0[1U];
1130:Drivers/CMSIS/Include/core_cm7.h ****   __IOM uint32_t COMP1;                  /*!< Offset: 0x030 (R/W)  Comparator Register 1 */
1131:Drivers/CMSIS/Include/core_cm7.h ****   __IOM uint32_t MASK1;                  /*!< Offset: 0x034 (R/W)  Mask Register 1 */
1132:Drivers/CMSIS/Include/core_cm7.h ****   __IOM uint32_t FUNCTION1;              /*!< Offset: 0x038 (R/W)  Function Register 1 */
1133:Drivers/CMSIS/Include/core_cm7.h ****         uint32_t RESERVED1[1U];
1134:Drivers/CMSIS/Include/core_cm7.h ****   __IOM uint32_t COMP2;                  /*!< Offset: 0x040 (R/W)  Comparator Register 2 */
1135:Drivers/CMSIS/Include/core_cm7.h ****   __IOM uint32_t MASK2;                  /*!< Offset: 0x044 (R/W)  Mask Register 2 */
1136:Drivers/CMSIS/Include/core_cm7.h ****   __IOM uint32_t FUNCTION2;              /*!< Offset: 0x048 (R/W)  Function Register 2 */
1137:Drivers/CMSIS/Include/core_cm7.h ****         uint32_t RESERVED2[1U];
1138:Drivers/CMSIS/Include/core_cm7.h ****   __IOM uint32_t COMP3;                  /*!< Offset: 0x050 (R/W)  Comparator Register 3 */
1139:Drivers/CMSIS/Include/core_cm7.h ****   __IOM uint32_t MASK3;                  /*!< Offset: 0x054 (R/W)  Mask Register 3 */
ARM GAS  /tmp/ccpoO1YS.s 			page 46


1140:Drivers/CMSIS/Include/core_cm7.h ****   __IOM uint32_t FUNCTION3;              /*!< Offset: 0x058 (R/W)  Function Register 3 */
1141:Drivers/CMSIS/Include/core_cm7.h ****         uint32_t RESERVED3[981U];
1142:Drivers/CMSIS/Include/core_cm7.h ****   __OM  uint32_t LAR;                    /*!< Offset: 0xFB0 (  W)  Lock Access Register */
1143:Drivers/CMSIS/Include/core_cm7.h ****   __IM  uint32_t LSR;                    /*!< Offset: 0xFB4 (R  )  Lock Status Register */
1144:Drivers/CMSIS/Include/core_cm7.h **** } DWT_Type;
1145:Drivers/CMSIS/Include/core_cm7.h **** 
1146:Drivers/CMSIS/Include/core_cm7.h **** /* DWT Control Register Definitions */
1147:Drivers/CMSIS/Include/core_cm7.h **** #define DWT_CTRL_NUMCOMP_Pos               28U                                         /*!< DWT CTR
1148:Drivers/CMSIS/Include/core_cm7.h **** #define DWT_CTRL_NUMCOMP_Msk               (0xFUL << DWT_CTRL_NUMCOMP_Pos)             /*!< DWT CTR
1149:Drivers/CMSIS/Include/core_cm7.h **** 
1150:Drivers/CMSIS/Include/core_cm7.h **** #define DWT_CTRL_NOTRCPKT_Pos              27U                                         /*!< DWT CTR
1151:Drivers/CMSIS/Include/core_cm7.h **** #define DWT_CTRL_NOTRCPKT_Msk              (0x1UL << DWT_CTRL_NOTRCPKT_Pos)            /*!< DWT CTR
1152:Drivers/CMSIS/Include/core_cm7.h **** 
1153:Drivers/CMSIS/Include/core_cm7.h **** #define DWT_CTRL_NOEXTTRIG_Pos             26U                                         /*!< DWT CTR
1154:Drivers/CMSIS/Include/core_cm7.h **** #define DWT_CTRL_NOEXTTRIG_Msk             (0x1UL << DWT_CTRL_NOEXTTRIG_Pos)           /*!< DWT CTR
1155:Drivers/CMSIS/Include/core_cm7.h **** 
1156:Drivers/CMSIS/Include/core_cm7.h **** #define DWT_CTRL_NOCYCCNT_Pos              25U                                         /*!< DWT CTR
1157:Drivers/CMSIS/Include/core_cm7.h **** #define DWT_CTRL_NOCYCCNT_Msk              (0x1UL << DWT_CTRL_NOCYCCNT_Pos)            /*!< DWT CTR
1158:Drivers/CMSIS/Include/core_cm7.h **** 
1159:Drivers/CMSIS/Include/core_cm7.h **** #define DWT_CTRL_NOPRFCNT_Pos              24U                                         /*!< DWT CTR
1160:Drivers/CMSIS/Include/core_cm7.h **** #define DWT_CTRL_NOPRFCNT_Msk              (0x1UL << DWT_CTRL_NOPRFCNT_Pos)            /*!< DWT CTR
1161:Drivers/CMSIS/Include/core_cm7.h **** 
1162:Drivers/CMSIS/Include/core_cm7.h **** #define DWT_CTRL_CYCEVTENA_Pos             22U                                         /*!< DWT CTR
1163:Drivers/CMSIS/Include/core_cm7.h **** #define DWT_CTRL_CYCEVTENA_Msk             (0x1UL << DWT_CTRL_CYCEVTENA_Pos)           /*!< DWT CTR
1164:Drivers/CMSIS/Include/core_cm7.h **** 
1165:Drivers/CMSIS/Include/core_cm7.h **** #define DWT_CTRL_FOLDEVTENA_Pos            21U                                         /*!< DWT CTR
1166:Drivers/CMSIS/Include/core_cm7.h **** #define DWT_CTRL_FOLDEVTENA_Msk            (0x1UL << DWT_CTRL_FOLDEVTENA_Pos)          /*!< DWT CTR
1167:Drivers/CMSIS/Include/core_cm7.h **** 
1168:Drivers/CMSIS/Include/core_cm7.h **** #define DWT_CTRL_LSUEVTENA_Pos             20U                                         /*!< DWT CTR
1169:Drivers/CMSIS/Include/core_cm7.h **** #define DWT_CTRL_LSUEVTENA_Msk             (0x1UL << DWT_CTRL_LSUEVTENA_Pos)           /*!< DWT CTR
1170:Drivers/CMSIS/Include/core_cm7.h **** 
1171:Drivers/CMSIS/Include/core_cm7.h **** #define DWT_CTRL_SLEEPEVTENA_Pos           19U                                         /*!< DWT CTR
1172:Drivers/CMSIS/Include/core_cm7.h **** #define DWT_CTRL_SLEEPEVTENA_Msk           (0x1UL << DWT_CTRL_SLEEPEVTENA_Pos)         /*!< DWT CTR
1173:Drivers/CMSIS/Include/core_cm7.h **** 
1174:Drivers/CMSIS/Include/core_cm7.h **** #define DWT_CTRL_EXCEVTENA_Pos             18U                                         /*!< DWT CTR
1175:Drivers/CMSIS/Include/core_cm7.h **** #define DWT_CTRL_EXCEVTENA_Msk             (0x1UL << DWT_CTRL_EXCEVTENA_Pos)           /*!< DWT CTR
1176:Drivers/CMSIS/Include/core_cm7.h **** 
1177:Drivers/CMSIS/Include/core_cm7.h **** #define DWT_CTRL_CPIEVTENA_Pos             17U                                         /*!< DWT CTR
1178:Drivers/CMSIS/Include/core_cm7.h **** #define DWT_CTRL_CPIEVTENA_Msk             (0x1UL << DWT_CTRL_CPIEVTENA_Pos)           /*!< DWT CTR
1179:Drivers/CMSIS/Include/core_cm7.h **** 
1180:Drivers/CMSIS/Include/core_cm7.h **** #define DWT_CTRL_EXCTRCENA_Pos             16U                                         /*!< DWT CTR
1181:Drivers/CMSIS/Include/core_cm7.h **** #define DWT_CTRL_EXCTRCENA_Msk             (0x1UL << DWT_CTRL_EXCTRCENA_Pos)           /*!< DWT CTR
1182:Drivers/CMSIS/Include/core_cm7.h **** 
1183:Drivers/CMSIS/Include/core_cm7.h **** #define DWT_CTRL_PCSAMPLENA_Pos            12U                                         /*!< DWT CTR
1184:Drivers/CMSIS/Include/core_cm7.h **** #define DWT_CTRL_PCSAMPLENA_Msk            (0x1UL << DWT_CTRL_PCSAMPLENA_Pos)          /*!< DWT CTR
1185:Drivers/CMSIS/Include/core_cm7.h **** 
1186:Drivers/CMSIS/Include/core_cm7.h **** #define DWT_CTRL_SYNCTAP_Pos               10U                                         /*!< DWT CTR
1187:Drivers/CMSIS/Include/core_cm7.h **** #define DWT_CTRL_SYNCTAP_Msk               (0x3UL << DWT_CTRL_SYNCTAP_Pos)             /*!< DWT CTR
1188:Drivers/CMSIS/Include/core_cm7.h **** 
1189:Drivers/CMSIS/Include/core_cm7.h **** #define DWT_CTRL_CYCTAP_Pos                 9U                                         /*!< DWT CTR
1190:Drivers/CMSIS/Include/core_cm7.h **** #define DWT_CTRL_CYCTAP_Msk                (0x1UL << DWT_CTRL_CYCTAP_Pos)              /*!< DWT CTR
1191:Drivers/CMSIS/Include/core_cm7.h **** 
1192:Drivers/CMSIS/Include/core_cm7.h **** #define DWT_CTRL_POSTINIT_Pos               5U                                         /*!< DWT CTR
1193:Drivers/CMSIS/Include/core_cm7.h **** #define DWT_CTRL_POSTINIT_Msk              (0xFUL << DWT_CTRL_POSTINIT_Pos)            /*!< DWT CTR
1194:Drivers/CMSIS/Include/core_cm7.h **** 
1195:Drivers/CMSIS/Include/core_cm7.h **** #define DWT_CTRL_POSTPRESET_Pos             1U                                         /*!< DWT CTR
1196:Drivers/CMSIS/Include/core_cm7.h **** #define DWT_CTRL_POSTPRESET_Msk            (0xFUL << DWT_CTRL_POSTPRESET_Pos)          /*!< DWT CTR
ARM GAS  /tmp/ccpoO1YS.s 			page 47


1197:Drivers/CMSIS/Include/core_cm7.h **** 
1198:Drivers/CMSIS/Include/core_cm7.h **** #define DWT_CTRL_CYCCNTENA_Pos              0U                                         /*!< DWT CTR
1199:Drivers/CMSIS/Include/core_cm7.h **** #define DWT_CTRL_CYCCNTENA_Msk             (0x1UL /*<< DWT_CTRL_CYCCNTENA_Pos*/)       /*!< DWT CTR
1200:Drivers/CMSIS/Include/core_cm7.h **** 
1201:Drivers/CMSIS/Include/core_cm7.h **** /* DWT CPI Count Register Definitions */
1202:Drivers/CMSIS/Include/core_cm7.h **** #define DWT_CPICNT_CPICNT_Pos               0U                                         /*!< DWT CPI
1203:Drivers/CMSIS/Include/core_cm7.h **** #define DWT_CPICNT_CPICNT_Msk              (0xFFUL /*<< DWT_CPICNT_CPICNT_Pos*/)       /*!< DWT CPI
1204:Drivers/CMSIS/Include/core_cm7.h **** 
1205:Drivers/CMSIS/Include/core_cm7.h **** /* DWT Exception Overhead Count Register Definitions */
1206:Drivers/CMSIS/Include/core_cm7.h **** #define DWT_EXCCNT_EXCCNT_Pos               0U                                         /*!< DWT EXC
1207:Drivers/CMSIS/Include/core_cm7.h **** #define DWT_EXCCNT_EXCCNT_Msk              (0xFFUL /*<< DWT_EXCCNT_EXCCNT_Pos*/)       /*!< DWT EXC
1208:Drivers/CMSIS/Include/core_cm7.h **** 
1209:Drivers/CMSIS/Include/core_cm7.h **** /* DWT Sleep Count Register Definitions */
1210:Drivers/CMSIS/Include/core_cm7.h **** #define DWT_SLEEPCNT_SLEEPCNT_Pos           0U                                         /*!< DWT SLE
1211:Drivers/CMSIS/Include/core_cm7.h **** #define DWT_SLEEPCNT_SLEEPCNT_Msk          (0xFFUL /*<< DWT_SLEEPCNT_SLEEPCNT_Pos*/)   /*!< DWT SLE
1212:Drivers/CMSIS/Include/core_cm7.h **** 
1213:Drivers/CMSIS/Include/core_cm7.h **** /* DWT LSU Count Register Definitions */
1214:Drivers/CMSIS/Include/core_cm7.h **** #define DWT_LSUCNT_LSUCNT_Pos               0U                                         /*!< DWT LSU
1215:Drivers/CMSIS/Include/core_cm7.h **** #define DWT_LSUCNT_LSUCNT_Msk              (0xFFUL /*<< DWT_LSUCNT_LSUCNT_Pos*/)       /*!< DWT LSU
1216:Drivers/CMSIS/Include/core_cm7.h **** 
1217:Drivers/CMSIS/Include/core_cm7.h **** /* DWT Folded-instruction Count Register Definitions */
1218:Drivers/CMSIS/Include/core_cm7.h **** #define DWT_FOLDCNT_FOLDCNT_Pos             0U                                         /*!< DWT FOL
1219:Drivers/CMSIS/Include/core_cm7.h **** #define DWT_FOLDCNT_FOLDCNT_Msk            (0xFFUL /*<< DWT_FOLDCNT_FOLDCNT_Pos*/)     /*!< DWT FOL
1220:Drivers/CMSIS/Include/core_cm7.h **** 
1221:Drivers/CMSIS/Include/core_cm7.h **** /* DWT Comparator Mask Register Definitions */
1222:Drivers/CMSIS/Include/core_cm7.h **** #define DWT_MASK_MASK_Pos                   0U                                         /*!< DWT MAS
1223:Drivers/CMSIS/Include/core_cm7.h **** #define DWT_MASK_MASK_Msk                  (0x1FUL /*<< DWT_MASK_MASK_Pos*/)           /*!< DWT MAS
1224:Drivers/CMSIS/Include/core_cm7.h **** 
1225:Drivers/CMSIS/Include/core_cm7.h **** /* DWT Comparator Function Register Definitions */
1226:Drivers/CMSIS/Include/core_cm7.h **** #define DWT_FUNCTION_MATCHED_Pos           24U                                         /*!< DWT FUN
1227:Drivers/CMSIS/Include/core_cm7.h **** #define DWT_FUNCTION_MATCHED_Msk           (0x1UL << DWT_FUNCTION_MATCHED_Pos)         /*!< DWT FUN
1228:Drivers/CMSIS/Include/core_cm7.h **** 
1229:Drivers/CMSIS/Include/core_cm7.h **** #define DWT_FUNCTION_DATAVADDR1_Pos        16U                                         /*!< DWT FUN
1230:Drivers/CMSIS/Include/core_cm7.h **** #define DWT_FUNCTION_DATAVADDR1_Msk        (0xFUL << DWT_FUNCTION_DATAVADDR1_Pos)      /*!< DWT FUN
1231:Drivers/CMSIS/Include/core_cm7.h **** 
1232:Drivers/CMSIS/Include/core_cm7.h **** #define DWT_FUNCTION_DATAVADDR0_Pos        12U                                         /*!< DWT FUN
1233:Drivers/CMSIS/Include/core_cm7.h **** #define DWT_FUNCTION_DATAVADDR0_Msk        (0xFUL << DWT_FUNCTION_DATAVADDR0_Pos)      /*!< DWT FUN
1234:Drivers/CMSIS/Include/core_cm7.h **** 
1235:Drivers/CMSIS/Include/core_cm7.h **** #define DWT_FUNCTION_DATAVSIZE_Pos         10U                                         /*!< DWT FUN
1236:Drivers/CMSIS/Include/core_cm7.h **** #define DWT_FUNCTION_DATAVSIZE_Msk         (0x3UL << DWT_FUNCTION_DATAVSIZE_Pos)       /*!< DWT FUN
1237:Drivers/CMSIS/Include/core_cm7.h **** 
1238:Drivers/CMSIS/Include/core_cm7.h **** #define DWT_FUNCTION_LNK1ENA_Pos            9U                                         /*!< DWT FUN
1239:Drivers/CMSIS/Include/core_cm7.h **** #define DWT_FUNCTION_LNK1ENA_Msk           (0x1UL << DWT_FUNCTION_LNK1ENA_Pos)         /*!< DWT FUN
1240:Drivers/CMSIS/Include/core_cm7.h **** 
1241:Drivers/CMSIS/Include/core_cm7.h **** #define DWT_FUNCTION_DATAVMATCH_Pos         8U                                         /*!< DWT FUN
1242:Drivers/CMSIS/Include/core_cm7.h **** #define DWT_FUNCTION_DATAVMATCH_Msk        (0x1UL << DWT_FUNCTION_DATAVMATCH_Pos)      /*!< DWT FUN
1243:Drivers/CMSIS/Include/core_cm7.h **** 
1244:Drivers/CMSIS/Include/core_cm7.h **** #define DWT_FUNCTION_CYCMATCH_Pos           7U                                         /*!< DWT FUN
1245:Drivers/CMSIS/Include/core_cm7.h **** #define DWT_FUNCTION_CYCMATCH_Msk          (0x1UL << DWT_FUNCTION_CYCMATCH_Pos)        /*!< DWT FUN
1246:Drivers/CMSIS/Include/core_cm7.h **** 
1247:Drivers/CMSIS/Include/core_cm7.h **** #define DWT_FUNCTION_EMITRANGE_Pos          5U                                         /*!< DWT FUN
1248:Drivers/CMSIS/Include/core_cm7.h **** #define DWT_FUNCTION_EMITRANGE_Msk         (0x1UL << DWT_FUNCTION_EMITRANGE_Pos)       /*!< DWT FUN
1249:Drivers/CMSIS/Include/core_cm7.h **** 
1250:Drivers/CMSIS/Include/core_cm7.h **** #define DWT_FUNCTION_FUNCTION_Pos           0U                                         /*!< DWT FUN
1251:Drivers/CMSIS/Include/core_cm7.h **** #define DWT_FUNCTION_FUNCTION_Msk          (0xFUL /*<< DWT_FUNCTION_FUNCTION_Pos*/)    /*!< DWT FUN
1252:Drivers/CMSIS/Include/core_cm7.h **** 
1253:Drivers/CMSIS/Include/core_cm7.h **** /*@}*/ /* end of group CMSIS_DWT */
ARM GAS  /tmp/ccpoO1YS.s 			page 48


1254:Drivers/CMSIS/Include/core_cm7.h **** 
1255:Drivers/CMSIS/Include/core_cm7.h **** 
1256:Drivers/CMSIS/Include/core_cm7.h **** /**
1257:Drivers/CMSIS/Include/core_cm7.h ****   \ingroup  CMSIS_core_register
1258:Drivers/CMSIS/Include/core_cm7.h ****   \defgroup CMSIS_TPI     Trace Port Interface (TPI)
1259:Drivers/CMSIS/Include/core_cm7.h ****   \brief    Type definitions for the Trace Port Interface (TPI)
1260:Drivers/CMSIS/Include/core_cm7.h ****   @{
1261:Drivers/CMSIS/Include/core_cm7.h ****  */
1262:Drivers/CMSIS/Include/core_cm7.h **** 
1263:Drivers/CMSIS/Include/core_cm7.h **** /**
1264:Drivers/CMSIS/Include/core_cm7.h ****   \brief  Structure type to access the Trace Port Interface Register (TPI).
1265:Drivers/CMSIS/Include/core_cm7.h ****  */
1266:Drivers/CMSIS/Include/core_cm7.h **** typedef struct
1267:Drivers/CMSIS/Include/core_cm7.h **** {
1268:Drivers/CMSIS/Include/core_cm7.h ****   __IM  uint32_t SSPSR;                  /*!< Offset: 0x000 (R/ )  Supported Parallel Port Size Reg
1269:Drivers/CMSIS/Include/core_cm7.h ****   __IOM uint32_t CSPSR;                  /*!< Offset: 0x004 (R/W)  Current Parallel Port Size Regis
1270:Drivers/CMSIS/Include/core_cm7.h ****         uint32_t RESERVED0[2U];
1271:Drivers/CMSIS/Include/core_cm7.h ****   __IOM uint32_t ACPR;                   /*!< Offset: 0x010 (R/W)  Asynchronous Clock Prescaler Reg
1272:Drivers/CMSIS/Include/core_cm7.h ****         uint32_t RESERVED1[55U];
1273:Drivers/CMSIS/Include/core_cm7.h ****   __IOM uint32_t SPPR;                   /*!< Offset: 0x0F0 (R/W)  Selected Pin Protocol Register *
1274:Drivers/CMSIS/Include/core_cm7.h ****         uint32_t RESERVED2[131U];
1275:Drivers/CMSIS/Include/core_cm7.h ****   __IM  uint32_t FFSR;                   /*!< Offset: 0x300 (R/ )  Formatter and Flush Status Regis
1276:Drivers/CMSIS/Include/core_cm7.h ****   __IOM uint32_t FFCR;                   /*!< Offset: 0x304 (R/W)  Formatter and Flush Control Regi
1277:Drivers/CMSIS/Include/core_cm7.h ****   __IM  uint32_t FSCR;                   /*!< Offset: 0x308 (R/ )  Formatter Synchronization Counte
1278:Drivers/CMSIS/Include/core_cm7.h ****         uint32_t RESERVED3[759U];
1279:Drivers/CMSIS/Include/core_cm7.h ****   __IM  uint32_t TRIGGER;                /*!< Offset: 0xEE8 (R/ )  TRIGGER Register */
1280:Drivers/CMSIS/Include/core_cm7.h ****   __IM  uint32_t FIFO0;                  /*!< Offset: 0xEEC (R/ )  Integration ETM Data */
1281:Drivers/CMSIS/Include/core_cm7.h ****   __IM  uint32_t ITATBCTR2;              /*!< Offset: 0xEF0 (R/ )  ITATBCTR2 */
1282:Drivers/CMSIS/Include/core_cm7.h ****         uint32_t RESERVED4[1U];
1283:Drivers/CMSIS/Include/core_cm7.h ****   __IM  uint32_t ITATBCTR0;              /*!< Offset: 0xEF8 (R/ )  ITATBCTR0 */
1284:Drivers/CMSIS/Include/core_cm7.h ****   __IM  uint32_t FIFO1;                  /*!< Offset: 0xEFC (R/ )  Integration ITM Data */
1285:Drivers/CMSIS/Include/core_cm7.h ****   __IOM uint32_t ITCTRL;                 /*!< Offset: 0xF00 (R/W)  Integration Mode Control */
1286:Drivers/CMSIS/Include/core_cm7.h ****         uint32_t RESERVED5[39U];
1287:Drivers/CMSIS/Include/core_cm7.h ****   __IOM uint32_t CLAIMSET;               /*!< Offset: 0xFA0 (R/W)  Claim tag set */
1288:Drivers/CMSIS/Include/core_cm7.h ****   __IOM uint32_t CLAIMCLR;               /*!< Offset: 0xFA4 (R/W)  Claim tag clear */
1289:Drivers/CMSIS/Include/core_cm7.h ****         uint32_t RESERVED7[8U];
1290:Drivers/CMSIS/Include/core_cm7.h ****   __IM  uint32_t DEVID;                  /*!< Offset: 0xFC8 (R/ )  TPIU_DEVID */
1291:Drivers/CMSIS/Include/core_cm7.h ****   __IM  uint32_t DEVTYPE;                /*!< Offset: 0xFCC (R/ )  TPIU_DEVTYPE */
1292:Drivers/CMSIS/Include/core_cm7.h **** } TPI_Type;
1293:Drivers/CMSIS/Include/core_cm7.h **** 
1294:Drivers/CMSIS/Include/core_cm7.h **** /* TPI Asynchronous Clock Prescaler Register Definitions */
1295:Drivers/CMSIS/Include/core_cm7.h **** #define TPI_ACPR_PRESCALER_Pos              0U                                         /*!< TPI ACP
1296:Drivers/CMSIS/Include/core_cm7.h **** #define TPI_ACPR_PRESCALER_Msk             (0x1FFFUL /*<< TPI_ACPR_PRESCALER_Pos*/)    /*!< TPI ACP
1297:Drivers/CMSIS/Include/core_cm7.h **** 
1298:Drivers/CMSIS/Include/core_cm7.h **** /* TPI Selected Pin Protocol Register Definitions */
1299:Drivers/CMSIS/Include/core_cm7.h **** #define TPI_SPPR_TXMODE_Pos                 0U                                         /*!< TPI SPP
1300:Drivers/CMSIS/Include/core_cm7.h **** #define TPI_SPPR_TXMODE_Msk                (0x3UL /*<< TPI_SPPR_TXMODE_Pos*/)          /*!< TPI SPP
1301:Drivers/CMSIS/Include/core_cm7.h **** 
1302:Drivers/CMSIS/Include/core_cm7.h **** /* TPI Formatter and Flush Status Register Definitions */
1303:Drivers/CMSIS/Include/core_cm7.h **** #define TPI_FFSR_FtNonStop_Pos              3U                                         /*!< TPI FFS
1304:Drivers/CMSIS/Include/core_cm7.h **** #define TPI_FFSR_FtNonStop_Msk             (0x1UL << TPI_FFSR_FtNonStop_Pos)           /*!< TPI FFS
1305:Drivers/CMSIS/Include/core_cm7.h **** 
1306:Drivers/CMSIS/Include/core_cm7.h **** #define TPI_FFSR_TCPresent_Pos              2U                                         /*!< TPI FFS
1307:Drivers/CMSIS/Include/core_cm7.h **** #define TPI_FFSR_TCPresent_Msk             (0x1UL << TPI_FFSR_TCPresent_Pos)           /*!< TPI FFS
1308:Drivers/CMSIS/Include/core_cm7.h **** 
1309:Drivers/CMSIS/Include/core_cm7.h **** #define TPI_FFSR_FtStopped_Pos              1U                                         /*!< TPI FFS
1310:Drivers/CMSIS/Include/core_cm7.h **** #define TPI_FFSR_FtStopped_Msk             (0x1UL << TPI_FFSR_FtStopped_Pos)           /*!< TPI FFS
ARM GAS  /tmp/ccpoO1YS.s 			page 49


1311:Drivers/CMSIS/Include/core_cm7.h **** 
1312:Drivers/CMSIS/Include/core_cm7.h **** #define TPI_FFSR_FlInProg_Pos               0U                                         /*!< TPI FFS
1313:Drivers/CMSIS/Include/core_cm7.h **** #define TPI_FFSR_FlInProg_Msk              (0x1UL /*<< TPI_FFSR_FlInProg_Pos*/)        /*!< TPI FFS
1314:Drivers/CMSIS/Include/core_cm7.h **** 
1315:Drivers/CMSIS/Include/core_cm7.h **** /* TPI Formatter and Flush Control Register Definitions */
1316:Drivers/CMSIS/Include/core_cm7.h **** #define TPI_FFCR_TrigIn_Pos                 8U                                         /*!< TPI FFC
1317:Drivers/CMSIS/Include/core_cm7.h **** #define TPI_FFCR_TrigIn_Msk                (0x1UL << TPI_FFCR_TrigIn_Pos)              /*!< TPI FFC
1318:Drivers/CMSIS/Include/core_cm7.h **** 
1319:Drivers/CMSIS/Include/core_cm7.h **** #define TPI_FFCR_EnFCont_Pos                1U                                         /*!< TPI FFC
1320:Drivers/CMSIS/Include/core_cm7.h **** #define TPI_FFCR_EnFCont_Msk               (0x1UL << TPI_FFCR_EnFCont_Pos)             /*!< TPI FFC
1321:Drivers/CMSIS/Include/core_cm7.h **** 
1322:Drivers/CMSIS/Include/core_cm7.h **** /* TPI TRIGGER Register Definitions */
1323:Drivers/CMSIS/Include/core_cm7.h **** #define TPI_TRIGGER_TRIGGER_Pos             0U                                         /*!< TPI TRI
1324:Drivers/CMSIS/Include/core_cm7.h **** #define TPI_TRIGGER_TRIGGER_Msk            (0x1UL /*<< TPI_TRIGGER_TRIGGER_Pos*/)      /*!< TPI TRI
1325:Drivers/CMSIS/Include/core_cm7.h **** 
1326:Drivers/CMSIS/Include/core_cm7.h **** /* TPI Integration ETM Data Register Definitions (FIFO0) */
1327:Drivers/CMSIS/Include/core_cm7.h **** #define TPI_FIFO0_ITM_ATVALID_Pos          29U                                         /*!< TPI FIF
1328:Drivers/CMSIS/Include/core_cm7.h **** #define TPI_FIFO0_ITM_ATVALID_Msk          (0x3UL << TPI_FIFO0_ITM_ATVALID_Pos)        /*!< TPI FIF
1329:Drivers/CMSIS/Include/core_cm7.h **** 
1330:Drivers/CMSIS/Include/core_cm7.h **** #define TPI_FIFO0_ITM_bytecount_Pos        27U                                         /*!< TPI FIF
1331:Drivers/CMSIS/Include/core_cm7.h **** #define TPI_FIFO0_ITM_bytecount_Msk        (0x3UL << TPI_FIFO0_ITM_bytecount_Pos)      /*!< TPI FIF
1332:Drivers/CMSIS/Include/core_cm7.h **** 
1333:Drivers/CMSIS/Include/core_cm7.h **** #define TPI_FIFO0_ETM_ATVALID_Pos          26U                                         /*!< TPI FIF
1334:Drivers/CMSIS/Include/core_cm7.h **** #define TPI_FIFO0_ETM_ATVALID_Msk          (0x3UL << TPI_FIFO0_ETM_ATVALID_Pos)        /*!< TPI FIF
1335:Drivers/CMSIS/Include/core_cm7.h **** 
1336:Drivers/CMSIS/Include/core_cm7.h **** #define TPI_FIFO0_ETM_bytecount_Pos        24U                                         /*!< TPI FIF
1337:Drivers/CMSIS/Include/core_cm7.h **** #define TPI_FIFO0_ETM_bytecount_Msk        (0x3UL << TPI_FIFO0_ETM_bytecount_Pos)      /*!< TPI FIF
1338:Drivers/CMSIS/Include/core_cm7.h **** 
1339:Drivers/CMSIS/Include/core_cm7.h **** #define TPI_FIFO0_ETM2_Pos                 16U                                         /*!< TPI FIF
1340:Drivers/CMSIS/Include/core_cm7.h **** #define TPI_FIFO0_ETM2_Msk                 (0xFFUL << TPI_FIFO0_ETM2_Pos)              /*!< TPI FIF
1341:Drivers/CMSIS/Include/core_cm7.h **** 
1342:Drivers/CMSIS/Include/core_cm7.h **** #define TPI_FIFO0_ETM1_Pos                  8U                                         /*!< TPI FIF
1343:Drivers/CMSIS/Include/core_cm7.h **** #define TPI_FIFO0_ETM1_Msk                 (0xFFUL << TPI_FIFO0_ETM1_Pos)              /*!< TPI FIF
1344:Drivers/CMSIS/Include/core_cm7.h **** 
1345:Drivers/CMSIS/Include/core_cm7.h **** #define TPI_FIFO0_ETM0_Pos                  0U                                         /*!< TPI FIF
1346:Drivers/CMSIS/Include/core_cm7.h **** #define TPI_FIFO0_ETM0_Msk                 (0xFFUL /*<< TPI_FIFO0_ETM0_Pos*/)          /*!< TPI FIF
1347:Drivers/CMSIS/Include/core_cm7.h **** 
1348:Drivers/CMSIS/Include/core_cm7.h **** /* TPI ITATBCTR2 Register Definitions */
1349:Drivers/CMSIS/Include/core_cm7.h **** #define TPI_ITATBCTR2_ATREADY2_Pos          0U                                         /*!< TPI ITA
1350:Drivers/CMSIS/Include/core_cm7.h **** #define TPI_ITATBCTR2_ATREADY2_Msk         (0x1UL /*<< TPI_ITATBCTR2_ATREADY2_Pos*/)   /*!< TPI ITA
1351:Drivers/CMSIS/Include/core_cm7.h **** 
1352:Drivers/CMSIS/Include/core_cm7.h **** #define TPI_ITATBCTR2_ATREADY1_Pos          0U                                         /*!< TPI ITA
1353:Drivers/CMSIS/Include/core_cm7.h **** #define TPI_ITATBCTR2_ATREADY1_Msk         (0x1UL /*<< TPI_ITATBCTR2_ATREADY1_Pos*/)   /*!< TPI ITA
1354:Drivers/CMSIS/Include/core_cm7.h **** 
1355:Drivers/CMSIS/Include/core_cm7.h **** /* TPI Integration ITM Data Register Definitions (FIFO1) */
1356:Drivers/CMSIS/Include/core_cm7.h **** #define TPI_FIFO1_ITM_ATVALID_Pos          29U                                         /*!< TPI FIF
1357:Drivers/CMSIS/Include/core_cm7.h **** #define TPI_FIFO1_ITM_ATVALID_Msk          (0x3UL << TPI_FIFO1_ITM_ATVALID_Pos)        /*!< TPI FIF
1358:Drivers/CMSIS/Include/core_cm7.h **** 
1359:Drivers/CMSIS/Include/core_cm7.h **** #define TPI_FIFO1_ITM_bytecount_Pos        27U                                         /*!< TPI FIF
1360:Drivers/CMSIS/Include/core_cm7.h **** #define TPI_FIFO1_ITM_bytecount_Msk        (0x3UL << TPI_FIFO1_ITM_bytecount_Pos)      /*!< TPI FIF
1361:Drivers/CMSIS/Include/core_cm7.h **** 
1362:Drivers/CMSIS/Include/core_cm7.h **** #define TPI_FIFO1_ETM_ATVALID_Pos          26U                                         /*!< TPI FIF
1363:Drivers/CMSIS/Include/core_cm7.h **** #define TPI_FIFO1_ETM_ATVALID_Msk          (0x3UL << TPI_FIFO1_ETM_ATVALID_Pos)        /*!< TPI FIF
1364:Drivers/CMSIS/Include/core_cm7.h **** 
1365:Drivers/CMSIS/Include/core_cm7.h **** #define TPI_FIFO1_ETM_bytecount_Pos        24U                                         /*!< TPI FIF
1366:Drivers/CMSIS/Include/core_cm7.h **** #define TPI_FIFO1_ETM_bytecount_Msk        (0x3UL << TPI_FIFO1_ETM_bytecount_Pos)      /*!< TPI FIF
1367:Drivers/CMSIS/Include/core_cm7.h **** 
ARM GAS  /tmp/ccpoO1YS.s 			page 50


1368:Drivers/CMSIS/Include/core_cm7.h **** #define TPI_FIFO1_ITM2_Pos                 16U                                         /*!< TPI FIF
1369:Drivers/CMSIS/Include/core_cm7.h **** #define TPI_FIFO1_ITM2_Msk                 (0xFFUL << TPI_FIFO1_ITM2_Pos)              /*!< TPI FIF
1370:Drivers/CMSIS/Include/core_cm7.h **** 
1371:Drivers/CMSIS/Include/core_cm7.h **** #define TPI_FIFO1_ITM1_Pos                  8U                                         /*!< TPI FIF
1372:Drivers/CMSIS/Include/core_cm7.h **** #define TPI_FIFO1_ITM1_Msk                 (0xFFUL << TPI_FIFO1_ITM1_Pos)              /*!< TPI FIF
1373:Drivers/CMSIS/Include/core_cm7.h **** 
1374:Drivers/CMSIS/Include/core_cm7.h **** #define TPI_FIFO1_ITM0_Pos                  0U                                         /*!< TPI FIF
1375:Drivers/CMSIS/Include/core_cm7.h **** #define TPI_FIFO1_ITM0_Msk                 (0xFFUL /*<< TPI_FIFO1_ITM0_Pos*/)          /*!< TPI FIF
1376:Drivers/CMSIS/Include/core_cm7.h **** 
1377:Drivers/CMSIS/Include/core_cm7.h **** /* TPI ITATBCTR0 Register Definitions */
1378:Drivers/CMSIS/Include/core_cm7.h **** #define TPI_ITATBCTR0_ATREADY2_Pos          0U                                         /*!< TPI ITA
1379:Drivers/CMSIS/Include/core_cm7.h **** #define TPI_ITATBCTR0_ATREADY2_Msk         (0x1UL /*<< TPI_ITATBCTR0_ATREADY2_Pos*/)   /*!< TPI ITA
1380:Drivers/CMSIS/Include/core_cm7.h **** 
1381:Drivers/CMSIS/Include/core_cm7.h **** #define TPI_ITATBCTR0_ATREADY1_Pos          0U                                         /*!< TPI ITA
1382:Drivers/CMSIS/Include/core_cm7.h **** #define TPI_ITATBCTR0_ATREADY1_Msk         (0x1UL /*<< TPI_ITATBCTR0_ATREADY1_Pos*/)   /*!< TPI ITA
1383:Drivers/CMSIS/Include/core_cm7.h **** 
1384:Drivers/CMSIS/Include/core_cm7.h **** /* TPI Integration Mode Control Register Definitions */
1385:Drivers/CMSIS/Include/core_cm7.h **** #define TPI_ITCTRL_Mode_Pos                 0U                                         /*!< TPI ITC
1386:Drivers/CMSIS/Include/core_cm7.h **** #define TPI_ITCTRL_Mode_Msk                (0x3UL /*<< TPI_ITCTRL_Mode_Pos*/)          /*!< TPI ITC
1387:Drivers/CMSIS/Include/core_cm7.h **** 
1388:Drivers/CMSIS/Include/core_cm7.h **** /* TPI DEVID Register Definitions */
1389:Drivers/CMSIS/Include/core_cm7.h **** #define TPI_DEVID_NRZVALID_Pos             11U                                         /*!< TPI DEV
1390:Drivers/CMSIS/Include/core_cm7.h **** #define TPI_DEVID_NRZVALID_Msk             (0x1UL << TPI_DEVID_NRZVALID_Pos)           /*!< TPI DEV
1391:Drivers/CMSIS/Include/core_cm7.h **** 
1392:Drivers/CMSIS/Include/core_cm7.h **** #define TPI_DEVID_MANCVALID_Pos            10U                                         /*!< TPI DEV
1393:Drivers/CMSIS/Include/core_cm7.h **** #define TPI_DEVID_MANCVALID_Msk            (0x1UL << TPI_DEVID_MANCVALID_Pos)          /*!< TPI DEV
1394:Drivers/CMSIS/Include/core_cm7.h **** 
1395:Drivers/CMSIS/Include/core_cm7.h **** #define TPI_DEVID_PTINVALID_Pos             9U                                         /*!< TPI DEV
1396:Drivers/CMSIS/Include/core_cm7.h **** #define TPI_DEVID_PTINVALID_Msk            (0x1UL << TPI_DEVID_PTINVALID_Pos)          /*!< TPI DEV
1397:Drivers/CMSIS/Include/core_cm7.h **** 
1398:Drivers/CMSIS/Include/core_cm7.h **** #define TPI_DEVID_MinBufSz_Pos              6U                                         /*!< TPI DEV
1399:Drivers/CMSIS/Include/core_cm7.h **** #define TPI_DEVID_MinBufSz_Msk             (0x7UL << TPI_DEVID_MinBufSz_Pos)           /*!< TPI DEV
1400:Drivers/CMSIS/Include/core_cm7.h **** 
1401:Drivers/CMSIS/Include/core_cm7.h **** #define TPI_DEVID_AsynClkIn_Pos             5U                                         /*!< TPI DEV
1402:Drivers/CMSIS/Include/core_cm7.h **** #define TPI_DEVID_AsynClkIn_Msk            (0x1UL << TPI_DEVID_AsynClkIn_Pos)          /*!< TPI DEV
1403:Drivers/CMSIS/Include/core_cm7.h **** 
1404:Drivers/CMSIS/Include/core_cm7.h **** #define TPI_DEVID_NrTraceInput_Pos          0U                                         /*!< TPI DEV
1405:Drivers/CMSIS/Include/core_cm7.h **** #define TPI_DEVID_NrTraceInput_Msk         (0x1FUL /*<< TPI_DEVID_NrTraceInput_Pos*/)  /*!< TPI DEV
1406:Drivers/CMSIS/Include/core_cm7.h **** 
1407:Drivers/CMSIS/Include/core_cm7.h **** /* TPI DEVTYPE Register Definitions */
1408:Drivers/CMSIS/Include/core_cm7.h **** #define TPI_DEVTYPE_SubType_Pos             4U                                         /*!< TPI DEV
1409:Drivers/CMSIS/Include/core_cm7.h **** #define TPI_DEVTYPE_SubType_Msk            (0xFUL /*<< TPI_DEVTYPE_SubType_Pos*/)      /*!< TPI DEV
1410:Drivers/CMSIS/Include/core_cm7.h **** 
1411:Drivers/CMSIS/Include/core_cm7.h **** #define TPI_DEVTYPE_MajorType_Pos           0U                                         /*!< TPI DEV
1412:Drivers/CMSIS/Include/core_cm7.h **** #define TPI_DEVTYPE_MajorType_Msk          (0xFUL << TPI_DEVTYPE_MajorType_Pos)        /*!< TPI DEV
1413:Drivers/CMSIS/Include/core_cm7.h **** 
1414:Drivers/CMSIS/Include/core_cm7.h **** /*@}*/ /* end of group CMSIS_TPI */
1415:Drivers/CMSIS/Include/core_cm7.h **** 
1416:Drivers/CMSIS/Include/core_cm7.h **** 
1417:Drivers/CMSIS/Include/core_cm7.h **** #if defined (__MPU_PRESENT) && (__MPU_PRESENT == 1U)
1418:Drivers/CMSIS/Include/core_cm7.h **** /**
1419:Drivers/CMSIS/Include/core_cm7.h ****   \ingroup  CMSIS_core_register
1420:Drivers/CMSIS/Include/core_cm7.h ****   \defgroup CMSIS_MPU     Memory Protection Unit (MPU)
1421:Drivers/CMSIS/Include/core_cm7.h ****   \brief    Type definitions for the Memory Protection Unit (MPU)
1422:Drivers/CMSIS/Include/core_cm7.h ****   @{
1423:Drivers/CMSIS/Include/core_cm7.h ****  */
1424:Drivers/CMSIS/Include/core_cm7.h **** 
ARM GAS  /tmp/ccpoO1YS.s 			page 51


1425:Drivers/CMSIS/Include/core_cm7.h **** /**
1426:Drivers/CMSIS/Include/core_cm7.h ****   \brief  Structure type to access the Memory Protection Unit (MPU).
1427:Drivers/CMSIS/Include/core_cm7.h ****  */
1428:Drivers/CMSIS/Include/core_cm7.h **** typedef struct
1429:Drivers/CMSIS/Include/core_cm7.h **** {
1430:Drivers/CMSIS/Include/core_cm7.h ****   __IM  uint32_t TYPE;                   /*!< Offset: 0x000 (R/ )  MPU Type Register */
1431:Drivers/CMSIS/Include/core_cm7.h ****   __IOM uint32_t CTRL;                   /*!< Offset: 0x004 (R/W)  MPU Control Register */
1432:Drivers/CMSIS/Include/core_cm7.h ****   __IOM uint32_t RNR;                    /*!< Offset: 0x008 (R/W)  MPU Region RNRber Register */
1433:Drivers/CMSIS/Include/core_cm7.h ****   __IOM uint32_t RBAR;                   /*!< Offset: 0x00C (R/W)  MPU Region Base Address Register
1434:Drivers/CMSIS/Include/core_cm7.h ****   __IOM uint32_t RASR;                   /*!< Offset: 0x010 (R/W)  MPU Region Attribute and Size Re
1435:Drivers/CMSIS/Include/core_cm7.h ****   __IOM uint32_t RBAR_A1;                /*!< Offset: 0x014 (R/W)  MPU Alias 1 Region Base Address 
1436:Drivers/CMSIS/Include/core_cm7.h ****   __IOM uint32_t RASR_A1;                /*!< Offset: 0x018 (R/W)  MPU Alias 1 Region Attribute and
1437:Drivers/CMSIS/Include/core_cm7.h ****   __IOM uint32_t RBAR_A2;                /*!< Offset: 0x01C (R/W)  MPU Alias 2 Region Base Address 
1438:Drivers/CMSIS/Include/core_cm7.h ****   __IOM uint32_t RASR_A2;                /*!< Offset: 0x020 (R/W)  MPU Alias 2 Region Attribute and
1439:Drivers/CMSIS/Include/core_cm7.h ****   __IOM uint32_t RBAR_A3;                /*!< Offset: 0x024 (R/W)  MPU Alias 3 Region Base Address 
1440:Drivers/CMSIS/Include/core_cm7.h ****   __IOM uint32_t RASR_A3;                /*!< Offset: 0x028 (R/W)  MPU Alias 3 Region Attribute and
1441:Drivers/CMSIS/Include/core_cm7.h **** } MPU_Type;
1442:Drivers/CMSIS/Include/core_cm7.h **** 
1443:Drivers/CMSIS/Include/core_cm7.h **** #define MPU_TYPE_RALIASES                  4U
1444:Drivers/CMSIS/Include/core_cm7.h **** 
1445:Drivers/CMSIS/Include/core_cm7.h **** /* MPU Type Register Definitions */
1446:Drivers/CMSIS/Include/core_cm7.h **** #define MPU_TYPE_IREGION_Pos               16U                                            /*!< MPU 
1447:Drivers/CMSIS/Include/core_cm7.h **** #define MPU_TYPE_IREGION_Msk               (0xFFUL << MPU_TYPE_IREGION_Pos)               /*!< MPU 
1448:Drivers/CMSIS/Include/core_cm7.h **** 
1449:Drivers/CMSIS/Include/core_cm7.h **** #define MPU_TYPE_DREGION_Pos                8U                                            /*!< MPU 
1450:Drivers/CMSIS/Include/core_cm7.h **** #define MPU_TYPE_DREGION_Msk               (0xFFUL << MPU_TYPE_DREGION_Pos)               /*!< MPU 
1451:Drivers/CMSIS/Include/core_cm7.h **** 
1452:Drivers/CMSIS/Include/core_cm7.h **** #define MPU_TYPE_SEPARATE_Pos               0U                                            /*!< MPU 
1453:Drivers/CMSIS/Include/core_cm7.h **** #define MPU_TYPE_SEPARATE_Msk              (1UL /*<< MPU_TYPE_SEPARATE_Pos*/)             /*!< MPU 
1454:Drivers/CMSIS/Include/core_cm7.h **** 
1455:Drivers/CMSIS/Include/core_cm7.h **** /* MPU Control Register Definitions */
1456:Drivers/CMSIS/Include/core_cm7.h **** #define MPU_CTRL_PRIVDEFENA_Pos             2U                                            /*!< MPU 
1457:Drivers/CMSIS/Include/core_cm7.h **** #define MPU_CTRL_PRIVDEFENA_Msk            (1UL << MPU_CTRL_PRIVDEFENA_Pos)               /*!< MPU 
1458:Drivers/CMSIS/Include/core_cm7.h **** 
1459:Drivers/CMSIS/Include/core_cm7.h **** #define MPU_CTRL_HFNMIENA_Pos               1U                                            /*!< MPU 
1460:Drivers/CMSIS/Include/core_cm7.h **** #define MPU_CTRL_HFNMIENA_Msk              (1UL << MPU_CTRL_HFNMIENA_Pos)                 /*!< MPU 
1461:Drivers/CMSIS/Include/core_cm7.h **** 
1462:Drivers/CMSIS/Include/core_cm7.h **** #define MPU_CTRL_ENABLE_Pos                 0U                                            /*!< MPU 
1463:Drivers/CMSIS/Include/core_cm7.h **** #define MPU_CTRL_ENABLE_Msk                (1UL /*<< MPU_CTRL_ENABLE_Pos*/)               /*!< MPU 
1464:Drivers/CMSIS/Include/core_cm7.h **** 
1465:Drivers/CMSIS/Include/core_cm7.h **** /* MPU Region Number Register Definitions */
1466:Drivers/CMSIS/Include/core_cm7.h **** #define MPU_RNR_REGION_Pos                  0U                                            /*!< MPU 
1467:Drivers/CMSIS/Include/core_cm7.h **** #define MPU_RNR_REGION_Msk                 (0xFFUL /*<< MPU_RNR_REGION_Pos*/)             /*!< MPU 
1468:Drivers/CMSIS/Include/core_cm7.h **** 
1469:Drivers/CMSIS/Include/core_cm7.h **** /* MPU Region Base Address Register Definitions */
1470:Drivers/CMSIS/Include/core_cm7.h **** #define MPU_RBAR_ADDR_Pos                   5U                                            /*!< MPU 
1471:Drivers/CMSIS/Include/core_cm7.h **** #define MPU_RBAR_ADDR_Msk                  (0x7FFFFFFUL << MPU_RBAR_ADDR_Pos)             /*!< MPU 
1472:Drivers/CMSIS/Include/core_cm7.h **** 
1473:Drivers/CMSIS/Include/core_cm7.h **** #define MPU_RBAR_VALID_Pos                  4U                                            /*!< MPU 
1474:Drivers/CMSIS/Include/core_cm7.h **** #define MPU_RBAR_VALID_Msk                 (1UL << MPU_RBAR_VALID_Pos)                    /*!< MPU 
1475:Drivers/CMSIS/Include/core_cm7.h **** 
1476:Drivers/CMSIS/Include/core_cm7.h **** #define MPU_RBAR_REGION_Pos                 0U                                            /*!< MPU 
1477:Drivers/CMSIS/Include/core_cm7.h **** #define MPU_RBAR_REGION_Msk                (0xFUL /*<< MPU_RBAR_REGION_Pos*/)             /*!< MPU 
1478:Drivers/CMSIS/Include/core_cm7.h **** 
1479:Drivers/CMSIS/Include/core_cm7.h **** /* MPU Region Attribute and Size Register Definitions */
1480:Drivers/CMSIS/Include/core_cm7.h **** #define MPU_RASR_ATTRS_Pos                 16U                                            /*!< MPU 
1481:Drivers/CMSIS/Include/core_cm7.h **** #define MPU_RASR_ATTRS_Msk                 (0xFFFFUL << MPU_RASR_ATTRS_Pos)               /*!< MPU 
ARM GAS  /tmp/ccpoO1YS.s 			page 52


1482:Drivers/CMSIS/Include/core_cm7.h **** 
1483:Drivers/CMSIS/Include/core_cm7.h **** #define MPU_RASR_XN_Pos                    28U                                            /*!< MPU 
1484:Drivers/CMSIS/Include/core_cm7.h **** #define MPU_RASR_XN_Msk                    (1UL << MPU_RASR_XN_Pos)                       /*!< MPU 
1485:Drivers/CMSIS/Include/core_cm7.h **** 
1486:Drivers/CMSIS/Include/core_cm7.h **** #define MPU_RASR_AP_Pos                    24U                                            /*!< MPU 
1487:Drivers/CMSIS/Include/core_cm7.h **** #define MPU_RASR_AP_Msk                    (0x7UL << MPU_RASR_AP_Pos)                     /*!< MPU 
1488:Drivers/CMSIS/Include/core_cm7.h **** 
1489:Drivers/CMSIS/Include/core_cm7.h **** #define MPU_RASR_TEX_Pos                   19U                                            /*!< MPU 
1490:Drivers/CMSIS/Include/core_cm7.h **** #define MPU_RASR_TEX_Msk                   (0x7UL << MPU_RASR_TEX_Pos)                    /*!< MPU 
1491:Drivers/CMSIS/Include/core_cm7.h **** 
1492:Drivers/CMSIS/Include/core_cm7.h **** #define MPU_RASR_S_Pos                     18U                                            /*!< MPU 
1493:Drivers/CMSIS/Include/core_cm7.h **** #define MPU_RASR_S_Msk                     (1UL << MPU_RASR_S_Pos)                        /*!< MPU 
1494:Drivers/CMSIS/Include/core_cm7.h **** 
1495:Drivers/CMSIS/Include/core_cm7.h **** #define MPU_RASR_C_Pos                     17U                                            /*!< MPU 
1496:Drivers/CMSIS/Include/core_cm7.h **** #define MPU_RASR_C_Msk                     (1UL << MPU_RASR_C_Pos)                        /*!< MPU 
1497:Drivers/CMSIS/Include/core_cm7.h **** 
1498:Drivers/CMSIS/Include/core_cm7.h **** #define MPU_RASR_B_Pos                     16U                                            /*!< MPU 
1499:Drivers/CMSIS/Include/core_cm7.h **** #define MPU_RASR_B_Msk                     (1UL << MPU_RASR_B_Pos)                        /*!< MPU 
1500:Drivers/CMSIS/Include/core_cm7.h **** 
1501:Drivers/CMSIS/Include/core_cm7.h **** #define MPU_RASR_SRD_Pos                    8U                                            /*!< MPU 
1502:Drivers/CMSIS/Include/core_cm7.h **** #define MPU_RASR_SRD_Msk                   (0xFFUL << MPU_RASR_SRD_Pos)                   /*!< MPU 
1503:Drivers/CMSIS/Include/core_cm7.h **** 
1504:Drivers/CMSIS/Include/core_cm7.h **** #define MPU_RASR_SIZE_Pos                   1U                                            /*!< MPU 
1505:Drivers/CMSIS/Include/core_cm7.h **** #define MPU_RASR_SIZE_Msk                  (0x1FUL << MPU_RASR_SIZE_Pos)                  /*!< MPU 
1506:Drivers/CMSIS/Include/core_cm7.h **** 
1507:Drivers/CMSIS/Include/core_cm7.h **** #define MPU_RASR_ENABLE_Pos                 0U                                            /*!< MPU 
1508:Drivers/CMSIS/Include/core_cm7.h **** #define MPU_RASR_ENABLE_Msk                (1UL /*<< MPU_RASR_ENABLE_Pos*/)               /*!< MPU 
1509:Drivers/CMSIS/Include/core_cm7.h **** 
1510:Drivers/CMSIS/Include/core_cm7.h **** /*@} end of group CMSIS_MPU */
1511:Drivers/CMSIS/Include/core_cm7.h **** #endif /* defined (__MPU_PRESENT) && (__MPU_PRESENT == 1U) */
1512:Drivers/CMSIS/Include/core_cm7.h **** 
1513:Drivers/CMSIS/Include/core_cm7.h **** 
1514:Drivers/CMSIS/Include/core_cm7.h **** /**
1515:Drivers/CMSIS/Include/core_cm7.h ****   \ingroup  CMSIS_core_register
1516:Drivers/CMSIS/Include/core_cm7.h ****   \defgroup CMSIS_FPU     Floating Point Unit (FPU)
1517:Drivers/CMSIS/Include/core_cm7.h ****   \brief    Type definitions for the Floating Point Unit (FPU)
1518:Drivers/CMSIS/Include/core_cm7.h ****   @{
1519:Drivers/CMSIS/Include/core_cm7.h ****  */
1520:Drivers/CMSIS/Include/core_cm7.h **** 
1521:Drivers/CMSIS/Include/core_cm7.h **** /**
1522:Drivers/CMSIS/Include/core_cm7.h ****   \brief  Structure type to access the Floating Point Unit (FPU).
1523:Drivers/CMSIS/Include/core_cm7.h ****  */
1524:Drivers/CMSIS/Include/core_cm7.h **** typedef struct
1525:Drivers/CMSIS/Include/core_cm7.h **** {
1526:Drivers/CMSIS/Include/core_cm7.h ****         uint32_t RESERVED0[1U];
1527:Drivers/CMSIS/Include/core_cm7.h ****   __IOM uint32_t FPCCR;                  /*!< Offset: 0x004 (R/W)  Floating-Point Context Control R
1528:Drivers/CMSIS/Include/core_cm7.h ****   __IOM uint32_t FPCAR;                  /*!< Offset: 0x008 (R/W)  Floating-Point Context Address R
1529:Drivers/CMSIS/Include/core_cm7.h ****   __IOM uint32_t FPDSCR;                 /*!< Offset: 0x00C (R/W)  Floating-Point Default Status Co
1530:Drivers/CMSIS/Include/core_cm7.h ****   __IM  uint32_t MVFR0;                  /*!< Offset: 0x010 (R/ )  Media and FP Feature Register 0 
1531:Drivers/CMSIS/Include/core_cm7.h ****   __IM  uint32_t MVFR1;                  /*!< Offset: 0x014 (R/ )  Media and FP Feature Register 1 
1532:Drivers/CMSIS/Include/core_cm7.h ****   __IM  uint32_t MVFR2;                  /*!< Offset: 0x018 (R/ )  Media and FP Feature Register 2 
1533:Drivers/CMSIS/Include/core_cm7.h **** } FPU_Type;
1534:Drivers/CMSIS/Include/core_cm7.h **** 
1535:Drivers/CMSIS/Include/core_cm7.h **** /* Floating-Point Context Control Register Definitions */
1536:Drivers/CMSIS/Include/core_cm7.h **** #define FPU_FPCCR_ASPEN_Pos                31U                                            /*!< FPCC
1537:Drivers/CMSIS/Include/core_cm7.h **** #define FPU_FPCCR_ASPEN_Msk                (1UL << FPU_FPCCR_ASPEN_Pos)                   /*!< FPCC
1538:Drivers/CMSIS/Include/core_cm7.h **** 
ARM GAS  /tmp/ccpoO1YS.s 			page 53


1539:Drivers/CMSIS/Include/core_cm7.h **** #define FPU_FPCCR_LSPEN_Pos                30U                                            /*!< FPCC
1540:Drivers/CMSIS/Include/core_cm7.h **** #define FPU_FPCCR_LSPEN_Msk                (1UL << FPU_FPCCR_LSPEN_Pos)                   /*!< FPCC
1541:Drivers/CMSIS/Include/core_cm7.h **** 
1542:Drivers/CMSIS/Include/core_cm7.h **** #define FPU_FPCCR_MONRDY_Pos                8U                                            /*!< FPCC
1543:Drivers/CMSIS/Include/core_cm7.h **** #define FPU_FPCCR_MONRDY_Msk               (1UL << FPU_FPCCR_MONRDY_Pos)                  /*!< FPCC
1544:Drivers/CMSIS/Include/core_cm7.h **** 
1545:Drivers/CMSIS/Include/core_cm7.h **** #define FPU_FPCCR_BFRDY_Pos                 6U                                            /*!< FPCC
1546:Drivers/CMSIS/Include/core_cm7.h **** #define FPU_FPCCR_BFRDY_Msk                (1UL << FPU_FPCCR_BFRDY_Pos)                   /*!< FPCC
1547:Drivers/CMSIS/Include/core_cm7.h **** 
1548:Drivers/CMSIS/Include/core_cm7.h **** #define FPU_FPCCR_MMRDY_Pos                 5U                                            /*!< FPCC
1549:Drivers/CMSIS/Include/core_cm7.h **** #define FPU_FPCCR_MMRDY_Msk                (1UL << FPU_FPCCR_MMRDY_Pos)                   /*!< FPCC
1550:Drivers/CMSIS/Include/core_cm7.h **** 
1551:Drivers/CMSIS/Include/core_cm7.h **** #define FPU_FPCCR_HFRDY_Pos                 4U                                            /*!< FPCC
1552:Drivers/CMSIS/Include/core_cm7.h **** #define FPU_FPCCR_HFRDY_Msk                (1UL << FPU_FPCCR_HFRDY_Pos)                   /*!< FPCC
1553:Drivers/CMSIS/Include/core_cm7.h **** 
1554:Drivers/CMSIS/Include/core_cm7.h **** #define FPU_FPCCR_THREAD_Pos                3U                                            /*!< FPCC
1555:Drivers/CMSIS/Include/core_cm7.h **** #define FPU_FPCCR_THREAD_Msk               (1UL << FPU_FPCCR_THREAD_Pos)                  /*!< FPCC
1556:Drivers/CMSIS/Include/core_cm7.h **** 
1557:Drivers/CMSIS/Include/core_cm7.h **** #define FPU_FPCCR_USER_Pos                  1U                                            /*!< FPCC
1558:Drivers/CMSIS/Include/core_cm7.h **** #define FPU_FPCCR_USER_Msk                 (1UL << FPU_FPCCR_USER_Pos)                    /*!< FPCC
1559:Drivers/CMSIS/Include/core_cm7.h **** 
1560:Drivers/CMSIS/Include/core_cm7.h **** #define FPU_FPCCR_LSPACT_Pos                0U                                            /*!< FPCC
1561:Drivers/CMSIS/Include/core_cm7.h **** #define FPU_FPCCR_LSPACT_Msk               (1UL /*<< FPU_FPCCR_LSPACT_Pos*/)              /*!< FPCC
1562:Drivers/CMSIS/Include/core_cm7.h **** 
1563:Drivers/CMSIS/Include/core_cm7.h **** /* Floating-Point Context Address Register Definitions */
1564:Drivers/CMSIS/Include/core_cm7.h **** #define FPU_FPCAR_ADDRESS_Pos               3U                                            /*!< FPCA
1565:Drivers/CMSIS/Include/core_cm7.h **** #define FPU_FPCAR_ADDRESS_Msk              (0x1FFFFFFFUL << FPU_FPCAR_ADDRESS_Pos)        /*!< FPCA
1566:Drivers/CMSIS/Include/core_cm7.h **** 
1567:Drivers/CMSIS/Include/core_cm7.h **** /* Floating-Point Default Status Control Register Definitions */
1568:Drivers/CMSIS/Include/core_cm7.h **** #define FPU_FPDSCR_AHP_Pos                 26U                                            /*!< FPDS
1569:Drivers/CMSIS/Include/core_cm7.h **** #define FPU_FPDSCR_AHP_Msk                 (1UL << FPU_FPDSCR_AHP_Pos)                    /*!< FPDS
1570:Drivers/CMSIS/Include/core_cm7.h **** 
1571:Drivers/CMSIS/Include/core_cm7.h **** #define FPU_FPDSCR_DN_Pos                  25U                                            /*!< FPDS
1572:Drivers/CMSIS/Include/core_cm7.h **** #define FPU_FPDSCR_DN_Msk                  (1UL << FPU_FPDSCR_DN_Pos)                     /*!< FPDS
1573:Drivers/CMSIS/Include/core_cm7.h **** 
1574:Drivers/CMSIS/Include/core_cm7.h **** #define FPU_FPDSCR_FZ_Pos                  24U                                            /*!< FPDS
1575:Drivers/CMSIS/Include/core_cm7.h **** #define FPU_FPDSCR_FZ_Msk                  (1UL << FPU_FPDSCR_FZ_Pos)                     /*!< FPDS
1576:Drivers/CMSIS/Include/core_cm7.h **** 
1577:Drivers/CMSIS/Include/core_cm7.h **** #define FPU_FPDSCR_RMode_Pos               22U                                            /*!< FPDS
1578:Drivers/CMSIS/Include/core_cm7.h **** #define FPU_FPDSCR_RMode_Msk               (3UL << FPU_FPDSCR_RMode_Pos)                  /*!< FPDS
1579:Drivers/CMSIS/Include/core_cm7.h **** 
1580:Drivers/CMSIS/Include/core_cm7.h **** /* Media and FP Feature Register 0 Definitions */
1581:Drivers/CMSIS/Include/core_cm7.h **** #define FPU_MVFR0_FP_rounding_modes_Pos    28U                                            /*!< MVFR
1582:Drivers/CMSIS/Include/core_cm7.h **** #define FPU_MVFR0_FP_rounding_modes_Msk    (0xFUL << FPU_MVFR0_FP_rounding_modes_Pos)     /*!< MVFR
1583:Drivers/CMSIS/Include/core_cm7.h **** 
1584:Drivers/CMSIS/Include/core_cm7.h **** #define FPU_MVFR0_Short_vectors_Pos        24U                                            /*!< MVFR
1585:Drivers/CMSIS/Include/core_cm7.h **** #define FPU_MVFR0_Short_vectors_Msk        (0xFUL << FPU_MVFR0_Short_vectors_Pos)         /*!< MVFR
1586:Drivers/CMSIS/Include/core_cm7.h **** 
1587:Drivers/CMSIS/Include/core_cm7.h **** #define FPU_MVFR0_Square_root_Pos          20U                                            /*!< MVFR
1588:Drivers/CMSIS/Include/core_cm7.h **** #define FPU_MVFR0_Square_root_Msk          (0xFUL << FPU_MVFR0_Square_root_Pos)           /*!< MVFR
1589:Drivers/CMSIS/Include/core_cm7.h **** 
1590:Drivers/CMSIS/Include/core_cm7.h **** #define FPU_MVFR0_Divide_Pos               16U                                            /*!< MVFR
1591:Drivers/CMSIS/Include/core_cm7.h **** #define FPU_MVFR0_Divide_Msk               (0xFUL << FPU_MVFR0_Divide_Pos)                /*!< MVFR
1592:Drivers/CMSIS/Include/core_cm7.h **** 
1593:Drivers/CMSIS/Include/core_cm7.h **** #define FPU_MVFR0_FP_excep_trapping_Pos    12U                                            /*!< MVFR
1594:Drivers/CMSIS/Include/core_cm7.h **** #define FPU_MVFR0_FP_excep_trapping_Msk    (0xFUL << FPU_MVFR0_FP_excep_trapping_Pos)     /*!< MVFR
1595:Drivers/CMSIS/Include/core_cm7.h **** 
ARM GAS  /tmp/ccpoO1YS.s 			page 54


1596:Drivers/CMSIS/Include/core_cm7.h **** #define FPU_MVFR0_Double_precision_Pos      8U                                            /*!< MVFR
1597:Drivers/CMSIS/Include/core_cm7.h **** #define FPU_MVFR0_Double_precision_Msk     (0xFUL << FPU_MVFR0_Double_precision_Pos)      /*!< MVFR
1598:Drivers/CMSIS/Include/core_cm7.h **** 
1599:Drivers/CMSIS/Include/core_cm7.h **** #define FPU_MVFR0_Single_precision_Pos      4U                                            /*!< MVFR
1600:Drivers/CMSIS/Include/core_cm7.h **** #define FPU_MVFR0_Single_precision_Msk     (0xFUL << FPU_MVFR0_Single_precision_Pos)      /*!< MVFR
1601:Drivers/CMSIS/Include/core_cm7.h **** 
1602:Drivers/CMSIS/Include/core_cm7.h **** #define FPU_MVFR0_A_SIMD_registers_Pos      0U                                            /*!< MVFR
1603:Drivers/CMSIS/Include/core_cm7.h **** #define FPU_MVFR0_A_SIMD_registers_Msk     (0xFUL /*<< FPU_MVFR0_A_SIMD_registers_Pos*/)  /*!< MVFR
1604:Drivers/CMSIS/Include/core_cm7.h **** 
1605:Drivers/CMSIS/Include/core_cm7.h **** /* Media and FP Feature Register 1 Definitions */
1606:Drivers/CMSIS/Include/core_cm7.h **** #define FPU_MVFR1_FP_fused_MAC_Pos         28U                                            /*!< MVFR
1607:Drivers/CMSIS/Include/core_cm7.h **** #define FPU_MVFR1_FP_fused_MAC_Msk         (0xFUL << FPU_MVFR1_FP_fused_MAC_Pos)          /*!< MVFR
1608:Drivers/CMSIS/Include/core_cm7.h **** 
1609:Drivers/CMSIS/Include/core_cm7.h **** #define FPU_MVFR1_FP_HPFP_Pos              24U                                            /*!< MVFR
1610:Drivers/CMSIS/Include/core_cm7.h **** #define FPU_MVFR1_FP_HPFP_Msk              (0xFUL << FPU_MVFR1_FP_HPFP_Pos)               /*!< MVFR
1611:Drivers/CMSIS/Include/core_cm7.h **** 
1612:Drivers/CMSIS/Include/core_cm7.h **** #define FPU_MVFR1_D_NaN_mode_Pos            4U                                            /*!< MVFR
1613:Drivers/CMSIS/Include/core_cm7.h **** #define FPU_MVFR1_D_NaN_mode_Msk           (0xFUL << FPU_MVFR1_D_NaN_mode_Pos)            /*!< MVFR
1614:Drivers/CMSIS/Include/core_cm7.h **** 
1615:Drivers/CMSIS/Include/core_cm7.h **** #define FPU_MVFR1_FtZ_mode_Pos              0U                                            /*!< MVFR
1616:Drivers/CMSIS/Include/core_cm7.h **** #define FPU_MVFR1_FtZ_mode_Msk             (0xFUL /*<< FPU_MVFR1_FtZ_mode_Pos*/)          /*!< MVFR
1617:Drivers/CMSIS/Include/core_cm7.h **** 
1618:Drivers/CMSIS/Include/core_cm7.h **** /* Media and FP Feature Register 2 Definitions */
1619:Drivers/CMSIS/Include/core_cm7.h **** 
1620:Drivers/CMSIS/Include/core_cm7.h **** /*@} end of group CMSIS_FPU */
1621:Drivers/CMSIS/Include/core_cm7.h **** 
1622:Drivers/CMSIS/Include/core_cm7.h **** 
1623:Drivers/CMSIS/Include/core_cm7.h **** /**
1624:Drivers/CMSIS/Include/core_cm7.h ****   \ingroup  CMSIS_core_register
1625:Drivers/CMSIS/Include/core_cm7.h ****   \defgroup CMSIS_CoreDebug       Core Debug Registers (CoreDebug)
1626:Drivers/CMSIS/Include/core_cm7.h ****   \brief    Type definitions for the Core Debug Registers
1627:Drivers/CMSIS/Include/core_cm7.h ****   @{
1628:Drivers/CMSIS/Include/core_cm7.h ****  */
1629:Drivers/CMSIS/Include/core_cm7.h **** 
1630:Drivers/CMSIS/Include/core_cm7.h **** /**
1631:Drivers/CMSIS/Include/core_cm7.h ****   \brief  Structure type to access the Core Debug Register (CoreDebug).
1632:Drivers/CMSIS/Include/core_cm7.h ****  */
1633:Drivers/CMSIS/Include/core_cm7.h **** typedef struct
1634:Drivers/CMSIS/Include/core_cm7.h **** {
1635:Drivers/CMSIS/Include/core_cm7.h ****   __IOM uint32_t DHCSR;                  /*!< Offset: 0x000 (R/W)  Debug Halting Control and Status
1636:Drivers/CMSIS/Include/core_cm7.h ****   __OM  uint32_t DCRSR;                  /*!< Offset: 0x004 ( /W)  Debug Core Register Selector Reg
1637:Drivers/CMSIS/Include/core_cm7.h ****   __IOM uint32_t DCRDR;                  /*!< Offset: 0x008 (R/W)  Debug Core Register Data Registe
1638:Drivers/CMSIS/Include/core_cm7.h ****   __IOM uint32_t DEMCR;                  /*!< Offset: 0x00C (R/W)  Debug Exception and Monitor Cont
1639:Drivers/CMSIS/Include/core_cm7.h **** } CoreDebug_Type;
1640:Drivers/CMSIS/Include/core_cm7.h **** 
1641:Drivers/CMSIS/Include/core_cm7.h **** /* Debug Halting Control and Status Register Definitions */
1642:Drivers/CMSIS/Include/core_cm7.h **** #define CoreDebug_DHCSR_DBGKEY_Pos         16U                                            /*!< Core
1643:Drivers/CMSIS/Include/core_cm7.h **** #define CoreDebug_DHCSR_DBGKEY_Msk         (0xFFFFUL << CoreDebug_DHCSR_DBGKEY_Pos)       /*!< Core
1644:Drivers/CMSIS/Include/core_cm7.h **** 
1645:Drivers/CMSIS/Include/core_cm7.h **** #define CoreDebug_DHCSR_S_RESET_ST_Pos     25U                                            /*!< Core
1646:Drivers/CMSIS/Include/core_cm7.h **** #define CoreDebug_DHCSR_S_RESET_ST_Msk     (1UL << CoreDebug_DHCSR_S_RESET_ST_Pos)        /*!< Core
1647:Drivers/CMSIS/Include/core_cm7.h **** 
1648:Drivers/CMSIS/Include/core_cm7.h **** #define CoreDebug_DHCSR_S_RETIRE_ST_Pos    24U                                            /*!< Core
1649:Drivers/CMSIS/Include/core_cm7.h **** #define CoreDebug_DHCSR_S_RETIRE_ST_Msk    (1UL << CoreDebug_DHCSR_S_RETIRE_ST_Pos)       /*!< Core
1650:Drivers/CMSIS/Include/core_cm7.h **** 
1651:Drivers/CMSIS/Include/core_cm7.h **** #define CoreDebug_DHCSR_S_LOCKUP_Pos       19U                                            /*!< Core
1652:Drivers/CMSIS/Include/core_cm7.h **** #define CoreDebug_DHCSR_S_LOCKUP_Msk       (1UL << CoreDebug_DHCSR_S_LOCKUP_Pos)          /*!< Core
ARM GAS  /tmp/ccpoO1YS.s 			page 55


1653:Drivers/CMSIS/Include/core_cm7.h **** 
1654:Drivers/CMSIS/Include/core_cm7.h **** #define CoreDebug_DHCSR_S_SLEEP_Pos        18U                                            /*!< Core
1655:Drivers/CMSIS/Include/core_cm7.h **** #define CoreDebug_DHCSR_S_SLEEP_Msk        (1UL << CoreDebug_DHCSR_S_SLEEP_Pos)           /*!< Core
1656:Drivers/CMSIS/Include/core_cm7.h **** 
1657:Drivers/CMSIS/Include/core_cm7.h **** #define CoreDebug_DHCSR_S_HALT_Pos         17U                                            /*!< Core
1658:Drivers/CMSIS/Include/core_cm7.h **** #define CoreDebug_DHCSR_S_HALT_Msk         (1UL << CoreDebug_DHCSR_S_HALT_Pos)            /*!< Core
1659:Drivers/CMSIS/Include/core_cm7.h **** 
1660:Drivers/CMSIS/Include/core_cm7.h **** #define CoreDebug_DHCSR_S_REGRDY_Pos       16U                                            /*!< Core
