ARM GAS  /tmp/ccSWltYc.s 			page 1


   1              		.cpu cortex-m7
   2              		.arch armv7e-m
   3              		.fpu fpv5-d16
   4              		.eabi_attribute 28, 1
   5              		.eabi_attribute 20, 1
   6              		.eabi_attribute 21, 1
   7              		.eabi_attribute 23, 3
   8              		.eabi_attribute 24, 1
   9              		.eabi_attribute 25, 1
  10              		.eabi_attribute 26, 1
  11              		.eabi_attribute 30, 1
  12              		.eabi_attribute 34, 1
  13              		.eabi_attribute 18, 4
  14              		.file	"arm_cfft_f32.c"
  15              		.text
  16              	.Ltext0:
  17              		.cfi_sections	.debug_frame
  18              		.file 1 "Drivers/CMSIS_DSP/Source/TransformFunctions/arm_cfft_f32.c"
  19              		.section	.text.arm_cfft_radix8by2_f32,"ax",%progbits
  20              		.align	1
  21              		.syntax unified
  22              		.thumb
  23              		.thumb_func
  25              	arm_cfft_radix8by2_f32:
  26              	.LVL0:
  27              	.LFB117:
   1:Drivers/CMSIS_DSP/Source/TransformFunctions/arm_cfft_f32.c **** ﻿/* ----------------------------------------------------------------------
   2:Drivers/CMSIS_DSP/Source/TransformFunctions/arm_cfft_f32.c ****  * Project:      CMSIS DSP Library
   3:Drivers/CMSIS_DSP/Source/TransformFunctions/arm_cfft_f32.c ****  * Title:        arm_cfft_f32.c
   4:Drivers/CMSIS_DSP/Source/TransformFunctions/arm_cfft_f32.c ****  * Description:  Combined Radix Decimation in Frequency CFFT Floating point processing function
   5:Drivers/CMSIS_DSP/Source/TransformFunctions/arm_cfft_f32.c ****  *
   6:Drivers/CMSIS_DSP/Source/TransformFunctions/arm_cfft_f32.c ****  *
   7:Drivers/CMSIS_DSP/Source/TransformFunctions/arm_cfft_f32.c ****  * Target Processor: Cortex-M and Cortex-A cores
   8:Drivers/CMSIS_DSP/Source/TransformFunctions/arm_cfft_f32.c ****  * -------------------------------------------------------------------- */
   9:Drivers/CMSIS_DSP/Source/TransformFunctions/arm_cfft_f32.c **** 
  10:Drivers/CMSIS_DSP/Source/TransformFunctions/arm_cfft_f32.c **** /*
  11:Drivers/CMSIS_DSP/Source/TransformFunctions/arm_cfft_f32.c ****  * Copyright (C) 2010-2024 ARM Limited or its affiliates. All rights reserved.
  12:Drivers/CMSIS_DSP/Source/TransformFunctions/arm_cfft_f32.c ****  *
  13:Drivers/CMSIS_DSP/Source/TransformFunctions/arm_cfft_f32.c ****  * SPDX-License-Identifier: Apache-2.0
  14:Drivers/CMSIS_DSP/Source/TransformFunctions/arm_cfft_f32.c ****  *
  15:Drivers/CMSIS_DSP/Source/TransformFunctions/arm_cfft_f32.c ****  * Licensed under the Apache License, Version 2.0 (the License); you may
  16:Drivers/CMSIS_DSP/Source/TransformFunctions/arm_cfft_f32.c ****  * not use this file except in compliance with the License.
  17:Drivers/CMSIS_DSP/Source/TransformFunctions/arm_cfft_f32.c ****  * You may obtain a copy of the License at
  18:Drivers/CMSIS_DSP/Source/TransformFunctions/arm_cfft_f32.c ****  *
  19:Drivers/CMSIS_DSP/Source/TransformFunctions/arm_cfft_f32.c ****  * www.apache.org/licenses/LICENSE-2.0
  20:Drivers/CMSIS_DSP/Source/TransformFunctions/arm_cfft_f32.c ****  *
  21:Drivers/CMSIS_DSP/Source/TransformFunctions/arm_cfft_f32.c ****  * Unless required by applicable law or agreed to in writing, software
  22:Drivers/CMSIS_DSP/Source/TransformFunctions/arm_cfft_f32.c ****  * distributed under the License is distributed on an AS IS BASIS, WITHOUT
  23:Drivers/CMSIS_DSP/Source/TransformFunctions/arm_cfft_f32.c ****  * WARRANTIES OR CONDITIONS OF ANY KIND, either express or implied.
  24:Drivers/CMSIS_DSP/Source/TransformFunctions/arm_cfft_f32.c ****  * See the License for the specific language governing permissions and
  25:Drivers/CMSIS_DSP/Source/TransformFunctions/arm_cfft_f32.c ****  * limitations under the License.
  26:Drivers/CMSIS_DSP/Source/TransformFunctions/arm_cfft_f32.c ****  */
  27:Drivers/CMSIS_DSP/Source/TransformFunctions/arm_cfft_f32.c **** #include "arm_compiler_specific.h"
  28:Drivers/CMSIS_DSP/Source/TransformFunctions/arm_cfft_f32.c **** 
  29:Drivers/CMSIS_DSP/Source/TransformFunctions/arm_cfft_f32.c **** 
  30:Drivers/CMSIS_DSP/Source/TransformFunctions/arm_cfft_f32.c **** #include "dsp/transform_functions.h"
  31:Drivers/CMSIS_DSP/Source/TransformFunctions/arm_cfft_f32.c **** #include "arm_common_tables.h"
ARM GAS  /tmp/ccSWltYc.s 			page 2


  32:Drivers/CMSIS_DSP/Source/TransformFunctions/arm_cfft_f32.c **** 
  33:Drivers/CMSIS_DSP/Source/TransformFunctions/arm_cfft_f32.c **** //#include <stdio.h>
  34:Drivers/CMSIS_DSP/Source/TransformFunctions/arm_cfft_f32.c **** 
  35:Drivers/CMSIS_DSP/Source/TransformFunctions/arm_cfft_f32.c **** #if defined(ARM_MATH_MVEF) && !defined(ARM_MATH_AUTOVECTORIZE)
  36:Drivers/CMSIS_DSP/Source/TransformFunctions/arm_cfft_f32.c **** 
  37:Drivers/CMSIS_DSP/Source/TransformFunctions/arm_cfft_f32.c **** #include "arm_helium_utils.h"
  38:Drivers/CMSIS_DSP/Source/TransformFunctions/arm_cfft_f32.c **** #include "arm_vec_fft.h"
  39:Drivers/CMSIS_DSP/Source/TransformFunctions/arm_cfft_f32.c **** #include "arm_mve_tables.h"
  40:Drivers/CMSIS_DSP/Source/TransformFunctions/arm_cfft_f32.c **** 
  41:Drivers/CMSIS_DSP/Source/TransformFunctions/arm_cfft_f32.c **** 
  42:Drivers/CMSIS_DSP/Source/TransformFunctions/arm_cfft_f32.c **** static float32_t arm_inverse_fft_length_f32(uint16_t fftLen)
  43:Drivers/CMSIS_DSP/Source/TransformFunctions/arm_cfft_f32.c **** {
  44:Drivers/CMSIS_DSP/Source/TransformFunctions/arm_cfft_f32.c ****   float32_t retValue=1.0;
  45:Drivers/CMSIS_DSP/Source/TransformFunctions/arm_cfft_f32.c **** 
  46:Drivers/CMSIS_DSP/Source/TransformFunctions/arm_cfft_f32.c ****   switch (fftLen)
  47:Drivers/CMSIS_DSP/Source/TransformFunctions/arm_cfft_f32.c ****   {
  48:Drivers/CMSIS_DSP/Source/TransformFunctions/arm_cfft_f32.c **** 
  49:Drivers/CMSIS_DSP/Source/TransformFunctions/arm_cfft_f32.c ****   case 4096U:
  50:Drivers/CMSIS_DSP/Source/TransformFunctions/arm_cfft_f32.c ****     retValue = 0.000244140625;
  51:Drivers/CMSIS_DSP/Source/TransformFunctions/arm_cfft_f32.c ****     break;
  52:Drivers/CMSIS_DSP/Source/TransformFunctions/arm_cfft_f32.c **** 
  53:Drivers/CMSIS_DSP/Source/TransformFunctions/arm_cfft_f32.c ****   case 2048U:
  54:Drivers/CMSIS_DSP/Source/TransformFunctions/arm_cfft_f32.c ****     retValue = 0.00048828125;
  55:Drivers/CMSIS_DSP/Source/TransformFunctions/arm_cfft_f32.c ****     break;
  56:Drivers/CMSIS_DSP/Source/TransformFunctions/arm_cfft_f32.c **** 
  57:Drivers/CMSIS_DSP/Source/TransformFunctions/arm_cfft_f32.c ****   case 1024U:
  58:Drivers/CMSIS_DSP/Source/TransformFunctions/arm_cfft_f32.c ****     retValue = 0.0009765625f;
  59:Drivers/CMSIS_DSP/Source/TransformFunctions/arm_cfft_f32.c ****     break;
  60:Drivers/CMSIS_DSP/Source/TransformFunctions/arm_cfft_f32.c **** 
  61:Drivers/CMSIS_DSP/Source/TransformFunctions/arm_cfft_f32.c ****   case 512U:
  62:Drivers/CMSIS_DSP/Source/TransformFunctions/arm_cfft_f32.c ****     retValue = 0.001953125;
  63:Drivers/CMSIS_DSP/Source/TransformFunctions/arm_cfft_f32.c ****     break;
  64:Drivers/CMSIS_DSP/Source/TransformFunctions/arm_cfft_f32.c **** 
  65:Drivers/CMSIS_DSP/Source/TransformFunctions/arm_cfft_f32.c ****   case 256U:
  66:Drivers/CMSIS_DSP/Source/TransformFunctions/arm_cfft_f32.c ****     retValue = 0.00390625f;
  67:Drivers/CMSIS_DSP/Source/TransformFunctions/arm_cfft_f32.c ****     break;
  68:Drivers/CMSIS_DSP/Source/TransformFunctions/arm_cfft_f32.c **** 
  69:Drivers/CMSIS_DSP/Source/TransformFunctions/arm_cfft_f32.c ****   case 128U:
  70:Drivers/CMSIS_DSP/Source/TransformFunctions/arm_cfft_f32.c ****     retValue = 0.0078125;
  71:Drivers/CMSIS_DSP/Source/TransformFunctions/arm_cfft_f32.c ****     break;
  72:Drivers/CMSIS_DSP/Source/TransformFunctions/arm_cfft_f32.c **** 
  73:Drivers/CMSIS_DSP/Source/TransformFunctions/arm_cfft_f32.c ****   case 64U:
  74:Drivers/CMSIS_DSP/Source/TransformFunctions/arm_cfft_f32.c ****     retValue = 0.015625f;
  75:Drivers/CMSIS_DSP/Source/TransformFunctions/arm_cfft_f32.c ****     break;
  76:Drivers/CMSIS_DSP/Source/TransformFunctions/arm_cfft_f32.c **** 
  77:Drivers/CMSIS_DSP/Source/TransformFunctions/arm_cfft_f32.c ****   case 32U:
  78:Drivers/CMSIS_DSP/Source/TransformFunctions/arm_cfft_f32.c ****     retValue = 0.03125;
  79:Drivers/CMSIS_DSP/Source/TransformFunctions/arm_cfft_f32.c ****     break;
  80:Drivers/CMSIS_DSP/Source/TransformFunctions/arm_cfft_f32.c **** 
  81:Drivers/CMSIS_DSP/Source/TransformFunctions/arm_cfft_f32.c ****   case 16U:
  82:Drivers/CMSIS_DSP/Source/TransformFunctions/arm_cfft_f32.c ****     retValue = 0.0625f;
  83:Drivers/CMSIS_DSP/Source/TransformFunctions/arm_cfft_f32.c ****     break;
  84:Drivers/CMSIS_DSP/Source/TransformFunctions/arm_cfft_f32.c **** 
  85:Drivers/CMSIS_DSP/Source/TransformFunctions/arm_cfft_f32.c **** 
  86:Drivers/CMSIS_DSP/Source/TransformFunctions/arm_cfft_f32.c ****   default:
  87:Drivers/CMSIS_DSP/Source/TransformFunctions/arm_cfft_f32.c ****     break;
  88:Drivers/CMSIS_DSP/Source/TransformFunctions/arm_cfft_f32.c ****   }
ARM GAS  /tmp/ccSWltYc.s 			page 3


  89:Drivers/CMSIS_DSP/Source/TransformFunctions/arm_cfft_f32.c ****   return(retValue);
  90:Drivers/CMSIS_DSP/Source/TransformFunctions/arm_cfft_f32.c **** }
  91:Drivers/CMSIS_DSP/Source/TransformFunctions/arm_cfft_f32.c **** 
  92:Drivers/CMSIS_DSP/Source/TransformFunctions/arm_cfft_f32.c **** 
  93:Drivers/CMSIS_DSP/Source/TransformFunctions/arm_cfft_f32.c **** 
  94:Drivers/CMSIS_DSP/Source/TransformFunctions/arm_cfft_f32.c **** 
  95:Drivers/CMSIS_DSP/Source/TransformFunctions/arm_cfft_f32.c **** static void _arm_radix4_butterfly_f32_mve(const arm_cfft_instance_f32 * S,float32_t * pSrc, uint32_
  96:Drivers/CMSIS_DSP/Source/TransformFunctions/arm_cfft_f32.c **** {
  97:Drivers/CMSIS_DSP/Source/TransformFunctions/arm_cfft_f32.c ****     f32x4_t     vecTmp0, vecTmp1;
  98:Drivers/CMSIS_DSP/Source/TransformFunctions/arm_cfft_f32.c ****     f32x4_t     vecSum0, vecDiff0, vecSum1, vecDiff1;
  99:Drivers/CMSIS_DSP/Source/TransformFunctions/arm_cfft_f32.c ****     f32x4_t     vecA, vecB, vecC, vecD;
 100:Drivers/CMSIS_DSP/Source/TransformFunctions/arm_cfft_f32.c ****     uint32_t    blkCnt;
 101:Drivers/CMSIS_DSP/Source/TransformFunctions/arm_cfft_f32.c ****     uint32_t    n1, n2;
 102:Drivers/CMSIS_DSP/Source/TransformFunctions/arm_cfft_f32.c ****     uint32_t    stage = 0;
 103:Drivers/CMSIS_DSP/Source/TransformFunctions/arm_cfft_f32.c ****     int32_t     iter = 1;
 104:Drivers/CMSIS_DSP/Source/TransformFunctions/arm_cfft_f32.c ****     static const int32_t strides[4] = {
 105:Drivers/CMSIS_DSP/Source/TransformFunctions/arm_cfft_f32.c ****         (0 - 16) * (int32_t)sizeof(q31_t *),
 106:Drivers/CMSIS_DSP/Source/TransformFunctions/arm_cfft_f32.c ****         (1 - 16) * (int32_t)sizeof(q31_t *),
 107:Drivers/CMSIS_DSP/Source/TransformFunctions/arm_cfft_f32.c ****         (8 - 16) * (int32_t)sizeof(q31_t *),
 108:Drivers/CMSIS_DSP/Source/TransformFunctions/arm_cfft_f32.c ****         (9 - 16) * (int32_t)sizeof(q31_t *)
 109:Drivers/CMSIS_DSP/Source/TransformFunctions/arm_cfft_f32.c ****     };
 110:Drivers/CMSIS_DSP/Source/TransformFunctions/arm_cfft_f32.c **** 
 111:Drivers/CMSIS_DSP/Source/TransformFunctions/arm_cfft_f32.c ****     n2 = fftLen;
 112:Drivers/CMSIS_DSP/Source/TransformFunctions/arm_cfft_f32.c ****     n1 = n2;
 113:Drivers/CMSIS_DSP/Source/TransformFunctions/arm_cfft_f32.c ****     n2 >>= 2u;
 114:Drivers/CMSIS_DSP/Source/TransformFunctions/arm_cfft_f32.c ****     for (int k = fftLen / 4u; k > 1; k >>= 2)
 115:Drivers/CMSIS_DSP/Source/TransformFunctions/arm_cfft_f32.c ****     {
 116:Drivers/CMSIS_DSP/Source/TransformFunctions/arm_cfft_f32.c ****         float32_t const     *p_rearranged_twiddle_tab_stride1 =
 117:Drivers/CMSIS_DSP/Source/TransformFunctions/arm_cfft_f32.c ****                             &S->rearranged_twiddle_stride1[
 118:Drivers/CMSIS_DSP/Source/TransformFunctions/arm_cfft_f32.c ****                             S->rearranged_twiddle_tab_stride1_arr[stage]];
 119:Drivers/CMSIS_DSP/Source/TransformFunctions/arm_cfft_f32.c ****         float32_t const     *p_rearranged_twiddle_tab_stride2 =
 120:Drivers/CMSIS_DSP/Source/TransformFunctions/arm_cfft_f32.c ****                             &S->rearranged_twiddle_stride2[
 121:Drivers/CMSIS_DSP/Source/TransformFunctions/arm_cfft_f32.c ****                             S->rearranged_twiddle_tab_stride2_arr[stage]];
 122:Drivers/CMSIS_DSP/Source/TransformFunctions/arm_cfft_f32.c ****         float32_t const     *p_rearranged_twiddle_tab_stride3 =
 123:Drivers/CMSIS_DSP/Source/TransformFunctions/arm_cfft_f32.c ****                             &S->rearranged_twiddle_stride3[
 124:Drivers/CMSIS_DSP/Source/TransformFunctions/arm_cfft_f32.c ****                             S->rearranged_twiddle_tab_stride3_arr[stage]];
 125:Drivers/CMSIS_DSP/Source/TransformFunctions/arm_cfft_f32.c **** 
 126:Drivers/CMSIS_DSP/Source/TransformFunctions/arm_cfft_f32.c ****         float32_t * pBase = pSrc;
 127:Drivers/CMSIS_DSP/Source/TransformFunctions/arm_cfft_f32.c ****         for (int i = 0; i < iter; i++)
 128:Drivers/CMSIS_DSP/Source/TransformFunctions/arm_cfft_f32.c ****         {
 129:Drivers/CMSIS_DSP/Source/TransformFunctions/arm_cfft_f32.c ****             float32_t    *inA = pBase;
 130:Drivers/CMSIS_DSP/Source/TransformFunctions/arm_cfft_f32.c ****             float32_t    *inB = inA + n2 * CMPLX_DIM;
 131:Drivers/CMSIS_DSP/Source/TransformFunctions/arm_cfft_f32.c ****             float32_t    *inC = inB + n2 * CMPLX_DIM;
 132:Drivers/CMSIS_DSP/Source/TransformFunctions/arm_cfft_f32.c ****             float32_t    *inD = inC + n2 * CMPLX_DIM;
 133:Drivers/CMSIS_DSP/Source/TransformFunctions/arm_cfft_f32.c ****             float32_t const *pW1 = p_rearranged_twiddle_tab_stride1;
 134:Drivers/CMSIS_DSP/Source/TransformFunctions/arm_cfft_f32.c ****             float32_t const *pW2 = p_rearranged_twiddle_tab_stride2;
 135:Drivers/CMSIS_DSP/Source/TransformFunctions/arm_cfft_f32.c ****             float32_t const *pW3 = p_rearranged_twiddle_tab_stride3;
 136:Drivers/CMSIS_DSP/Source/TransformFunctions/arm_cfft_f32.c ****             f32x4_t            vecW;
 137:Drivers/CMSIS_DSP/Source/TransformFunctions/arm_cfft_f32.c **** 
 138:Drivers/CMSIS_DSP/Source/TransformFunctions/arm_cfft_f32.c ****             blkCnt = n2 / 2;
 139:Drivers/CMSIS_DSP/Source/TransformFunctions/arm_cfft_f32.c ****             /*
 140:Drivers/CMSIS_DSP/Source/TransformFunctions/arm_cfft_f32.c ****              * load 2 f32 complex pair
 141:Drivers/CMSIS_DSP/Source/TransformFunctions/arm_cfft_f32.c ****              */
 142:Drivers/CMSIS_DSP/Source/TransformFunctions/arm_cfft_f32.c ****             vecA = vldrwq_f32(inA);
 143:Drivers/CMSIS_DSP/Source/TransformFunctions/arm_cfft_f32.c ****             vecC = vldrwq_f32(inC);
 144:Drivers/CMSIS_DSP/Source/TransformFunctions/arm_cfft_f32.c ****             while (blkCnt > 0U)
 145:Drivers/CMSIS_DSP/Source/TransformFunctions/arm_cfft_f32.c ****             {
ARM GAS  /tmp/ccSWltYc.s 			page 4


 146:Drivers/CMSIS_DSP/Source/TransformFunctions/arm_cfft_f32.c ****                 vecB = vldrwq_f32(inB);
 147:Drivers/CMSIS_DSP/Source/TransformFunctions/arm_cfft_f32.c ****                 vecD = vldrwq_f32(inD);
 148:Drivers/CMSIS_DSP/Source/TransformFunctions/arm_cfft_f32.c **** 
 149:Drivers/CMSIS_DSP/Source/TransformFunctions/arm_cfft_f32.c ****                 vecSum0 = vecA + vecC;  /* vecSum0 = vaddq(vecA, vecC) */
 150:Drivers/CMSIS_DSP/Source/TransformFunctions/arm_cfft_f32.c ****                 vecDiff0 = vecA - vecC; /* vecSum0 = vsubq(vecA, vecC) */
 151:Drivers/CMSIS_DSP/Source/TransformFunctions/arm_cfft_f32.c **** 
 152:Drivers/CMSIS_DSP/Source/TransformFunctions/arm_cfft_f32.c ****                 vecSum1 = vecB + vecD;
 153:Drivers/CMSIS_DSP/Source/TransformFunctions/arm_cfft_f32.c ****                 vecDiff1 = vecB - vecD;
 154:Drivers/CMSIS_DSP/Source/TransformFunctions/arm_cfft_f32.c ****                 /*
 155:Drivers/CMSIS_DSP/Source/TransformFunctions/arm_cfft_f32.c ****                  * [ 1 1 1 1 ] * [ A B C D ]' .* 1
 156:Drivers/CMSIS_DSP/Source/TransformFunctions/arm_cfft_f32.c ****                  */
 157:Drivers/CMSIS_DSP/Source/TransformFunctions/arm_cfft_f32.c ****                 vecTmp0 = vecSum0 + vecSum1;
 158:Drivers/CMSIS_DSP/Source/TransformFunctions/arm_cfft_f32.c ****                 vst1q(inA, vecTmp0);
 159:Drivers/CMSIS_DSP/Source/TransformFunctions/arm_cfft_f32.c ****                 inA += 4;
 160:Drivers/CMSIS_DSP/Source/TransformFunctions/arm_cfft_f32.c **** 
 161:Drivers/CMSIS_DSP/Source/TransformFunctions/arm_cfft_f32.c ****                 /*
 162:Drivers/CMSIS_DSP/Source/TransformFunctions/arm_cfft_f32.c ****                  * [ 1 -1 1 -1 ] * [ A B C D ]'
 163:Drivers/CMSIS_DSP/Source/TransformFunctions/arm_cfft_f32.c ****                  */
 164:Drivers/CMSIS_DSP/Source/TransformFunctions/arm_cfft_f32.c ****                 vecTmp0 = vecSum0 - vecSum1;
 165:Drivers/CMSIS_DSP/Source/TransformFunctions/arm_cfft_f32.c ****                 /*
 166:Drivers/CMSIS_DSP/Source/TransformFunctions/arm_cfft_f32.c ****                  * [ 1 -1 1 -1 ] * [ A B C D ]'.* W2
 167:Drivers/CMSIS_DSP/Source/TransformFunctions/arm_cfft_f32.c ****                  */
 168:Drivers/CMSIS_DSP/Source/TransformFunctions/arm_cfft_f32.c ****                 vecW = vld1q(pW2);
 169:Drivers/CMSIS_DSP/Source/TransformFunctions/arm_cfft_f32.c ****                 pW2 += 4;
 170:Drivers/CMSIS_DSP/Source/TransformFunctions/arm_cfft_f32.c ****                 vecTmp1 = MVE_CMPLX_MULT_FLT_Conj_AxB(vecW, vecTmp0);
 171:Drivers/CMSIS_DSP/Source/TransformFunctions/arm_cfft_f32.c ****                 vst1q(inB, vecTmp1);
 172:Drivers/CMSIS_DSP/Source/TransformFunctions/arm_cfft_f32.c ****                 inB += 4;
 173:Drivers/CMSIS_DSP/Source/TransformFunctions/arm_cfft_f32.c **** 
 174:Drivers/CMSIS_DSP/Source/TransformFunctions/arm_cfft_f32.c ****                 /*
 175:Drivers/CMSIS_DSP/Source/TransformFunctions/arm_cfft_f32.c ****                  * [ 1 -i -1 +i ] * [ A B C D ]'
 176:Drivers/CMSIS_DSP/Source/TransformFunctions/arm_cfft_f32.c ****                  */
 177:Drivers/CMSIS_DSP/Source/TransformFunctions/arm_cfft_f32.c ****                 vecTmp0 = MVE_CMPLX_SUB_A_ixB(vecDiff0, vecDiff1);
 178:Drivers/CMSIS_DSP/Source/TransformFunctions/arm_cfft_f32.c ****                 /*
 179:Drivers/CMSIS_DSP/Source/TransformFunctions/arm_cfft_f32.c ****                  * [ 1 -i -1 +i ] * [ A B C D ]'.* W1
 180:Drivers/CMSIS_DSP/Source/TransformFunctions/arm_cfft_f32.c ****                  */
 181:Drivers/CMSIS_DSP/Source/TransformFunctions/arm_cfft_f32.c ****                 vecW = vld1q(pW1);
 182:Drivers/CMSIS_DSP/Source/TransformFunctions/arm_cfft_f32.c ****                 pW1 +=4;
 183:Drivers/CMSIS_DSP/Source/TransformFunctions/arm_cfft_f32.c ****                 vecTmp1 = MVE_CMPLX_MULT_FLT_Conj_AxB(vecW, vecTmp0);
 184:Drivers/CMSIS_DSP/Source/TransformFunctions/arm_cfft_f32.c ****                 vst1q(inC, vecTmp1);
 185:Drivers/CMSIS_DSP/Source/TransformFunctions/arm_cfft_f32.c ****                 inC += 4;
 186:Drivers/CMSIS_DSP/Source/TransformFunctions/arm_cfft_f32.c **** 
 187:Drivers/CMSIS_DSP/Source/TransformFunctions/arm_cfft_f32.c ****                 /*
 188:Drivers/CMSIS_DSP/Source/TransformFunctions/arm_cfft_f32.c ****                  * [ 1 +i -1 -i ] * [ A B C D ]'
 189:Drivers/CMSIS_DSP/Source/TransformFunctions/arm_cfft_f32.c ****                  */
 190:Drivers/CMSIS_DSP/Source/TransformFunctions/arm_cfft_f32.c ****                 vecTmp0 = MVE_CMPLX_ADD_A_ixB(vecDiff0, vecDiff1);
 191:Drivers/CMSIS_DSP/Source/TransformFunctions/arm_cfft_f32.c ****                 /*
 192:Drivers/CMSIS_DSP/Source/TransformFunctions/arm_cfft_f32.c ****                  * [ 1 +i -1 -i ] * [ A B C D ]'.* W3
 193:Drivers/CMSIS_DSP/Source/TransformFunctions/arm_cfft_f32.c ****                  */
 194:Drivers/CMSIS_DSP/Source/TransformFunctions/arm_cfft_f32.c ****                 vecW = vld1q(pW3);
 195:Drivers/CMSIS_DSP/Source/TransformFunctions/arm_cfft_f32.c ****                 pW3 += 4;
 196:Drivers/CMSIS_DSP/Source/TransformFunctions/arm_cfft_f32.c ****                 vecTmp1 = MVE_CMPLX_MULT_FLT_Conj_AxB(vecW, vecTmp0);
 197:Drivers/CMSIS_DSP/Source/TransformFunctions/arm_cfft_f32.c ****                 vst1q(inD, vecTmp1);
 198:Drivers/CMSIS_DSP/Source/TransformFunctions/arm_cfft_f32.c ****                 inD += 4;
 199:Drivers/CMSIS_DSP/Source/TransformFunctions/arm_cfft_f32.c **** 
 200:Drivers/CMSIS_DSP/Source/TransformFunctions/arm_cfft_f32.c ****                 vecA = vldrwq_f32(inA);
 201:Drivers/CMSIS_DSP/Source/TransformFunctions/arm_cfft_f32.c ****                 vecC = vldrwq_f32(inC);
 202:Drivers/CMSIS_DSP/Source/TransformFunctions/arm_cfft_f32.c **** 
ARM GAS  /tmp/ccSWltYc.s 			page 5


 203:Drivers/CMSIS_DSP/Source/TransformFunctions/arm_cfft_f32.c ****                 blkCnt--;
 204:Drivers/CMSIS_DSP/Source/TransformFunctions/arm_cfft_f32.c ****             }
 205:Drivers/CMSIS_DSP/Source/TransformFunctions/arm_cfft_f32.c ****             pBase +=  CMPLX_DIM * n1;
 206:Drivers/CMSIS_DSP/Source/TransformFunctions/arm_cfft_f32.c ****         }
 207:Drivers/CMSIS_DSP/Source/TransformFunctions/arm_cfft_f32.c ****         n1 = n2;
 208:Drivers/CMSIS_DSP/Source/TransformFunctions/arm_cfft_f32.c ****         n2 >>= 2u;
 209:Drivers/CMSIS_DSP/Source/TransformFunctions/arm_cfft_f32.c ****         iter = iter << 2;
 210:Drivers/CMSIS_DSP/Source/TransformFunctions/arm_cfft_f32.c ****         stage++;
 211:Drivers/CMSIS_DSP/Source/TransformFunctions/arm_cfft_f32.c ****     }
 212:Drivers/CMSIS_DSP/Source/TransformFunctions/arm_cfft_f32.c **** 
 213:Drivers/CMSIS_DSP/Source/TransformFunctions/arm_cfft_f32.c ****     /*
 214:Drivers/CMSIS_DSP/Source/TransformFunctions/arm_cfft_f32.c ****      * start of Last stage process
 215:Drivers/CMSIS_DSP/Source/TransformFunctions/arm_cfft_f32.c ****      */
 216:Drivers/CMSIS_DSP/Source/TransformFunctions/arm_cfft_f32.c ****     uint32x4_t vecScGathAddr = vld1q_u32((uint32_t*)strides);
 217:Drivers/CMSIS_DSP/Source/TransformFunctions/arm_cfft_f32.c ****     vecScGathAddr = vecScGathAddr + (uint32_t) pSrc;
 218:Drivers/CMSIS_DSP/Source/TransformFunctions/arm_cfft_f32.c **** 
 219:Drivers/CMSIS_DSP/Source/TransformFunctions/arm_cfft_f32.c ****     /* load scheduling */
 220:Drivers/CMSIS_DSP/Source/TransformFunctions/arm_cfft_f32.c ****     vecA = vldrwq_gather_base_wb_f32(&vecScGathAddr, 64);
 221:Drivers/CMSIS_DSP/Source/TransformFunctions/arm_cfft_f32.c ****     vecC = vldrwq_gather_base_f32(vecScGathAddr, 16);
 222:Drivers/CMSIS_DSP/Source/TransformFunctions/arm_cfft_f32.c **** 
 223:Drivers/CMSIS_DSP/Source/TransformFunctions/arm_cfft_f32.c ****     blkCnt = (fftLen >> 3);
 224:Drivers/CMSIS_DSP/Source/TransformFunctions/arm_cfft_f32.c ****     while (blkCnt > 0U)
 225:Drivers/CMSIS_DSP/Source/TransformFunctions/arm_cfft_f32.c ****     {
 226:Drivers/CMSIS_DSP/Source/TransformFunctions/arm_cfft_f32.c ****         vecSum0 = vecA + vecC;  /* vecSum0 = vaddq(vecA, vecC) */
 227:Drivers/CMSIS_DSP/Source/TransformFunctions/arm_cfft_f32.c ****         vecDiff0 = vecA - vecC; /* vecSum0 = vsubq(vecA, vecC) */
 228:Drivers/CMSIS_DSP/Source/TransformFunctions/arm_cfft_f32.c **** 
 229:Drivers/CMSIS_DSP/Source/TransformFunctions/arm_cfft_f32.c ****         vecB = vldrwq_gather_base_f32(vecScGathAddr, 8);
 230:Drivers/CMSIS_DSP/Source/TransformFunctions/arm_cfft_f32.c ****         vecD = vldrwq_gather_base_f32(vecScGathAddr, 24);
 231:Drivers/CMSIS_DSP/Source/TransformFunctions/arm_cfft_f32.c **** 
 232:Drivers/CMSIS_DSP/Source/TransformFunctions/arm_cfft_f32.c ****         vecSum1 = vecB + vecD;
 233:Drivers/CMSIS_DSP/Source/TransformFunctions/arm_cfft_f32.c ****         vecDiff1 = vecB - vecD;
 234:Drivers/CMSIS_DSP/Source/TransformFunctions/arm_cfft_f32.c **** 
 235:Drivers/CMSIS_DSP/Source/TransformFunctions/arm_cfft_f32.c ****         /* pre-load for next iteration */
 236:Drivers/CMSIS_DSP/Source/TransformFunctions/arm_cfft_f32.c ****         vecA = vldrwq_gather_base_wb_f32(&vecScGathAddr, 64);
 237:Drivers/CMSIS_DSP/Source/TransformFunctions/arm_cfft_f32.c ****         vecC = vldrwq_gather_base_f32(vecScGathAddr, 16);
 238:Drivers/CMSIS_DSP/Source/TransformFunctions/arm_cfft_f32.c **** 
 239:Drivers/CMSIS_DSP/Source/TransformFunctions/arm_cfft_f32.c ****         vecTmp0 = vecSum0 + vecSum1;
 240:Drivers/CMSIS_DSP/Source/TransformFunctions/arm_cfft_f32.c ****         vstrwq_scatter_base_f32(vecScGathAddr, -64, vecTmp0);
 241:Drivers/CMSIS_DSP/Source/TransformFunctions/arm_cfft_f32.c **** 
 242:Drivers/CMSIS_DSP/Source/TransformFunctions/arm_cfft_f32.c ****         vecTmp0 = vecSum0 - vecSum1;
 243:Drivers/CMSIS_DSP/Source/TransformFunctions/arm_cfft_f32.c ****         vstrwq_scatter_base_f32(vecScGathAddr, -64 + 8, vecTmp0);
 244:Drivers/CMSIS_DSP/Source/TransformFunctions/arm_cfft_f32.c **** 
 245:Drivers/CMSIS_DSP/Source/TransformFunctions/arm_cfft_f32.c ****         vecTmp0 = MVE_CMPLX_SUB_A_ixB(vecDiff0, vecDiff1);
 246:Drivers/CMSIS_DSP/Source/TransformFunctions/arm_cfft_f32.c ****         vstrwq_scatter_base_f32(vecScGathAddr, -64 + 16, vecTmp0);
 247:Drivers/CMSIS_DSP/Source/TransformFunctions/arm_cfft_f32.c **** 
 248:Drivers/CMSIS_DSP/Source/TransformFunctions/arm_cfft_f32.c ****         vecTmp0 = MVE_CMPLX_ADD_A_ixB(vecDiff0, vecDiff1);
 249:Drivers/CMSIS_DSP/Source/TransformFunctions/arm_cfft_f32.c ****         vstrwq_scatter_base_f32(vecScGathAddr, -64 + 24, vecTmp0);
 250:Drivers/CMSIS_DSP/Source/TransformFunctions/arm_cfft_f32.c **** 
 251:Drivers/CMSIS_DSP/Source/TransformFunctions/arm_cfft_f32.c ****         blkCnt--;
 252:Drivers/CMSIS_DSP/Source/TransformFunctions/arm_cfft_f32.c ****     }
 253:Drivers/CMSIS_DSP/Source/TransformFunctions/arm_cfft_f32.c **** 
 254:Drivers/CMSIS_DSP/Source/TransformFunctions/arm_cfft_f32.c ****     /*
 255:Drivers/CMSIS_DSP/Source/TransformFunctions/arm_cfft_f32.c ****      * End of last stage process
 256:Drivers/CMSIS_DSP/Source/TransformFunctions/arm_cfft_f32.c ****      */
 257:Drivers/CMSIS_DSP/Source/TransformFunctions/arm_cfft_f32.c **** }
 258:Drivers/CMSIS_DSP/Source/TransformFunctions/arm_cfft_f32.c **** 
 259:Drivers/CMSIS_DSP/Source/TransformFunctions/arm_cfft_f32.c **** static void arm_cfft_radix4by2_f32_mve(const arm_cfft_instance_f32 * S, float32_t *pSrc, uint32_t f
ARM GAS  /tmp/ccSWltYc.s 			page 6


 260:Drivers/CMSIS_DSP/Source/TransformFunctions/arm_cfft_f32.c **** {
 261:Drivers/CMSIS_DSP/Source/TransformFunctions/arm_cfft_f32.c ****     float32_t const *pCoefVec;
 262:Drivers/CMSIS_DSP/Source/TransformFunctions/arm_cfft_f32.c ****     float32_t const  *pCoef = S->pTwiddle;
 263:Drivers/CMSIS_DSP/Source/TransformFunctions/arm_cfft_f32.c ****     float32_t        *pIn0, *pIn1;
 264:Drivers/CMSIS_DSP/Source/TransformFunctions/arm_cfft_f32.c ****     uint32_t          n2;
 265:Drivers/CMSIS_DSP/Source/TransformFunctions/arm_cfft_f32.c ****     uint32_t          blkCnt;
 266:Drivers/CMSIS_DSP/Source/TransformFunctions/arm_cfft_f32.c ****     f32x4_t         vecIn0, vecIn1, vecSum, vecDiff;
 267:Drivers/CMSIS_DSP/Source/TransformFunctions/arm_cfft_f32.c ****     f32x4_t         vecCmplxTmp, vecTw;
 268:Drivers/CMSIS_DSP/Source/TransformFunctions/arm_cfft_f32.c **** 
 269:Drivers/CMSIS_DSP/Source/TransformFunctions/arm_cfft_f32.c **** 
 270:Drivers/CMSIS_DSP/Source/TransformFunctions/arm_cfft_f32.c ****     n2 = fftLen >> 1;
 271:Drivers/CMSIS_DSP/Source/TransformFunctions/arm_cfft_f32.c ****     pIn0 = pSrc;
 272:Drivers/CMSIS_DSP/Source/TransformFunctions/arm_cfft_f32.c ****     pIn1 = pSrc + fftLen;
 273:Drivers/CMSIS_DSP/Source/TransformFunctions/arm_cfft_f32.c ****     pCoefVec = pCoef;
 274:Drivers/CMSIS_DSP/Source/TransformFunctions/arm_cfft_f32.c **** 
 275:Drivers/CMSIS_DSP/Source/TransformFunctions/arm_cfft_f32.c ****     blkCnt = n2 / 2;
 276:Drivers/CMSIS_DSP/Source/TransformFunctions/arm_cfft_f32.c ****     while (blkCnt > 0U)
 277:Drivers/CMSIS_DSP/Source/TransformFunctions/arm_cfft_f32.c ****     {
 278:Drivers/CMSIS_DSP/Source/TransformFunctions/arm_cfft_f32.c ****         vecIn0 = *(f32x4_t *) pIn0;
 279:Drivers/CMSIS_DSP/Source/TransformFunctions/arm_cfft_f32.c ****         vecIn1 = *(f32x4_t *) pIn1;
 280:Drivers/CMSIS_DSP/Source/TransformFunctions/arm_cfft_f32.c ****         vecTw = vld1q(pCoefVec);
 281:Drivers/CMSIS_DSP/Source/TransformFunctions/arm_cfft_f32.c ****         pCoefVec += 4;
 282:Drivers/CMSIS_DSP/Source/TransformFunctions/arm_cfft_f32.c **** 
 283:Drivers/CMSIS_DSP/Source/TransformFunctions/arm_cfft_f32.c ****         vecSum = vecIn0 + vecIn1;
 284:Drivers/CMSIS_DSP/Source/TransformFunctions/arm_cfft_f32.c ****         vecDiff = vecIn0 - vecIn1;
 285:Drivers/CMSIS_DSP/Source/TransformFunctions/arm_cfft_f32.c **** 
 286:Drivers/CMSIS_DSP/Source/TransformFunctions/arm_cfft_f32.c ****         vecCmplxTmp = MVE_CMPLX_MULT_FLT_Conj_AxB(vecTw, vecDiff);
 287:Drivers/CMSIS_DSP/Source/TransformFunctions/arm_cfft_f32.c **** 
 288:Drivers/CMSIS_DSP/Source/TransformFunctions/arm_cfft_f32.c ****         vst1q(pIn0, vecSum);
 289:Drivers/CMSIS_DSP/Source/TransformFunctions/arm_cfft_f32.c ****         pIn0 += 4;
 290:Drivers/CMSIS_DSP/Source/TransformFunctions/arm_cfft_f32.c ****         vst1q(pIn1, vecCmplxTmp);
 291:Drivers/CMSIS_DSP/Source/TransformFunctions/arm_cfft_f32.c ****         pIn1 += 4;
 292:Drivers/CMSIS_DSP/Source/TransformFunctions/arm_cfft_f32.c **** 
 293:Drivers/CMSIS_DSP/Source/TransformFunctions/arm_cfft_f32.c ****         blkCnt--;
 294:Drivers/CMSIS_DSP/Source/TransformFunctions/arm_cfft_f32.c ****     }
 295:Drivers/CMSIS_DSP/Source/TransformFunctions/arm_cfft_f32.c **** 
 296:Drivers/CMSIS_DSP/Source/TransformFunctions/arm_cfft_f32.c ****     _arm_radix4_butterfly_f32_mve(S, pSrc, n2);
 297:Drivers/CMSIS_DSP/Source/TransformFunctions/arm_cfft_f32.c **** 
 298:Drivers/CMSIS_DSP/Source/TransformFunctions/arm_cfft_f32.c ****     _arm_radix4_butterfly_f32_mve(S, pSrc + fftLen, n2);
 299:Drivers/CMSIS_DSP/Source/TransformFunctions/arm_cfft_f32.c **** 
 300:Drivers/CMSIS_DSP/Source/TransformFunctions/arm_cfft_f32.c ****     pIn0 = pSrc;
 301:Drivers/CMSIS_DSP/Source/TransformFunctions/arm_cfft_f32.c **** }
 302:Drivers/CMSIS_DSP/Source/TransformFunctions/arm_cfft_f32.c **** 
 303:Drivers/CMSIS_DSP/Source/TransformFunctions/arm_cfft_f32.c **** static void _arm_radix4_butterfly_inverse_f32_mve(const arm_cfft_instance_f32 * S,float32_t * pSrc,
 304:Drivers/CMSIS_DSP/Source/TransformFunctions/arm_cfft_f32.c **** {
 305:Drivers/CMSIS_DSP/Source/TransformFunctions/arm_cfft_f32.c ****     f32x4_t vecTmp0, vecTmp1;
 306:Drivers/CMSIS_DSP/Source/TransformFunctions/arm_cfft_f32.c ****     f32x4_t vecSum0, vecDiff0, vecSum1, vecDiff1;
 307:Drivers/CMSIS_DSP/Source/TransformFunctions/arm_cfft_f32.c ****     f32x4_t vecA, vecB, vecC, vecD;
 308:Drivers/CMSIS_DSP/Source/TransformFunctions/arm_cfft_f32.c ****     uint32_t  blkCnt;
 309:Drivers/CMSIS_DSP/Source/TransformFunctions/arm_cfft_f32.c ****     uint32_t  n1, n2;
 310:Drivers/CMSIS_DSP/Source/TransformFunctions/arm_cfft_f32.c ****     uint32_t  stage = 0;
 311:Drivers/CMSIS_DSP/Source/TransformFunctions/arm_cfft_f32.c ****     int32_t  iter = 1;
 312:Drivers/CMSIS_DSP/Source/TransformFunctions/arm_cfft_f32.c ****     static const int32_t strides[4] = {
 313:Drivers/CMSIS_DSP/Source/TransformFunctions/arm_cfft_f32.c ****         (0 - 16) * (int32_t)sizeof(q31_t *),
 314:Drivers/CMSIS_DSP/Source/TransformFunctions/arm_cfft_f32.c ****         (1 - 16) * (int32_t)sizeof(q31_t *),
 315:Drivers/CMSIS_DSP/Source/TransformFunctions/arm_cfft_f32.c ****         (8 - 16) * (int32_t)sizeof(q31_t *),
 316:Drivers/CMSIS_DSP/Source/TransformFunctions/arm_cfft_f32.c ****         (9 - 16) * (int32_t)sizeof(q31_t *)
ARM GAS  /tmp/ccSWltYc.s 			page 7


 317:Drivers/CMSIS_DSP/Source/TransformFunctions/arm_cfft_f32.c ****     };
 318:Drivers/CMSIS_DSP/Source/TransformFunctions/arm_cfft_f32.c **** 
 319:Drivers/CMSIS_DSP/Source/TransformFunctions/arm_cfft_f32.c ****     n2 = fftLen;
 320:Drivers/CMSIS_DSP/Source/TransformFunctions/arm_cfft_f32.c ****     n1 = n2;
 321:Drivers/CMSIS_DSP/Source/TransformFunctions/arm_cfft_f32.c ****     n2 >>= 2u;
 322:Drivers/CMSIS_DSP/Source/TransformFunctions/arm_cfft_f32.c ****     for (int k = fftLen / 4; k > 1; k >>= 2)
 323:Drivers/CMSIS_DSP/Source/TransformFunctions/arm_cfft_f32.c ****     {
 324:Drivers/CMSIS_DSP/Source/TransformFunctions/arm_cfft_f32.c ****         float32_t const *p_rearranged_twiddle_tab_stride1 =
 325:Drivers/CMSIS_DSP/Source/TransformFunctions/arm_cfft_f32.c ****                 &S->rearranged_twiddle_stride1[
 326:Drivers/CMSIS_DSP/Source/TransformFunctions/arm_cfft_f32.c ****                 S->rearranged_twiddle_tab_stride1_arr[stage]];
 327:Drivers/CMSIS_DSP/Source/TransformFunctions/arm_cfft_f32.c ****         float32_t const *p_rearranged_twiddle_tab_stride2 =
 328:Drivers/CMSIS_DSP/Source/TransformFunctions/arm_cfft_f32.c ****                 &S->rearranged_twiddle_stride2[
 329:Drivers/CMSIS_DSP/Source/TransformFunctions/arm_cfft_f32.c ****                 S->rearranged_twiddle_tab_stride2_arr[stage]];
 330:Drivers/CMSIS_DSP/Source/TransformFunctions/arm_cfft_f32.c ****         float32_t const *p_rearranged_twiddle_tab_stride3 =
 331:Drivers/CMSIS_DSP/Source/TransformFunctions/arm_cfft_f32.c ****                 &S->rearranged_twiddle_stride3[
 332:Drivers/CMSIS_DSP/Source/TransformFunctions/arm_cfft_f32.c ****                 S->rearranged_twiddle_tab_stride3_arr[stage]];
 333:Drivers/CMSIS_DSP/Source/TransformFunctions/arm_cfft_f32.c **** 
 334:Drivers/CMSIS_DSP/Source/TransformFunctions/arm_cfft_f32.c ****         float32_t * pBase = pSrc;
 335:Drivers/CMSIS_DSP/Source/TransformFunctions/arm_cfft_f32.c ****         for (int i = 0; i < iter; i++)
 336:Drivers/CMSIS_DSP/Source/TransformFunctions/arm_cfft_f32.c ****         {
 337:Drivers/CMSIS_DSP/Source/TransformFunctions/arm_cfft_f32.c ****             float32_t    *inA = pBase;
 338:Drivers/CMSIS_DSP/Source/TransformFunctions/arm_cfft_f32.c ****             float32_t    *inB = inA + n2 * CMPLX_DIM;
 339:Drivers/CMSIS_DSP/Source/TransformFunctions/arm_cfft_f32.c ****             float32_t    *inC = inB + n2 * CMPLX_DIM;
 340:Drivers/CMSIS_DSP/Source/TransformFunctions/arm_cfft_f32.c ****             float32_t    *inD = inC + n2 * CMPLX_DIM;
 341:Drivers/CMSIS_DSP/Source/TransformFunctions/arm_cfft_f32.c ****             float32_t const *pW1 = p_rearranged_twiddle_tab_stride1;
 342:Drivers/CMSIS_DSP/Source/TransformFunctions/arm_cfft_f32.c ****             float32_t const *pW2 = p_rearranged_twiddle_tab_stride2;
 343:Drivers/CMSIS_DSP/Source/TransformFunctions/arm_cfft_f32.c ****             float32_t const *pW3 = p_rearranged_twiddle_tab_stride3;
 344:Drivers/CMSIS_DSP/Source/TransformFunctions/arm_cfft_f32.c ****             f32x4_t       vecW;
 345:Drivers/CMSIS_DSP/Source/TransformFunctions/arm_cfft_f32.c **** 
 346:Drivers/CMSIS_DSP/Source/TransformFunctions/arm_cfft_f32.c ****             blkCnt = n2 / 2;
 347:Drivers/CMSIS_DSP/Source/TransformFunctions/arm_cfft_f32.c ****             /*
 348:Drivers/CMSIS_DSP/Source/TransformFunctions/arm_cfft_f32.c ****              * load 2 f32 complex pair
 349:Drivers/CMSIS_DSP/Source/TransformFunctions/arm_cfft_f32.c ****              */
 350:Drivers/CMSIS_DSP/Source/TransformFunctions/arm_cfft_f32.c ****             vecA = vldrwq_f32(inA);
 351:Drivers/CMSIS_DSP/Source/TransformFunctions/arm_cfft_f32.c ****             vecC = vldrwq_f32(inC);
 352:Drivers/CMSIS_DSP/Source/TransformFunctions/arm_cfft_f32.c ****             while (blkCnt > 0U)
 353:Drivers/CMSIS_DSP/Source/TransformFunctions/arm_cfft_f32.c ****             {
 354:Drivers/CMSIS_DSP/Source/TransformFunctions/arm_cfft_f32.c ****                 vecB = vldrwq_f32(inB);
 355:Drivers/CMSIS_DSP/Source/TransformFunctions/arm_cfft_f32.c ****                 vecD = vldrwq_f32(inD);
 356:Drivers/CMSIS_DSP/Source/TransformFunctions/arm_cfft_f32.c **** 
 357:Drivers/CMSIS_DSP/Source/TransformFunctions/arm_cfft_f32.c ****                 vecSum0 = vecA + vecC;  /* vecSum0 = vaddq(vecA, vecC) */
 358:Drivers/CMSIS_DSP/Source/TransformFunctions/arm_cfft_f32.c ****                 vecDiff0 = vecA - vecC; /* vecSum0 = vsubq(vecA, vecC) */
 359:Drivers/CMSIS_DSP/Source/TransformFunctions/arm_cfft_f32.c **** 
 360:Drivers/CMSIS_DSP/Source/TransformFunctions/arm_cfft_f32.c ****                 vecSum1 = vecB + vecD;
 361:Drivers/CMSIS_DSP/Source/TransformFunctions/arm_cfft_f32.c ****                 vecDiff1 = vecB - vecD;
 362:Drivers/CMSIS_DSP/Source/TransformFunctions/arm_cfft_f32.c ****                 /*
 363:Drivers/CMSIS_DSP/Source/TransformFunctions/arm_cfft_f32.c ****                  * [ 1 1 1 1 ] * [ A B C D ]' .* 1
 364:Drivers/CMSIS_DSP/Source/TransformFunctions/arm_cfft_f32.c ****                  */
 365:Drivers/CMSIS_DSP/Source/TransformFunctions/arm_cfft_f32.c ****                 vecTmp0 = vecSum0 + vecSum1;
 366:Drivers/CMSIS_DSP/Source/TransformFunctions/arm_cfft_f32.c ****                 vst1q(inA, vecTmp0);
 367:Drivers/CMSIS_DSP/Source/TransformFunctions/arm_cfft_f32.c ****                 inA += 4;
 368:Drivers/CMSIS_DSP/Source/TransformFunctions/arm_cfft_f32.c ****                 /*
 369:Drivers/CMSIS_DSP/Source/TransformFunctions/arm_cfft_f32.c ****                  * [ 1 -1 1 -1 ] * [ A B C D ]'
 370:Drivers/CMSIS_DSP/Source/TransformFunctions/arm_cfft_f32.c ****                  */
 371:Drivers/CMSIS_DSP/Source/TransformFunctions/arm_cfft_f32.c ****                 vecTmp0 = vecSum0 - vecSum1;
 372:Drivers/CMSIS_DSP/Source/TransformFunctions/arm_cfft_f32.c ****                 /*
 373:Drivers/CMSIS_DSP/Source/TransformFunctions/arm_cfft_f32.c ****                  * [ 1 -1 1 -1 ] * [ A B C D ]'.* W1
ARM GAS  /tmp/ccSWltYc.s 			page 8


 374:Drivers/CMSIS_DSP/Source/TransformFunctions/arm_cfft_f32.c ****                  */
 375:Drivers/CMSIS_DSP/Source/TransformFunctions/arm_cfft_f32.c ****                 vecW = vld1q(pW2);
 376:Drivers/CMSIS_DSP/Source/TransformFunctions/arm_cfft_f32.c ****                 pW2 += 4;
 377:Drivers/CMSIS_DSP/Source/TransformFunctions/arm_cfft_f32.c ****                 vecTmp1 = MVE_CMPLX_MULT_FLT_AxB(vecW, vecTmp0);
 378:Drivers/CMSIS_DSP/Source/TransformFunctions/arm_cfft_f32.c ****                 vst1q(inB, vecTmp1);
 379:Drivers/CMSIS_DSP/Source/TransformFunctions/arm_cfft_f32.c ****                 inB += 4;
 380:Drivers/CMSIS_DSP/Source/TransformFunctions/arm_cfft_f32.c **** 
 381:Drivers/CMSIS_DSP/Source/TransformFunctions/arm_cfft_f32.c ****                 /*
 382:Drivers/CMSIS_DSP/Source/TransformFunctions/arm_cfft_f32.c ****                  * [ 1 -i -1 +i ] * [ A B C D ]'
 383:Drivers/CMSIS_DSP/Source/TransformFunctions/arm_cfft_f32.c ****                  */
 384:Drivers/CMSIS_DSP/Source/TransformFunctions/arm_cfft_f32.c ****                 vecTmp0 = MVE_CMPLX_ADD_A_ixB(vecDiff0, vecDiff1);
 385:Drivers/CMSIS_DSP/Source/TransformFunctions/arm_cfft_f32.c ****                 /*
 386:Drivers/CMSIS_DSP/Source/TransformFunctions/arm_cfft_f32.c ****                  * [ 1 -i -1 +i ] * [ A B C D ]'.* W2
 387:Drivers/CMSIS_DSP/Source/TransformFunctions/arm_cfft_f32.c ****                  */
 388:Drivers/CMSIS_DSP/Source/TransformFunctions/arm_cfft_f32.c ****                 vecW = vld1q(pW1);
 389:Drivers/CMSIS_DSP/Source/TransformFunctions/arm_cfft_f32.c ****                 pW1 += 4;
 390:Drivers/CMSIS_DSP/Source/TransformFunctions/arm_cfft_f32.c ****                 vecTmp1 = MVE_CMPLX_MULT_FLT_AxB(vecW, vecTmp0);
 391:Drivers/CMSIS_DSP/Source/TransformFunctions/arm_cfft_f32.c ****                 vst1q(inC, vecTmp1);
 392:Drivers/CMSIS_DSP/Source/TransformFunctions/arm_cfft_f32.c ****                 inC += 4;
 393:Drivers/CMSIS_DSP/Source/TransformFunctions/arm_cfft_f32.c **** 
 394:Drivers/CMSIS_DSP/Source/TransformFunctions/arm_cfft_f32.c ****                 /*
 395:Drivers/CMSIS_DSP/Source/TransformFunctions/arm_cfft_f32.c ****                  * [ 1 +i -1 -i ] * [ A B C D ]'
 396:Drivers/CMSIS_DSP/Source/TransformFunctions/arm_cfft_f32.c ****                  */
 397:Drivers/CMSIS_DSP/Source/TransformFunctions/arm_cfft_f32.c ****                 vecTmp0 = MVE_CMPLX_SUB_A_ixB(vecDiff0, vecDiff1);
 398:Drivers/CMSIS_DSP/Source/TransformFunctions/arm_cfft_f32.c ****                 /*
 399:Drivers/CMSIS_DSP/Source/TransformFunctions/arm_cfft_f32.c ****                  * [ 1 +i -1 -i ] * [ A B C D ]'.* W3
 400:Drivers/CMSIS_DSP/Source/TransformFunctions/arm_cfft_f32.c ****                  */
 401:Drivers/CMSIS_DSP/Source/TransformFunctions/arm_cfft_f32.c ****                 vecW = vld1q(pW3);
 402:Drivers/CMSIS_DSP/Source/TransformFunctions/arm_cfft_f32.c ****                 pW3 += 4;
 403:Drivers/CMSIS_DSP/Source/TransformFunctions/arm_cfft_f32.c ****                 vecTmp1 = MVE_CMPLX_MULT_FLT_AxB(vecW, vecTmp0);
 404:Drivers/CMSIS_DSP/Source/TransformFunctions/arm_cfft_f32.c ****                 vst1q(inD, vecTmp1);
 405:Drivers/CMSIS_DSP/Source/TransformFunctions/arm_cfft_f32.c ****                 inD += 4;
 406:Drivers/CMSIS_DSP/Source/TransformFunctions/arm_cfft_f32.c **** 
 407:Drivers/CMSIS_DSP/Source/TransformFunctions/arm_cfft_f32.c ****                 vecA = vldrwq_f32(inA);
 408:Drivers/CMSIS_DSP/Source/TransformFunctions/arm_cfft_f32.c ****                 vecC = vldrwq_f32(inC);
 409:Drivers/CMSIS_DSP/Source/TransformFunctions/arm_cfft_f32.c **** 
 410:Drivers/CMSIS_DSP/Source/TransformFunctions/arm_cfft_f32.c ****                 blkCnt--;
 411:Drivers/CMSIS_DSP/Source/TransformFunctions/arm_cfft_f32.c ****             }
 412:Drivers/CMSIS_DSP/Source/TransformFunctions/arm_cfft_f32.c ****             pBase +=  CMPLX_DIM * n1;
 413:Drivers/CMSIS_DSP/Source/TransformFunctions/arm_cfft_f32.c ****         }
 414:Drivers/CMSIS_DSP/Source/TransformFunctions/arm_cfft_f32.c ****         n1 = n2;
 415:Drivers/CMSIS_DSP/Source/TransformFunctions/arm_cfft_f32.c ****         n2 >>= 2u;
 416:Drivers/CMSIS_DSP/Source/TransformFunctions/arm_cfft_f32.c ****         iter = iter << 2;
 417:Drivers/CMSIS_DSP/Source/TransformFunctions/arm_cfft_f32.c ****         stage++;
 418:Drivers/CMSIS_DSP/Source/TransformFunctions/arm_cfft_f32.c ****     }
 419:Drivers/CMSIS_DSP/Source/TransformFunctions/arm_cfft_f32.c **** 
 420:Drivers/CMSIS_DSP/Source/TransformFunctions/arm_cfft_f32.c ****     /*
 421:Drivers/CMSIS_DSP/Source/TransformFunctions/arm_cfft_f32.c ****      * start of Last stage process
 422:Drivers/CMSIS_DSP/Source/TransformFunctions/arm_cfft_f32.c ****      */
 423:Drivers/CMSIS_DSP/Source/TransformFunctions/arm_cfft_f32.c ****     uint32x4_t vecScGathAddr = vld1q_u32 ((uint32_t*)strides);
 424:Drivers/CMSIS_DSP/Source/TransformFunctions/arm_cfft_f32.c ****     vecScGathAddr = vecScGathAddr + (uint32_t) pSrc;
 425:Drivers/CMSIS_DSP/Source/TransformFunctions/arm_cfft_f32.c **** 
 426:Drivers/CMSIS_DSP/Source/TransformFunctions/arm_cfft_f32.c ****     /*
 427:Drivers/CMSIS_DSP/Source/TransformFunctions/arm_cfft_f32.c ****      * load scheduling
 428:Drivers/CMSIS_DSP/Source/TransformFunctions/arm_cfft_f32.c ****      */
 429:Drivers/CMSIS_DSP/Source/TransformFunctions/arm_cfft_f32.c ****     vecA = vldrwq_gather_base_wb_f32(&vecScGathAddr, 64);
 430:Drivers/CMSIS_DSP/Source/TransformFunctions/arm_cfft_f32.c ****     vecC = vldrwq_gather_base_f32(vecScGathAddr, 16);
ARM GAS  /tmp/ccSWltYc.s 			page 9


 431:Drivers/CMSIS_DSP/Source/TransformFunctions/arm_cfft_f32.c **** 
 432:Drivers/CMSIS_DSP/Source/TransformFunctions/arm_cfft_f32.c ****     blkCnt = (fftLen >> 3);
 433:Drivers/CMSIS_DSP/Source/TransformFunctions/arm_cfft_f32.c ****     while (blkCnt > 0U)
 434:Drivers/CMSIS_DSP/Source/TransformFunctions/arm_cfft_f32.c ****     {
 435:Drivers/CMSIS_DSP/Source/TransformFunctions/arm_cfft_f32.c ****         vecSum0 = vecA + vecC;  /* vecSum0 = vaddq(vecA, vecC) */
 436:Drivers/CMSIS_DSP/Source/TransformFunctions/arm_cfft_f32.c ****         vecDiff0 = vecA - vecC; /* vecSum0 = vsubq(vecA, vecC) */
 437:Drivers/CMSIS_DSP/Source/TransformFunctions/arm_cfft_f32.c **** 
 438:Drivers/CMSIS_DSP/Source/TransformFunctions/arm_cfft_f32.c ****         vecB = vldrwq_gather_base_f32(vecScGathAddr, 8);
 439:Drivers/CMSIS_DSP/Source/TransformFunctions/arm_cfft_f32.c ****         vecD = vldrwq_gather_base_f32(vecScGathAddr, 24);
 440:Drivers/CMSIS_DSP/Source/TransformFunctions/arm_cfft_f32.c **** 
 441:Drivers/CMSIS_DSP/Source/TransformFunctions/arm_cfft_f32.c ****         vecSum1 = vecB + vecD;
 442:Drivers/CMSIS_DSP/Source/TransformFunctions/arm_cfft_f32.c ****         vecDiff1 = vecB - vecD;
 443:Drivers/CMSIS_DSP/Source/TransformFunctions/arm_cfft_f32.c **** 
 444:Drivers/CMSIS_DSP/Source/TransformFunctions/arm_cfft_f32.c ****         vecA = vldrwq_gather_base_wb_f32(&vecScGathAddr, 64);
 445:Drivers/CMSIS_DSP/Source/TransformFunctions/arm_cfft_f32.c ****         vecC = vldrwq_gather_base_f32(vecScGathAddr, 16);
 446:Drivers/CMSIS_DSP/Source/TransformFunctions/arm_cfft_f32.c **** 
 447:Drivers/CMSIS_DSP/Source/TransformFunctions/arm_cfft_f32.c ****         vecTmp0 = vecSum0 + vecSum1;
 448:Drivers/CMSIS_DSP/Source/TransformFunctions/arm_cfft_f32.c ****         vecTmp0 = vecTmp0 * onebyfftLen;
 449:Drivers/CMSIS_DSP/Source/TransformFunctions/arm_cfft_f32.c ****         vstrwq_scatter_base_f32(vecScGathAddr, -64, vecTmp0);
 450:Drivers/CMSIS_DSP/Source/TransformFunctions/arm_cfft_f32.c **** 
 451:Drivers/CMSIS_DSP/Source/TransformFunctions/arm_cfft_f32.c ****         vecTmp0 = vecSum0 - vecSum1;
 452:Drivers/CMSIS_DSP/Source/TransformFunctions/arm_cfft_f32.c ****         vecTmp0 = vecTmp0 * onebyfftLen;
 453:Drivers/CMSIS_DSP/Source/TransformFunctions/arm_cfft_f32.c ****         vstrwq_scatter_base_f32(vecScGathAddr, -64 + 8, vecTmp0);
 454:Drivers/CMSIS_DSP/Source/TransformFunctions/arm_cfft_f32.c **** 
 455:Drivers/CMSIS_DSP/Source/TransformFunctions/arm_cfft_f32.c ****         vecTmp0 = MVE_CMPLX_ADD_A_ixB(vecDiff0, vecDiff1);
 456:Drivers/CMSIS_DSP/Source/TransformFunctions/arm_cfft_f32.c ****         vecTmp0 = vecTmp0 * onebyfftLen;
 457:Drivers/CMSIS_DSP/Source/TransformFunctions/arm_cfft_f32.c ****         vstrwq_scatter_base_f32(vecScGathAddr, -64 + 16, vecTmp0);
 458:Drivers/CMSIS_DSP/Source/TransformFunctions/arm_cfft_f32.c **** 
 459:Drivers/CMSIS_DSP/Source/TransformFunctions/arm_cfft_f32.c ****         vecTmp0 = MVE_CMPLX_SUB_A_ixB(vecDiff0, vecDiff1);
 460:Drivers/CMSIS_DSP/Source/TransformFunctions/arm_cfft_f32.c ****         vecTmp0 = vecTmp0 * onebyfftLen;
 461:Drivers/CMSIS_DSP/Source/TransformFunctions/arm_cfft_f32.c ****         vstrwq_scatter_base_f32(vecScGathAddr, -64 + 24, vecTmp0);
 462:Drivers/CMSIS_DSP/Source/TransformFunctions/arm_cfft_f32.c **** 
 463:Drivers/CMSIS_DSP/Source/TransformFunctions/arm_cfft_f32.c ****         blkCnt--;
 464:Drivers/CMSIS_DSP/Source/TransformFunctions/arm_cfft_f32.c ****     }
 465:Drivers/CMSIS_DSP/Source/TransformFunctions/arm_cfft_f32.c **** 
 466:Drivers/CMSIS_DSP/Source/TransformFunctions/arm_cfft_f32.c ****     /*
 467:Drivers/CMSIS_DSP/Source/TransformFunctions/arm_cfft_f32.c ****      * End of last stage process
 468:Drivers/CMSIS_DSP/Source/TransformFunctions/arm_cfft_f32.c ****      */
 469:Drivers/CMSIS_DSP/Source/TransformFunctions/arm_cfft_f32.c **** }
 470:Drivers/CMSIS_DSP/Source/TransformFunctions/arm_cfft_f32.c **** 
 471:Drivers/CMSIS_DSP/Source/TransformFunctions/arm_cfft_f32.c **** static void arm_cfft_radix4by2_inverse_f32_mve(const arm_cfft_instance_f32 * S,float32_t *pSrc, uin
 472:Drivers/CMSIS_DSP/Source/TransformFunctions/arm_cfft_f32.c **** {
 473:Drivers/CMSIS_DSP/Source/TransformFunctions/arm_cfft_f32.c ****     float32_t const *pCoefVec;
 474:Drivers/CMSIS_DSP/Source/TransformFunctions/arm_cfft_f32.c ****     float32_t const  *pCoef = S->pTwiddle;
 475:Drivers/CMSIS_DSP/Source/TransformFunctions/arm_cfft_f32.c ****     float32_t        *pIn0, *pIn1;
 476:Drivers/CMSIS_DSP/Source/TransformFunctions/arm_cfft_f32.c ****     uint32_t          n2;
 477:Drivers/CMSIS_DSP/Source/TransformFunctions/arm_cfft_f32.c ****     float32_t         onebyfftLen = arm_inverse_fft_length_f32(fftLen);
 478:Drivers/CMSIS_DSP/Source/TransformFunctions/arm_cfft_f32.c ****     uint32_t          blkCnt;
 479:Drivers/CMSIS_DSP/Source/TransformFunctions/arm_cfft_f32.c ****     f32x4_t         vecIn0, vecIn1, vecSum, vecDiff;
 480:Drivers/CMSIS_DSP/Source/TransformFunctions/arm_cfft_f32.c ****     f32x4_t         vecCmplxTmp, vecTw;
 481:Drivers/CMSIS_DSP/Source/TransformFunctions/arm_cfft_f32.c **** 
 482:Drivers/CMSIS_DSP/Source/TransformFunctions/arm_cfft_f32.c **** 
 483:Drivers/CMSIS_DSP/Source/TransformFunctions/arm_cfft_f32.c ****     n2 = fftLen >> 1;
 484:Drivers/CMSIS_DSP/Source/TransformFunctions/arm_cfft_f32.c ****     pIn0 = pSrc;
 485:Drivers/CMSIS_DSP/Source/TransformFunctions/arm_cfft_f32.c ****     pIn1 = pSrc + fftLen;
 486:Drivers/CMSIS_DSP/Source/TransformFunctions/arm_cfft_f32.c ****     pCoefVec = pCoef;
 487:Drivers/CMSIS_DSP/Source/TransformFunctions/arm_cfft_f32.c **** 
ARM GAS  /tmp/ccSWltYc.s 			page 10


 488:Drivers/CMSIS_DSP/Source/TransformFunctions/arm_cfft_f32.c ****     blkCnt = n2 / 2;
 489:Drivers/CMSIS_DSP/Source/TransformFunctions/arm_cfft_f32.c ****     while (blkCnt > 0U)
 490:Drivers/CMSIS_DSP/Source/TransformFunctions/arm_cfft_f32.c ****     {
 491:Drivers/CMSIS_DSP/Source/TransformFunctions/arm_cfft_f32.c ****         vecIn0 = *(f32x4_t *) pIn0;
 492:Drivers/CMSIS_DSP/Source/TransformFunctions/arm_cfft_f32.c ****         vecIn1 = *(f32x4_t *) pIn1;
 493:Drivers/CMSIS_DSP/Source/TransformFunctions/arm_cfft_f32.c ****         vecTw = vld1q(pCoefVec);
 494:Drivers/CMSIS_DSP/Source/TransformFunctions/arm_cfft_f32.c ****         pCoefVec += 4;
 495:Drivers/CMSIS_DSP/Source/TransformFunctions/arm_cfft_f32.c **** 
 496:Drivers/CMSIS_DSP/Source/TransformFunctions/arm_cfft_f32.c ****         vecSum = vecIn0 + vecIn1;
 497:Drivers/CMSIS_DSP/Source/TransformFunctions/arm_cfft_f32.c ****         vecDiff = vecIn0 - vecIn1;
 498:Drivers/CMSIS_DSP/Source/TransformFunctions/arm_cfft_f32.c **** 
 499:Drivers/CMSIS_DSP/Source/TransformFunctions/arm_cfft_f32.c ****         vecCmplxTmp = MVE_CMPLX_MULT_FLT_AxB(vecTw, vecDiff);
 500:Drivers/CMSIS_DSP/Source/TransformFunctions/arm_cfft_f32.c **** 
 501:Drivers/CMSIS_DSP/Source/TransformFunctions/arm_cfft_f32.c ****         vst1q(pIn0, vecSum);
 502:Drivers/CMSIS_DSP/Source/TransformFunctions/arm_cfft_f32.c ****         pIn0 += 4;
 503:Drivers/CMSIS_DSP/Source/TransformFunctions/arm_cfft_f32.c ****         vst1q(pIn1, vecCmplxTmp);
 504:Drivers/CMSIS_DSP/Source/TransformFunctions/arm_cfft_f32.c ****         pIn1 += 4;
 505:Drivers/CMSIS_DSP/Source/TransformFunctions/arm_cfft_f32.c **** 
 506:Drivers/CMSIS_DSP/Source/TransformFunctions/arm_cfft_f32.c ****         blkCnt--;
 507:Drivers/CMSIS_DSP/Source/TransformFunctions/arm_cfft_f32.c ****     }
 508:Drivers/CMSIS_DSP/Source/TransformFunctions/arm_cfft_f32.c **** 
 509:Drivers/CMSIS_DSP/Source/TransformFunctions/arm_cfft_f32.c ****     _arm_radix4_butterfly_inverse_f32_mve(S, pSrc, n2, onebyfftLen);
 510:Drivers/CMSIS_DSP/Source/TransformFunctions/arm_cfft_f32.c **** 
 511:Drivers/CMSIS_DSP/Source/TransformFunctions/arm_cfft_f32.c ****     _arm_radix4_butterfly_inverse_f32_mve(S, pSrc + fftLen, n2, onebyfftLen);
 512:Drivers/CMSIS_DSP/Source/TransformFunctions/arm_cfft_f32.c **** }
 513:Drivers/CMSIS_DSP/Source/TransformFunctions/arm_cfft_f32.c **** 
 514:Drivers/CMSIS_DSP/Source/TransformFunctions/arm_cfft_f32.c **** 
 515:Drivers/CMSIS_DSP/Source/TransformFunctions/arm_cfft_f32.c **** /**
 516:Drivers/CMSIS_DSP/Source/TransformFunctions/arm_cfft_f32.c ****   @addtogroup ComplexFFTF32
 517:Drivers/CMSIS_DSP/Source/TransformFunctions/arm_cfft_f32.c ****   @{
 518:Drivers/CMSIS_DSP/Source/TransformFunctions/arm_cfft_f32.c ****  */
 519:Drivers/CMSIS_DSP/Source/TransformFunctions/arm_cfft_f32.c **** 
 520:Drivers/CMSIS_DSP/Source/TransformFunctions/arm_cfft_f32.c **** /**
 521:Drivers/CMSIS_DSP/Source/TransformFunctions/arm_cfft_f32.c ****   @brief         Processing function for the floating-point complex FFT.
 522:Drivers/CMSIS_DSP/Source/TransformFunctions/arm_cfft_f32.c ****   @param[in]     S              points to an instance of the floating-point CFFT structure
 523:Drivers/CMSIS_DSP/Source/TransformFunctions/arm_cfft_f32.c ****   @param[in,out] p1             points to the complex data buffer. Processing occurs in-place
 524:Drivers/CMSIS_DSP/Source/TransformFunctions/arm_cfft_f32.c ****   @param[in]     ifftFlag       flag that selects transform direction
 525:Drivers/CMSIS_DSP/Source/TransformFunctions/arm_cfft_f32.c ****                    - value = 0: forward transform
 526:Drivers/CMSIS_DSP/Source/TransformFunctions/arm_cfft_f32.c ****                    - value = 1: inverse transform
 527:Drivers/CMSIS_DSP/Source/TransformFunctions/arm_cfft_f32.c ****   @param[in]     bitReverseFlag flag that enables / disables bit reversal of output
 528:Drivers/CMSIS_DSP/Source/TransformFunctions/arm_cfft_f32.c ****                    - value = 0: disables bit reversal of output
 529:Drivers/CMSIS_DSP/Source/TransformFunctions/arm_cfft_f32.c ****                    - value = 1: enables bit reversal of output
 530:Drivers/CMSIS_DSP/Source/TransformFunctions/arm_cfft_f32.c **** 
 531:Drivers/CMSIS_DSP/Source/TransformFunctions/arm_cfft_f32.c ****   @par Size of buffers according to the target architecture and datatype:
 532:Drivers/CMSIS_DSP/Source/TransformFunctions/arm_cfft_f32.c ****        They are described on the page \ref transformbuffers "transform buffers".
 533:Drivers/CMSIS_DSP/Source/TransformFunctions/arm_cfft_f32.c ****  */
 534:Drivers/CMSIS_DSP/Source/TransformFunctions/arm_cfft_f32.c **** 
 535:Drivers/CMSIS_DSP/Source/TransformFunctions/arm_cfft_f32.c **** 
 536:Drivers/CMSIS_DSP/Source/TransformFunctions/arm_cfft_f32.c **** ARM_DSP_ATTRIBUTE void arm_cfft_f32(
 537:Drivers/CMSIS_DSP/Source/TransformFunctions/arm_cfft_f32.c ****   const arm_cfft_instance_f32 * S,
 538:Drivers/CMSIS_DSP/Source/TransformFunctions/arm_cfft_f32.c ****         float32_t * pSrc,
 539:Drivers/CMSIS_DSP/Source/TransformFunctions/arm_cfft_f32.c ****         uint8_t ifftFlag,
 540:Drivers/CMSIS_DSP/Source/TransformFunctions/arm_cfft_f32.c ****         uint8_t bitReverseFlag)
 541:Drivers/CMSIS_DSP/Source/TransformFunctions/arm_cfft_f32.c **** {
 542:Drivers/CMSIS_DSP/Source/TransformFunctions/arm_cfft_f32.c ****         uint32_t fftLen = S->fftLen;
 543:Drivers/CMSIS_DSP/Source/TransformFunctions/arm_cfft_f32.c **** 
 544:Drivers/CMSIS_DSP/Source/TransformFunctions/arm_cfft_f32.c ****         if (ifftFlag == 1U) {
ARM GAS  /tmp/ccSWltYc.s 			page 11


 545:Drivers/CMSIS_DSP/Source/TransformFunctions/arm_cfft_f32.c **** 
 546:Drivers/CMSIS_DSP/Source/TransformFunctions/arm_cfft_f32.c ****             switch (fftLen) {
 547:Drivers/CMSIS_DSP/Source/TransformFunctions/arm_cfft_f32.c ****             case 16:
 548:Drivers/CMSIS_DSP/Source/TransformFunctions/arm_cfft_f32.c ****             case 64:
 549:Drivers/CMSIS_DSP/Source/TransformFunctions/arm_cfft_f32.c ****             case 256:
 550:Drivers/CMSIS_DSP/Source/TransformFunctions/arm_cfft_f32.c ****             case 1024:
 551:Drivers/CMSIS_DSP/Source/TransformFunctions/arm_cfft_f32.c ****             case 4096:
 552:Drivers/CMSIS_DSP/Source/TransformFunctions/arm_cfft_f32.c ****                 _arm_radix4_butterfly_inverse_f32_mve(S, pSrc, fftLen, arm_inverse_fft_length_f32(S
 553:Drivers/CMSIS_DSP/Source/TransformFunctions/arm_cfft_f32.c ****                 break;
 554:Drivers/CMSIS_DSP/Source/TransformFunctions/arm_cfft_f32.c **** 
 555:Drivers/CMSIS_DSP/Source/TransformFunctions/arm_cfft_f32.c ****             case 32:
 556:Drivers/CMSIS_DSP/Source/TransformFunctions/arm_cfft_f32.c ****             case 128:
 557:Drivers/CMSIS_DSP/Source/TransformFunctions/arm_cfft_f32.c ****             case 512:
 558:Drivers/CMSIS_DSP/Source/TransformFunctions/arm_cfft_f32.c ****             case 2048:
 559:Drivers/CMSIS_DSP/Source/TransformFunctions/arm_cfft_f32.c ****                 arm_cfft_radix4by2_inverse_f32_mve(S, pSrc, fftLen);
 560:Drivers/CMSIS_DSP/Source/TransformFunctions/arm_cfft_f32.c ****                 break;
 561:Drivers/CMSIS_DSP/Source/TransformFunctions/arm_cfft_f32.c ****             }
 562:Drivers/CMSIS_DSP/Source/TransformFunctions/arm_cfft_f32.c ****         } else {
 563:Drivers/CMSIS_DSP/Source/TransformFunctions/arm_cfft_f32.c ****             switch (fftLen) {
 564:Drivers/CMSIS_DSP/Source/TransformFunctions/arm_cfft_f32.c ****             case 16:
 565:Drivers/CMSIS_DSP/Source/TransformFunctions/arm_cfft_f32.c ****             case 64:
 566:Drivers/CMSIS_DSP/Source/TransformFunctions/arm_cfft_f32.c ****             case 256:
 567:Drivers/CMSIS_DSP/Source/TransformFunctions/arm_cfft_f32.c ****             case 1024:
 568:Drivers/CMSIS_DSP/Source/TransformFunctions/arm_cfft_f32.c ****             case 4096:
 569:Drivers/CMSIS_DSP/Source/TransformFunctions/arm_cfft_f32.c ****                 _arm_radix4_butterfly_f32_mve(S, pSrc, fftLen);
 570:Drivers/CMSIS_DSP/Source/TransformFunctions/arm_cfft_f32.c ****                 break;
 571:Drivers/CMSIS_DSP/Source/TransformFunctions/arm_cfft_f32.c **** 
 572:Drivers/CMSIS_DSP/Source/TransformFunctions/arm_cfft_f32.c ****             case 32:
 573:Drivers/CMSIS_DSP/Source/TransformFunctions/arm_cfft_f32.c ****             case 128:
 574:Drivers/CMSIS_DSP/Source/TransformFunctions/arm_cfft_f32.c ****             case 512:
 575:Drivers/CMSIS_DSP/Source/TransformFunctions/arm_cfft_f32.c ****             case 2048:
 576:Drivers/CMSIS_DSP/Source/TransformFunctions/arm_cfft_f32.c ****                 arm_cfft_radix4by2_f32_mve(S, pSrc, fftLen);
 577:Drivers/CMSIS_DSP/Source/TransformFunctions/arm_cfft_f32.c ****                 break;
 578:Drivers/CMSIS_DSP/Source/TransformFunctions/arm_cfft_f32.c ****             }
 579:Drivers/CMSIS_DSP/Source/TransformFunctions/arm_cfft_f32.c ****         }
 580:Drivers/CMSIS_DSP/Source/TransformFunctions/arm_cfft_f32.c **** 
 581:Drivers/CMSIS_DSP/Source/TransformFunctions/arm_cfft_f32.c **** 
 582:Drivers/CMSIS_DSP/Source/TransformFunctions/arm_cfft_f32.c ****         if (bitReverseFlag)
 583:Drivers/CMSIS_DSP/Source/TransformFunctions/arm_cfft_f32.c ****         {
 584:Drivers/CMSIS_DSP/Source/TransformFunctions/arm_cfft_f32.c **** 
 585:Drivers/CMSIS_DSP/Source/TransformFunctions/arm_cfft_f32.c ****             arm_bitreversal_32_inpl_mve((uint32_t*)pSrc, S->bitRevLength, S->pBitRevTable);
 586:Drivers/CMSIS_DSP/Source/TransformFunctions/arm_cfft_f32.c **** 
 587:Drivers/CMSIS_DSP/Source/TransformFunctions/arm_cfft_f32.c ****         }
 588:Drivers/CMSIS_DSP/Source/TransformFunctions/arm_cfft_f32.c **** }
 589:Drivers/CMSIS_DSP/Source/TransformFunctions/arm_cfft_f32.c **** 
 590:Drivers/CMSIS_DSP/Source/TransformFunctions/arm_cfft_f32.c **** 
 591:Drivers/CMSIS_DSP/Source/TransformFunctions/arm_cfft_f32.c **** #elif defined(ARM_MATH_NEON)
 592:Drivers/CMSIS_DSP/Source/TransformFunctions/arm_cfft_f32.c **** #include "CMSIS_NE10_types.h"
 593:Drivers/CMSIS_DSP/Source/TransformFunctions/arm_cfft_f32.c **** #include "CMSIS_NE10_fft.h"
 594:Drivers/CMSIS_DSP/Source/TransformFunctions/arm_cfft_f32.c **** 
 595:Drivers/CMSIS_DSP/Source/TransformFunctions/arm_cfft_f32.c **** 
 596:Drivers/CMSIS_DSP/Source/TransformFunctions/arm_cfft_f32.c **** 
 597:Drivers/CMSIS_DSP/Source/TransformFunctions/arm_cfft_f32.c **** ARM_DSP_ATTRIBUTE void arm_cfft_f32(
 598:Drivers/CMSIS_DSP/Source/TransformFunctions/arm_cfft_f32.c ****   const arm_cfft_instance_f32 * S,
 599:Drivers/CMSIS_DSP/Source/TransformFunctions/arm_cfft_f32.c ****         const float32_t * pIn,
 600:Drivers/CMSIS_DSP/Source/TransformFunctions/arm_cfft_f32.c ****         float32_t * pOut,
 601:Drivers/CMSIS_DSP/Source/TransformFunctions/arm_cfft_f32.c ****         float32_t * pBuffer, /* When used, in is not modified */
ARM GAS  /tmp/ccSWltYc.s 			page 12


 602:Drivers/CMSIS_DSP/Source/TransformFunctions/arm_cfft_f32.c ****         uint8_t ifftFlag)
 603:Drivers/CMSIS_DSP/Source/TransformFunctions/arm_cfft_f32.c **** {
 604:Drivers/CMSIS_DSP/Source/TransformFunctions/arm_cfft_f32.c ****     if (S->algorithm_flag == ARM_MIXED_RADIX_FFT)
 605:Drivers/CMSIS_DSP/Source/TransformFunctions/arm_cfft_f32.c ****     {
 606:Drivers/CMSIS_DSP/Source/TransformFunctions/arm_cfft_f32.c ****         if (ifftFlag)
 607:Drivers/CMSIS_DSP/Source/TransformFunctions/arm_cfft_f32.c ****         {
 608:Drivers/CMSIS_DSP/Source/TransformFunctions/arm_cfft_f32.c ****             arm_ne10_mixed_radix_generic_butterfly_inverse_float32_neon (S,
 609:Drivers/CMSIS_DSP/Source/TransformFunctions/arm_cfft_f32.c ****                 (ne10_fft_cpx_float32_t *)pIn, 
 610:Drivers/CMSIS_DSP/Source/TransformFunctions/arm_cfft_f32.c ****                 (ne10_fft_cpx_float32_t *)pOut,
 611:Drivers/CMSIS_DSP/Source/TransformFunctions/arm_cfft_f32.c ****                 (ne10_fft_cpx_float32_t *)pBuffer);
 612:Drivers/CMSIS_DSP/Source/TransformFunctions/arm_cfft_f32.c ****         }
 613:Drivers/CMSIS_DSP/Source/TransformFunctions/arm_cfft_f32.c ****         else
 614:Drivers/CMSIS_DSP/Source/TransformFunctions/arm_cfft_f32.c ****         {
 615:Drivers/CMSIS_DSP/Source/TransformFunctions/arm_cfft_f32.c ****             arm_ne10_mixed_radix_generic_butterfly_float32_neon (S,
 616:Drivers/CMSIS_DSP/Source/TransformFunctions/arm_cfft_f32.c ****                 (ne10_fft_cpx_float32_t *)pIn, 
 617:Drivers/CMSIS_DSP/Source/TransformFunctions/arm_cfft_f32.c ****                 (ne10_fft_cpx_float32_t *)pOut,
 618:Drivers/CMSIS_DSP/Source/TransformFunctions/arm_cfft_f32.c ****                 (ne10_fft_cpx_float32_t *)pBuffer);
 619:Drivers/CMSIS_DSP/Source/TransformFunctions/arm_cfft_f32.c ****         }
 620:Drivers/CMSIS_DSP/Source/TransformFunctions/arm_cfft_f32.c ****     }
 621:Drivers/CMSIS_DSP/Source/TransformFunctions/arm_cfft_f32.c ****     else 
 622:Drivers/CMSIS_DSP/Source/TransformFunctions/arm_cfft_f32.c ****     {
 623:Drivers/CMSIS_DSP/Source/TransformFunctions/arm_cfft_f32.c ****         if (ifftFlag == 0)
 624:Drivers/CMSIS_DSP/Source/TransformFunctions/arm_cfft_f32.c ****         {
 625:Drivers/CMSIS_DSP/Source/TransformFunctions/arm_cfft_f32.c ****             if (S->fftLen==16)
 626:Drivers/CMSIS_DSP/Source/TransformFunctions/arm_cfft_f32.c ****             {
 627:Drivers/CMSIS_DSP/Source/TransformFunctions/arm_cfft_f32.c ****                 arm_ne10_fft16_forward_float32_neon (S,
 628:Drivers/CMSIS_DSP/Source/TransformFunctions/arm_cfft_f32.c ****                    (ne10_fft_cpx_float32_t *)pIn,
 629:Drivers/CMSIS_DSP/Source/TransformFunctions/arm_cfft_f32.c ****                    (ne10_fft_cpx_float32_t *)pOut
 630:Drivers/CMSIS_DSP/Source/TransformFunctions/arm_cfft_f32.c ****                    );
 631:Drivers/CMSIS_DSP/Source/TransformFunctions/arm_cfft_f32.c ****             }
 632:Drivers/CMSIS_DSP/Source/TransformFunctions/arm_cfft_f32.c ****             else 
 633:Drivers/CMSIS_DSP/Source/TransformFunctions/arm_cfft_f32.c ****             {
 634:Drivers/CMSIS_DSP/Source/TransformFunctions/arm_cfft_f32.c ****                arm_ne10_mixed_radix_fft_forward_float32_neon (S,
 635:Drivers/CMSIS_DSP/Source/TransformFunctions/arm_cfft_f32.c ****                    (ne10_fft_cpx_float32_t *)pIn,
 636:Drivers/CMSIS_DSP/Source/TransformFunctions/arm_cfft_f32.c ****                    (ne10_fft_cpx_float32_t *)pOut,
 637:Drivers/CMSIS_DSP/Source/TransformFunctions/arm_cfft_f32.c ****                    (ne10_fft_cpx_float32_t *)pBuffer);
 638:Drivers/CMSIS_DSP/Source/TransformFunctions/arm_cfft_f32.c ****             }
 639:Drivers/CMSIS_DSP/Source/TransformFunctions/arm_cfft_f32.c ****         }
 640:Drivers/CMSIS_DSP/Source/TransformFunctions/arm_cfft_f32.c ****         else 
 641:Drivers/CMSIS_DSP/Source/TransformFunctions/arm_cfft_f32.c ****         {
 642:Drivers/CMSIS_DSP/Source/TransformFunctions/arm_cfft_f32.c ****             if (S->fftLen==16)
 643:Drivers/CMSIS_DSP/Source/TransformFunctions/arm_cfft_f32.c ****             {
 644:Drivers/CMSIS_DSP/Source/TransformFunctions/arm_cfft_f32.c ****                 arm_ne10_fft16_backward_float32_neon(S,
 645:Drivers/CMSIS_DSP/Source/TransformFunctions/arm_cfft_f32.c ****                    (ne10_fft_cpx_float32_t *)pIn,
 646:Drivers/CMSIS_DSP/Source/TransformFunctions/arm_cfft_f32.c ****                    (ne10_fft_cpx_float32_t *)pOut);
 647:Drivers/CMSIS_DSP/Source/TransformFunctions/arm_cfft_f32.c ****             }
 648:Drivers/CMSIS_DSP/Source/TransformFunctions/arm_cfft_f32.c ****             else 
 649:Drivers/CMSIS_DSP/Source/TransformFunctions/arm_cfft_f32.c ****             {
 650:Drivers/CMSIS_DSP/Source/TransformFunctions/arm_cfft_f32.c ****                 arm_ne10_mixed_radix_fft_backward_float32_neon (S,
 651:Drivers/CMSIS_DSP/Source/TransformFunctions/arm_cfft_f32.c ****                     (ne10_fft_cpx_float32_t *)pIn,
 652:Drivers/CMSIS_DSP/Source/TransformFunctions/arm_cfft_f32.c ****                     (ne10_fft_cpx_float32_t *)pOut,
 653:Drivers/CMSIS_DSP/Source/TransformFunctions/arm_cfft_f32.c ****                     (ne10_fft_cpx_float32_t *)pBuffer);
 654:Drivers/CMSIS_DSP/Source/TransformFunctions/arm_cfft_f32.c ****             }
 655:Drivers/CMSIS_DSP/Source/TransformFunctions/arm_cfft_f32.c ****         }
 656:Drivers/CMSIS_DSP/Source/TransformFunctions/arm_cfft_f32.c ****     }
 657:Drivers/CMSIS_DSP/Source/TransformFunctions/arm_cfft_f32.c **** }
 658:Drivers/CMSIS_DSP/Source/TransformFunctions/arm_cfft_f32.c **** #else
ARM GAS  /tmp/ccSWltYc.s 			page 13


 659:Drivers/CMSIS_DSP/Source/TransformFunctions/arm_cfft_f32.c **** extern void arm_radix8_butterfly_f32(
 660:Drivers/CMSIS_DSP/Source/TransformFunctions/arm_cfft_f32.c ****         float32_t * pSrc,
 661:Drivers/CMSIS_DSP/Source/TransformFunctions/arm_cfft_f32.c ****         uint16_t fftLen,
 662:Drivers/CMSIS_DSP/Source/TransformFunctions/arm_cfft_f32.c ****   const float32_t * pCoef,
 663:Drivers/CMSIS_DSP/Source/TransformFunctions/arm_cfft_f32.c ****         uint16_t twidCoefModifier);
 664:Drivers/CMSIS_DSP/Source/TransformFunctions/arm_cfft_f32.c **** 
 665:Drivers/CMSIS_DSP/Source/TransformFunctions/arm_cfft_f32.c **** extern void arm_bitreversal_32(
 666:Drivers/CMSIS_DSP/Source/TransformFunctions/arm_cfft_f32.c ****         uint32_t * pSrc,
 667:Drivers/CMSIS_DSP/Source/TransformFunctions/arm_cfft_f32.c ****   const uint16_t bitRevLen,
 668:Drivers/CMSIS_DSP/Source/TransformFunctions/arm_cfft_f32.c ****   const uint16_t * pBitRevTable);
 669:Drivers/CMSIS_DSP/Source/TransformFunctions/arm_cfft_f32.c **** 
 670:Drivers/CMSIS_DSP/Source/TransformFunctions/arm_cfft_f32.c **** /**
 671:Drivers/CMSIS_DSP/Source/TransformFunctions/arm_cfft_f32.c ****   @ingroup groupTransforms
 672:Drivers/CMSIS_DSP/Source/TransformFunctions/arm_cfft_f32.c ****  */
 673:Drivers/CMSIS_DSP/Source/TransformFunctions/arm_cfft_f32.c **** 
 674:Drivers/CMSIS_DSP/Source/TransformFunctions/arm_cfft_f32.c **** /**
 675:Drivers/CMSIS_DSP/Source/TransformFunctions/arm_cfft_f32.c ****   @defgroup ComplexFFT Complex FFT Functions
 676:Drivers/CMSIS_DSP/Source/TransformFunctions/arm_cfft_f32.c **** 
 677:Drivers/CMSIS_DSP/Source/TransformFunctions/arm_cfft_f32.c ****   @par
 678:Drivers/CMSIS_DSP/Source/TransformFunctions/arm_cfft_f32.c ****                    The Fast Fourier Transform (FFT) is an efficient algorithm for computing the
 679:Drivers/CMSIS_DSP/Source/TransformFunctions/arm_cfft_f32.c ****                    Discrete Fourier Transform (DFT).  The FFT can be orders of magnitude faster
 680:Drivers/CMSIS_DSP/Source/TransformFunctions/arm_cfft_f32.c ****                    than the DFT, especially for long lengths.
 681:Drivers/CMSIS_DSP/Source/TransformFunctions/arm_cfft_f32.c ****                    The algorithms described in this section
 682:Drivers/CMSIS_DSP/Source/TransformFunctions/arm_cfft_f32.c ****                    operate on complex data.  A separate set of functions is devoted to handling
 683:Drivers/CMSIS_DSP/Source/TransformFunctions/arm_cfft_f32.c ****                    of real sequences.
 684:Drivers/CMSIS_DSP/Source/TransformFunctions/arm_cfft_f32.c ****   @par
 685:Drivers/CMSIS_DSP/Source/TransformFunctions/arm_cfft_f32.c ****                    There are separate algorithms for handling floating-point, Q15, and Q31 data
 686:Drivers/CMSIS_DSP/Source/TransformFunctions/arm_cfft_f32.c ****                    types.  The algorithms available for each data type are described next.
 687:Drivers/CMSIS_DSP/Source/TransformFunctions/arm_cfft_f32.c ****   @par
 688:Drivers/CMSIS_DSP/Source/TransformFunctions/arm_cfft_f32.c ****                    The FFT functions operate in-place.  That is, the array holding the input data
 689:Drivers/CMSIS_DSP/Source/TransformFunctions/arm_cfft_f32.c ****                    will also be used to hold the corresponding result.  The input data is complex
 690:Drivers/CMSIS_DSP/Source/TransformFunctions/arm_cfft_f32.c ****                    and contains <code>2*fftLen</code> interleaved values as shown below.
 691:Drivers/CMSIS_DSP/Source/TransformFunctions/arm_cfft_f32.c ****                    <pre>{real[0], imag[0], real[1], imag[1], ...} </pre>
 692:Drivers/CMSIS_DSP/Source/TransformFunctions/arm_cfft_f32.c ****                    The FFT result will be contained in the same array and the frequency domain
 693:Drivers/CMSIS_DSP/Source/TransformFunctions/arm_cfft_f32.c ****                    values will have the same interleaving.
 694:Drivers/CMSIS_DSP/Source/TransformFunctions/arm_cfft_f32.c **** 
 695:Drivers/CMSIS_DSP/Source/TransformFunctions/arm_cfft_f32.c ****   @par Floating-point
 696:Drivers/CMSIS_DSP/Source/TransformFunctions/arm_cfft_f32.c ****                    The floating-point complex FFT uses a mixed-radix algorithm.  Multiple radix-8
 697:Drivers/CMSIS_DSP/Source/TransformFunctions/arm_cfft_f32.c ****                    stages are performed along with a single radix-2 or radix-4 stage, as needed.
 698:Drivers/CMSIS_DSP/Source/TransformFunctions/arm_cfft_f32.c ****                    The algorithm supports lengths of [16, 32, 64, ..., 4096] and each length uses
 699:Drivers/CMSIS_DSP/Source/TransformFunctions/arm_cfft_f32.c ****                    a different twiddle factor table.
 700:Drivers/CMSIS_DSP/Source/TransformFunctions/arm_cfft_f32.c ****   @par
 701:Drivers/CMSIS_DSP/Source/TransformFunctions/arm_cfft_f32.c ****                    The function uses the standard FFT definition and output values may grow by a
 702:Drivers/CMSIS_DSP/Source/TransformFunctions/arm_cfft_f32.c ****                    factor of <code>fftLen</code> when computing the forward transform.  The
 703:Drivers/CMSIS_DSP/Source/TransformFunctions/arm_cfft_f32.c ****                    inverse transform includes a scale of <code>1/fftLen</code> as part of the
 704:Drivers/CMSIS_DSP/Source/TransformFunctions/arm_cfft_f32.c ****                    calculation and this matches the textbook definition of the inverse FFT.
 705:Drivers/CMSIS_DSP/Source/TransformFunctions/arm_cfft_f32.c ****   @par
 706:Drivers/CMSIS_DSP/Source/TransformFunctions/arm_cfft_f32.c ****                    For the MVE version, the new arm_cfft_init_f32 initialization function is
 707:Drivers/CMSIS_DSP/Source/TransformFunctions/arm_cfft_f32.c ****                    <b>mandatory</b>. <b>Compilation flags are available to include only the require
 708:Drivers/CMSIS_DSP/Source/TransformFunctions/arm_cfft_f32.c ****                    needed FFTs.</b> Other FFT versions can continue to be initialized as
 709:Drivers/CMSIS_DSP/Source/TransformFunctions/arm_cfft_f32.c ****                    explained below.
 710:Drivers/CMSIS_DSP/Source/TransformFunctions/arm_cfft_f32.c ****   @par
 711:Drivers/CMSIS_DSP/Source/TransformFunctions/arm_cfft_f32.c ****                    For versions not targeting Helium or Neon, pre-initialized data structures conta
 712:Drivers/CMSIS_DSP/Source/TransformFunctions/arm_cfft_f32.c ****                    and bit reversal tables are provided and defined in <code>arm_const_structs.h</c
 713:Drivers/CMSIS_DSP/Source/TransformFunctions/arm_cfft_f32.c ****                    this header in your function and then pass one of the constant structures as
 714:Drivers/CMSIS_DSP/Source/TransformFunctions/arm_cfft_f32.c ****                    an argument to arm_cfft_f32.  For example:
 715:Drivers/CMSIS_DSP/Source/TransformFunctions/arm_cfft_f32.c ****   @par
ARM GAS  /tmp/ccSWltYc.s 			page 14


 716:Drivers/CMSIS_DSP/Source/TransformFunctions/arm_cfft_f32.c ****                    <code>arm_cfft_f32(arm_cfft_sR_f32_len64, pSrc, 1, 1)</code>
 717:Drivers/CMSIS_DSP/Source/TransformFunctions/arm_cfft_f32.c ****   @par
 718:Drivers/CMSIS_DSP/Source/TransformFunctions/arm_cfft_f32.c ****                    computes a 64-point inverse complex FFT including bit reversal.
 719:Drivers/CMSIS_DSP/Source/TransformFunctions/arm_cfft_f32.c ****                    The data structures are treated as constant data and not modified during the
 720:Drivers/CMSIS_DSP/Source/TransformFunctions/arm_cfft_f32.c ****                    calculation.  The same data structure can be reused for multiple transforms
 721:Drivers/CMSIS_DSP/Source/TransformFunctions/arm_cfft_f32.c ****                    including mixing forward and inverse transforms.
 722:Drivers/CMSIS_DSP/Source/TransformFunctions/arm_cfft_f32.c ****   @par
 723:Drivers/CMSIS_DSP/Source/TransformFunctions/arm_cfft_f32.c ****                    Earlier releases of the library provided separate radix-2 and radix-4
 724:Drivers/CMSIS_DSP/Source/TransformFunctions/arm_cfft_f32.c ****                    algorithms that operated on floating-point data.  These functions are still
 725:Drivers/CMSIS_DSP/Source/TransformFunctions/arm_cfft_f32.c ****                    provided but are deprecated.  The older functions are slower and less general
 726:Drivers/CMSIS_DSP/Source/TransformFunctions/arm_cfft_f32.c ****                    than the new functions.
 727:Drivers/CMSIS_DSP/Source/TransformFunctions/arm_cfft_f32.c ****   @par
 728:Drivers/CMSIS_DSP/Source/TransformFunctions/arm_cfft_f32.c ****                    An example of initialization of the constants for the arm_cfft_f32 function foll
 729:Drivers/CMSIS_DSP/Source/TransformFunctions/arm_cfft_f32.c ****   @code
 730:Drivers/CMSIS_DSP/Source/TransformFunctions/arm_cfft_f32.c ****                    const static arm_cfft_instance_f32 *S;
 731:Drivers/CMSIS_DSP/Source/TransformFunctions/arm_cfft_f32.c ****                    ...
 732:Drivers/CMSIS_DSP/Source/TransformFunctions/arm_cfft_f32.c ****                    switch (length) {
 733:Drivers/CMSIS_DSP/Source/TransformFunctions/arm_cfft_f32.c ****                      case 16:
 734:Drivers/CMSIS_DSP/Source/TransformFunctions/arm_cfft_f32.c ****                        S = &arm_cfft_sR_f32_len16;
 735:Drivers/CMSIS_DSP/Source/TransformFunctions/arm_cfft_f32.c ****                        break;
 736:Drivers/CMSIS_DSP/Source/TransformFunctions/arm_cfft_f32.c ****                      case 32:
 737:Drivers/CMSIS_DSP/Source/TransformFunctions/arm_cfft_f32.c ****                        S = &arm_cfft_sR_f32_len32;
 738:Drivers/CMSIS_DSP/Source/TransformFunctions/arm_cfft_f32.c ****                        break;
 739:Drivers/CMSIS_DSP/Source/TransformFunctions/arm_cfft_f32.c ****                      case 64:
 740:Drivers/CMSIS_DSP/Source/TransformFunctions/arm_cfft_f32.c ****                        S = &arm_cfft_sR_f32_len64;
 741:Drivers/CMSIS_DSP/Source/TransformFunctions/arm_cfft_f32.c ****                        break;
 742:Drivers/CMSIS_DSP/Source/TransformFunctions/arm_cfft_f32.c ****                      case 128:
 743:Drivers/CMSIS_DSP/Source/TransformFunctions/arm_cfft_f32.c ****                        S = &arm_cfft_sR_f32_len128;
 744:Drivers/CMSIS_DSP/Source/TransformFunctions/arm_cfft_f32.c ****                        break;
 745:Drivers/CMSIS_DSP/Source/TransformFunctions/arm_cfft_f32.c ****                      case 256:
 746:Drivers/CMSIS_DSP/Source/TransformFunctions/arm_cfft_f32.c ****                        S = &arm_cfft_sR_f32_len256;
 747:Drivers/CMSIS_DSP/Source/TransformFunctions/arm_cfft_f32.c ****                        break;
 748:Drivers/CMSIS_DSP/Source/TransformFunctions/arm_cfft_f32.c ****                      case 512:
 749:Drivers/CMSIS_DSP/Source/TransformFunctions/arm_cfft_f32.c ****                        S = &arm_cfft_sR_f32_len512;
 750:Drivers/CMSIS_DSP/Source/TransformFunctions/arm_cfft_f32.c ****                        break;
 751:Drivers/CMSIS_DSP/Source/TransformFunctions/arm_cfft_f32.c ****                      case 1024:
 752:Drivers/CMSIS_DSP/Source/TransformFunctions/arm_cfft_f32.c ****                        S = &arm_cfft_sR_f32_len1024;
 753:Drivers/CMSIS_DSP/Source/TransformFunctions/arm_cfft_f32.c ****                        break;
 754:Drivers/CMSIS_DSP/Source/TransformFunctions/arm_cfft_f32.c ****                      case 2048:
 755:Drivers/CMSIS_DSP/Source/TransformFunctions/arm_cfft_f32.c ****                        S = &arm_cfft_sR_f32_len2048;
 756:Drivers/CMSIS_DSP/Source/TransformFunctions/arm_cfft_f32.c ****                        break;
 757:Drivers/CMSIS_DSP/Source/TransformFunctions/arm_cfft_f32.c ****                      case 4096:
 758:Drivers/CMSIS_DSP/Source/TransformFunctions/arm_cfft_f32.c ****                        S = &arm_cfft_sR_f32_len4096;
 759:Drivers/CMSIS_DSP/Source/TransformFunctions/arm_cfft_f32.c ****                        break;
 760:Drivers/CMSIS_DSP/Source/TransformFunctions/arm_cfft_f32.c ****                    }
 761:Drivers/CMSIS_DSP/Source/TransformFunctions/arm_cfft_f32.c ****   @endcode
 762:Drivers/CMSIS_DSP/Source/TransformFunctions/arm_cfft_f32.c **** 
 763:Drivers/CMSIS_DSP/Source/TransformFunctions/arm_cfft_f32.c ****   @par
 764:Drivers/CMSIS_DSP/Source/TransformFunctions/arm_cfft_f32.c ****                    The new arm_cfft_init_f32 can also be used.
 765:Drivers/CMSIS_DSP/Source/TransformFunctions/arm_cfft_f32.c ****   @par Q15 and Q31
 766:Drivers/CMSIS_DSP/Source/TransformFunctions/arm_cfft_f32.c ****                    The floating-point complex FFT uses a mixed-radix algorithm.  Multiple radix-4
 767:Drivers/CMSIS_DSP/Source/TransformFunctions/arm_cfft_f32.c ****                    stages are performed along with a single radix-2 stage, as needed.
 768:Drivers/CMSIS_DSP/Source/TransformFunctions/arm_cfft_f32.c ****                    The algorithm supports lengths of [16, 32, 64, ..., 4096] and each length uses
 769:Drivers/CMSIS_DSP/Source/TransformFunctions/arm_cfft_f32.c ****                    a different twiddle factor table.
 770:Drivers/CMSIS_DSP/Source/TransformFunctions/arm_cfft_f32.c ****   @par
 771:Drivers/CMSIS_DSP/Source/TransformFunctions/arm_cfft_f32.c ****                    The function uses the standard FFT definition and output values may grow by a
 772:Drivers/CMSIS_DSP/Source/TransformFunctions/arm_cfft_f32.c ****                    factor of <code>fftLen</code> when computing the forward transform.  The
ARM GAS  /tmp/ccSWltYc.s 			page 15


 773:Drivers/CMSIS_DSP/Source/TransformFunctions/arm_cfft_f32.c ****                    inverse transform includes a scale of <code>1/fftLen</code> as part of the
 774:Drivers/CMSIS_DSP/Source/TransformFunctions/arm_cfft_f32.c ****                    calculation and this matches the textbook definition of the inverse FFT.
 775:Drivers/CMSIS_DSP/Source/TransformFunctions/arm_cfft_f32.c ****   @par
 776:Drivers/CMSIS_DSP/Source/TransformFunctions/arm_cfft_f32.c ****                    Pre-initialized data structures containing twiddle factors and bit reversal
 777:Drivers/CMSIS_DSP/Source/TransformFunctions/arm_cfft_f32.c ****                    tables are provided and defined in <code>arm_const_structs.h</code>.  Include
 778:Drivers/CMSIS_DSP/Source/TransformFunctions/arm_cfft_f32.c ****                    this header in your function and then pass one of the constant structures as
 779:Drivers/CMSIS_DSP/Source/TransformFunctions/arm_cfft_f32.c ****                    an argument to arm_cfft_q31 (except if you are targeting Helium or Neon). For ex
 780:Drivers/CMSIS_DSP/Source/TransformFunctions/arm_cfft_f32.c ****   @par
 781:Drivers/CMSIS_DSP/Source/TransformFunctions/arm_cfft_f32.c ****                    <code>arm_cfft_q31(arm_cfft_sR_q31_len64, pSrc, 1, 1)</code>
 782:Drivers/CMSIS_DSP/Source/TransformFunctions/arm_cfft_f32.c ****   @par
 783:Drivers/CMSIS_DSP/Source/TransformFunctions/arm_cfft_f32.c ****                    computes a 64-point inverse complex FFT including bit reversal.
 784:Drivers/CMSIS_DSP/Source/TransformFunctions/arm_cfft_f32.c ****                    The data structures are treated as constant data and not modified during the
 785:Drivers/CMSIS_DSP/Source/TransformFunctions/arm_cfft_f32.c ****                    calculation.  The same data structure can be reused for multiple transforms
 786:Drivers/CMSIS_DSP/Source/TransformFunctions/arm_cfft_f32.c ****                    including mixing forward and inverse transforms.
 787:Drivers/CMSIS_DSP/Source/TransformFunctions/arm_cfft_f32.c ****   @par
 788:Drivers/CMSIS_DSP/Source/TransformFunctions/arm_cfft_f32.c ****                    Earlier releases of the library provided separate radix-2 and radix-4
 789:Drivers/CMSIS_DSP/Source/TransformFunctions/arm_cfft_f32.c ****                    algorithms that operated on floating-point data.  These functions are still
 790:Drivers/CMSIS_DSP/Source/TransformFunctions/arm_cfft_f32.c ****                    provided but are deprecated.  The older functions are slower and less general
 791:Drivers/CMSIS_DSP/Source/TransformFunctions/arm_cfft_f32.c ****                    than the new functions.
 792:Drivers/CMSIS_DSP/Source/TransformFunctions/arm_cfft_f32.c ****   @par
 793:Drivers/CMSIS_DSP/Source/TransformFunctions/arm_cfft_f32.c ****                    An example of initialization of the constants for the arm_cfft_q31 function foll
 794:Drivers/CMSIS_DSP/Source/TransformFunctions/arm_cfft_f32.c ****   @code
 795:Drivers/CMSIS_DSP/Source/TransformFunctions/arm_cfft_f32.c ****                    const static arm_cfft_instance_q31 *S;
 796:Drivers/CMSIS_DSP/Source/TransformFunctions/arm_cfft_f32.c ****                    ...
 797:Drivers/CMSIS_DSP/Source/TransformFunctions/arm_cfft_f32.c ****                      switch (length) {
 798:Drivers/CMSIS_DSP/Source/TransformFunctions/arm_cfft_f32.c ****                        case 16:
 799:Drivers/CMSIS_DSP/Source/TransformFunctions/arm_cfft_f32.c ****                          S = &arm_cfft_sR_q31_len16;
 800:Drivers/CMSIS_DSP/Source/TransformFunctions/arm_cfft_f32.c ****                          break;
 801:Drivers/CMSIS_DSP/Source/TransformFunctions/arm_cfft_f32.c ****                        case 32:
 802:Drivers/CMSIS_DSP/Source/TransformFunctions/arm_cfft_f32.c ****                          S = &arm_cfft_sR_q31_len32;
 803:Drivers/CMSIS_DSP/Source/TransformFunctions/arm_cfft_f32.c ****                          break;
 804:Drivers/CMSIS_DSP/Source/TransformFunctions/arm_cfft_f32.c ****                        case 64:
 805:Drivers/CMSIS_DSP/Source/TransformFunctions/arm_cfft_f32.c ****                          S = &arm_cfft_sR_q31_len64;
 806:Drivers/CMSIS_DSP/Source/TransformFunctions/arm_cfft_f32.c ****                          break;
 807:Drivers/CMSIS_DSP/Source/TransformFunctions/arm_cfft_f32.c ****                        case 128:
 808:Drivers/CMSIS_DSP/Source/TransformFunctions/arm_cfft_f32.c ****                          S = &arm_cfft_sR_q31_len128;
 809:Drivers/CMSIS_DSP/Source/TransformFunctions/arm_cfft_f32.c ****                          break;
 810:Drivers/CMSIS_DSP/Source/TransformFunctions/arm_cfft_f32.c ****                        case 256:
 811:Drivers/CMSIS_DSP/Source/TransformFunctions/arm_cfft_f32.c ****                          S = &arm_cfft_sR_q31_len256;
 812:Drivers/CMSIS_DSP/Source/TransformFunctions/arm_cfft_f32.c ****                          break;
 813:Drivers/CMSIS_DSP/Source/TransformFunctions/arm_cfft_f32.c ****                        case 512:
 814:Drivers/CMSIS_DSP/Source/TransformFunctions/arm_cfft_f32.c ****                          S = &arm_cfft_sR_q31_len512;
 815:Drivers/CMSIS_DSP/Source/TransformFunctions/arm_cfft_f32.c ****                          break;
 816:Drivers/CMSIS_DSP/Source/TransformFunctions/arm_cfft_f32.c ****                        case 1024:
 817:Drivers/CMSIS_DSP/Source/TransformFunctions/arm_cfft_f32.c ****                          S = &arm_cfft_sR_q31_len1024;
 818:Drivers/CMSIS_DSP/Source/TransformFunctions/arm_cfft_f32.c ****                          break;
 819:Drivers/CMSIS_DSP/Source/TransformFunctions/arm_cfft_f32.c ****                        case 2048:
 820:Drivers/CMSIS_DSP/Source/TransformFunctions/arm_cfft_f32.c ****                          S = &arm_cfft_sR_q31_len2048;
 821:Drivers/CMSIS_DSP/Source/TransformFunctions/arm_cfft_f32.c ****                          break;
 822:Drivers/CMSIS_DSP/Source/TransformFunctions/arm_cfft_f32.c ****                        case 4096:
 823:Drivers/CMSIS_DSP/Source/TransformFunctions/arm_cfft_f32.c ****                          S = &arm_cfft_sR_q31_len4096;
 824:Drivers/CMSIS_DSP/Source/TransformFunctions/arm_cfft_f32.c ****                          break;
 825:Drivers/CMSIS_DSP/Source/TransformFunctions/arm_cfft_f32.c ****                      }
 826:Drivers/CMSIS_DSP/Source/TransformFunctions/arm_cfft_f32.c ****   @endcode
 827:Drivers/CMSIS_DSP/Source/TransformFunctions/arm_cfft_f32.c **** 
 828:Drivers/CMSIS_DSP/Source/TransformFunctions/arm_cfft_f32.c ****   @par Neon version
 829:Drivers/CMSIS_DSP/Source/TransformFunctions/arm_cfft_f32.c ****                      The neon version has a different API.
ARM GAS  /tmp/ccSWltYc.s 			page 16


 830:Drivers/CMSIS_DSP/Source/TransformFunctions/arm_cfft_f32.c ****                      The input and output buffers must be
 831:Drivers/CMSIS_DSP/Source/TransformFunctions/arm_cfft_f32.c ****                      different.
 832:Drivers/CMSIS_DSP/Source/TransformFunctions/arm_cfft_f32.c ****                      There is a temporary buffer.
 833:Drivers/CMSIS_DSP/Source/TransformFunctions/arm_cfft_f32.c ****                      The bit reverse flag is not more 
 834:Drivers/CMSIS_DSP/Source/TransformFunctions/arm_cfft_f32.c ****                      available in Neon version.
 835:Drivers/CMSIS_DSP/Source/TransformFunctions/arm_cfft_f32.c **** 
 836:Drivers/CMSIS_DSP/Source/TransformFunctions/arm_cfft_f32.c ****   @code
 837:Drivers/CMSIS_DSP/Source/TransformFunctions/arm_cfft_f32.c ****         void arm_cfft_f32(
 838:Drivers/CMSIS_DSP/Source/TransformFunctions/arm_cfft_f32.c ****                 const arm_cfft_instance_f32 * S,
 839:Drivers/CMSIS_DSP/Source/TransformFunctions/arm_cfft_f32.c ****                       const float32_t * pIn,
 840:Drivers/CMSIS_DSP/Source/TransformFunctions/arm_cfft_f32.c ****                       float32_t * pOut,
 841:Drivers/CMSIS_DSP/Source/TransformFunctions/arm_cfft_f32.c ****                       float32_t * pBuffer, 
 842:Drivers/CMSIS_DSP/Source/TransformFunctions/arm_cfft_f32.c ****                       uint8_t ifftFlag);
 843:Drivers/CMSIS_DSP/Source/TransformFunctions/arm_cfft_f32.c ****   @endcode
 844:Drivers/CMSIS_DSP/Source/TransformFunctions/arm_cfft_f32.c **** 
 845:Drivers/CMSIS_DSP/Source/TransformFunctions/arm_cfft_f32.c ****   @par Size of buffers according to the target architecture and datatype:
 846:Drivers/CMSIS_DSP/Source/TransformFunctions/arm_cfft_f32.c ****        They are described on the page \ref transformbuffers "transform buffers".
 847:Drivers/CMSIS_DSP/Source/TransformFunctions/arm_cfft_f32.c ****  */
 848:Drivers/CMSIS_DSP/Source/TransformFunctions/arm_cfft_f32.c **** 
 849:Drivers/CMSIS_DSP/Source/TransformFunctions/arm_cfft_f32.c **** static void arm_cfft_radix8by2_f32 (arm_cfft_instance_f32 * S, float32_t * p1)
 850:Drivers/CMSIS_DSP/Source/TransformFunctions/arm_cfft_f32.c **** {
  28              		.loc 1 850 1 view -0
  29              		.cfi_startproc
  30              		@ args = 0, pretend = 0, frame = 64
  31              		@ frame_needed = 0, uses_anonymous_args = 0
  32              		.loc 1 850 1 is_stmt 0 view .LVU1
  33 0000 F0B5     		push	{r4, r5, r6, r7, lr}
  34              	.LCFI0:
  35              		.cfi_def_cfa_offset 20
  36              		.cfi_offset 4, -20
  37              		.cfi_offset 5, -16
  38              		.cfi_offset 6, -12
  39              		.cfi_offset 7, -8
  40              		.cfi_offset 14, -4
  41 0002 2DED028B 		vpush.64	{d8}
  42              	.LCFI1:
  43              		.cfi_def_cfa_offset 28
  44              		.cfi_offset 80, -28
  45              		.cfi_offset 81, -24
  46 0006 91B0     		sub	sp, sp, #68
  47              	.LCFI2:
  48              		.cfi_def_cfa_offset 96
  49 0008 0446     		mov	r4, r0
  50 000a 0F46     		mov	r7, r1
 851:Drivers/CMSIS_DSP/Source/TransformFunctions/arm_cfft_f32.c ****   uint32_t    L  = S->fftLen;
  51              		.loc 1 851 3 is_stmt 1 view .LVU2
  52              		.loc 1 851 21 is_stmt 0 view .LVU3
  53 000c 0388     		ldrh	r3, [r0]
  54              	.LVL1:
 852:Drivers/CMSIS_DSP/Source/TransformFunctions/arm_cfft_f32.c ****   float32_t * pCol1, * pCol2, * pMid1, * pMid2;
  55              		.loc 1 852 3 is_stmt 1 view .LVU4
 853:Drivers/CMSIS_DSP/Source/TransformFunctions/arm_cfft_f32.c ****   float32_t * p2 = p1 + L;
  56              		.loc 1 853 3 view .LVU5
  57              		.loc 1 853 15 is_stmt 0 view .LVU6
  58 000e 01EB8305 		add	r5, r1, r3, lsl #2
  59              	.LVL2:
 854:Drivers/CMSIS_DSP/Source/TransformFunctions/arm_cfft_f32.c ****   const float32_t * tw = (float32_t *) S->pTwiddle;
ARM GAS  /tmp/ccSWltYc.s 			page 17


  60              		.loc 1 854 3 is_stmt 1 view .LVU7
  61              		.loc 1 854 21 is_stmt 0 view .LVU8
  62 0012 4168     		ldr	r1, [r0, #4]
  63              	.LVL3:
 855:Drivers/CMSIS_DSP/Source/TransformFunctions/arm_cfft_f32.c ****   float32_t t1[4], t2[4], t3[4], t4[4], twR, twI;
  64              		.loc 1 855 3 is_stmt 1 view .LVU9
 856:Drivers/CMSIS_DSP/Source/TransformFunctions/arm_cfft_f32.c ****   float32_t m0, m1, m2, m3;
  65              		.loc 1 856 3 view .LVU10
 857:Drivers/CMSIS_DSP/Source/TransformFunctions/arm_cfft_f32.c ****   uint32_t l;
  66              		.loc 1 857 3 view .LVU11
 858:Drivers/CMSIS_DSP/Source/TransformFunctions/arm_cfft_f32.c **** 
 859:Drivers/CMSIS_DSP/Source/TransformFunctions/arm_cfft_f32.c ****   pCol1 = p1;
  67              		.loc 1 859 3 view .LVU12
 860:Drivers/CMSIS_DSP/Source/TransformFunctions/arm_cfft_f32.c ****   pCol2 = p2;
  68              		.loc 1 860 3 view .LVU13
 861:Drivers/CMSIS_DSP/Source/TransformFunctions/arm_cfft_f32.c **** 
 862:Drivers/CMSIS_DSP/Source/TransformFunctions/arm_cfft_f32.c ****   /* Define new length */
 863:Drivers/CMSIS_DSP/Source/TransformFunctions/arm_cfft_f32.c ****   L >>= 1;
  69              		.loc 1 863 3 view .LVU14
  70              		.loc 1 863 5 is_stmt 0 view .LVU15
  71 0014 5E08     		lsrs	r6, r3, #1
  72              	.LVL4:
 864:Drivers/CMSIS_DSP/Source/TransformFunctions/arm_cfft_f32.c **** 
 865:Drivers/CMSIS_DSP/Source/TransformFunctions/arm_cfft_f32.c ****   /* Initialize mid pointers */
 866:Drivers/CMSIS_DSP/Source/TransformFunctions/arm_cfft_f32.c ****   pMid1 = p1 + L;
  73              		.loc 1 866 3 is_stmt 1 view .LVU16
  74              		.loc 1 866 9 is_stmt 0 view .LVU17
  75 0016 07EB860E 		add	lr, r7, r6, lsl #2
  76              	.LVL5:
 867:Drivers/CMSIS_DSP/Source/TransformFunctions/arm_cfft_f32.c ****   pMid2 = p2 + L;
  77              		.loc 1 867 3 is_stmt 1 view .LVU18
  78              		.loc 1 867 9 is_stmt 0 view .LVU19
  79 001a 05EB860C 		add	ip, r5, r6, lsl #2
  80              	.LVL6:
 868:Drivers/CMSIS_DSP/Source/TransformFunctions/arm_cfft_f32.c **** 
 869:Drivers/CMSIS_DSP/Source/TransformFunctions/arm_cfft_f32.c ****   /* do two dot Fourier transform */
 870:Drivers/CMSIS_DSP/Source/TransformFunctions/arm_cfft_f32.c ****   for (l = L >> 2; l > 0; l-- )
  81              		.loc 1 870 3 is_stmt 1 view .LVU20
  82              		.loc 1 870 10 is_stmt 0 view .LVU21
  83 001e D808     		lsrs	r0, r3, #3
  84              	.LVL7:
 853:Drivers/CMSIS_DSP/Source/TransformFunctions/arm_cfft_f32.c ****   const float32_t * tw = (float32_t *) S->pTwiddle;
  85              		.loc 1 853 15 view .LVU22
  86 0020 2A46     		mov	r2, r5
  87              		.loc 1 870 3 view .LVU23
  88 0022 3B46     		mov	r3, r7
  89 0024 CFE0     		b	.L2
  90              	.LVL8:
  91              	.L3:
 871:Drivers/CMSIS_DSP/Source/TransformFunctions/arm_cfft_f32.c ****   {
 872:Drivers/CMSIS_DSP/Source/TransformFunctions/arm_cfft_f32.c ****     t1[0] = p1[0];
  92              		.loc 1 872 5 is_stmt 1 view .LVU24
  93              		.loc 1 872 15 is_stmt 0 view .LVU25
  94 0026 93ED005A 		vldr.32	s10, [r3]
  95              		.loc 1 872 11 view .LVU26
  96 002a 8DED0C5A 		vstr.32	s10, [sp, #48]
 873:Drivers/CMSIS_DSP/Source/TransformFunctions/arm_cfft_f32.c ****     t1[1] = p1[1];
ARM GAS  /tmp/ccSWltYc.s 			page 18


  97              		.loc 1 873 5 is_stmt 1 view .LVU27
  98              		.loc 1 873 11 is_stmt 0 view .LVU28
  99 002e 93ED016A 		vldr.32	s12, [r3, #4]
 100 0032 8DED0D6A 		vstr.32	s12, [sp, #52]
 874:Drivers/CMSIS_DSP/Source/TransformFunctions/arm_cfft_f32.c ****     t1[2] = p1[2];
 101              		.loc 1 874 5 is_stmt 1 view .LVU29
 102              		.loc 1 874 11 is_stmt 0 view .LVU30
 103 0036 93ED023A 		vldr.32	s6, [r3, #8]
 104 003a 8DED0E3A 		vstr.32	s6, [sp, #56]
 875:Drivers/CMSIS_DSP/Source/TransformFunctions/arm_cfft_f32.c ****     t1[3] = p1[3];
 105              		.loc 1 875 5 is_stmt 1 view .LVU31
 106              		.loc 1 875 11 is_stmt 0 view .LVU32
 107 003e 93ED037A 		vldr.32	s14, [r3, #12]
 108 0042 8DED0F7A 		vstr.32	s14, [sp, #60]
 876:Drivers/CMSIS_DSP/Source/TransformFunctions/arm_cfft_f32.c **** 
 877:Drivers/CMSIS_DSP/Source/TransformFunctions/arm_cfft_f32.c ****     t2[0] = p2[0];
 109              		.loc 1 877 5 is_stmt 1 view .LVU33
 110              		.loc 1 877 15 is_stmt 0 view .LVU34
 111 0046 92ED000A 		vldr.32	s0, [r2]
 112              		.loc 1 877 11 view .LVU35
 113 004a 8DED080A 		vstr.32	s0, [sp, #32]
 878:Drivers/CMSIS_DSP/Source/TransformFunctions/arm_cfft_f32.c ****     t2[1] = p2[1];
 114              		.loc 1 878 5 is_stmt 1 view .LVU36
 115              		.loc 1 878 11 is_stmt 0 view .LVU37
 116 004e D2ED010A 		vldr.32	s1, [r2, #4]
 117 0052 CDED090A 		vstr.32	s1, [sp, #36]
 879:Drivers/CMSIS_DSP/Source/TransformFunctions/arm_cfft_f32.c ****     t2[2] = p2[2];
 118              		.loc 1 879 5 is_stmt 1 view .LVU38
 119              		.loc 1 879 11 is_stmt 0 view .LVU39
 120 0056 92ED021A 		vldr.32	s2, [r2, #8]
 121 005a 8DED0A1A 		vstr.32	s2, [sp, #40]
 880:Drivers/CMSIS_DSP/Source/TransformFunctions/arm_cfft_f32.c ****     t2[3] = p2[3];
 122              		.loc 1 880 5 is_stmt 1 view .LVU40
 123              		.loc 1 880 11 is_stmt 0 view .LVU41
 124 005e D2ED031A 		vldr.32	s3, [r2, #12]
 125 0062 CDED0B1A 		vstr.32	s3, [sp, #44]
 881:Drivers/CMSIS_DSP/Source/TransformFunctions/arm_cfft_f32.c **** 
 882:Drivers/CMSIS_DSP/Source/TransformFunctions/arm_cfft_f32.c ****     t3[0] = pMid1[0];
 126              		.loc 1 882 5 is_stmt 1 view .LVU42
 127              		.loc 1 882 18 is_stmt 0 view .LVU43
 128 0066 9EED002A 		vldr.32	s4, [lr]
 129              		.loc 1 882 11 view .LVU44
 130 006a 8DED042A 		vstr.32	s4, [sp, #16]
 883:Drivers/CMSIS_DSP/Source/TransformFunctions/arm_cfft_f32.c ****     t3[1] = pMid1[1];
 131              		.loc 1 883 5 is_stmt 1 view .LVU45
 132              		.loc 1 883 11 is_stmt 0 view .LVU46
 133 006e DEED012A 		vldr.32	s5, [lr, #4]
 134 0072 CDED052A 		vstr.32	s5, [sp, #20]
 884:Drivers/CMSIS_DSP/Source/TransformFunctions/arm_cfft_f32.c ****     t3[2] = pMid1[2];
 135              		.loc 1 884 5 is_stmt 1 view .LVU47
 136              		.loc 1 884 11 is_stmt 0 view .LVU48
 137 0076 9EED024A 		vldr.32	s8, [lr, #8]
 138 007a 8DED064A 		vstr.32	s8, [sp, #24]
 885:Drivers/CMSIS_DSP/Source/TransformFunctions/arm_cfft_f32.c ****     t3[3] = pMid1[3];
 139              		.loc 1 885 5 is_stmt 1 view .LVU49
 140              		.loc 1 885 11 is_stmt 0 view .LVU50
 141 007e DEED034A 		vldr.32	s9, [lr, #12]
ARM GAS  /tmp/ccSWltYc.s 			page 19


 142 0082 CDED074A 		vstr.32	s9, [sp, #28]
 886:Drivers/CMSIS_DSP/Source/TransformFunctions/arm_cfft_f32.c **** 
 887:Drivers/CMSIS_DSP/Source/TransformFunctions/arm_cfft_f32.c ****     t4[0] = pMid2[0];
 143              		.loc 1 887 5 is_stmt 1 view .LVU51
 144              		.loc 1 887 18 is_stmt 0 view .LVU52
 145 0086 DCED005A 		vldr.32	s11, [ip]
 146              		.loc 1 887 11 view .LVU53
 147 008a CDED005A 		vstr.32	s11, [sp]
 888:Drivers/CMSIS_DSP/Source/TransformFunctions/arm_cfft_f32.c ****     t4[1] = pMid2[1];
 148              		.loc 1 888 5 is_stmt 1 view .LVU54
 149              		.loc 1 888 11 is_stmt 0 view .LVU55
 150 008e DCED016A 		vldr.32	s13, [ip, #4]
 151 0092 CDED016A 		vstr.32	s13, [sp, #4]
 889:Drivers/CMSIS_DSP/Source/TransformFunctions/arm_cfft_f32.c ****     t4[2] = pMid2[2];
 152              		.loc 1 889 5 is_stmt 1 view .LVU56
 153              		.loc 1 889 11 is_stmt 0 view .LVU57
 154 0096 DCED023A 		vldr.32	s7, [ip, #8]
 155 009a CDED023A 		vstr.32	s7, [sp, #8]
 890:Drivers/CMSIS_DSP/Source/TransformFunctions/arm_cfft_f32.c ****     t4[3] = pMid2[3];
 156              		.loc 1 890 5 is_stmt 1 view .LVU58
 157              		.loc 1 890 11 is_stmt 0 view .LVU59
 158 009e DCED037A 		vldr.32	s15, [ip, #12]
 159 00a2 CDED037A 		vstr.32	s15, [sp, #12]
 891:Drivers/CMSIS_DSP/Source/TransformFunctions/arm_cfft_f32.c **** 
 892:Drivers/CMSIS_DSP/Source/TransformFunctions/arm_cfft_f32.c ****     *p1++ = t1[0] + t2[0];
 160              		.loc 1 892 5 is_stmt 1 view .LVU60
 161              	.LVL9:
 162              		.loc 1 892 19 is_stmt 0 view .LVU61
 163 00a6 35EE008A 		vadd.f32	s16, s10, s0
 164              		.loc 1 892 11 view .LVU62
 165 00aa 83ED008A 		vstr.32	s16, [r3]
 893:Drivers/CMSIS_DSP/Source/TransformFunctions/arm_cfft_f32.c ****     *p1++ = t1[1] + t2[1];
 166              		.loc 1 893 5 is_stmt 1 view .LVU63
 167              	.LVL10:
 168              		.loc 1 893 19 is_stmt 0 view .LVU64
 169 00ae 36EE208A 		vadd.f32	s16, s12, s1
 170              		.loc 1 893 11 view .LVU65
 171 00b2 83ED018A 		vstr.32	s16, [r3, #4]
 894:Drivers/CMSIS_DSP/Source/TransformFunctions/arm_cfft_f32.c ****     *p1++ = t1[2] + t2[2];
 172              		.loc 1 894 5 is_stmt 1 view .LVU66
 173              	.LVL11:
 174              		.loc 1 894 19 is_stmt 0 view .LVU67
 175 00b6 33EE018A 		vadd.f32	s16, s6, s2
 176              		.loc 1 894 11 view .LVU68
 177 00ba 83ED028A 		vstr.32	s16, [r3, #8]
 895:Drivers/CMSIS_DSP/Source/TransformFunctions/arm_cfft_f32.c ****     *p1++ = t1[3] + t2[3];    /* col 1 */
 178              		.loc 1 895 5 is_stmt 1 view .LVU69
 179              	.LVL12:
 180              		.loc 1 895 19 is_stmt 0 view .LVU70
 181 00be 37EE218A 		vadd.f32	s16, s14, s3
 182              		.loc 1 895 11 view .LVU71
 183 00c2 83ED038A 		vstr.32	s16, [r3, #12]
 896:Drivers/CMSIS_DSP/Source/TransformFunctions/arm_cfft_f32.c **** 
 897:Drivers/CMSIS_DSP/Source/TransformFunctions/arm_cfft_f32.c ****     t2[0] = t1[0] - t2[0];
 184              		.loc 1 897 5 is_stmt 1 view .LVU72
 185              		.loc 1 897 19 is_stmt 0 view .LVU73
 186 00c6 35EE405A 		vsub.f32	s10, s10, s0
ARM GAS  /tmp/ccSWltYc.s 			page 20


 187              		.loc 1 897 11 view .LVU74
 188 00ca 8DED085A 		vstr.32	s10, [sp, #32]
 898:Drivers/CMSIS_DSP/Source/TransformFunctions/arm_cfft_f32.c ****     t2[1] = t1[1] - t2[1];
 189              		.loc 1 898 5 is_stmt 1 view .LVU75
 190              		.loc 1 898 19 is_stmt 0 view .LVU76
 191 00ce 36EE606A 		vsub.f32	s12, s12, s1
 192              		.loc 1 898 11 view .LVU77
 193 00d2 8DED096A 		vstr.32	s12, [sp, #36]
 899:Drivers/CMSIS_DSP/Source/TransformFunctions/arm_cfft_f32.c ****     t2[2] = t1[2] - t2[2];
 194              		.loc 1 899 5 is_stmt 1 view .LVU78
 195              		.loc 1 899 19 is_stmt 0 view .LVU79
 196 00d6 33EE413A 		vsub.f32	s6, s6, s2
 197              		.loc 1 899 11 view .LVU80
 198 00da 8DED0A3A 		vstr.32	s6, [sp, #40]
 900:Drivers/CMSIS_DSP/Source/TransformFunctions/arm_cfft_f32.c ****     t2[3] = t1[3] - t2[3];    /* for col 2 */
 199              		.loc 1 900 5 is_stmt 1 view .LVU81
 200              		.loc 1 900 19 is_stmt 0 view .LVU82
 201 00de 37EE617A 		vsub.f32	s14, s14, s3
 202              		.loc 1 900 11 view .LVU83
 203 00e2 8DED0B7A 		vstr.32	s14, [sp, #44]
 901:Drivers/CMSIS_DSP/Source/TransformFunctions/arm_cfft_f32.c **** 
 902:Drivers/CMSIS_DSP/Source/TransformFunctions/arm_cfft_f32.c ****     *pMid1++ = t3[0] + t4[0];
 204              		.loc 1 902 5 is_stmt 1 view .LVU84
 205              	.LVL13:
 206              		.loc 1 902 22 is_stmt 0 view .LVU85
 207 00e6 72EE251A 		vadd.f32	s3, s4, s11
 208              		.loc 1 902 14 view .LVU86
 209 00ea CEED001A 		vstr.32	s3, [lr]
 903:Drivers/CMSIS_DSP/Source/TransformFunctions/arm_cfft_f32.c ****     *pMid1++ = t3[1] + t4[1];
 210              		.loc 1 903 5 is_stmt 1 view .LVU87
 211              	.LVL14:
 212              		.loc 1 903 22 is_stmt 0 view .LVU88
 213 00ee 72EEA61A 		vadd.f32	s3, s5, s13
 214              		.loc 1 903 14 view .LVU89
 215 00f2 CEED011A 		vstr.32	s3, [lr, #4]
 904:Drivers/CMSIS_DSP/Source/TransformFunctions/arm_cfft_f32.c ****     *pMid1++ = t3[2] + t4[2];
 216              		.loc 1 904 5 is_stmt 1 view .LVU90
 217              	.LVL15:
 218              		.loc 1 904 22 is_stmt 0 view .LVU91
 219 00f6 74EE231A 		vadd.f32	s3, s8, s7
 220              		.loc 1 904 14 view .LVU92
 221 00fa CEED021A 		vstr.32	s3, [lr, #8]
 905:Drivers/CMSIS_DSP/Source/TransformFunctions/arm_cfft_f32.c ****     *pMid1++ = t3[3] + t4[3]; /* col 1 */
 222              		.loc 1 905 5 is_stmt 1 view .LVU93
 223              	.LVL16:
 224              		.loc 1 905 22 is_stmt 0 view .LVU94
 225 00fe 74EEA71A 		vadd.f32	s3, s9, s15
 226              		.loc 1 905 14 view .LVU95
 227 0102 CEED031A 		vstr.32	s3, [lr, #12]
 906:Drivers/CMSIS_DSP/Source/TransformFunctions/arm_cfft_f32.c **** 
 907:Drivers/CMSIS_DSP/Source/TransformFunctions/arm_cfft_f32.c ****     t4[0] = t4[0] - t3[0];
 228              		.loc 1 907 5 is_stmt 1 view .LVU96
 229              		.loc 1 907 19 is_stmt 0 view .LVU97
 230 0106 75EEC25A 		vsub.f32	s11, s11, s4
 231              		.loc 1 907 11 view .LVU98
 232 010a CDED005A 		vstr.32	s11, [sp]
 908:Drivers/CMSIS_DSP/Source/TransformFunctions/arm_cfft_f32.c ****     t4[1] = t4[1] - t3[1];
ARM GAS  /tmp/ccSWltYc.s 			page 21


 233              		.loc 1 908 5 is_stmt 1 view .LVU99
 234              		.loc 1 908 19 is_stmt 0 view .LVU100
 235 010e 76EEE26A 		vsub.f32	s13, s13, s5
 236              		.loc 1 908 11 view .LVU101
 237 0112 CDED016A 		vstr.32	s13, [sp, #4]
 909:Drivers/CMSIS_DSP/Source/TransformFunctions/arm_cfft_f32.c ****     t4[2] = t4[2] - t3[2];
 238              		.loc 1 909 5 is_stmt 1 view .LVU102
 239              		.loc 1 909 19 is_stmt 0 view .LVU103
 240 0116 73EEC42A 		vsub.f32	s5, s7, s8
 241              		.loc 1 909 11 view .LVU104
 242 011a CDED022A 		vstr.32	s5, [sp, #8]
 910:Drivers/CMSIS_DSP/Source/TransformFunctions/arm_cfft_f32.c ****     t4[3] = t4[3] - t3[3];    /* for col 2 */
 243              		.loc 1 910 5 is_stmt 1 view .LVU105
 244              		.loc 1 910 19 is_stmt 0 view .LVU106
 245 011e 77EEE47A 		vsub.f32	s15, s15, s9
 246              		.loc 1 910 11 view .LVU107
 247 0122 CDED037A 		vstr.32	s15, [sp, #12]
 911:Drivers/CMSIS_DSP/Source/TransformFunctions/arm_cfft_f32.c **** 
 912:Drivers/CMSIS_DSP/Source/TransformFunctions/arm_cfft_f32.c ****     twR = *tw++;
 248              		.loc 1 912 5 is_stmt 1 view .LVU108
 249              	.LVL17:
 250              		.loc 1 912 9 is_stmt 0 view .LVU109
 251 0126 D1ED004A 		vldr.32	s9, [r1]
 252              	.LVL18:
 913:Drivers/CMSIS_DSP/Source/TransformFunctions/arm_cfft_f32.c ****     twI = *tw++;
 253              		.loc 1 913 5 is_stmt 1 view .LVU110
 254              		.loc 1 913 9 is_stmt 0 view .LVU111
 255 012a 91ED014A 		vldr.32	s8, [r1, #4]
 256              	.LVL19:
 914:Drivers/CMSIS_DSP/Source/TransformFunctions/arm_cfft_f32.c **** 
 915:Drivers/CMSIS_DSP/Source/TransformFunctions/arm_cfft_f32.c ****     /* multiply by twiddle factors */
 916:Drivers/CMSIS_DSP/Source/TransformFunctions/arm_cfft_f32.c ****     m0 = t2[0] * twR;
 257              		.loc 1 916 5 is_stmt 1 view .LVU112
 258              		.loc 1 916 8 is_stmt 0 view .LVU113
 259 012e 65EE243A 		vmul.f32	s7, s10, s9
 260              	.LVL20:
 917:Drivers/CMSIS_DSP/Source/TransformFunctions/arm_cfft_f32.c ****     m1 = t2[1] * twI;
 261              		.loc 1 917 5 is_stmt 1 view .LVU114
 262              		.loc 1 917 8 is_stmt 0 view .LVU115
 263 0132 26EE042A 		vmul.f32	s4, s12, s8
 264              	.LVL21:
 918:Drivers/CMSIS_DSP/Source/TransformFunctions/arm_cfft_f32.c ****     m2 = t2[1] * twR;
 265              		.loc 1 918 5 is_stmt 1 view .LVU116
 266              		.loc 1 918 8 is_stmt 0 view .LVU117
 267 0136 26EE246A 		vmul.f32	s12, s12, s9
 268              	.LVL22:
 919:Drivers/CMSIS_DSP/Source/TransformFunctions/arm_cfft_f32.c ****     m3 = t2[0] * twI;
 269              		.loc 1 919 5 is_stmt 1 view .LVU118
 270              		.loc 1 919 8 is_stmt 0 view .LVU119
 271 013a 25EE045A 		vmul.f32	s10, s10, s8
 272              	.LVL23:
 920:Drivers/CMSIS_DSP/Source/TransformFunctions/arm_cfft_f32.c **** 
 921:Drivers/CMSIS_DSP/Source/TransformFunctions/arm_cfft_f32.c ****     /* R  =  R  *  Tr - I * Ti */
 922:Drivers/CMSIS_DSP/Source/TransformFunctions/arm_cfft_f32.c ****     *p2++ = m0 + m1;
 273              		.loc 1 922 5 is_stmt 1 view .LVU120
 274              		.loc 1 922 16 is_stmt 0 view .LVU121
 275 013e 73EE823A 		vadd.f32	s7, s7, s4
ARM GAS  /tmp/ccSWltYc.s 			page 22


 276              	.LVL24:
 277              		.loc 1 922 11 view .LVU122
 278 0142 C2ED003A 		vstr.32	s7, [r2]
 923:Drivers/CMSIS_DSP/Source/TransformFunctions/arm_cfft_f32.c ****     /* I  =  I  *  Tr + R * Ti */
 924:Drivers/CMSIS_DSP/Source/TransformFunctions/arm_cfft_f32.c ****     *p2++ = m2 - m3;
 279              		.loc 1 924 5 is_stmt 1 view .LVU123
 280              	.LVL25:
 281              		.loc 1 924 16 is_stmt 0 view .LVU124
 282 0146 36EE456A 		vsub.f32	s12, s12, s10
 283              	.LVL26:
 284              		.loc 1 924 11 view .LVU125
 285 014a 82ED016A 		vstr.32	s12, [r2, #4]
 925:Drivers/CMSIS_DSP/Source/TransformFunctions/arm_cfft_f32.c **** 
 926:Drivers/CMSIS_DSP/Source/TransformFunctions/arm_cfft_f32.c ****     /* use vertical symmetry */
 927:Drivers/CMSIS_DSP/Source/TransformFunctions/arm_cfft_f32.c ****     /*  0.9988 - 0.0491i <==> -0.0491 - 0.9988i */
 928:Drivers/CMSIS_DSP/Source/TransformFunctions/arm_cfft_f32.c ****     m0 = t4[0] * twI;
 286              		.loc 1 928 5 is_stmt 1 view .LVU126
 287              		.loc 1 928 8 is_stmt 0 view .LVU127
 288 014e 25EE846A 		vmul.f32	s12, s11, s8
 289              	.LVL27:
 929:Drivers/CMSIS_DSP/Source/TransformFunctions/arm_cfft_f32.c ****     m1 = t4[1] * twR;
 290              		.loc 1 929 5 is_stmt 1 view .LVU128
 291              		.loc 1 929 8 is_stmt 0 view .LVU129
 292 0152 26EEA45A 		vmul.f32	s10, s13, s9
 293              	.LVL28:
 930:Drivers/CMSIS_DSP/Source/TransformFunctions/arm_cfft_f32.c ****     m2 = t4[1] * twI;
 294              		.loc 1 930 5 is_stmt 1 view .LVU130
 295              		.loc 1 930 8 is_stmt 0 view .LVU131
 296 0156 66EE846A 		vmul.f32	s13, s13, s8
 297              	.LVL29:
 931:Drivers/CMSIS_DSP/Source/TransformFunctions/arm_cfft_f32.c ****     m3 = t4[0] * twR;
 298              		.loc 1 931 5 is_stmt 1 view .LVU132
 299              		.loc 1 931 8 is_stmt 0 view .LVU133
 300 015a 65EEA45A 		vmul.f32	s11, s11, s9
 301              	.LVL30:
 932:Drivers/CMSIS_DSP/Source/TransformFunctions/arm_cfft_f32.c **** 
 933:Drivers/CMSIS_DSP/Source/TransformFunctions/arm_cfft_f32.c ****     *pMid2++ = m0 - m1;
 302              		.loc 1 933 5 is_stmt 1 view .LVU134
 303              		.loc 1 933 19 is_stmt 0 view .LVU135
 304 015e 36EE456A 		vsub.f32	s12, s12, s10
 305              	.LVL31:
 306              		.loc 1 933 14 view .LVU136
 307 0162 8CED006A 		vstr.32	s12, [ip]
 934:Drivers/CMSIS_DSP/Source/TransformFunctions/arm_cfft_f32.c ****     *pMid2++ = m2 + m3;
 308              		.loc 1 934 5 is_stmt 1 view .LVU137
 309              	.LVL32:
 310              		.loc 1 934 19 is_stmt 0 view .LVU138
 311 0166 76EEA56A 		vadd.f32	s13, s13, s11
 312              	.LVL33:
 313              		.loc 1 934 14 view .LVU139
 314 016a CCED016A 		vstr.32	s13, [ip, #4]
 935:Drivers/CMSIS_DSP/Source/TransformFunctions/arm_cfft_f32.c **** 
 936:Drivers/CMSIS_DSP/Source/TransformFunctions/arm_cfft_f32.c ****     twR = *tw++;
 315              		.loc 1 936 5 is_stmt 1 view .LVU140
 316              	.LVL34:
 317              		.loc 1 936 9 is_stmt 0 view .LVU141
 318 016e 91ED026A 		vldr.32	s12, [r1, #8]
ARM GAS  /tmp/ccSWltYc.s 			page 23


 319              	.LVL35:
 937:Drivers/CMSIS_DSP/Source/TransformFunctions/arm_cfft_f32.c ****     twI = *tw++;
 320              		.loc 1 937 5 is_stmt 1 view .LVU142
 321              		.loc 1 937 9 is_stmt 0 view .LVU143
 322 0172 D1ED035A 		vldr.32	s11, [r1, #12]
 323              	.LVL36:
 938:Drivers/CMSIS_DSP/Source/TransformFunctions/arm_cfft_f32.c **** 
 939:Drivers/CMSIS_DSP/Source/TransformFunctions/arm_cfft_f32.c ****     m0 = t2[2] * twR;
 324              		.loc 1 939 5 is_stmt 1 view .LVU144
 325              		.loc 1 939 8 is_stmt 0 view .LVU145
 326 0176 23EE065A 		vmul.f32	s10, s6, s12
 327              	.LVL37:
 940:Drivers/CMSIS_DSP/Source/TransformFunctions/arm_cfft_f32.c ****     m1 = t2[3] * twI;
 328              		.loc 1 940 5 is_stmt 1 view .LVU146
 329              		.loc 1 940 8 is_stmt 0 view .LVU147
 330 017a 67EE254A 		vmul.f32	s9, s14, s11
 331              	.LVL38:
 941:Drivers/CMSIS_DSP/Source/TransformFunctions/arm_cfft_f32.c ****     m2 = t2[3] * twR;
 332              		.loc 1 941 5 is_stmt 1 view .LVU148
 333              		.loc 1 941 8 is_stmt 0 view .LVU149
 334 017e 27EE067A 		vmul.f32	s14, s14, s12
 335              	.LVL39:
 942:Drivers/CMSIS_DSP/Source/TransformFunctions/arm_cfft_f32.c ****     m3 = t2[2] * twI;
 336              		.loc 1 942 5 is_stmt 1 view .LVU150
 337              		.loc 1 942 8 is_stmt 0 view .LVU151
 338 0182 63EE256A 		vmul.f32	s13, s6, s11
 339              	.LVL40:
 943:Drivers/CMSIS_DSP/Source/TransformFunctions/arm_cfft_f32.c **** 
 944:Drivers/CMSIS_DSP/Source/TransformFunctions/arm_cfft_f32.c ****     *p2++ = m0 + m1;
 340              		.loc 1 944 5 is_stmt 1 view .LVU152
 341              		.loc 1 944 16 is_stmt 0 view .LVU153
 342 0186 35EE245A 		vadd.f32	s10, s10, s9
 343              	.LVL41:
 344              		.loc 1 944 11 view .LVU154
 345 018a 82ED025A 		vstr.32	s10, [r2, #8]
 945:Drivers/CMSIS_DSP/Source/TransformFunctions/arm_cfft_f32.c ****     *p2++ = m2 - m3;
 346              		.loc 1 945 5 is_stmt 1 view .LVU155
 347              	.LVL42:
 348              		.loc 1 945 16 is_stmt 0 view .LVU156
 349 018e 37EE667A 		vsub.f32	s14, s14, s13
 350              	.LVL43:
 351              		.loc 1 945 11 view .LVU157
 352 0192 82ED037A 		vstr.32	s14, [r2, #12]
 946:Drivers/CMSIS_DSP/Source/TransformFunctions/arm_cfft_f32.c **** 
 947:Drivers/CMSIS_DSP/Source/TransformFunctions/arm_cfft_f32.c ****     m0 = t4[2] * twI;
 353              		.loc 1 947 5 is_stmt 1 view .LVU158
 354              		.loc 1 947 8 is_stmt 0 view .LVU159
 355 0196 62EEA56A 		vmul.f32	s13, s5, s11
 356              	.LVL44:
 948:Drivers/CMSIS_DSP/Source/TransformFunctions/arm_cfft_f32.c ****     m1 = t4[3] * twR;
 357              		.loc 1 948 5 is_stmt 1 view .LVU160
 358              		.loc 1 948 8 is_stmt 0 view .LVU161
 359 019a 27EE865A 		vmul.f32	s10, s15, s12
 360              	.LVL45:
 949:Drivers/CMSIS_DSP/Source/TransformFunctions/arm_cfft_f32.c ****     m2 = t4[3] * twI;
 361              		.loc 1 949 5 is_stmt 1 view .LVU162
 362              		.loc 1 949 8 is_stmt 0 view .LVU163
ARM GAS  /tmp/ccSWltYc.s 			page 24


 363 019e 67EEA57A 		vmul.f32	s15, s15, s11
 364              	.LVL46:
 950:Drivers/CMSIS_DSP/Source/TransformFunctions/arm_cfft_f32.c ****     m3 = t4[2] * twR;
 365              		.loc 1 950 5 is_stmt 1 view .LVU164
 366              		.loc 1 950 8 is_stmt 0 view .LVU165
 367 01a2 22EE867A 		vmul.f32	s14, s5, s12
 368              	.LVL47:
 951:Drivers/CMSIS_DSP/Source/TransformFunctions/arm_cfft_f32.c **** 
 952:Drivers/CMSIS_DSP/Source/TransformFunctions/arm_cfft_f32.c ****     *pMid2++ = m0 - m1;
 369              		.loc 1 952 5 is_stmt 1 view .LVU166
 370              		.loc 1 952 19 is_stmt 0 view .LVU167
 371 01a6 76EEC56A 		vsub.f32	s13, s13, s10
 372              	.LVL48:
 373              		.loc 1 952 14 view .LVU168
 374 01aa CCED026A 		vstr.32	s13, [ip, #8]
 953:Drivers/CMSIS_DSP/Source/TransformFunctions/arm_cfft_f32.c ****     *pMid2++ = m2 + m3;
 375              		.loc 1 953 5 is_stmt 1 view .LVU169
 376              	.LVL49:
 377              		.loc 1 953 19 is_stmt 0 view .LVU170
 378 01ae 77EE877A 		vadd.f32	s15, s15, s14
 379              	.LVL50:
 380              		.loc 1 953 14 view .LVU171
 381 01b2 CCED037A 		vstr.32	s15, [ip, #12]
 870:Drivers/CMSIS_DSP/Source/TransformFunctions/arm_cfft_f32.c ****   {
 382              		.loc 1 870 28 is_stmt 1 discriminator 3 view .LVU172
 383 01b6 0138     		subs	r0, r0, #1
 384              	.LVL51:
 937:Drivers/CMSIS_DSP/Source/TransformFunctions/arm_cfft_f32.c **** 
 385              		.loc 1 937 14 is_stmt 0 view .LVU173
 386 01b8 1031     		adds	r1, r1, #16
 387              	.LVL52:
 945:Drivers/CMSIS_DSP/Source/TransformFunctions/arm_cfft_f32.c **** 
 388              		.loc 1 945 8 view .LVU174
 389 01ba 1032     		adds	r2, r2, #16
 390              	.LVL53:
 391              		.loc 1 953 11 view .LVU175
 392 01bc 0CF1100C 		add	ip, ip, #16
 393              	.LVL54:
 905:Drivers/CMSIS_DSP/Source/TransformFunctions/arm_cfft_f32.c **** 
 394              		.loc 1 905 11 view .LVU176
 395 01c0 0EF1100E 		add	lr, lr, #16
 396              	.LVL55:
 895:Drivers/CMSIS_DSP/Source/TransformFunctions/arm_cfft_f32.c **** 
 397              		.loc 1 895 8 view .LVU177
 398 01c4 1033     		adds	r3, r3, #16
 399              	.LVL56:
 400              	.L2:
 870:Drivers/CMSIS_DSP/Source/TransformFunctions/arm_cfft_f32.c ****   {
 401              		.loc 1 870 22 is_stmt 1 discriminator 1 view .LVU178
 402 01c6 0028     		cmp	r0, #0
 403 01c8 7FF42DAF 		bne	.L3
 954:Drivers/CMSIS_DSP/Source/TransformFunctions/arm_cfft_f32.c ****   }
 955:Drivers/CMSIS_DSP/Source/TransformFunctions/arm_cfft_f32.c **** 
 956:Drivers/CMSIS_DSP/Source/TransformFunctions/arm_cfft_f32.c ****   /* first col */
 957:Drivers/CMSIS_DSP/Source/TransformFunctions/arm_cfft_f32.c ****   arm_radix8_butterfly_f32 (pCol1, L, (float32_t *) S->pTwiddle, 2U);
 404              		.loc 1 957 3 view .LVU179
 405 01cc B6B2     		uxth	r6, r6
ARM GAS  /tmp/ccSWltYc.s 			page 25


 406              	.LVL57:
 407              		.loc 1 957 3 is_stmt 0 view .LVU180
 408 01ce 0223     		movs	r3, #2
 409              	.LVL58:
 410              		.loc 1 957 3 view .LVU181
 411 01d0 6268     		ldr	r2, [r4, #4]
 412              	.LVL59:
 413              		.loc 1 957 3 view .LVU182
 414 01d2 3146     		mov	r1, r6
 415              	.LVL60:
 416              		.loc 1 957 3 view .LVU183
 417 01d4 3846     		mov	r0, r7
 418              	.LVL61:
 419              		.loc 1 957 3 view .LVU184
 420 01d6 FFF7FEFF 		bl	arm_radix8_butterfly_f32
 421              	.LVL62:
 958:Drivers/CMSIS_DSP/Source/TransformFunctions/arm_cfft_f32.c **** 
 959:Drivers/CMSIS_DSP/Source/TransformFunctions/arm_cfft_f32.c ****   /* second col */
 960:Drivers/CMSIS_DSP/Source/TransformFunctions/arm_cfft_f32.c ****   arm_radix8_butterfly_f32 (pCol2, L, (float32_t *) S->pTwiddle, 2U);
 422              		.loc 1 960 3 is_stmt 1 view .LVU185
 423 01da 0223     		movs	r3, #2
 424 01dc 6268     		ldr	r2, [r4, #4]
 425 01de 3146     		mov	r1, r6
 426 01e0 2846     		mov	r0, r5
 427 01e2 FFF7FEFF 		bl	arm_radix8_butterfly_f32
 428              	.LVL63:
 961:Drivers/CMSIS_DSP/Source/TransformFunctions/arm_cfft_f32.c **** }
 429              		.loc 1 961 1 is_stmt 0 view .LVU186
 430 01e6 11B0     		add	sp, sp, #68
 431              	.LCFI3:
 432              		.cfi_def_cfa_offset 28
 433              		@ sp needed
 434 01e8 BDEC028B 		vldm	sp!, {d8}
 435              	.LCFI4:
 436              		.cfi_restore 80
 437              		.cfi_restore 81
 438              		.cfi_def_cfa_offset 20
 439 01ec F0BD     		pop	{r4, r5, r6, r7, pc}
 440              		.loc 1 961 1 view .LVU187
 441              		.cfi_endproc
 442              	.LFE117:
 444              		.section	.text.arm_cfft_radix8by4_f32,"ax",%progbits
 445              		.align	1
 446              		.syntax unified
 447              		.thumb
 448              		.thumb_func
 450              	arm_cfft_radix8by4_f32:
 451              	.LVL64:
 452              	.LFB118:
 962:Drivers/CMSIS_DSP/Source/TransformFunctions/arm_cfft_f32.c **** 
 963:Drivers/CMSIS_DSP/Source/TransformFunctions/arm_cfft_f32.c **** static void arm_cfft_radix8by4_f32 (arm_cfft_instance_f32 * S, float32_t * p1)
 964:Drivers/CMSIS_DSP/Source/TransformFunctions/arm_cfft_f32.c **** {
 453              		.loc 1 964 1 is_stmt 1 view -0
 454              		.cfi_startproc
 455              		@ args = 0, pretend = 0, frame = 80
 456              		@ frame_needed = 0, uses_anonymous_args = 0
 457              		.loc 1 964 1 is_stmt 0 view .LVU189
ARM GAS  /tmp/ccSWltYc.s 			page 26


 458 0000 2DE9F04F 		push	{r4, r5, r6, r7, r8, r9, r10, fp, lr}
 459              	.LCFI5:
 460              		.cfi_def_cfa_offset 36
 461              		.cfi_offset 4, -36
 462              		.cfi_offset 5, -32
 463              		.cfi_offset 6, -28
 464              		.cfi_offset 7, -24
 465              		.cfi_offset 8, -20
 466              		.cfi_offset 9, -16
 467              		.cfi_offset 10, -12
 468              		.cfi_offset 11, -8
 469              		.cfi_offset 14, -4
 470 0004 2DED048B 		vpush.64	{d8, d9}
 471              	.LCFI6:
 472              		.cfi_def_cfa_offset 52
 473              		.cfi_offset 80, -52
 474              		.cfi_offset 81, -48
 475              		.cfi_offset 82, -44
 476              		.cfi_offset 83, -40
 477 0008 95B0     		sub	sp, sp, #84
 478              	.LCFI7:
 479              		.cfi_def_cfa_offset 136
 480 000a 0490     		str	r0, [sp, #16]
 481 000c 0A46     		mov	r2, r1
 482 000e 0591     		str	r1, [sp, #20]
 965:Drivers/CMSIS_DSP/Source/TransformFunctions/arm_cfft_f32.c ****     uint32_t    L  = S->fftLen >> 1;
 483              		.loc 1 965 5 is_stmt 1 view .LVU190
 484              		.loc 1 965 23 is_stmt 0 view .LVU191
 485 0010 0388     		ldrh	r3, [r0]
 486              		.loc 1 965 32 view .LVU192
 487 0012 5B08     		lsrs	r3, r3, #1
 488              	.LVL65:
 966:Drivers/CMSIS_DSP/Source/TransformFunctions/arm_cfft_f32.c ****     float32_t * pCol1, *pCol2, *pCol3, *pCol4, *pEnd1, *pEnd2, *pEnd3, *pEnd4;
 489              		.loc 1 966 5 is_stmt 1 view .LVU193
 967:Drivers/CMSIS_DSP/Source/TransformFunctions/arm_cfft_f32.c ****     const float32_t *tw2, *tw3, *tw4;
 490              		.loc 1 967 5 view .LVU194
 968:Drivers/CMSIS_DSP/Source/TransformFunctions/arm_cfft_f32.c ****     float32_t * p2 = p1 + L;
 491              		.loc 1 968 5 view .LVU195
 492              		.loc 1 968 17 is_stmt 0 view .LVU196
 493 0014 01EB8306 		add	r6, r1, r3, lsl #2
 494              	.LVL66:
 969:Drivers/CMSIS_DSP/Source/TransformFunctions/arm_cfft_f32.c ****     float32_t * p3 = p2 + L;
 495              		.loc 1 969 5 is_stmt 1 view .LVU197
 496              		.loc 1 969 17 is_stmt 0 view .LVU198
 497 0018 01EBC301 		add	r1, r1, r3, lsl #3
 498              	.LVL67:
 499              		.loc 1 969 17 view .LVU199
 500 001c 0C46     		mov	r4, r1
 501 001e 0291     		str	r1, [sp, #8]
 502              	.LVL68:
 970:Drivers/CMSIS_DSP/Source/TransformFunctions/arm_cfft_f32.c ****     float32_t * p4 = p3 + L;
 503              		.loc 1 970 5 is_stmt 1 view .LVU200
 504              		.loc 1 970 17 is_stmt 0 view .LVU201
 505 0020 01EB8305 		add	r5, r1, r3, lsl #2
 506              	.LVL69:
 971:Drivers/CMSIS_DSP/Source/TransformFunctions/arm_cfft_f32.c ****     float32_t t2[4], t3[4], t4[4], twR, twI;
 507              		.loc 1 971 5 is_stmt 1 view .LVU202
ARM GAS  /tmp/ccSWltYc.s 			page 27


 972:Drivers/CMSIS_DSP/Source/TransformFunctions/arm_cfft_f32.c ****     float32_t p1ap3_0, p1sp3_0, p1ap3_1, p1sp3_1;
 508              		.loc 1 972 5 view .LVU203
 973:Drivers/CMSIS_DSP/Source/TransformFunctions/arm_cfft_f32.c ****     float32_t m0, m1, m2, m3;
 509              		.loc 1 973 5 view .LVU204
 974:Drivers/CMSIS_DSP/Source/TransformFunctions/arm_cfft_f32.c ****     uint32_t l, twMod2, twMod3, twMod4;
 510              		.loc 1 974 5 view .LVU205
 975:Drivers/CMSIS_DSP/Source/TransformFunctions/arm_cfft_f32.c **** 
 976:Drivers/CMSIS_DSP/Source/TransformFunctions/arm_cfft_f32.c ****     pCol1 = p1;         /* points to real values by default */
 511              		.loc 1 976 5 view .LVU206
 977:Drivers/CMSIS_DSP/Source/TransformFunctions/arm_cfft_f32.c ****     pCol2 = p2;
 512              		.loc 1 977 5 view .LVU207
 978:Drivers/CMSIS_DSP/Source/TransformFunctions/arm_cfft_f32.c ****     pCol3 = p3;
 513              		.loc 1 978 5 view .LVU208
 979:Drivers/CMSIS_DSP/Source/TransformFunctions/arm_cfft_f32.c ****     pCol4 = p4;
 514              		.loc 1 979 5 view .LVU209
 980:Drivers/CMSIS_DSP/Source/TransformFunctions/arm_cfft_f32.c ****     pEnd1 = p2 - 1;     /* points to imaginary values by default */
 515              		.loc 1 980 5 view .LVU210
 516              		.loc 1 980 11 is_stmt 0 view .LVU211
 517 0024 311F     		subs	r1, r6, #4
 518              	.LVL70:
 519              		.loc 1 980 11 view .LVU212
 520 0026 0191     		str	r1, [sp, #4]
 521              	.LVL71:
 981:Drivers/CMSIS_DSP/Source/TransformFunctions/arm_cfft_f32.c ****     pEnd2 = p3 - 1;
 522              		.loc 1 981 5 is_stmt 1 view .LVU213
 982:Drivers/CMSIS_DSP/Source/TransformFunctions/arm_cfft_f32.c ****     pEnd3 = p4 - 1;
 523              		.loc 1 982 5 view .LVU214
 524              		.loc 1 982 11 is_stmt 0 view .LVU215
 525 0028 A5F1040C 		sub	ip, r5, #4
 526              	.LVL72:
 983:Drivers/CMSIS_DSP/Source/TransformFunctions/arm_cfft_f32.c ****     pEnd4 = pEnd3 + L;
 527              		.loc 1 983 5 is_stmt 1 view .LVU216
 528              		.loc 1 983 11 is_stmt 0 view .LVU217
 529 002c 0CEB8301 		add	r1, ip, r3, lsl #2
 530              	.LVL73:
 984:Drivers/CMSIS_DSP/Source/TransformFunctions/arm_cfft_f32.c **** 
 985:Drivers/CMSIS_DSP/Source/TransformFunctions/arm_cfft_f32.c ****     tw2 = tw3 = tw4 = (float32_t *) S->pTwiddle;
 531              		.loc 1 985 5 is_stmt 1 view .LVU218
 532              		.loc 1 985 21 is_stmt 0 view .LVU219
 533 0030 D0F804E0 		ldr	lr, [r0, #4]
 534              	.LVL74:
 986:Drivers/CMSIS_DSP/Source/TransformFunctions/arm_cfft_f32.c **** 
 987:Drivers/CMSIS_DSP/Source/TransformFunctions/arm_cfft_f32.c ****     L >>= 1;
 535              		.loc 1 987 5 is_stmt 1 view .LVU220
 536              		.loc 1 987 7 is_stmt 0 view .LVU221
 537 0034 5B08     		lsrs	r3, r3, #1
 538              	.LVL75:
 539              		.loc 1 987 7 view .LVU222
 540 0036 1F46     		mov	r7, r3
 541 0038 0393     		str	r3, [sp, #12]
 542              	.LVL76:
 988:Drivers/CMSIS_DSP/Source/TransformFunctions/arm_cfft_f32.c **** 
 989:Drivers/CMSIS_DSP/Source/TransformFunctions/arm_cfft_f32.c ****     /* do four dot Fourier transform */
 990:Drivers/CMSIS_DSP/Source/TransformFunctions/arm_cfft_f32.c **** 
 991:Drivers/CMSIS_DSP/Source/TransformFunctions/arm_cfft_f32.c ****     twMod2 = 2;
 543              		.loc 1 991 5 is_stmt 1 view .LVU223
 992:Drivers/CMSIS_DSP/Source/TransformFunctions/arm_cfft_f32.c ****     twMod3 = 4;
ARM GAS  /tmp/ccSWltYc.s 			page 28


 544              		.loc 1 992 5 view .LVU224
 993:Drivers/CMSIS_DSP/Source/TransformFunctions/arm_cfft_f32.c ****     twMod4 = 6;
 545              		.loc 1 993 5 view .LVU225
 994:Drivers/CMSIS_DSP/Source/TransformFunctions/arm_cfft_f32.c **** 
 995:Drivers/CMSIS_DSP/Source/TransformFunctions/arm_cfft_f32.c ****     /* TOP */
 996:Drivers/CMSIS_DSP/Source/TransformFunctions/arm_cfft_f32.c ****     p1ap3_0 = p1[0] + p3[0];
 546              		.loc 1 996 5 view .LVU226
 547              		.loc 1 996 17 is_stmt 0 view .LVU227
 548 003a 92ED007A 		vldr.32	s14, [r2]
 549              		.loc 1 996 25 view .LVU228
 550 003e A4F10408 		sub	r8, r4, #4
 551              	.LVL77:
 552              		.loc 1 996 25 view .LVU229
 553 0042 D4ED007A 		vldr.32	s15, [r4]
 554              		.loc 1 996 13 view .LVU230
 555 0046 37EE272A 		vadd.f32	s4, s14, s15
 556              	.LVL78:
 997:Drivers/CMSIS_DSP/Source/TransformFunctions/arm_cfft_f32.c ****     p1sp3_0 = p1[0] - p3[0];
 557              		.loc 1 997 5 is_stmt 1 view .LVU231
 558              		.loc 1 997 13 is_stmt 0 view .LVU232
 559 004a 37EE677A 		vsub.f32	s14, s14, s15
 560              	.LVL79:
 998:Drivers/CMSIS_DSP/Source/TransformFunctions/arm_cfft_f32.c ****     p1ap3_1 = p1[1] + p3[1];
 561              		.loc 1 998 5 is_stmt 1 view .LVU233
 562              		.loc 1 998 17 is_stmt 0 view .LVU234
 563 004e D2ED017A 		vldr.32	s15, [r2, #4]
 564              		.loc 1 998 25 view .LVU235
 565 0052 2046     		mov	r0, r4
 566              	.LVL80:
 567              		.loc 1 998 25 view .LVU236
 568 0054 D4ED016A 		vldr.32	s13, [r4, #4]
 569              		.loc 1 998 13 view .LVU237
 570 0058 77EEA62A 		vadd.f32	s5, s15, s13
 571              	.LVL81:
 999:Drivers/CMSIS_DSP/Source/TransformFunctions/arm_cfft_f32.c ****     p1sp3_1 = p1[1] - p3[1];
 572              		.loc 1 999 5 is_stmt 1 view .LVU238
 573              		.loc 1 999 13 is_stmt 0 view .LVU239
 574 005c 77EEE67A 		vsub.f32	s15, s15, s13
 575              	.LVL82:
1000:Drivers/CMSIS_DSP/Source/TransformFunctions/arm_cfft_f32.c **** 
1001:Drivers/CMSIS_DSP/Source/TransformFunctions/arm_cfft_f32.c ****     /* col 2 */
1002:Drivers/CMSIS_DSP/Source/TransformFunctions/arm_cfft_f32.c ****     t2[0] = p1sp3_0 + p2[1] - p4[1];
 576              		.loc 1 1002 5 is_stmt 1 view .LVU240
 577              		.loc 1 1002 25 is_stmt 0 view .LVU241
 578 0060 96ED013A 		vldr.32	s6, [r6, #4]
 579              		.loc 1 1002 21 view .LVU242
 580 0064 73EE073A 		vadd.f32	s7, s6, s14
 581              		.loc 1 1002 33 view .LVU243
 582 0068 D5ED016A 		vldr.32	s13, [r5, #4]
 583              		.loc 1 1002 29 view .LVU244
 584 006c 73EEE63A 		vsub.f32	s7, s7, s13
 585              		.loc 1 1002 11 view .LVU245
 586 0070 CDED103A 		vstr.32	s7, [sp, #64]
1003:Drivers/CMSIS_DSP/Source/TransformFunctions/arm_cfft_f32.c ****     t2[1] = p1sp3_1 - p2[0] + p4[0];
 587              		.loc 1 1003 5 is_stmt 1 view .LVU246
 588              		.loc 1 1003 25 is_stmt 0 view .LVU247
 589 0074 D6ED005A 		vldr.32	s11, [r6]
ARM GAS  /tmp/ccSWltYc.s 			page 29


 590              		.loc 1 1003 21 view .LVU248
 591 0078 37EEE54A 		vsub.f32	s8, s15, s11
 592              		.loc 1 1003 33 view .LVU249
 593 007c 95ED006A 		vldr.32	s12, [r5]
 594              		.loc 1 1003 29 view .LVU250
 595 0080 34EE064A 		vadd.f32	s8, s8, s12
 596              		.loc 1 1003 11 view .LVU251
 597 0084 8DED114A 		vstr.32	s8, [sp, #68]
1004:Drivers/CMSIS_DSP/Source/TransformFunctions/arm_cfft_f32.c ****     /* col 3 */
1005:Drivers/CMSIS_DSP/Source/TransformFunctions/arm_cfft_f32.c ****     t3[0] = p1ap3_0 - p2[0] - p4[0];
 598              		.loc 1 1005 5 is_stmt 1 view .LVU252
 599              		.loc 1 1005 21 is_stmt 0 view .LVU253
 600 0088 72EE654A 		vsub.f32	s9, s4, s11
 601              		.loc 1 1005 29 view .LVU254
 602 008c 74EEC64A 		vsub.f32	s9, s9, s12
 603              		.loc 1 1005 11 view .LVU255
 604 0090 CDED0C4A 		vstr.32	s9, [sp, #48]
1006:Drivers/CMSIS_DSP/Source/TransformFunctions/arm_cfft_f32.c ****     t3[1] = p1ap3_1 - p2[1] - p4[1];
 605              		.loc 1 1006 5 is_stmt 1 view .LVU256
 606              		.loc 1 1006 21 is_stmt 0 view .LVU257
 607 0094 32EEC35A 		vsub.f32	s10, s5, s6
 608              		.loc 1 1006 29 view .LVU258
 609 0098 35EE665A 		vsub.f32	s10, s10, s13
 610              		.loc 1 1006 11 view .LVU259
 611 009c 8DED0D5A 		vstr.32	s10, [sp, #52]
1007:Drivers/CMSIS_DSP/Source/TransformFunctions/arm_cfft_f32.c ****     /* col 4 */
1008:Drivers/CMSIS_DSP/Source/TransformFunctions/arm_cfft_f32.c ****     t4[0] = p1sp3_0 - p2[1] + p4[1];
 612              		.loc 1 1008 5 is_stmt 1 view .LVU260
 613              		.loc 1 1008 21 is_stmt 0 view .LVU261
 614 00a0 37EE437A 		vsub.f32	s14, s14, s6
 615              	.LVL83:
 616              		.loc 1 1008 29 view .LVU262
 617 00a4 76EE876A 		vadd.f32	s13, s13, s14
 618              		.loc 1 1008 11 view .LVU263
 619 00a8 CDED086A 		vstr.32	s13, [sp, #32]
1009:Drivers/CMSIS_DSP/Source/TransformFunctions/arm_cfft_f32.c ****     t4[1] = p1sp3_1 + p2[0] - p4[0];
 620              		.loc 1 1009 5 is_stmt 1 view .LVU264
 621              		.loc 1 1009 21 is_stmt 0 view .LVU265
 622 00ac 75EEA77A 		vadd.f32	s15, s11, s15
 623              	.LVL84:
 624              		.loc 1 1009 29 view .LVU266
 625 00b0 77EEC67A 		vsub.f32	s15, s15, s12
 626              		.loc 1 1009 11 view .LVU267
 627 00b4 CDED097A 		vstr.32	s15, [sp, #36]
1010:Drivers/CMSIS_DSP/Source/TransformFunctions/arm_cfft_f32.c ****     /* col 1 */
1011:Drivers/CMSIS_DSP/Source/TransformFunctions/arm_cfft_f32.c ****     *p1++ = p1ap3_0 + p2[0] + p4[0];
 628              		.loc 1 1011 5 is_stmt 1 view .LVU268
 629              		.loc 1 1011 21 is_stmt 0 view .LVU269
 630 00b8 75EE825A 		vadd.f32	s11, s11, s4
 631              	.LVL85:
 632              		.loc 1 1011 29 view .LVU270
 633 00bc 36EE256A 		vadd.f32	s12, s12, s11
 634              		.loc 1 1011 11 view .LVU271
 635 00c0 02F10809 		add	r9, r2, #8
 636 00c4 82ED006A 		vstr.32	s12, [r2]
 637              	.LVL86:
1012:Drivers/CMSIS_DSP/Source/TransformFunctions/arm_cfft_f32.c ****     *p1++ = p1ap3_1 + p2[1] + p4[1];
ARM GAS  /tmp/ccSWltYc.s 			page 30


 638              		.loc 1 1012 5 is_stmt 1 view .LVU272
 639              		.loc 1 1012 25 is_stmt 0 view .LVU273
 640 00c8 96ED017A 		vldr.32	s14, [r6, #4]
 641              		.loc 1 1012 21 view .LVU274
 642 00cc 37EE227A 		vadd.f32	s14, s14, s5
 643              		.loc 1 1012 33 view .LVU275
 644 00d0 95ED016A 		vldr.32	s12, [r5, #4]
 645              	.LVL87:
 646              		.loc 1 1012 29 view .LVU276
 647 00d4 37EE067A 		vadd.f32	s14, s14, s12
 648              		.loc 1 1012 11 view .LVU277
 649 00d8 82ED017A 		vstr.32	s14, [r2, #4]
1013:Drivers/CMSIS_DSP/Source/TransformFunctions/arm_cfft_f32.c **** 
1014:Drivers/CMSIS_DSP/Source/TransformFunctions/arm_cfft_f32.c ****     /* Twiddle factors are ones */
1015:Drivers/CMSIS_DSP/Source/TransformFunctions/arm_cfft_f32.c ****     *p2++ = t2[0];
 650              		.loc 1 1015 5 is_stmt 1 view .LVU278
 651              	.LVL88:
 652              		.loc 1 1015 11 is_stmt 0 view .LVU279
 653 00dc 3246     		mov	r2, r6
 654              	.LVL89:
 655              		.loc 1 1015 11 view .LVU280
 656 00de 0832     		adds	r2, r2, #8
 657 00e0 C6ED003A 		vstr.32	s7, [r6]
1016:Drivers/CMSIS_DSP/Source/TransformFunctions/arm_cfft_f32.c ****     *p2++ = t2[1];
 658              		.loc 1 1016 5 is_stmt 1 view .LVU281
 659              	.LVL90:
 660              		.loc 1 1016 11 is_stmt 0 view .LVU282
 661 00e4 86ED014A 		vstr.32	s8, [r6, #4]
1017:Drivers/CMSIS_DSP/Source/TransformFunctions/arm_cfft_f32.c ****     *p3++ = t3[0];
 662              		.loc 1 1017 5 is_stmt 1 view .LVU283
 663              	.LVL91:
 664              		.loc 1 1017 11 is_stmt 0 view .LVU284
 665 00e8 0830     		adds	r0, r0, #8
 666 00ea C4ED004A 		vstr.32	s9, [r4]
1018:Drivers/CMSIS_DSP/Source/TransformFunctions/arm_cfft_f32.c ****     *p3++ = t3[1];
 667              		.loc 1 1018 5 is_stmt 1 view .LVU285
 668              	.LVL92:
 669              		.loc 1 1018 11 is_stmt 0 view .LVU286
 670 00ee 84ED015A 		vstr.32	s10, [r4, #4]
1019:Drivers/CMSIS_DSP/Source/TransformFunctions/arm_cfft_f32.c ****     *p4++ = t4[0];
 671              		.loc 1 1019 5 is_stmt 1 view .LVU287
 672              	.LVL93:
 673              		.loc 1 1019 11 is_stmt 0 view .LVU288
 674 00f2 2B46     		mov	r3, r5
 675              	.LVL94:
 676              		.loc 1 1019 11 view .LVU289
 677 00f4 0833     		adds	r3, r3, #8
 678 00f6 C5ED006A 		vstr.32	s13, [r5]
1020:Drivers/CMSIS_DSP/Source/TransformFunctions/arm_cfft_f32.c ****     *p4++ = t4[1];
 679              		.loc 1 1020 5 is_stmt 1 view .LVU290
 680              	.LVL95:
 681              		.loc 1 1020 11 is_stmt 0 view .LVU291
 682 00fa C5ED017A 		vstr.32	s15, [r5, #4]
1021:Drivers/CMSIS_DSP/Source/TransformFunctions/arm_cfft_f32.c **** 
1022:Drivers/CMSIS_DSP/Source/TransformFunctions/arm_cfft_f32.c ****     tw2 += twMod2;
 683              		.loc 1 1022 5 is_stmt 1 view .LVU292
 684              		.loc 1 1022 9 is_stmt 0 view .LVU293
ARM GAS  /tmp/ccSWltYc.s 			page 31


 685 00fe 0EF1080A 		add	r10, lr, #8
 686              	.LVL96:
1023:Drivers/CMSIS_DSP/Source/TransformFunctions/arm_cfft_f32.c ****     tw3 += twMod3;
 687              		.loc 1 1023 5 is_stmt 1 view .LVU294
 688              		.loc 1 1023 9 is_stmt 0 view .LVU295
 689 0102 0EF11004 		add	r4, lr, #16
 690              	.LVL97:
1024:Drivers/CMSIS_DSP/Source/TransformFunctions/arm_cfft_f32.c ****     tw4 += twMod4;
 691              		.loc 1 1024 5 is_stmt 1 view .LVU296
 692              		.loc 1 1024 9 is_stmt 0 view .LVU297
 693 0106 0EF1180E 		add	lr, lr, #24
 694              	.LVL98:
1025:Drivers/CMSIS_DSP/Source/TransformFunctions/arm_cfft_f32.c **** 
1026:Drivers/CMSIS_DSP/Source/TransformFunctions/arm_cfft_f32.c ****     for (l = (L - 2) >> 1; l > 0; l-- )
 695              		.loc 1 1026 5 is_stmt 1 view .LVU298
 696              		.loc 1 1026 17 is_stmt 0 view .LVU299
 697 010a A7F1020B 		sub	fp, r7, #2
 698              		.loc 1 1026 12 view .LVU300
 699 010e 4FEA5B0B 		lsr	fp, fp, #1
 700              	.LVL99:
 701              		.loc 1 1026 12 view .LVU301
 702 0112 019F     		ldr	r7, [sp, #4]
 703              	.LVL100:
 704              		.loc 1 1026 12 view .LVU302
 705 0114 0696     		str	r6, [sp, #24]
 706 0116 0795     		str	r5, [sp, #28]
 707              		.loc 1 1026 5 view .LVU303
 708 0118 23E1     		b	.L6
 709              	.LVL101:
 710              	.L7:
1027:Drivers/CMSIS_DSP/Source/TransformFunctions/arm_cfft_f32.c ****     {
1028:Drivers/CMSIS_DSP/Source/TransformFunctions/arm_cfft_f32.c ****       /* TOP */
1029:Drivers/CMSIS_DSP/Source/TransformFunctions/arm_cfft_f32.c ****       p1ap3_0 = p1[0] + p3[0];
 711              		.loc 1 1029 7 is_stmt 1 view .LVU304
 712              		.loc 1 1029 19 is_stmt 0 view .LVU305
 713 011a 99ED007A 		vldr.32	s14, [r9]
 714              		.loc 1 1029 27 view .LVU306
 715 011e D0ED007A 		vldr.32	s15, [r0]
 716              		.loc 1 1029 15 view .LVU307
 717 0122 77EE273A 		vadd.f32	s7, s14, s15
 718              	.LVL102:
1030:Drivers/CMSIS_DSP/Source/TransformFunctions/arm_cfft_f32.c ****       p1sp3_0 = p1[0] - p3[0];
 719              		.loc 1 1030 7 is_stmt 1 view .LVU308
 720              		.loc 1 1030 15 is_stmt 0 view .LVU309
 721 0126 37EE677A 		vsub.f32	s14, s14, s15
 722              	.LVL103:
1031:Drivers/CMSIS_DSP/Source/TransformFunctions/arm_cfft_f32.c ****       p1ap3_1 = p1[1] + p3[1];
 723              		.loc 1 1031 7 is_stmt 1 view .LVU310
 724              		.loc 1 1031 19 is_stmt 0 view .LVU311
 725 012a D9ED017A 		vldr.32	s15, [r9, #4]
 726              		.loc 1 1031 27 view .LVU312
 727 012e D0ED016A 		vldr.32	s13, [r0, #4]
 728              		.loc 1 1031 15 view .LVU313
 729 0132 37EEA64A 		vadd.f32	s8, s15, s13
 730              	.LVL104:
1032:Drivers/CMSIS_DSP/Source/TransformFunctions/arm_cfft_f32.c ****       p1sp3_1 = p1[1] - p3[1];
 731              		.loc 1 1032 7 is_stmt 1 view .LVU314
ARM GAS  /tmp/ccSWltYc.s 			page 32


 732              		.loc 1 1032 15 is_stmt 0 view .LVU315
 733 0136 77EEE67A 		vsub.f32	s15, s15, s13
 734              	.LVL105:
1033:Drivers/CMSIS_DSP/Source/TransformFunctions/arm_cfft_f32.c ****       /* col 2 */
1034:Drivers/CMSIS_DSP/Source/TransformFunctions/arm_cfft_f32.c ****       t2[0] = p1sp3_0 + p2[1] - p4[1];
 735              		.loc 1 1034 7 is_stmt 1 view .LVU316
 736              		.loc 1 1034 27 is_stmt 0 view .LVU317
 737 013a D2ED014A 		vldr.32	s9, [r2, #4]
 738              		.loc 1 1034 23 view .LVU318
 739 013e 34EE872A 		vadd.f32	s4, s9, s14
 740              		.loc 1 1034 35 view .LVU319
 741 0142 93ED013A 		vldr.32	s6, [r3, #4]
 742              		.loc 1 1034 31 view .LVU320
 743 0146 32EE432A 		vsub.f32	s4, s4, s6
 744              		.loc 1 1034 13 view .LVU321
 745 014a 8DED102A 		vstr.32	s4, [sp, #64]
1035:Drivers/CMSIS_DSP/Source/TransformFunctions/arm_cfft_f32.c ****       t2[1] = p1sp3_1 - p2[0] + p4[0];
 746              		.loc 1 1035 7 is_stmt 1 view .LVU322
 747              		.loc 1 1035 27 is_stmt 0 view .LVU323
 748 014e 92ED006A 		vldr.32	s12, [r2]
 749              		.loc 1 1035 23 view .LVU324
 750 0152 77EEC65A 		vsub.f32	s11, s15, s12
 751              		.loc 1 1035 35 view .LVU325
 752 0156 D3ED006A 		vldr.32	s13, [r3]
 753              		.loc 1 1035 31 view .LVU326
 754 015a 75EEA65A 		vadd.f32	s11, s11, s13
 755              		.loc 1 1035 13 view .LVU327
 756 015e CDED115A 		vstr.32	s11, [sp, #68]
1036:Drivers/CMSIS_DSP/Source/TransformFunctions/arm_cfft_f32.c ****       /* col 3 */
1037:Drivers/CMSIS_DSP/Source/TransformFunctions/arm_cfft_f32.c ****       t3[0] = p1ap3_0 - p2[0] - p4[0];
 757              		.loc 1 1037 7 is_stmt 1 view .LVU328
 758              		.loc 1 1037 23 is_stmt 0 view .LVU329
 759 0162 73EEC62A 		vsub.f32	s5, s7, s12
 760              		.loc 1 1037 31 view .LVU330
 761 0166 72EEE62A 		vsub.f32	s5, s5, s13
 762              		.loc 1 1037 13 view .LVU331
 763 016a CDED0C2A 		vstr.32	s5, [sp, #48]
1038:Drivers/CMSIS_DSP/Source/TransformFunctions/arm_cfft_f32.c ****       t3[1] = p1ap3_1 - p2[1] - p4[1];
 764              		.loc 1 1038 7 is_stmt 1 view .LVU332
 765              		.loc 1 1038 23 is_stmt 0 view .LVU333
 766 016e 34EE645A 		vsub.f32	s10, s8, s9
 767              		.loc 1 1038 31 view .LVU334
 768 0172 35EE435A 		vsub.f32	s10, s10, s6
 769              		.loc 1 1038 13 view .LVU335
 770 0176 8DED0D5A 		vstr.32	s10, [sp, #52]
1039:Drivers/CMSIS_DSP/Source/TransformFunctions/arm_cfft_f32.c ****       /* col 4 */
1040:Drivers/CMSIS_DSP/Source/TransformFunctions/arm_cfft_f32.c ****       t4[0] = p1sp3_0 - p2[1] + p4[1];
 771              		.loc 1 1040 7 is_stmt 1 view .LVU336
 772              		.loc 1 1040 23 is_stmt 0 view .LVU337
 773 017a 37EE647A 		vsub.f32	s14, s14, s9
 774              	.LVL106:
 775              		.loc 1 1040 31 view .LVU338
 776 017e 33EE073A 		vadd.f32	s6, s6, s14
 777              		.loc 1 1040 13 view .LVU339
 778 0182 8DED083A 		vstr.32	s6, [sp, #32]
1041:Drivers/CMSIS_DSP/Source/TransformFunctions/arm_cfft_f32.c ****       t4[1] = p1sp3_1 + p2[0] - p4[0];
 779              		.loc 1 1041 7 is_stmt 1 view .LVU340
ARM GAS  /tmp/ccSWltYc.s 			page 33


 780              		.loc 1 1041 23 is_stmt 0 view .LVU341
 781 0186 76EE277A 		vadd.f32	s15, s12, s15
 782              	.LVL107:
 783              		.loc 1 1041 31 view .LVU342
 784 018a 77EEE67A 		vsub.f32	s15, s15, s13
 785              		.loc 1 1041 13 view .LVU343
 786 018e CDED097A 		vstr.32	s15, [sp, #36]
1042:Drivers/CMSIS_DSP/Source/TransformFunctions/arm_cfft_f32.c ****       /* col 1 - top */
1043:Drivers/CMSIS_DSP/Source/TransformFunctions/arm_cfft_f32.c ****       *p1++ = p1ap3_0 + p2[0] + p4[0];
 787              		.loc 1 1043 7 is_stmt 1 view .LVU344
 788              		.loc 1 1043 23 is_stmt 0 view .LVU345
 789 0192 36EE236A 		vadd.f32	s12, s12, s7
 790              	.LVL108:
 791              		.loc 1 1043 31 view .LVU346
 792 0196 76EE866A 		vadd.f32	s13, s13, s12
 793              		.loc 1 1043 13 view .LVU347
 794 019a 4D46     		mov	r5, r9
 795 019c 0835     		adds	r5, r5, #8
 796 019e C9ED006A 		vstr.32	s13, [r9]
 797              	.LVL109:
 798              		.loc 1 1043 13 view .LVU348
 799 01a2 0195     		str	r5, [sp, #4]
1044:Drivers/CMSIS_DSP/Source/TransformFunctions/arm_cfft_f32.c ****       *p1++ = p1ap3_1 + p2[1] + p4[1];
 800              		.loc 1 1044 7 is_stmt 1 view .LVU349
 801              		.loc 1 1044 27 is_stmt 0 view .LVU350
 802 01a4 92ED017A 		vldr.32	s14, [r2, #4]
 803              		.loc 1 1044 23 view .LVU351
 804 01a8 37EE047A 		vadd.f32	s14, s14, s8
 805              		.loc 1 1044 35 view .LVU352
 806 01ac D3ED016A 		vldr.32	s13, [r3, #4]
 807              	.LVL110:
 808              		.loc 1 1044 31 view .LVU353
 809 01b0 37EE267A 		vadd.f32	s14, s14, s13
 810              		.loc 1 1044 13 view .LVU354
 811 01b4 89ED017A 		vstr.32	s14, [r9, #4]
1045:Drivers/CMSIS_DSP/Source/TransformFunctions/arm_cfft_f32.c **** 
1046:Drivers/CMSIS_DSP/Source/TransformFunctions/arm_cfft_f32.c ****       /* BOTTOM */
1047:Drivers/CMSIS_DSP/Source/TransformFunctions/arm_cfft_f32.c ****       p1ap3_1 = pEnd1[-1] + pEnd3[-1];
 812              		.loc 1 1047 7 is_stmt 1 view .LVU355
 813              		.loc 1 1047 22 is_stmt 0 view .LVU356
 814 01b8 17ED010A 		vldr.32	s0, [r7, #-4]
 815              		.loc 1 1047 34 view .LVU357
 816 01bc 1CED017A 		vldr.32	s14, [ip, #-4]
 817              		.loc 1 1047 15 view .LVU358
 818 01c0 70EE078A 		vadd.f32	s17, s0, s14
 819              	.LVL111:
1048:Drivers/CMSIS_DSP/Source/TransformFunctions/arm_cfft_f32.c ****       p1sp3_1 = pEnd1[-1] - pEnd3[-1];
 820              		.loc 1 1048 7 is_stmt 1 view .LVU359
 821              		.loc 1 1048 15 is_stmt 0 view .LVU360
 822 01c4 30EE470A 		vsub.f32	s0, s0, s14
 823              	.LVL112:
1049:Drivers/CMSIS_DSP/Source/TransformFunctions/arm_cfft_f32.c ****       p1ap3_0 = pEnd1[ 0] + pEnd3[0];
 824              		.loc 1 1049 7 is_stmt 1 view .LVU361
 825              		.loc 1 1049 22 is_stmt 0 view .LVU362
 826 01c8 D7ED000A 		vldr.32	s1, [r7]
 827              		.loc 1 1049 34 view .LVU363
 828 01cc 9CED007A 		vldr.32	s14, [ip]
ARM GAS  /tmp/ccSWltYc.s 			page 34


 829              		.loc 1 1049 15 view .LVU364
 830 01d0 30EE879A 		vadd.f32	s18, s1, s14
 831              	.LVL113:
1050:Drivers/CMSIS_DSP/Source/TransformFunctions/arm_cfft_f32.c ****       p1sp3_0 = pEnd1[ 0] - pEnd3[0];
 832              		.loc 1 1050 7 is_stmt 1 view .LVU365
 833              		.loc 1 1050 15 is_stmt 0 view .LVU366
 834 01d4 70EEC70A 		vsub.f32	s1, s1, s14
 835              	.LVL114:
1051:Drivers/CMSIS_DSP/Source/TransformFunctions/arm_cfft_f32.c ****       /* col 2 */
1052:Drivers/CMSIS_DSP/Source/TransformFunctions/arm_cfft_f32.c ****       t2[2] = pEnd2[0] - pEnd4[0] + p1sp3_1;
 836              		.loc 1 1052 7 is_stmt 1 view .LVU367
 837              		.loc 1 1052 20 is_stmt 0 view .LVU368
 838 01d8 98ED001A 		vldr.32	s2, [r8]
 839              		.loc 1 1052 31 view .LVU369
 840 01dc D1ED001A 		vldr.32	s3, [r1]
 841              		.loc 1 1052 24 view .LVU370
 842 01e0 71EE616A 		vsub.f32	s13, s2, s3
 843              		.loc 1 1052 35 view .LVU371
 844 01e4 36EE804A 		vadd.f32	s8, s13, s0
 845              		.loc 1 1052 13 view .LVU372
 846 01e8 8DED124A 		vstr.32	s8, [sp, #72]
1053:Drivers/CMSIS_DSP/Source/TransformFunctions/arm_cfft_f32.c ****       t2[3] = pEnd1[0] - pEnd3[0] - pEnd2[-1] + pEnd4[-1];
 847              		.loc 1 1053 7 is_stmt 1 view .LVU373
 848              		.loc 1 1053 42 is_stmt 0 view .LVU374
 849 01ec 18ED018A 		vldr.32	s16, [r8, #-4]
 850              		.loc 1 1053 35 view .LVU375
 851 01f0 70EEC83A 		vsub.f32	s7, s1, s16
 852              		.loc 1 1053 54 view .LVU376
 853 01f4 11ED017A 		vldr.32	s14, [r1, #-4]
 854              		.loc 1 1053 47 view .LVU377
 855 01f8 73EE873A 		vadd.f32	s7, s7, s14
 856              		.loc 1 1053 13 view .LVU378
 857 01fc CDED133A 		vstr.32	s7, [sp, #76]
1054:Drivers/CMSIS_DSP/Source/TransformFunctions/arm_cfft_f32.c ****       /* col 3 */
1055:Drivers/CMSIS_DSP/Source/TransformFunctions/arm_cfft_f32.c ****       t3[2] = p1ap3_1 - pEnd2[-1] - pEnd4[-1];
 858              		.loc 1 1055 7 is_stmt 1 view .LVU379
 859              		.loc 1 1055 23 is_stmt 0 view .LVU380
 860 0200 78EEC84A 		vsub.f32	s9, s17, s16
 861              		.loc 1 1055 35 view .LVU381
 862 0204 74EEC74A 		vsub.f32	s9, s9, s14
 863              		.loc 1 1055 13 view .LVU382
 864 0208 CDED0E4A 		vstr.32	s9, [sp, #56]
1056:Drivers/CMSIS_DSP/Source/TransformFunctions/arm_cfft_f32.c ****       t3[3] = p1ap3_0 - pEnd2[ 0] - pEnd4[ 0];
 865              		.loc 1 1056 7 is_stmt 1 view .LVU383
 866              		.loc 1 1056 23 is_stmt 0 view .LVU384
 867 020c 39EE416A 		vsub.f32	s12, s18, s2
 868              		.loc 1 1056 35 view .LVU385
 869 0210 36EE616A 		vsub.f32	s12, s12, s3
 870              		.loc 1 1056 13 view .LVU386
 871 0214 8DED0F6A 		vstr.32	s12, [sp, #60]
1057:Drivers/CMSIS_DSP/Source/TransformFunctions/arm_cfft_f32.c ****       /* col 4 */
1058:Drivers/CMSIS_DSP/Source/TransformFunctions/arm_cfft_f32.c ****       t4[2] = pEnd2[ 0] - pEnd4[ 0] - p1sp3_1;
 872              		.loc 1 1058 7 is_stmt 1 view .LVU387
 873              		.loc 1 1058 37 is_stmt 0 view .LVU388
 874 0218 76EEC06A 		vsub.f32	s13, s13, s0
 875              		.loc 1 1058 13 view .LVU389
 876 021c CDED0A6A 		vstr.32	s13, [sp, #40]
ARM GAS  /tmp/ccSWltYc.s 			page 35


1059:Drivers/CMSIS_DSP/Source/TransformFunctions/arm_cfft_f32.c ****       t4[3] = pEnd4[-1] - pEnd2[-1] - p1sp3_0;
 877              		.loc 1 1059 7 is_stmt 1 view .LVU390
 878              		.loc 1 1059 25 is_stmt 0 view .LVU391
 879 0220 37EE487A 		vsub.f32	s14, s14, s16
 880              		.loc 1 1059 37 view .LVU392
 881 0224 37EE607A 		vsub.f32	s14, s14, s1
 882              		.loc 1 1059 13 view .LVU393
 883 0228 8DED0B7A 		vstr.32	s14, [sp, #44]
1060:Drivers/CMSIS_DSP/Source/TransformFunctions/arm_cfft_f32.c ****       /* col 1 - Bottom */
1061:Drivers/CMSIS_DSP/Source/TransformFunctions/arm_cfft_f32.c ****       *pEnd1-- = p1ap3_0 + pEnd2[ 0] + pEnd4[ 0];
 884              		.loc 1 1061 7 is_stmt 1 view .LVU394
 885              		.loc 1 1061 26 is_stmt 0 view .LVU395
 886 022c 31EE091A 		vadd.f32	s2, s2, s18
 887              	.LVL115:
 888              		.loc 1 1061 38 view .LVU396
 889 0230 71EE811A 		vadd.f32	s3, s3, s2
 890              		.loc 1 1061 16 view .LVU397
 891 0234 A7F10805 		sub	r5, r7, #8
 892              	.LVL116:
 893              		.loc 1 1061 16 view .LVU398
 894 0238 C7ED001A 		vstr.32	s3, [r7]
1062:Drivers/CMSIS_DSP/Source/TransformFunctions/arm_cfft_f32.c ****       *pEnd1-- = p1ap3_1 + pEnd2[-1] + pEnd4[-1];
 895              		.loc 1 1062 7 is_stmt 1 view .LVU399
 896              		.loc 1 1062 33 is_stmt 0 view .LVU400
 897 023c 58ED011A 		vldr.32	s3, [r8, #-4]
 898              		.loc 1 1062 26 view .LVU401
 899 0240 71EEA81A 		vadd.f32	s3, s3, s17
 900              		.loc 1 1062 45 view .LVU402
 901 0244 11ED011A 		vldr.32	s2, [r1, #-4]
 902              	.LVL117:
 903              		.loc 1 1062 38 view .LVU403
 904 0248 71EE811A 		vadd.f32	s3, s3, s2
 905              		.loc 1 1062 16 view .LVU404
 906 024c 47ED011A 		vstr.32	s3, [r7, #-4]
1063:Drivers/CMSIS_DSP/Source/TransformFunctions/arm_cfft_f32.c **** 
1064:Drivers/CMSIS_DSP/Source/TransformFunctions/arm_cfft_f32.c ****       /* COL 2 */
1065:Drivers/CMSIS_DSP/Source/TransformFunctions/arm_cfft_f32.c ****       /* read twiddle factors */
1066:Drivers/CMSIS_DSP/Source/TransformFunctions/arm_cfft_f32.c ****       twR = *tw2++;
 907              		.loc 1 1066 7 is_stmt 1 view .LVU405
 908              	.LVL118:
 909              		.loc 1 1066 11 is_stmt 0 view .LVU406
 910 0250 0AF10809 		add	r9, r10, #8
 911 0254 DAED001A 		vldr.32	s3, [r10]
 912              	.LVL119:
1067:Drivers/CMSIS_DSP/Source/TransformFunctions/arm_cfft_f32.c ****       twI = *tw2++;
 913              		.loc 1 1067 7 is_stmt 1 view .LVU407
 914              		.loc 1 1067 11 is_stmt 0 view .LVU408
 915 0258 9AED011A 		vldr.32	s2, [r10, #4]
 916              	.LVL120:
1068:Drivers/CMSIS_DSP/Source/TransformFunctions/arm_cfft_f32.c ****       /* multiply by twiddle factors */
1069:Drivers/CMSIS_DSP/Source/TransformFunctions/arm_cfft_f32.c ****       /*  let    Z1 = a + i(b),   Z2 = c + i(d) */
1070:Drivers/CMSIS_DSP/Source/TransformFunctions/arm_cfft_f32.c ****       /*   =>  Z1 * Z2  =  (a*c - b*d) + i(b*c + a*d) */
1071:Drivers/CMSIS_DSP/Source/TransformFunctions/arm_cfft_f32.c **** 
1072:Drivers/CMSIS_DSP/Source/TransformFunctions/arm_cfft_f32.c ****       /* Top */
1073:Drivers/CMSIS_DSP/Source/TransformFunctions/arm_cfft_f32.c ****       m0 = t2[0] * twR;
 917              		.loc 1 1073 7 is_stmt 1 view .LVU409
 918              		.loc 1 1073 10 is_stmt 0 view .LVU410
ARM GAS  /tmp/ccSWltYc.s 			page 36


 919 025c 62EE210A 		vmul.f32	s1, s4, s3
 920              	.LVL121:
1074:Drivers/CMSIS_DSP/Source/TransformFunctions/arm_cfft_f32.c ****       m1 = t2[1] * twI;
 921              		.loc 1 1074 7 is_stmt 1 view .LVU411
 922              		.loc 1 1074 10 is_stmt 0 view .LVU412
 923 0260 25EE810A 		vmul.f32	s0, s11, s2
 924              	.LVL122:
1075:Drivers/CMSIS_DSP/Source/TransformFunctions/arm_cfft_f32.c ****       m2 = t2[1] * twR;
 925              		.loc 1 1075 7 is_stmt 1 view .LVU413
 926              		.loc 1 1075 10 is_stmt 0 view .LVU414
 927 0264 65EEA15A 		vmul.f32	s11, s11, s3
 928              	.LVL123:
1076:Drivers/CMSIS_DSP/Source/TransformFunctions/arm_cfft_f32.c ****       m3 = t2[0] * twI;
 929              		.loc 1 1076 7 is_stmt 1 view .LVU415
 930              		.loc 1 1076 10 is_stmt 0 view .LVU416
 931 0268 22EE012A 		vmul.f32	s4, s4, s2
 932              	.LVL124:
1077:Drivers/CMSIS_DSP/Source/TransformFunctions/arm_cfft_f32.c **** 
1078:Drivers/CMSIS_DSP/Source/TransformFunctions/arm_cfft_f32.c ****       *p2++ = m0 + m1;
 933              		.loc 1 1078 7 is_stmt 1 view .LVU417
 934              		.loc 1 1078 18 is_stmt 0 view .LVU418
 935 026c 70EE800A 		vadd.f32	s1, s1, s0
 936              	.LVL125:
 937              		.loc 1 1078 13 view .LVU419
 938 0270 02F1080A 		add	r10, r2, #8
 939 0274 C2ED000A 		vstr.32	s1, [r2]
1079:Drivers/CMSIS_DSP/Source/TransformFunctions/arm_cfft_f32.c ****       *p2++ = m2 - m3;
 940              		.loc 1 1079 7 is_stmt 1 view .LVU420
 941              	.LVL126:
 942              		.loc 1 1079 18 is_stmt 0 view .LVU421
 943 0278 75EEC25A 		vsub.f32	s11, s11, s4
 944              	.LVL127:
 945              		.loc 1 1079 13 view .LVU422
 946 027c C2ED015A 		vstr.32	s11, [r2, #4]
1080:Drivers/CMSIS_DSP/Source/TransformFunctions/arm_cfft_f32.c ****       /* use vertical symmetry col 2 */
1081:Drivers/CMSIS_DSP/Source/TransformFunctions/arm_cfft_f32.c ****       /* 0.9997 - 0.0245i  <==>  0.0245 - 0.9997i */
1082:Drivers/CMSIS_DSP/Source/TransformFunctions/arm_cfft_f32.c ****       /* Bottom */
1083:Drivers/CMSIS_DSP/Source/TransformFunctions/arm_cfft_f32.c ****       m0 = t2[3] * twI;
 947              		.loc 1 1083 7 is_stmt 1 view .LVU423
 948              		.loc 1 1083 10 is_stmt 0 view .LVU424
 949 0280 63EE815A 		vmul.f32	s11, s7, s2
 950              	.LVL128:
1084:Drivers/CMSIS_DSP/Source/TransformFunctions/arm_cfft_f32.c ****       m1 = t2[2] * twR;
 951              		.loc 1 1084 7 is_stmt 1 view .LVU425
 952              		.loc 1 1084 10 is_stmt 0 view .LVU426
 953 0284 24EE212A 		vmul.f32	s4, s8, s3
 954              	.LVL129:
1085:Drivers/CMSIS_DSP/Source/TransformFunctions/arm_cfft_f32.c ****       m2 = t2[2] * twI;
 955              		.loc 1 1085 7 is_stmt 1 view .LVU427
 956              		.loc 1 1085 10 is_stmt 0 view .LVU428
 957 0288 24EE014A 		vmul.f32	s8, s8, s2
 958              	.LVL130:
1086:Drivers/CMSIS_DSP/Source/TransformFunctions/arm_cfft_f32.c ****       m3 = t2[3] * twR;
 959              		.loc 1 1086 7 is_stmt 1 view .LVU429
 960              		.loc 1 1086 10 is_stmt 0 view .LVU430
 961 028c 63EEA13A 		vmul.f32	s7, s7, s3
 962              	.LVL131:
ARM GAS  /tmp/ccSWltYc.s 			page 37


1087:Drivers/CMSIS_DSP/Source/TransformFunctions/arm_cfft_f32.c **** 
1088:Drivers/CMSIS_DSP/Source/TransformFunctions/arm_cfft_f32.c ****       *pEnd2-- = m0 - m1;
 963              		.loc 1 1088 7 is_stmt 1 view .LVU431
 964              		.loc 1 1088 21 is_stmt 0 view .LVU432
 965 0290 75EEC25A 		vsub.f32	s11, s11, s4
 966              	.LVL132:
 967              		.loc 1 1088 16 view .LVU433
 968 0294 A8F10806 		sub	r6, r8, #8
 969 0298 C8ED005A 		vstr.32	s11, [r8]
1089:Drivers/CMSIS_DSP/Source/TransformFunctions/arm_cfft_f32.c ****       *pEnd2-- = m2 + m3;
 970              		.loc 1 1089 7 is_stmt 1 view .LVU434
 971              	.LVL133:
 972              		.loc 1 1089 21 is_stmt 0 view .LVU435
 973 029c 34EE234A 		vadd.f32	s8, s8, s7
 974              	.LVL134:
 975              		.loc 1 1089 16 view .LVU436
 976 02a0 08ED014A 		vstr.32	s8, [r8, #-4]
1090:Drivers/CMSIS_DSP/Source/TransformFunctions/arm_cfft_f32.c **** 
1091:Drivers/CMSIS_DSP/Source/TransformFunctions/arm_cfft_f32.c ****       /* COL 3 */
1092:Drivers/CMSIS_DSP/Source/TransformFunctions/arm_cfft_f32.c ****       twR = tw3[0];
 977              		.loc 1 1092 7 is_stmt 1 view .LVU437
 978              		.loc 1 1092 11 is_stmt 0 view .LVU438
 979 02a4 94ED004A 		vldr.32	s8, [r4]
 980              	.LVL135:
1093:Drivers/CMSIS_DSP/Source/TransformFunctions/arm_cfft_f32.c ****       twI = tw3[1];
 981              		.loc 1 1093 7 is_stmt 1 view .LVU439
 982              		.loc 1 1093 11 is_stmt 0 view .LVU440
 983 02a8 D4ED015A 		vldr.32	s11, [r4, #4]
 984              	.LVL136:
1094:Drivers/CMSIS_DSP/Source/TransformFunctions/arm_cfft_f32.c ****       tw3 += twMod3;
 985              		.loc 1 1094 7 is_stmt 1 view .LVU441
 986              		.loc 1 1094 11 is_stmt 0 view .LVU442
 987 02ac 1034     		adds	r4, r4, #16
 988              	.LVL137:
1095:Drivers/CMSIS_DSP/Source/TransformFunctions/arm_cfft_f32.c ****       /* Top */
1096:Drivers/CMSIS_DSP/Source/TransformFunctions/arm_cfft_f32.c ****       m0 = t3[0] * twR;
 989              		.loc 1 1096 7 is_stmt 1 view .LVU443
 990              		.loc 1 1096 10 is_stmt 0 view .LVU444
 991 02ae 62EE843A 		vmul.f32	s7, s5, s8
 992              	.LVL138:
1097:Drivers/CMSIS_DSP/Source/TransformFunctions/arm_cfft_f32.c ****       m1 = t3[1] * twI;
 993              		.loc 1 1097 7 is_stmt 1 view .LVU445
 994              		.loc 1 1097 10 is_stmt 0 view .LVU446
 995 02b2 25EE252A 		vmul.f32	s4, s10, s11
 996              	.LVL139:
1098:Drivers/CMSIS_DSP/Source/TransformFunctions/arm_cfft_f32.c ****       m2 = t3[1] * twR;
 997              		.loc 1 1098 7 is_stmt 1 view .LVU447
 998              		.loc 1 1098 10 is_stmt 0 view .LVU448
 999 02b6 25EE045A 		vmul.f32	s10, s10, s8
 1000              	.LVL140:
1099:Drivers/CMSIS_DSP/Source/TransformFunctions/arm_cfft_f32.c ****       m3 = t3[0] * twI;
 1001              		.loc 1 1099 7 is_stmt 1 view .LVU449
 1002              		.loc 1 1099 10 is_stmt 0 view .LVU450
 1003 02ba 62EEA52A 		vmul.f32	s5, s5, s11
 1004              	.LVL141:
1100:Drivers/CMSIS_DSP/Source/TransformFunctions/arm_cfft_f32.c **** 
1101:Drivers/CMSIS_DSP/Source/TransformFunctions/arm_cfft_f32.c ****       *p3++ = m0 + m1;
ARM GAS  /tmp/ccSWltYc.s 			page 38


 1005              		.loc 1 1101 7 is_stmt 1 view .LVU451
 1006              		.loc 1 1101 18 is_stmt 0 view .LVU452
 1007 02be 73EE823A 		vadd.f32	s7, s7, s4
 1008              	.LVL142:
 1009              		.loc 1 1101 13 view .LVU453
 1010 02c2 0246     		mov	r2, r0
 1011 02c4 0832     		adds	r2, r2, #8
 1012 02c6 C0ED003A 		vstr.32	s7, [r0]
1102:Drivers/CMSIS_DSP/Source/TransformFunctions/arm_cfft_f32.c ****       *p3++ = m2 - m3;
 1013              		.loc 1 1102 7 is_stmt 1 view .LVU454
 1014              	.LVL143:
 1015              		.loc 1 1102 18 is_stmt 0 view .LVU455
 1016 02ca 35EE625A 		vsub.f32	s10, s10, s5
 1017              	.LVL144:
 1018              		.loc 1 1102 13 view .LVU456
 1019 02ce 80ED015A 		vstr.32	s10, [r0, #4]
1103:Drivers/CMSIS_DSP/Source/TransformFunctions/arm_cfft_f32.c ****       /* use vertical symmetry col 3 */
1104:Drivers/CMSIS_DSP/Source/TransformFunctions/arm_cfft_f32.c ****       /* 0.9988 - 0.0491i  <==>  -0.9988 - 0.0491i */
1105:Drivers/CMSIS_DSP/Source/TransformFunctions/arm_cfft_f32.c ****       /* Bottom */
1106:Drivers/CMSIS_DSP/Source/TransformFunctions/arm_cfft_f32.c ****       m0 = -t3[3] * twR;
 1020              		.loc 1 1106 7 is_stmt 1 view .LVU457
 1021              		.loc 1 1106 10 is_stmt 0 view .LVU458
 1022 02d2 26EE445A 		vnmul.f32	s10, s12, s8
 1023              	.LVL145:
1107:Drivers/CMSIS_DSP/Source/TransformFunctions/arm_cfft_f32.c ****       m1 =  t3[2] * twI;
 1024              		.loc 1 1107 7 is_stmt 1 view .LVU459
 1025              		.loc 1 1107 10 is_stmt 0 view .LVU460
 1026 02d6 64EEA53A 		vmul.f32	s7, s9, s11
 1027              	.LVL146:
1108:Drivers/CMSIS_DSP/Source/TransformFunctions/arm_cfft_f32.c ****       m2 =  t3[2] * twR;
 1028              		.loc 1 1108 7 is_stmt 1 view .LVU461
 1029              		.loc 1 1108 10 is_stmt 0 view .LVU462
 1030 02da 64EE844A 		vmul.f32	s9, s9, s8
 1031              	.LVL147:
1109:Drivers/CMSIS_DSP/Source/TransformFunctions/arm_cfft_f32.c ****       m3 =  t3[3] * twI;
 1032              		.loc 1 1109 7 is_stmt 1 view .LVU463
 1033              		.loc 1 1109 10 is_stmt 0 view .LVU464
 1034 02de 26EE256A 		vmul.f32	s12, s12, s11
 1035              	.LVL148:
1110:Drivers/CMSIS_DSP/Source/TransformFunctions/arm_cfft_f32.c **** 
1111:Drivers/CMSIS_DSP/Source/TransformFunctions/arm_cfft_f32.c ****       *pEnd3-- = m0 - m1;
 1036              		.loc 1 1111 7 is_stmt 1 view .LVU465
 1037              		.loc 1 1111 21 is_stmt 0 view .LVU466
 1038 02e2 75EE635A 		vsub.f32	s11, s10, s7
 1039              	.LVL149:
 1040              		.loc 1 1111 16 view .LVU467
 1041 02e6 ACF10807 		sub	r7, ip, #8
 1042 02ea CCED005A 		vstr.32	s11, [ip]
1112:Drivers/CMSIS_DSP/Source/TransformFunctions/arm_cfft_f32.c ****       *pEnd3-- = m3 - m2;
 1043              		.loc 1 1112 7 is_stmt 1 view .LVU468
 1044              	.LVL150:
 1045              		.loc 1 1112 21 is_stmt 0 view .LVU469
 1046 02ee 36EE646A 		vsub.f32	s12, s12, s9
 1047              	.LVL151:
 1048              		.loc 1 1112 16 view .LVU470
 1049 02f2 0CED016A 		vstr.32	s12, [ip, #-4]
1113:Drivers/CMSIS_DSP/Source/TransformFunctions/arm_cfft_f32.c **** 
ARM GAS  /tmp/ccSWltYc.s 			page 39


1114:Drivers/CMSIS_DSP/Source/TransformFunctions/arm_cfft_f32.c ****       /* COL 4 */
1115:Drivers/CMSIS_DSP/Source/TransformFunctions/arm_cfft_f32.c ****       twR = tw4[0];
 1050              		.loc 1 1115 7 is_stmt 1 view .LVU471
 1051              		.loc 1 1115 11 is_stmt 0 view .LVU472
 1052 02f6 9EED006A 		vldr.32	s12, [lr]
 1053              	.LVL152:
1116:Drivers/CMSIS_DSP/Source/TransformFunctions/arm_cfft_f32.c ****       twI = tw4[1];
 1054              		.loc 1 1116 7 is_stmt 1 view .LVU473
 1055              		.loc 1 1116 11 is_stmt 0 view .LVU474
 1056 02fa DEED015A 		vldr.32	s11, [lr, #4]
 1057              	.LVL153:
1117:Drivers/CMSIS_DSP/Source/TransformFunctions/arm_cfft_f32.c ****       tw4 += twMod4;
 1058              		.loc 1 1117 7 is_stmt 1 view .LVU475
 1059              		.loc 1 1117 11 is_stmt 0 view .LVU476
 1060 02fe 0EF1180E 		add	lr, lr, #24
 1061              	.LVL154:
1118:Drivers/CMSIS_DSP/Source/TransformFunctions/arm_cfft_f32.c ****       /* Top */
1119:Drivers/CMSIS_DSP/Source/TransformFunctions/arm_cfft_f32.c ****       m0 = t4[0] * twR;
 1062              		.loc 1 1119 7 is_stmt 1 view .LVU477
 1063              		.loc 1 1119 10 is_stmt 0 view .LVU478
 1064 0302 23EE065A 		vmul.f32	s10, s6, s12
 1065              	.LVL155:
1120:Drivers/CMSIS_DSP/Source/TransformFunctions/arm_cfft_f32.c ****       m1 = t4[1] * twI;
 1066              		.loc 1 1120 7 is_stmt 1 view .LVU479
 1067              		.loc 1 1120 10 is_stmt 0 view .LVU480
 1068 0306 67EEA54A 		vmul.f32	s9, s15, s11
 1069              	.LVL156:
1121:Drivers/CMSIS_DSP/Source/TransformFunctions/arm_cfft_f32.c ****       m2 = t4[1] * twR;
 1070              		.loc 1 1121 7 is_stmt 1 view .LVU481
 1071              		.loc 1 1121 10 is_stmt 0 view .LVU482
 1072 030a 67EE867A 		vmul.f32	s15, s15, s12
 1073              	.LVL157:
1122:Drivers/CMSIS_DSP/Source/TransformFunctions/arm_cfft_f32.c ****       m3 = t4[0] * twI;
 1074              		.loc 1 1122 7 is_stmt 1 view .LVU483
 1075              		.loc 1 1122 10 is_stmt 0 view .LVU484
 1076 030e 23EE253A 		vmul.f32	s6, s6, s11
 1077              	.LVL158:
1123:Drivers/CMSIS_DSP/Source/TransformFunctions/arm_cfft_f32.c **** 
1124:Drivers/CMSIS_DSP/Source/TransformFunctions/arm_cfft_f32.c ****       *p4++ = m0 + m1;
 1078              		.loc 1 1124 7 is_stmt 1 view .LVU485
 1079              		.loc 1 1124 18 is_stmt 0 view .LVU486
 1080 0312 35EE245A 		vadd.f32	s10, s10, s9
 1081              	.LVL159:
 1082              		.loc 1 1124 13 view .LVU487
 1083 0316 1846     		mov	r0, r3
 1084 0318 0830     		adds	r0, r0, #8
 1085 031a 83ED005A 		vstr.32	s10, [r3]
1125:Drivers/CMSIS_DSP/Source/TransformFunctions/arm_cfft_f32.c ****       *p4++ = m2 - m3;
 1086              		.loc 1 1125 7 is_stmt 1 view .LVU488
 1087              	.LVL160:
 1088              		.loc 1 1125 18 is_stmt 0 view .LVU489
 1089 031e 77EEC37A 		vsub.f32	s15, s15, s6
 1090              	.LVL161:
 1091              		.loc 1 1125 13 view .LVU490
 1092 0322 C3ED017A 		vstr.32	s15, [r3, #4]
1126:Drivers/CMSIS_DSP/Source/TransformFunctions/arm_cfft_f32.c ****       /* use vertical symmetry col 4 */
1127:Drivers/CMSIS_DSP/Source/TransformFunctions/arm_cfft_f32.c ****       /* 0.9973 - 0.0736i  <==>  -0.0736 + 0.9973i */
ARM GAS  /tmp/ccSWltYc.s 			page 40


1128:Drivers/CMSIS_DSP/Source/TransformFunctions/arm_cfft_f32.c ****       /* Bottom */
1129:Drivers/CMSIS_DSP/Source/TransformFunctions/arm_cfft_f32.c ****       m0 = t4[3] * twI;
 1093              		.loc 1 1129 7 is_stmt 1 view .LVU491
 1094              		.loc 1 1129 10 is_stmt 0 view .LVU492
 1095 0326 67EE257A 		vmul.f32	s15, s14, s11
 1096              	.LVL162:
1130:Drivers/CMSIS_DSP/Source/TransformFunctions/arm_cfft_f32.c ****       m1 = t4[2] * twR;
 1097              		.loc 1 1130 7 is_stmt 1 view .LVU493
 1098              		.loc 1 1130 10 is_stmt 0 view .LVU494
 1099 032a 26EE865A 		vmul.f32	s10, s13, s12
 1100              	.LVL163:
1131:Drivers/CMSIS_DSP/Source/TransformFunctions/arm_cfft_f32.c ****       m2 = t4[2] * twI;
 1101              		.loc 1 1131 7 is_stmt 1 view .LVU495
 1102              		.loc 1 1131 10 is_stmt 0 view .LVU496
 1103 032e 66EEA56A 		vmul.f32	s13, s13, s11
 1104              	.LVL164:
1132:Drivers/CMSIS_DSP/Source/TransformFunctions/arm_cfft_f32.c ****       m3 = t4[3] * twR;
 1105              		.loc 1 1132 7 is_stmt 1 view .LVU497
 1106              		.loc 1 1132 10 is_stmt 0 view .LVU498
 1107 0332 27EE067A 		vmul.f32	s14, s14, s12
 1108              	.LVL165:
1133:Drivers/CMSIS_DSP/Source/TransformFunctions/arm_cfft_f32.c **** 
1134:Drivers/CMSIS_DSP/Source/TransformFunctions/arm_cfft_f32.c ****       *pEnd4-- = m0 - m1;
 1109              		.loc 1 1134 7 is_stmt 1 view .LVU499
 1110              		.loc 1 1134 21 is_stmt 0 view .LVU500
 1111 0336 77EEC57A 		vsub.f32	s15, s15, s10
 1112              	.LVL166:
 1113              		.loc 1 1134 16 view .LVU501
 1114 033a A1F1080C 		sub	ip, r1, #8
 1115 033e C1ED007A 		vstr.32	s15, [r1]
1135:Drivers/CMSIS_DSP/Source/TransformFunctions/arm_cfft_f32.c ****       *pEnd4-- = m2 + m3;
 1116              		.loc 1 1135 7 is_stmt 1 view .LVU502
 1117              	.LVL167:
 1118              		.loc 1 1135 21 is_stmt 0 view .LVU503
 1119 0342 76EE876A 		vadd.f32	s13, s13, s14
 1120              	.LVL168:
 1121              		.loc 1 1135 16 view .LVU504
 1122 0346 41ED016A 		vstr.32	s13, [r1, #-4]
1026:Drivers/CMSIS_DSP/Source/TransformFunctions/arm_cfft_f32.c ****     {
 1123              		.loc 1 1026 36 is_stmt 1 discriminator 3 view .LVU505
 1124 034a 0BF1FF3B 		add	fp, fp, #-1
 1125              	.LVL169:
1125:Drivers/CMSIS_DSP/Source/TransformFunctions/arm_cfft_f32.c ****       /* use vertical symmetry col 4 */
 1126              		.loc 1 1125 10 is_stmt 0 view .LVU506
 1127 034e 0346     		mov	r3, r0
1102:Drivers/CMSIS_DSP/Source/TransformFunctions/arm_cfft_f32.c ****       /* use vertical symmetry col 3 */
 1128              		.loc 1 1102 10 view .LVU507
 1129 0350 1046     		mov	r0, r2
 1130              	.LVL170:
1079:Drivers/CMSIS_DSP/Source/TransformFunctions/arm_cfft_f32.c ****       /* use vertical symmetry col 2 */
 1131              		.loc 1 1079 10 view .LVU508
 1132 0352 5246     		mov	r2, r10
 1133              	.LVL171:
1067:Drivers/CMSIS_DSP/Source/TransformFunctions/arm_cfft_f32.c ****       /* multiply by twiddle factors */
 1134              		.loc 1 1067 17 view .LVU509
 1135 0354 CA46     		mov	r10, r9
 1136              	.LVL172:
ARM GAS  /tmp/ccSWltYc.s 			page 41


 1137              		.loc 1 1135 13 view .LVU510
 1138 0356 6146     		mov	r1, ip
1112:Drivers/CMSIS_DSP/Source/TransformFunctions/arm_cfft_f32.c **** 
 1139              		.loc 1 1112 13 view .LVU511
 1140 0358 BC46     		mov	ip, r7
 1141              	.LVL173:
1089:Drivers/CMSIS_DSP/Source/TransformFunctions/arm_cfft_f32.c **** 
 1142              		.loc 1 1089 13 view .LVU512
 1143 035a B046     		mov	r8, r6
1062:Drivers/CMSIS_DSP/Source/TransformFunctions/arm_cfft_f32.c **** 
 1144              		.loc 1 1062 13 view .LVU513
 1145 035c 2F46     		mov	r7, r5
 1146              	.LVL174:
1044:Drivers/CMSIS_DSP/Source/TransformFunctions/arm_cfft_f32.c **** 
 1147              		.loc 1 1044 10 view .LVU514
 1148 035e DDF80490 		ldr	r9, [sp, #4]
 1149              	.LVL175:
 1150              	.L6:
1026:Drivers/CMSIS_DSP/Source/TransformFunctions/arm_cfft_f32.c ****     {
 1151              		.loc 1 1026 30 is_stmt 1 discriminator 1 view .LVU515
 1152 0362 BBF1000F 		cmp	fp, #0
 1153 0366 7FF4D8AE 		bne	.L7
1136:Drivers/CMSIS_DSP/Source/TransformFunctions/arm_cfft_f32.c ****     }
1137:Drivers/CMSIS_DSP/Source/TransformFunctions/arm_cfft_f32.c **** 
1138:Drivers/CMSIS_DSP/Source/TransformFunctions/arm_cfft_f32.c ****     /* MIDDLE */
1139:Drivers/CMSIS_DSP/Source/TransformFunctions/arm_cfft_f32.c ****     /* Twiddle factors are */
1140:Drivers/CMSIS_DSP/Source/TransformFunctions/arm_cfft_f32.c ****     /*  1.0000  0.7071-0.7071i  -1.0000i  -0.7071-0.7071i */
1141:Drivers/CMSIS_DSP/Source/TransformFunctions/arm_cfft_f32.c ****     p1ap3_0 = p1[0] + p3[0];
 1154              		.loc 1 1141 17 is_stmt 0 view .LVU516
 1155 036a 069E     		ldr	r6, [sp, #24]
 1156 036c 079D     		ldr	r5, [sp, #28]
 1157              		.loc 1 1141 5 is_stmt 1 view .LVU517
 1158              		.loc 1 1141 17 is_stmt 0 view .LVU518
 1159 036e D9ED004A 		vldr.32	s9, [r9]
 1160              		.loc 1 1141 25 view .LVU519
 1161 0372 D0ED007A 		vldr.32	s15, [r0]
 1162              		.loc 1 1141 13 view .LVU520
 1163 0376 34EEA72A 		vadd.f32	s4, s9, s15
 1164              	.LVL176:
1142:Drivers/CMSIS_DSP/Source/TransformFunctions/arm_cfft_f32.c ****     p1sp3_0 = p1[0] - p3[0];
 1165              		.loc 1 1142 5 is_stmt 1 view .LVU521
 1166              		.loc 1 1142 13 is_stmt 0 view .LVU522
 1167 037a 74EEE74A 		vsub.f32	s9, s9, s15
 1168              	.LVL177:
1143:Drivers/CMSIS_DSP/Source/TransformFunctions/arm_cfft_f32.c ****     p1ap3_1 = p1[1] + p3[1];
 1169              		.loc 1 1143 5 is_stmt 1 view .LVU523
 1170              		.loc 1 1143 17 is_stmt 0 view .LVU524
 1171 037e D9ED017A 		vldr.32	s15, [r9, #4]
 1172              		.loc 1 1143 25 view .LVU525
 1173 0382 90ED017A 		vldr.32	s14, [r0, #4]
 1174              		.loc 1 1143 13 view .LVU526
 1175 0386 77EE872A 		vadd.f32	s5, s15, s14
 1176              	.LVL178:
1144:Drivers/CMSIS_DSP/Source/TransformFunctions/arm_cfft_f32.c ****     p1sp3_1 = p1[1] - p3[1];
 1177              		.loc 1 1144 5 is_stmt 1 view .LVU527
 1178              		.loc 1 1144 13 is_stmt 0 view .LVU528
 1179 038a 77EEC77A 		vsub.f32	s15, s15, s14
ARM GAS  /tmp/ccSWltYc.s 			page 42


 1180              	.LVL179:
1145:Drivers/CMSIS_DSP/Source/TransformFunctions/arm_cfft_f32.c **** 
1146:Drivers/CMSIS_DSP/Source/TransformFunctions/arm_cfft_f32.c ****     /* col 2 */
1147:Drivers/CMSIS_DSP/Source/TransformFunctions/arm_cfft_f32.c ****     t2[0] = p1sp3_0 + p2[1] - p4[1];
 1181              		.loc 1 1147 5 is_stmt 1 view .LVU529
 1182              		.loc 1 1147 25 is_stmt 0 view .LVU530
 1183 038e 92ED013A 		vldr.32	s6, [r2, #4]
 1184              		.loc 1 1147 21 view .LVU531
 1185 0392 73EE245A 		vadd.f32	s11, s6, s9
 1186              		.loc 1 1147 33 view .LVU532
 1187 0396 93ED015A 		vldr.32	s10, [r3, #4]
 1188              		.loc 1 1147 29 view .LVU533
 1189 039a 75EEC55A 		vsub.f32	s11, s11, s10
 1190              		.loc 1 1147 11 view .LVU534
 1191 039e CDED105A 		vstr.32	s11, [sp, #64]
1148:Drivers/CMSIS_DSP/Source/TransformFunctions/arm_cfft_f32.c ****     t2[1] = p1sp3_1 - p2[0] + p4[0];
 1192              		.loc 1 1148 5 is_stmt 1 view .LVU535
 1193              		.loc 1 1148 25 is_stmt 0 view .LVU536
 1194 03a2 D2ED003A 		vldr.32	s7, [r2]
 1195              		.loc 1 1148 21 view .LVU537
 1196 03a6 77EEE36A 		vsub.f32	s13, s15, s7
 1197              		.loc 1 1148 33 view .LVU538
 1198 03aa 93ED004A 		vldr.32	s8, [r3]
 1199              		.loc 1 1148 29 view .LVU539
 1200 03ae 76EE846A 		vadd.f32	s13, s13, s8
 1201              		.loc 1 1148 11 view .LVU540
 1202 03b2 CDED116A 		vstr.32	s13, [sp, #68]
1149:Drivers/CMSIS_DSP/Source/TransformFunctions/arm_cfft_f32.c ****     /* col 3 */
1150:Drivers/CMSIS_DSP/Source/TransformFunctions/arm_cfft_f32.c ****     t3[0] = p1ap3_0 - p2[0] - p4[0];
 1203              		.loc 1 1150 5 is_stmt 1 view .LVU541
 1204              		.loc 1 1150 21 is_stmt 0 view .LVU542
 1205 03b6 32EE636A 		vsub.f32	s12, s4, s7
 1206              		.loc 1 1150 29 view .LVU543
 1207 03ba 36EE446A 		vsub.f32	s12, s12, s8
 1208              		.loc 1 1150 11 view .LVU544
 1209 03be 8DED0C6A 		vstr.32	s12, [sp, #48]
1151:Drivers/CMSIS_DSP/Source/TransformFunctions/arm_cfft_f32.c ****     t3[1] = p1ap3_1 - p2[1] - p4[1];
 1210              		.loc 1 1151 5 is_stmt 1 view .LVU545
 1211              		.loc 1 1151 21 is_stmt 0 view .LVU546
 1212 03c2 32EEC37A 		vsub.f32	s14, s5, s6
 1213              		.loc 1 1151 29 view .LVU547
 1214 03c6 37EE457A 		vsub.f32	s14, s14, s10
 1215              		.loc 1 1151 11 view .LVU548
 1216 03ca 8DED0D7A 		vstr.32	s14, [sp, #52]
1152:Drivers/CMSIS_DSP/Source/TransformFunctions/arm_cfft_f32.c ****     /* col 4 */
1153:Drivers/CMSIS_DSP/Source/TransformFunctions/arm_cfft_f32.c ****     t4[0] = p1sp3_0 - p2[1] + p4[1];
 1217              		.loc 1 1153 5 is_stmt 1 view .LVU549
 1218              		.loc 1 1153 21 is_stmt 0 view .LVU550
 1219 03ce 74EEC34A 		vsub.f32	s9, s9, s6
 1220              	.LVL180:
 1221              		.loc 1 1153 29 view .LVU551
 1222 03d2 35EE245A 		vadd.f32	s10, s10, s9
 1223              		.loc 1 1153 11 view .LVU552
 1224 03d6 8DED085A 		vstr.32	s10, [sp, #32]
1154:Drivers/CMSIS_DSP/Source/TransformFunctions/arm_cfft_f32.c ****     t4[1] = p1sp3_1 + p2[0] - p4[0];
 1225              		.loc 1 1154 5 is_stmt 1 view .LVU553
 1226              		.loc 1 1154 21 is_stmt 0 view .LVU554
ARM GAS  /tmp/ccSWltYc.s 			page 43


 1227 03da 73EEA77A 		vadd.f32	s15, s7, s15
 1228              	.LVL181:
 1229              		.loc 1 1154 29 view .LVU555
 1230 03de 77EEC47A 		vsub.f32	s15, s15, s8
 1231              		.loc 1 1154 11 view .LVU556
 1232 03e2 CDED097A 		vstr.32	s15, [sp, #36]
1155:Drivers/CMSIS_DSP/Source/TransformFunctions/arm_cfft_f32.c ****     /* col 1 - Top */
1156:Drivers/CMSIS_DSP/Source/TransformFunctions/arm_cfft_f32.c ****     *p1++ = p1ap3_0 + p2[0] + p4[0];
 1233              		.loc 1 1156 5 is_stmt 1 view .LVU557
 1234              		.loc 1 1156 21 is_stmt 0 view .LVU558
 1235 03e6 73EE823A 		vadd.f32	s7, s7, s4
 1236              	.LVL182:
 1237              		.loc 1 1156 29 view .LVU559
 1238 03ea 34EE234A 		vadd.f32	s8, s8, s7
 1239              		.loc 1 1156 11 view .LVU560
 1240 03ee 89ED004A 		vstr.32	s8, [r9]
 1241              	.LVL183:
1157:Drivers/CMSIS_DSP/Source/TransformFunctions/arm_cfft_f32.c ****     *p1++ = p1ap3_1 + p2[1] + p4[1];
 1242              		.loc 1 1157 5 is_stmt 1 view .LVU561
 1243              		.loc 1 1157 25 is_stmt 0 view .LVU562
 1244 03f2 D2ED014A 		vldr.32	s9, [r2, #4]
 1245              		.loc 1 1157 21 view .LVU563
 1246 03f6 74EEA24A 		vadd.f32	s9, s9, s5
 1247              		.loc 1 1157 33 view .LVU564
 1248 03fa 93ED014A 		vldr.32	s8, [r3, #4]
 1249              	.LVL184:
 1250              		.loc 1 1157 29 view .LVU565
 1251 03fe 74EE844A 		vadd.f32	s9, s9, s8
 1252              		.loc 1 1157 11 view .LVU566
 1253 0402 C9ED014A 		vstr.32	s9, [r9, #4]
1158:Drivers/CMSIS_DSP/Source/TransformFunctions/arm_cfft_f32.c **** 
1159:Drivers/CMSIS_DSP/Source/TransformFunctions/arm_cfft_f32.c ****     /* COL 2 */
1160:Drivers/CMSIS_DSP/Source/TransformFunctions/arm_cfft_f32.c ****     twR = tw2[0];
 1254              		.loc 1 1160 5 is_stmt 1 view .LVU567
 1255              		.loc 1 1160 9 is_stmt 0 view .LVU568
 1256 0406 DAED003A 		vldr.32	s7, [r10]
 1257              	.LVL185:
1161:Drivers/CMSIS_DSP/Source/TransformFunctions/arm_cfft_f32.c ****     twI = tw2[1];
 1258              		.loc 1 1161 5 is_stmt 1 view .LVU569
 1259              		.loc 1 1161 9 is_stmt 0 view .LVU570
 1260 040a 9AED014A 		vldr.32	s8, [r10, #4]
 1261              	.LVL186:
1162:Drivers/CMSIS_DSP/Source/TransformFunctions/arm_cfft_f32.c **** 
1163:Drivers/CMSIS_DSP/Source/TransformFunctions/arm_cfft_f32.c ****     m0 = t2[0] * twR;
 1262              		.loc 1 1163 5 is_stmt 1 view .LVU571
 1263              		.loc 1 1163 8 is_stmt 0 view .LVU572
 1264 040e 65EEA34A 		vmul.f32	s9, s11, s7
 1265              	.LVL187:
1164:Drivers/CMSIS_DSP/Source/TransformFunctions/arm_cfft_f32.c ****     m1 = t2[1] * twI;
 1266              		.loc 1 1164 5 is_stmt 1 view .LVU573
 1267              		.loc 1 1164 8 is_stmt 0 view .LVU574
 1268 0412 26EE843A 		vmul.f32	s6, s13, s8
 1269              	.LVL188:
1165:Drivers/CMSIS_DSP/Source/TransformFunctions/arm_cfft_f32.c ****     m2 = t2[1] * twR;
 1270              		.loc 1 1165 5 is_stmt 1 view .LVU575
 1271              		.loc 1 1165 8 is_stmt 0 view .LVU576
 1272 0416 66EEA36A 		vmul.f32	s13, s13, s7
ARM GAS  /tmp/ccSWltYc.s 			page 44


 1273              	.LVL189:
1166:Drivers/CMSIS_DSP/Source/TransformFunctions/arm_cfft_f32.c ****     m3 = t2[0] * twI;
 1274              		.loc 1 1166 5 is_stmt 1 view .LVU577
 1275              		.loc 1 1166 8 is_stmt 0 view .LVU578
 1276 041a 65EE845A 		vmul.f32	s11, s11, s8
 1277              	.LVL190:
1167:Drivers/CMSIS_DSP/Source/TransformFunctions/arm_cfft_f32.c **** 
1168:Drivers/CMSIS_DSP/Source/TransformFunctions/arm_cfft_f32.c ****     *p2++ = m0 + m1;
 1278              		.loc 1 1168 5 is_stmt 1 view .LVU579
 1279              		.loc 1 1168 16 is_stmt 0 view .LVU580
 1280 041e 74EE834A 		vadd.f32	s9, s9, s6
 1281              	.LVL191:
 1282              		.loc 1 1168 11 view .LVU581
 1283 0422 C2ED004A 		vstr.32	s9, [r2]
1169:Drivers/CMSIS_DSP/Source/TransformFunctions/arm_cfft_f32.c ****     *p2++ = m2 - m3;
 1284              		.loc 1 1169 5 is_stmt 1 view .LVU582
 1285              	.LVL192:
 1286              		.loc 1 1169 16 is_stmt 0 view .LVU583
 1287 0426 76EEE56A 		vsub.f32	s13, s13, s11
 1288              	.LVL193:
 1289              		.loc 1 1169 11 view .LVU584
 1290 042a C2ED016A 		vstr.32	s13, [r2, #4]
1170:Drivers/CMSIS_DSP/Source/TransformFunctions/arm_cfft_f32.c ****     /* COL 3 */
1171:Drivers/CMSIS_DSP/Source/TransformFunctions/arm_cfft_f32.c ****     twR = tw3[0];
 1291              		.loc 1 1171 5 is_stmt 1 view .LVU585
 1292              		.loc 1 1171 9 is_stmt 0 view .LVU586
 1293 042e D4ED004A 		vldr.32	s9, [r4]
 1294              	.LVL194:
1172:Drivers/CMSIS_DSP/Source/TransformFunctions/arm_cfft_f32.c ****     twI = tw3[1];
 1295              		.loc 1 1172 5 is_stmt 1 view .LVU587
 1296              		.loc 1 1172 9 is_stmt 0 view .LVU588
 1297 0432 D4ED015A 		vldr.32	s11, [r4, #4]
 1298              	.LVL195:
1173:Drivers/CMSIS_DSP/Source/TransformFunctions/arm_cfft_f32.c **** 
1174:Drivers/CMSIS_DSP/Source/TransformFunctions/arm_cfft_f32.c ****     m0 = t3[0] * twR;
 1299              		.loc 1 1174 5 is_stmt 1 view .LVU589
 1300              		.loc 1 1174 8 is_stmt 0 view .LVU590
 1301 0436 66EE246A 		vmul.f32	s13, s12, s9
 1302              	.LVL196:
1175:Drivers/CMSIS_DSP/Source/TransformFunctions/arm_cfft_f32.c ****     m1 = t3[1] * twI;
 1303              		.loc 1 1175 5 is_stmt 1 view .LVU591
 1304              		.loc 1 1175 8 is_stmt 0 view .LVU592
 1305 043a 27EE254A 		vmul.f32	s8, s14, s11
 1306              	.LVL197:
1176:Drivers/CMSIS_DSP/Source/TransformFunctions/arm_cfft_f32.c ****     m2 = t3[1] * twR;
 1307              		.loc 1 1176 5 is_stmt 1 view .LVU593
 1308              		.loc 1 1176 8 is_stmt 0 view .LVU594
 1309 043e 27EE247A 		vmul.f32	s14, s14, s9
 1310              	.LVL198:
1177:Drivers/CMSIS_DSP/Source/TransformFunctions/arm_cfft_f32.c ****     m3 = t3[0] * twI;
 1311              		.loc 1 1177 5 is_stmt 1 view .LVU595
 1312              		.loc 1 1177 8 is_stmt 0 view .LVU596
 1313 0442 26EE256A 		vmul.f32	s12, s12, s11
 1314              	.LVL199:
1178:Drivers/CMSIS_DSP/Source/TransformFunctions/arm_cfft_f32.c **** 
1179:Drivers/CMSIS_DSP/Source/TransformFunctions/arm_cfft_f32.c ****     *p3++ = m0 + m1;
 1315              		.loc 1 1179 5 is_stmt 1 view .LVU597
ARM GAS  /tmp/ccSWltYc.s 			page 45


 1316              		.loc 1 1179 16 is_stmt 0 view .LVU598
 1317 0446 76EE846A 		vadd.f32	s13, s13, s8
 1318              	.LVL200:
 1319              		.loc 1 1179 11 view .LVU599
 1320 044a C0ED006A 		vstr.32	s13, [r0]
1180:Drivers/CMSIS_DSP/Source/TransformFunctions/arm_cfft_f32.c ****     *p3++ = m2 - m3;
 1321              		.loc 1 1180 5 is_stmt 1 view .LVU600
 1322              	.LVL201:
 1323              		.loc 1 1180 16 is_stmt 0 view .LVU601
 1324 044e 37EE467A 		vsub.f32	s14, s14, s12
 1325              	.LVL202:
 1326              		.loc 1 1180 11 view .LVU602
 1327 0452 80ED017A 		vstr.32	s14, [r0, #4]
1181:Drivers/CMSIS_DSP/Source/TransformFunctions/arm_cfft_f32.c ****     /* COL 4 */
1182:Drivers/CMSIS_DSP/Source/TransformFunctions/arm_cfft_f32.c ****     twR = tw4[0];
 1328              		.loc 1 1182 5 is_stmt 1 view .LVU603
 1329              		.loc 1 1182 9 is_stmt 0 view .LVU604
 1330 0456 9EED006A 		vldr.32	s12, [lr]
 1331              	.LVL203:
1183:Drivers/CMSIS_DSP/Source/TransformFunctions/arm_cfft_f32.c ****     twI = tw4[1];
 1332              		.loc 1 1183 5 is_stmt 1 view .LVU605
 1333              		.loc 1 1183 9 is_stmt 0 view .LVU606
 1334 045a DEED016A 		vldr.32	s13, [lr, #4]
 1335              	.LVL204:
1184:Drivers/CMSIS_DSP/Source/TransformFunctions/arm_cfft_f32.c **** 
1185:Drivers/CMSIS_DSP/Source/TransformFunctions/arm_cfft_f32.c ****     m0 = t4[0] * twR;
 1336              		.loc 1 1185 5 is_stmt 1 view .LVU607
 1337              		.loc 1 1185 8 is_stmt 0 view .LVU608
 1338 045e 25EE067A 		vmul.f32	s14, s10, s12
 1339              	.LVL205:
1186:Drivers/CMSIS_DSP/Source/TransformFunctions/arm_cfft_f32.c ****     m1 = t4[1] * twI;
 1340              		.loc 1 1186 5 is_stmt 1 view .LVU609
 1341              		.loc 1 1186 8 is_stmt 0 view .LVU610
 1342 0462 67EEA65A 		vmul.f32	s11, s15, s13
 1343              	.LVL206:
1187:Drivers/CMSIS_DSP/Source/TransformFunctions/arm_cfft_f32.c ****     m2 = t4[1] * twR;
 1344              		.loc 1 1187 5 is_stmt 1 view .LVU611
 1345              		.loc 1 1187 8 is_stmt 0 view .LVU612
 1346 0466 67EE867A 		vmul.f32	s15, s15, s12
 1347              	.LVL207:
1188:Drivers/CMSIS_DSP/Source/TransformFunctions/arm_cfft_f32.c ****     m3 = t4[0] * twI;
 1348              		.loc 1 1188 5 is_stmt 1 view .LVU613
 1349              		.loc 1 1188 8 is_stmt 0 view .LVU614
 1350 046a 25EE265A 		vmul.f32	s10, s10, s13
 1351              	.LVL208:
1189:Drivers/CMSIS_DSP/Source/TransformFunctions/arm_cfft_f32.c **** 
1190:Drivers/CMSIS_DSP/Source/TransformFunctions/arm_cfft_f32.c ****     *p4++ = m0 + m1;
 1352              		.loc 1 1190 5 is_stmt 1 view .LVU615
 1353              		.loc 1 1190 16 is_stmt 0 view .LVU616
 1354 046e 37EE257A 		vadd.f32	s14, s14, s11
 1355              	.LVL209:
 1356              		.loc 1 1190 11 view .LVU617
 1357 0472 83ED007A 		vstr.32	s14, [r3]
1191:Drivers/CMSIS_DSP/Source/TransformFunctions/arm_cfft_f32.c ****     *p4++ = m2 - m3;
 1358              		.loc 1 1191 5 is_stmt 1 view .LVU618
 1359              	.LVL210:
 1360              		.loc 1 1191 16 is_stmt 0 view .LVU619
ARM GAS  /tmp/ccSWltYc.s 			page 46


 1361 0476 77EEC57A 		vsub.f32	s15, s15, s10
 1362              	.LVL211:
 1363              		.loc 1 1191 11 view .LVU620
 1364 047a C3ED017A 		vstr.32	s15, [r3, #4]
1192:Drivers/CMSIS_DSP/Source/TransformFunctions/arm_cfft_f32.c **** 
1193:Drivers/CMSIS_DSP/Source/TransformFunctions/arm_cfft_f32.c ****     /* first col */
1194:Drivers/CMSIS_DSP/Source/TransformFunctions/arm_cfft_f32.c ****     arm_radix8_butterfly_f32 (pCol1, L, (float32_t *) S->pTwiddle, 4U);
 1365              		.loc 1 1194 5 is_stmt 1 view .LVU621
 1366 047e BDF80C40 		ldrh	r4, [sp, #12]
 1367              	.LVL212:
 1368              		.loc 1 1194 5 is_stmt 0 view .LVU622
 1369 0482 0423     		movs	r3, #4
 1370              	.LVL213:
 1371              		.loc 1 1194 5 view .LVU623
 1372 0484 049F     		ldr	r7, [sp, #16]
 1373              	.LVL214:
 1374              		.loc 1 1194 5 view .LVU624
 1375 0486 7A68     		ldr	r2, [r7, #4]
 1376              	.LVL215:
 1377              		.loc 1 1194 5 view .LVU625
 1378 0488 2146     		mov	r1, r4
 1379              	.LVL216:
 1380              		.loc 1 1194 5 view .LVU626
 1381 048a 0598     		ldr	r0, [sp, #20]
 1382              	.LVL217:
 1383              		.loc 1 1194 5 view .LVU627
 1384 048c FFF7FEFF 		bl	arm_radix8_butterfly_f32
 1385              	.LVL218:
1195:Drivers/CMSIS_DSP/Source/TransformFunctions/arm_cfft_f32.c **** 
1196:Drivers/CMSIS_DSP/Source/TransformFunctions/arm_cfft_f32.c ****     /* second col */
1197:Drivers/CMSIS_DSP/Source/TransformFunctions/arm_cfft_f32.c ****     arm_radix8_butterfly_f32 (pCol2, L, (float32_t *) S->pTwiddle, 4U);
 1386              		.loc 1 1197 5 is_stmt 1 view .LVU628
 1387 0490 0423     		movs	r3, #4
 1388 0492 7A68     		ldr	r2, [r7, #4]
 1389 0494 2146     		mov	r1, r4
 1390 0496 3046     		mov	r0, r6
 1391 0498 FFF7FEFF 		bl	arm_radix8_butterfly_f32
 1392              	.LVL219:
1198:Drivers/CMSIS_DSP/Source/TransformFunctions/arm_cfft_f32.c **** 
1199:Drivers/CMSIS_DSP/Source/TransformFunctions/arm_cfft_f32.c ****     /* third col */
1200:Drivers/CMSIS_DSP/Source/TransformFunctions/arm_cfft_f32.c ****     arm_radix8_butterfly_f32 (pCol3, L, (float32_t *) S->pTwiddle, 4U);
 1393              		.loc 1 1200 5 view .LVU629
 1394 049c 0423     		movs	r3, #4
 1395 049e 7A68     		ldr	r2, [r7, #4]
 1396 04a0 2146     		mov	r1, r4
 1397 04a2 0298     		ldr	r0, [sp, #8]
 1398 04a4 FFF7FEFF 		bl	arm_radix8_butterfly_f32
 1399              	.LVL220:
1201:Drivers/CMSIS_DSP/Source/TransformFunctions/arm_cfft_f32.c **** 
1202:Drivers/CMSIS_DSP/Source/TransformFunctions/arm_cfft_f32.c ****     /* fourth col */
1203:Drivers/CMSIS_DSP/Source/TransformFunctions/arm_cfft_f32.c ****     arm_radix8_butterfly_f32 (pCol4, L, (float32_t *) S->pTwiddle, 4U);
 1400              		.loc 1 1203 5 view .LVU630
 1401 04a8 0423     		movs	r3, #4
 1402 04aa 7A68     		ldr	r2, [r7, #4]
 1403 04ac 2146     		mov	r1, r4
 1404 04ae 2846     		mov	r0, r5
 1405 04b0 FFF7FEFF 		bl	arm_radix8_butterfly_f32
ARM GAS  /tmp/ccSWltYc.s 			page 47


 1406              	.LVL221:
1204:Drivers/CMSIS_DSP/Source/TransformFunctions/arm_cfft_f32.c **** }
 1407              		.loc 1 1204 1 is_stmt 0 view .LVU631
 1408 04b4 15B0     		add	sp, sp, #84
 1409              	.LCFI8:
 1410              		.cfi_def_cfa_offset 52
 1411              		@ sp needed
 1412 04b6 BDEC048B 		vldm	sp!, {d8-d9}
 1413              	.LCFI9:
 1414              		.cfi_restore 82
 1415              		.cfi_restore 83
 1416              		.cfi_restore 80
 1417              		.cfi_restore 81
 1418              		.cfi_def_cfa_offset 36
 1419 04ba BDE8F08F 		pop	{r4, r5, r6, r7, r8, r9, r10, fp, pc}
 1420              		.loc 1 1204 1 view .LVU632
 1421              		.cfi_endproc
 1422              	.LFE118:
 1424              		.section	.text.arm_cfft_f32,"ax",%progbits
 1425              		.align	1
 1426              		.global	arm_cfft_f32
 1427              		.syntax unified
 1428              		.thumb
 1429              		.thumb_func
 1431              	arm_cfft_f32:
 1432              	.LVL222:
 1433              	.LFB119:
1205:Drivers/CMSIS_DSP/Source/TransformFunctions/arm_cfft_f32.c **** 
1206:Drivers/CMSIS_DSP/Source/TransformFunctions/arm_cfft_f32.c **** /**
1207:Drivers/CMSIS_DSP/Source/TransformFunctions/arm_cfft_f32.c ****   @addtogroup ComplexFFTF32
1208:Drivers/CMSIS_DSP/Source/TransformFunctions/arm_cfft_f32.c ****   @{
1209:Drivers/CMSIS_DSP/Source/TransformFunctions/arm_cfft_f32.c ****  */
1210:Drivers/CMSIS_DSP/Source/TransformFunctions/arm_cfft_f32.c **** 
1211:Drivers/CMSIS_DSP/Source/TransformFunctions/arm_cfft_f32.c **** /**
1212:Drivers/CMSIS_DSP/Source/TransformFunctions/arm_cfft_f32.c ****   @brief         Processing function for the floating-point complex FFT.
1213:Drivers/CMSIS_DSP/Source/TransformFunctions/arm_cfft_f32.c ****   @param[in]     S              points to an instance of the floating-point CFFT structure
1214:Drivers/CMSIS_DSP/Source/TransformFunctions/arm_cfft_f32.c ****   @param[in,out] p1             points to the complex data buffer. Processing occurs in-place
1215:Drivers/CMSIS_DSP/Source/TransformFunctions/arm_cfft_f32.c ****   @param[in]     ifftFlag       flag that selects transform direction
1216:Drivers/CMSIS_DSP/Source/TransformFunctions/arm_cfft_f32.c ****                    - value = 0: forward transform
1217:Drivers/CMSIS_DSP/Source/TransformFunctions/arm_cfft_f32.c ****                    - value = 1: inverse transform
1218:Drivers/CMSIS_DSP/Source/TransformFunctions/arm_cfft_f32.c ****   @param[in]     bitReverseFlag flag that enables / disables bit reversal of output
1219:Drivers/CMSIS_DSP/Source/TransformFunctions/arm_cfft_f32.c ****                    - value = 0: disables bit reversal of output
1220:Drivers/CMSIS_DSP/Source/TransformFunctions/arm_cfft_f32.c ****                    - value = 1: enables bit reversal of output
1221:Drivers/CMSIS_DSP/Source/TransformFunctions/arm_cfft_f32.c ****   @par Neon version
1222:Drivers/CMSIS_DSP/Source/TransformFunctions/arm_cfft_f32.c ****                      The neon version has a different API.
1223:Drivers/CMSIS_DSP/Source/TransformFunctions/arm_cfft_f32.c ****                      The input and output buffers must be
1224:Drivers/CMSIS_DSP/Source/TransformFunctions/arm_cfft_f32.c ****                      different.
1225:Drivers/CMSIS_DSP/Source/TransformFunctions/arm_cfft_f32.c ****                      There is an optional temporary buffer.
1226:Drivers/CMSIS_DSP/Source/TransformFunctions/arm_cfft_f32.c ****                      If the temporary buffer is not used, the
1227:Drivers/CMSIS_DSP/Source/TransformFunctions/arm_cfft_f32.c ****                      input buffer is modified.
1228:Drivers/CMSIS_DSP/Source/TransformFunctions/arm_cfft_f32.c ****                      The bit reverse flag is not more 
1229:Drivers/CMSIS_DSP/Source/TransformFunctions/arm_cfft_f32.c ****                      available in Neon version.
1230:Drivers/CMSIS_DSP/Source/TransformFunctions/arm_cfft_f32.c **** 
1231:Drivers/CMSIS_DSP/Source/TransformFunctions/arm_cfft_f32.c ****   @par
1232:Drivers/CMSIS_DSP/Source/TransformFunctions/arm_cfft_f32.c ****    @code
1233:Drivers/CMSIS_DSP/Source/TransformFunctions/arm_cfft_f32.c ****         void arm_cfft_f32(
1234:Drivers/CMSIS_DSP/Source/TransformFunctions/arm_cfft_f32.c ****                 const arm_cfft_instance_f32 * S,
ARM GAS  /tmp/ccSWltYc.s 			page 48


1235:Drivers/CMSIS_DSP/Source/TransformFunctions/arm_cfft_f32.c ****                       float32_t * pIn,
1236:Drivers/CMSIS_DSP/Source/TransformFunctions/arm_cfft_f32.c ****                       float32_t * pOut,
1237:Drivers/CMSIS_DSP/Source/TransformFunctions/arm_cfft_f32.c ****                       float32_t * pBuffer, 
1238:Drivers/CMSIS_DSP/Source/TransformFunctions/arm_cfft_f32.c ****                       uint8_t ifftFlag);
1239:Drivers/CMSIS_DSP/Source/TransformFunctions/arm_cfft_f32.c ****   @endcode
1240:Drivers/CMSIS_DSP/Source/TransformFunctions/arm_cfft_f32.c **** 
1241:Drivers/CMSIS_DSP/Source/TransformFunctions/arm_cfft_f32.c ****   @par Size of buffers according to the target architecture and datatype:
1242:Drivers/CMSIS_DSP/Source/TransformFunctions/arm_cfft_f32.c ****        They are described on the page \ref transformbuffers "transform buffers".
1243:Drivers/CMSIS_DSP/Source/TransformFunctions/arm_cfft_f32.c **** 
1244:Drivers/CMSIS_DSP/Source/TransformFunctions/arm_cfft_f32.c ****  */
1245:Drivers/CMSIS_DSP/Source/TransformFunctions/arm_cfft_f32.c **** 
1246:Drivers/CMSIS_DSP/Source/TransformFunctions/arm_cfft_f32.c **** ARM_DSP_ATTRIBUTE void arm_cfft_f32(
1247:Drivers/CMSIS_DSP/Source/TransformFunctions/arm_cfft_f32.c ****   const arm_cfft_instance_f32 * S,
1248:Drivers/CMSIS_DSP/Source/TransformFunctions/arm_cfft_f32.c ****         float32_t * p1,
1249:Drivers/CMSIS_DSP/Source/TransformFunctions/arm_cfft_f32.c ****         uint8_t ifftFlag,
1250:Drivers/CMSIS_DSP/Source/TransformFunctions/arm_cfft_f32.c ****         uint8_t bitReverseFlag)
1251:Drivers/CMSIS_DSP/Source/TransformFunctions/arm_cfft_f32.c **** {
 1434              		.loc 1 1251 1 is_stmt 1 view -0
 1435              		.cfi_startproc
 1436              		@ args = 0, pretend = 0, frame = 0
 1437              		@ frame_needed = 0, uses_anonymous_args = 0
 1438              		.loc 1 1251 1 is_stmt 0 view .LVU634
 1439 0000 2DE9F041 		push	{r4, r5, r6, r7, r8, lr}
 1440              	.LCFI10:
 1441              		.cfi_def_cfa_offset 24
 1442              		.cfi_offset 4, -24
 1443              		.cfi_offset 5, -20
 1444              		.cfi_offset 6, -16
 1445              		.cfi_offset 7, -12
 1446              		.cfi_offset 8, -8
 1447              		.cfi_offset 14, -4
 1448 0004 0646     		mov	r6, r0
 1449 0006 0C46     		mov	r4, r1
 1450 0008 1746     		mov	r7, r2
 1451 000a 9846     		mov	r8, r3
1252:Drivers/CMSIS_DSP/Source/TransformFunctions/arm_cfft_f32.c ****   uint32_t  L = S->fftLen, l;
 1452              		.loc 1 1252 3 is_stmt 1 view .LVU635
 1453              		.loc 1 1252 18 is_stmt 0 view .LVU636
 1454 000c 0588     		ldrh	r5, [r0]
 1455              	.LVL223:
1253:Drivers/CMSIS_DSP/Source/TransformFunctions/arm_cfft_f32.c ****   float32_t invL, * pSrc;
 1456              		.loc 1 1253 3 is_stmt 1 view .LVU637
1254:Drivers/CMSIS_DSP/Source/TransformFunctions/arm_cfft_f32.c **** 
1255:Drivers/CMSIS_DSP/Source/TransformFunctions/arm_cfft_f32.c ****   if (ifftFlag == 1U)
 1457              		.loc 1 1255 3 view .LVU638
 1458              		.loc 1 1255 6 is_stmt 0 view .LVU639
 1459 000e 012A     		cmp	r2, #1
 1460 0010 0FD0     		beq	.L25
 1461              	.LVL224:
 1462              	.L10:
1256:Drivers/CMSIS_DSP/Source/TransformFunctions/arm_cfft_f32.c ****   {
1257:Drivers/CMSIS_DSP/Source/TransformFunctions/arm_cfft_f32.c ****     /* Conjugate input data */
1258:Drivers/CMSIS_DSP/Source/TransformFunctions/arm_cfft_f32.c ****     pSrc = p1 + 1;
1259:Drivers/CMSIS_DSP/Source/TransformFunctions/arm_cfft_f32.c ****     for (l = 0; l < L; l++)
1260:Drivers/CMSIS_DSP/Source/TransformFunctions/arm_cfft_f32.c ****     {
1261:Drivers/CMSIS_DSP/Source/TransformFunctions/arm_cfft_f32.c ****       *pSrc = -*pSrc;
1262:Drivers/CMSIS_DSP/Source/TransformFunctions/arm_cfft_f32.c ****       pSrc += 2;
ARM GAS  /tmp/ccSWltYc.s 			page 49


1263:Drivers/CMSIS_DSP/Source/TransformFunctions/arm_cfft_f32.c ****     }
1264:Drivers/CMSIS_DSP/Source/TransformFunctions/arm_cfft_f32.c ****   }
1265:Drivers/CMSIS_DSP/Source/TransformFunctions/arm_cfft_f32.c **** 
1266:Drivers/CMSIS_DSP/Source/TransformFunctions/arm_cfft_f32.c ****   switch (L)
 1463              		.loc 1 1266 3 is_stmt 1 view .LVU640
 1464 0012 B5F5807F 		cmp	r5, #256
 1465 0016 07D0     		beq	.L13
 1466 0018 28D8     		bhi	.L14
 1467 001a 402D     		cmp	r5, #64
 1468 001c 34D0     		beq	.L15
 1469 001e 19D8     		bhi	.L16
 1470 0020 102D     		cmp	r5, #16
 1471 0022 19D0     		beq	.L17
 1472 0024 202D     		cmp	r5, #32
 1473 0026 1BD1     		bne	.L18
 1474              	.L13:
1267:Drivers/CMSIS_DSP/Source/TransformFunctions/arm_cfft_f32.c ****   {
1268:Drivers/CMSIS_DSP/Source/TransformFunctions/arm_cfft_f32.c ****   case 16:
1269:Drivers/CMSIS_DSP/Source/TransformFunctions/arm_cfft_f32.c ****   case 128:
1270:Drivers/CMSIS_DSP/Source/TransformFunctions/arm_cfft_f32.c ****   case 1024:
1271:Drivers/CMSIS_DSP/Source/TransformFunctions/arm_cfft_f32.c ****     arm_cfft_radix8by2_f32 ( (arm_cfft_instance_f32 *) S, p1);
1272:Drivers/CMSIS_DSP/Source/TransformFunctions/arm_cfft_f32.c ****     break;
1273:Drivers/CMSIS_DSP/Source/TransformFunctions/arm_cfft_f32.c ****   case 32:
1274:Drivers/CMSIS_DSP/Source/TransformFunctions/arm_cfft_f32.c ****   case 256:
1275:Drivers/CMSIS_DSP/Source/TransformFunctions/arm_cfft_f32.c ****   case 2048:
1276:Drivers/CMSIS_DSP/Source/TransformFunctions/arm_cfft_f32.c ****     arm_cfft_radix8by4_f32 ( (arm_cfft_instance_f32 *) S, p1);
 1475              		.loc 1 1276 5 view .LVU641
 1476 0028 2146     		mov	r1, r4
 1477 002a 3046     		mov	r0, r6
 1478              	.LVL225:
 1479              		.loc 1 1276 5 is_stmt 0 view .LVU642
 1480 002c FFF7FEFF 		bl	arm_cfft_radix8by4_f32
 1481              	.LVL226:
1277:Drivers/CMSIS_DSP/Source/TransformFunctions/arm_cfft_f32.c ****     break;
 1482              		.loc 1 1277 5 is_stmt 1 view .LVU643
 1483 0030 16E0     		b	.L18
 1484              	.LVL227:
 1485              	.L25:
1258:Drivers/CMSIS_DSP/Source/TransformFunctions/arm_cfft_f32.c ****     for (l = 0; l < L; l++)
 1486              		.loc 1 1258 5 view .LVU644
1258:Drivers/CMSIS_DSP/Source/TransformFunctions/arm_cfft_f32.c ****     for (l = 0; l < L; l++)
 1487              		.loc 1 1258 10 is_stmt 0 view .LVU645
 1488 0032 01F1040C 		add	ip, r1, #4
 1489              	.LVL228:
1259:Drivers/CMSIS_DSP/Source/TransformFunctions/arm_cfft_f32.c ****     {
 1490              		.loc 1 1259 5 is_stmt 1 view .LVU646
1259:Drivers/CMSIS_DSP/Source/TransformFunctions/arm_cfft_f32.c ****     {
 1491              		.loc 1 1259 12 is_stmt 0 view .LVU647
 1492 0036 0021     		movs	r1, #0
 1493              	.LVL229:
1259:Drivers/CMSIS_DSP/Source/TransformFunctions/arm_cfft_f32.c ****     {
 1494              		.loc 1 1259 5 view .LVU648
 1495 0038 09E0     		b	.L11
 1496              	.LVL230:
 1497              	.L12:
1261:Drivers/CMSIS_DSP/Source/TransformFunctions/arm_cfft_f32.c ****       pSrc += 2;
 1498              		.loc 1 1261 7 is_stmt 1 view .LVU649
ARM GAS  /tmp/ccSWltYc.s 			page 50


1261:Drivers/CMSIS_DSP/Source/TransformFunctions/arm_cfft_f32.c ****       pSrc += 2;
 1499              		.loc 1 1261 16 is_stmt 0 view .LVU650
 1500 003a DCED007A 		vldr.32	s15, [ip]
1261:Drivers/CMSIS_DSP/Source/TransformFunctions/arm_cfft_f32.c ****       pSrc += 2;
 1501              		.loc 1 1261 15 view .LVU651
 1502 003e F1EE677A 		vneg.f32	s15, s15
1261:Drivers/CMSIS_DSP/Source/TransformFunctions/arm_cfft_f32.c ****       pSrc += 2;
 1503              		.loc 1 1261 13 view .LVU652
 1504 0042 6346     		mov	r3, ip
 1505 0044 0CF1080C 		add	ip, ip, #8
 1506              	.LVL231:
1261:Drivers/CMSIS_DSP/Source/TransformFunctions/arm_cfft_f32.c ****       pSrc += 2;
 1507              		.loc 1 1261 13 view .LVU653
 1508 0048 C3ED007A 		vstr.32	s15, [r3]
1262:Drivers/CMSIS_DSP/Source/TransformFunctions/arm_cfft_f32.c ****     }
 1509              		.loc 1 1262 7 is_stmt 1 view .LVU654
 1510              	.LVL232:
1259:Drivers/CMSIS_DSP/Source/TransformFunctions/arm_cfft_f32.c ****     {
 1511              		.loc 1 1259 25 discriminator 3 view .LVU655
 1512 004c 0131     		adds	r1, r1, #1
 1513              	.LVL233:
 1514              	.L11:
1259:Drivers/CMSIS_DSP/Source/TransformFunctions/arm_cfft_f32.c ****     {
 1515              		.loc 1 1259 19 discriminator 1 view .LVU656
 1516 004e A942     		cmp	r1, r5
 1517 0050 F3D3     		bcc	.L12
1259:Drivers/CMSIS_DSP/Source/TransformFunctions/arm_cfft_f32.c ****     {
 1518              		.loc 1 1259 19 is_stmt 0 discriminator 1 view .LVU657
 1519 0052 DEE7     		b	.L10
 1520              	.LVL234:
 1521              	.L16:
1266:Drivers/CMSIS_DSP/Source/TransformFunctions/arm_cfft_f32.c ****   {
 1522              		.loc 1 1266 3 view .LVU658
 1523 0054 802D     		cmp	r5, #128
 1524 0056 03D1     		bne	.L18
 1525              	.L17:
1271:Drivers/CMSIS_DSP/Source/TransformFunctions/arm_cfft_f32.c ****     break;
 1526              		.loc 1 1271 5 is_stmt 1 view .LVU659
 1527 0058 2146     		mov	r1, r4
 1528 005a 3046     		mov	r0, r6
 1529              	.LVL235:
1271:Drivers/CMSIS_DSP/Source/TransformFunctions/arm_cfft_f32.c ****     break;
 1530              		.loc 1 1271 5 is_stmt 0 view .LVU660
 1531 005c FFF7FEFF 		bl	arm_cfft_radix8by2_f32
 1532              	.LVL236:
1272:Drivers/CMSIS_DSP/Source/TransformFunctions/arm_cfft_f32.c ****   case 32:
 1533              		.loc 1 1272 5 is_stmt 1 view .LVU661
 1534              	.L18:
1278:Drivers/CMSIS_DSP/Source/TransformFunctions/arm_cfft_f32.c ****   case 64:
1279:Drivers/CMSIS_DSP/Source/TransformFunctions/arm_cfft_f32.c ****   case 512:
1280:Drivers/CMSIS_DSP/Source/TransformFunctions/arm_cfft_f32.c ****   case 4096:
1281:Drivers/CMSIS_DSP/Source/TransformFunctions/arm_cfft_f32.c ****     arm_radix8_butterfly_f32 ( p1, L, (float32_t *) S->pTwiddle, 1);
1282:Drivers/CMSIS_DSP/Source/TransformFunctions/arm_cfft_f32.c ****     break;
1283:Drivers/CMSIS_DSP/Source/TransformFunctions/arm_cfft_f32.c ****   }
1284:Drivers/CMSIS_DSP/Source/TransformFunctions/arm_cfft_f32.c **** 
1285:Drivers/CMSIS_DSP/Source/TransformFunctions/arm_cfft_f32.c ****   if ( bitReverseFlag )
 1535              		.loc 1 1285 3 view .LVU662
ARM GAS  /tmp/ccSWltYc.s 			page 51


 1536              		.loc 1 1285 6 is_stmt 0 view .LVU663
 1537 0060 4346     		mov	r3, r8
 1538 0062 C3B9     		cbnz	r3, .L26
 1539              	.L20:
1286:Drivers/CMSIS_DSP/Source/TransformFunctions/arm_cfft_f32.c ****     arm_bitreversal_32 ((uint32_t*) p1, S->bitRevLength, S->pBitRevTable);
1287:Drivers/CMSIS_DSP/Source/TransformFunctions/arm_cfft_f32.c **** 
1288:Drivers/CMSIS_DSP/Source/TransformFunctions/arm_cfft_f32.c ****   if (ifftFlag == 1U)
 1540              		.loc 1 1288 3 is_stmt 1 view .LVU664
 1541              		.loc 1 1288 6 is_stmt 0 view .LVU665
 1542 0064 012F     		cmp	r7, #1
 1543 0066 1CD0     		beq	.L27
 1544              	.LVL237:
 1545              	.L9:
1289:Drivers/CMSIS_DSP/Source/TransformFunctions/arm_cfft_f32.c ****   {
1290:Drivers/CMSIS_DSP/Source/TransformFunctions/arm_cfft_f32.c ****     invL = 1.0f / (float32_t)L;
1291:Drivers/CMSIS_DSP/Source/TransformFunctions/arm_cfft_f32.c **** 
1292:Drivers/CMSIS_DSP/Source/TransformFunctions/arm_cfft_f32.c ****     /* Conjugate and scale output data */
1293:Drivers/CMSIS_DSP/Source/TransformFunctions/arm_cfft_f32.c ****     pSrc = p1;
1294:Drivers/CMSIS_DSP/Source/TransformFunctions/arm_cfft_f32.c ****     for (l= 0; l < L; l++)
1295:Drivers/CMSIS_DSP/Source/TransformFunctions/arm_cfft_f32.c ****     {
1296:Drivers/CMSIS_DSP/Source/TransformFunctions/arm_cfft_f32.c ****       *pSrc++ *=   invL ;
1297:Drivers/CMSIS_DSP/Source/TransformFunctions/arm_cfft_f32.c ****       *pSrc    = -(*pSrc) * invL;
1298:Drivers/CMSIS_DSP/Source/TransformFunctions/arm_cfft_f32.c ****       pSrc++;
1299:Drivers/CMSIS_DSP/Source/TransformFunctions/arm_cfft_f32.c ****     }
1300:Drivers/CMSIS_DSP/Source/TransformFunctions/arm_cfft_f32.c ****   }
1301:Drivers/CMSIS_DSP/Source/TransformFunctions/arm_cfft_f32.c **** }
 1546              		.loc 1 1301 1 view .LVU666
 1547 0068 BDE8F081 		pop	{r4, r5, r6, r7, r8, pc}
 1548              	.LVL238:
 1549              	.L14:
1266:Drivers/CMSIS_DSP/Source/TransformFunctions/arm_cfft_f32.c ****   {
 1550              		.loc 1 1266 3 view .LVU667
 1551 006c B5F5006F 		cmp	r5, #2048
 1552 0070 DAD0     		beq	.L13
 1553 0072 06D8     		bhi	.L19
 1554 0074 B5F5007F 		cmp	r5, #512
 1555 0078 06D0     		beq	.L15
 1556 007a B5F5806F 		cmp	r5, #1024
 1557 007e EBD0     		beq	.L17
 1558 0080 EEE7     		b	.L18
 1559              	.L19:
 1560 0082 B5F5805F 		cmp	r5, #4096
 1561 0086 EBD1     		bne	.L18
 1562              	.L15:
1281:Drivers/CMSIS_DSP/Source/TransformFunctions/arm_cfft_f32.c ****     break;
 1563              		.loc 1 1281 5 is_stmt 1 view .LVU668
 1564 0088 0123     		movs	r3, #1
 1565 008a 7268     		ldr	r2, [r6, #4]
 1566              	.LVL239:
1281:Drivers/CMSIS_DSP/Source/TransformFunctions/arm_cfft_f32.c ****     break;
 1567              		.loc 1 1281 5 is_stmt 0 view .LVU669
 1568 008c 2946     		mov	r1, r5
 1569 008e 2046     		mov	r0, r4
 1570              	.LVL240:
1281:Drivers/CMSIS_DSP/Source/TransformFunctions/arm_cfft_f32.c ****     break;
 1571              		.loc 1 1281 5 view .LVU670
 1572 0090 FFF7FEFF 		bl	arm_radix8_butterfly_f32
ARM GAS  /tmp/ccSWltYc.s 			page 52


 1573              	.LVL241:
1282:Drivers/CMSIS_DSP/Source/TransformFunctions/arm_cfft_f32.c ****   }
 1574              		.loc 1 1282 5 is_stmt 1 view .LVU671
 1575 0094 E4E7     		b	.L18
 1576              	.L26:
1286:Drivers/CMSIS_DSP/Source/TransformFunctions/arm_cfft_f32.c **** 
 1577              		.loc 1 1286 5 view .LVU672
 1578 0096 B268     		ldr	r2, [r6, #8]
 1579 0098 B189     		ldrh	r1, [r6, #12]
 1580 009a 2046     		mov	r0, r4
 1581 009c FFF7FEFF 		bl	arm_bitreversal_32
 1582              	.LVL242:
 1583 00a0 E0E7     		b	.L20
 1584              	.L27:
1290:Drivers/CMSIS_DSP/Source/TransformFunctions/arm_cfft_f32.c **** 
 1585              		.loc 1 1290 5 view .LVU673
1290:Drivers/CMSIS_DSP/Source/TransformFunctions/arm_cfft_f32.c **** 
 1586              		.loc 1 1290 19 is_stmt 0 view .LVU674
 1587 00a2 07EE905A 		vmov	s15, r5	@ int
 1588 00a6 F8EE677A 		vcvt.f32.u32	s15, s15
1290:Drivers/CMSIS_DSP/Source/TransformFunctions/arm_cfft_f32.c **** 
 1589              		.loc 1 1290 10 view .LVU675
 1590 00aa F7EE006A 		vmov.f32	s13, #1.0e+0
 1591 00ae 86EEA77A 		vdiv.f32	s14, s13, s15
 1592              	.LVL243:
1293:Drivers/CMSIS_DSP/Source/TransformFunctions/arm_cfft_f32.c ****     for (l= 0; l < L; l++)
 1593              		.loc 1 1293 5 is_stmt 1 view .LVU676
1294:Drivers/CMSIS_DSP/Source/TransformFunctions/arm_cfft_f32.c ****     {
 1594              		.loc 1 1294 5 view .LVU677
1294:Drivers/CMSIS_DSP/Source/TransformFunctions/arm_cfft_f32.c ****     {
 1595              		.loc 1 1294 11 is_stmt 0 view .LVU678
 1596 00b2 0023     		movs	r3, #0
1294:Drivers/CMSIS_DSP/Source/TransformFunctions/arm_cfft_f32.c ****     {
 1597              		.loc 1 1294 5 view .LVU679
 1598 00b4 0DE0     		b	.L22
 1599              	.LVL244:
 1600              	.L23:
1296:Drivers/CMSIS_DSP/Source/TransformFunctions/arm_cfft_f32.c ****       *pSrc    = -(*pSrc) * invL;
 1601              		.loc 1 1296 7 is_stmt 1 view .LVU680
1296:Drivers/CMSIS_DSP/Source/TransformFunctions/arm_cfft_f32.c ****       *pSrc    = -(*pSrc) * invL;
 1602              		.loc 1 1296 7 is_stmt 0 view .LVU681
 1603 00b6 D4ED007A 		vldr.32	s15, [r4]
1296:Drivers/CMSIS_DSP/Source/TransformFunctions/arm_cfft_f32.c ****       *pSrc    = -(*pSrc) * invL;
 1604              		.loc 1 1296 15 view .LVU682
 1605 00ba 67EE877A 		vmul.f32	s15, s15, s14
 1606 00be C4ED007A 		vstr.32	s15, [r4]
1297:Drivers/CMSIS_DSP/Source/TransformFunctions/arm_cfft_f32.c ****       pSrc++;
 1607              		.loc 1 1297 7 is_stmt 1 view .LVU683
1297:Drivers/CMSIS_DSP/Source/TransformFunctions/arm_cfft_f32.c ****       pSrc++;
 1608              		.loc 1 1297 20 is_stmt 0 view .LVU684
 1609 00c2 D4ED017A 		vldr.32	s15, [r4, #4]
1297:Drivers/CMSIS_DSP/Source/TransformFunctions/arm_cfft_f32.c ****       pSrc++;
 1610              		.loc 1 1297 27 view .LVU685
 1611 00c6 67EEC77A 		vnmul.f32	s15, s15, s14
1297:Drivers/CMSIS_DSP/Source/TransformFunctions/arm_cfft_f32.c ****       pSrc++;
 1612              		.loc 1 1297 16 view .LVU686
 1613 00ca C4ED017A 		vstr.32	s15, [r4, #4]
ARM GAS  /tmp/ccSWltYc.s 			page 53


1298:Drivers/CMSIS_DSP/Source/TransformFunctions/arm_cfft_f32.c ****     }
 1614              		.loc 1 1298 7 is_stmt 1 view .LVU687
1298:Drivers/CMSIS_DSP/Source/TransformFunctions/arm_cfft_f32.c ****     }
 1615              		.loc 1 1298 11 is_stmt 0 view .LVU688
 1616 00ce 0834     		adds	r4, r4, #8
 1617              	.LVL245:
1294:Drivers/CMSIS_DSP/Source/TransformFunctions/arm_cfft_f32.c ****     {
 1618              		.loc 1 1294 24 is_stmt 1 discriminator 3 view .LVU689
 1619 00d0 0133     		adds	r3, r3, #1
 1620              	.LVL246:
 1621              	.L22:
1294:Drivers/CMSIS_DSP/Source/TransformFunctions/arm_cfft_f32.c ****     {
 1622              		.loc 1 1294 18 discriminator 1 view .LVU690
 1623 00d2 AB42     		cmp	r3, r5
 1624 00d4 EFD3     		bcc	.L23
1294:Drivers/CMSIS_DSP/Source/TransformFunctions/arm_cfft_f32.c ****     {
 1625              		.loc 1 1294 18 is_stmt 0 discriminator 1 view .LVU691
 1626 00d6 C7E7     		b	.L9
 1627              		.cfi_endproc
 1628              	.LFE119:
 1630              		.text
 1631              	.Letext0:
 1632              		.file 2 "/usr/arm-none-eabi/include/machine/_default_types.h"
 1633              		.file 3 "/usr/arm-none-eabi/include/sys/_stdint.h"
 1634              		.file 4 "Drivers/CMSIS_DSP/Include/arm_math_types.h"
 1635              		.file 5 "Drivers/CMSIS_DSP/Include/dsp/transform_functions.h"
ARM GAS  /tmp/ccSWltYc.s 			page 54

