ARM GAS  /tmp/ccYTojEy.s 			page 1


   1              		.cpu cortex-m7
   2              		.arch armv7e-m
   3              		.fpu fpv5-d16
   4              		.eabi_attribute 28, 1
   5              		.eabi_attribute 20, 1
   6              		.eabi_attribute 21, 1
   7              		.eabi_attribute 23, 3
   8              		.eabi_attribute 24, 1
   9              		.eabi_attribute 25, 1
  10              		.eabi_attribute 26, 1
  11              		.eabi_attribute 30, 1
  12              		.eabi_attribute 34, 1
  13              		.eabi_attribute 18, 4
  14              		.file	"stm32f7xx_ll_dma.c"
  15              		.text
  16              	.Ltext0:
  17              		.cfi_sections	.debug_frame
  18              		.file 1 "Drivers/STM32F7xx_HAL_Driver/Src/stm32f7xx_ll_dma.c"
  19              		.section	.text.LL_DMA_DeInit,"ax",%progbits
  20              		.align	1
  21              		.global	LL_DMA_DeInit
  22              		.syntax unified
  23              		.thumb
  24              		.thumb_func
  26              	LL_DMA_DeInit:
  27              	.LVL0:
  28              	.LFB320:
   1:Drivers/STM32F7xx_HAL_Driver/Src/stm32f7xx_ll_dma.c **** /**
   2:Drivers/STM32F7xx_HAL_Driver/Src/stm32f7xx_ll_dma.c ****   ******************************************************************************
   3:Drivers/STM32F7xx_HAL_Driver/Src/stm32f7xx_ll_dma.c ****   * @file    stm32f7xx_ll_dma.c
   4:Drivers/STM32F7xx_HAL_Driver/Src/stm32f7xx_ll_dma.c ****   * @author  MCD Application Team
   5:Drivers/STM32F7xx_HAL_Driver/Src/stm32f7xx_ll_dma.c ****   * @brief   DMA LL module driver.
   6:Drivers/STM32F7xx_HAL_Driver/Src/stm32f7xx_ll_dma.c ****   ******************************************************************************
   7:Drivers/STM32F7xx_HAL_Driver/Src/stm32f7xx_ll_dma.c ****   * @attention
   8:Drivers/STM32F7xx_HAL_Driver/Src/stm32f7xx_ll_dma.c ****   *
   9:Drivers/STM32F7xx_HAL_Driver/Src/stm32f7xx_ll_dma.c ****   * Copyright (c) 2017 STMicroelectronics.
  10:Drivers/STM32F7xx_HAL_Driver/Src/stm32f7xx_ll_dma.c ****   * All rights reserved.
  11:Drivers/STM32F7xx_HAL_Driver/Src/stm32f7xx_ll_dma.c ****   *
  12:Drivers/STM32F7xx_HAL_Driver/Src/stm32f7xx_ll_dma.c ****   * This software is licensed under terms that can be found in the LICENSE file in
  13:Drivers/STM32F7xx_HAL_Driver/Src/stm32f7xx_ll_dma.c ****   * the root directory of this software component.
  14:Drivers/STM32F7xx_HAL_Driver/Src/stm32f7xx_ll_dma.c ****   * If no LICENSE file comes with this software, it is provided AS-IS.
  15:Drivers/STM32F7xx_HAL_Driver/Src/stm32f7xx_ll_dma.c ****   *
  16:Drivers/STM32F7xx_HAL_Driver/Src/stm32f7xx_ll_dma.c ****   ******************************************************************************
  17:Drivers/STM32F7xx_HAL_Driver/Src/stm32f7xx_ll_dma.c ****   */
  18:Drivers/STM32F7xx_HAL_Driver/Src/stm32f7xx_ll_dma.c **** #if defined(USE_FULL_LL_DRIVER)
  19:Drivers/STM32F7xx_HAL_Driver/Src/stm32f7xx_ll_dma.c **** 
  20:Drivers/STM32F7xx_HAL_Driver/Src/stm32f7xx_ll_dma.c **** /* Includes ------------------------------------------------------------------*/
  21:Drivers/STM32F7xx_HAL_Driver/Src/stm32f7xx_ll_dma.c **** #include "stm32f7xx_ll_dma.h"
  22:Drivers/STM32F7xx_HAL_Driver/Src/stm32f7xx_ll_dma.c **** #include "stm32f7xx_ll_bus.h"
  23:Drivers/STM32F7xx_HAL_Driver/Src/stm32f7xx_ll_dma.c **** #ifdef  USE_FULL_ASSERT
  24:Drivers/STM32F7xx_HAL_Driver/Src/stm32f7xx_ll_dma.c **** #include "stm32_assert.h"
  25:Drivers/STM32F7xx_HAL_Driver/Src/stm32f7xx_ll_dma.c **** #else
  26:Drivers/STM32F7xx_HAL_Driver/Src/stm32f7xx_ll_dma.c **** #define assert_param(expr) ((void)0U)
  27:Drivers/STM32F7xx_HAL_Driver/Src/stm32f7xx_ll_dma.c **** #endif
  28:Drivers/STM32F7xx_HAL_Driver/Src/stm32f7xx_ll_dma.c **** 
  29:Drivers/STM32F7xx_HAL_Driver/Src/stm32f7xx_ll_dma.c **** /** @addtogroup STM32F7xx_LL_Driver
  30:Drivers/STM32F7xx_HAL_Driver/Src/stm32f7xx_ll_dma.c ****   * @{
ARM GAS  /tmp/ccYTojEy.s 			page 2


  31:Drivers/STM32F7xx_HAL_Driver/Src/stm32f7xx_ll_dma.c ****   */
  32:Drivers/STM32F7xx_HAL_Driver/Src/stm32f7xx_ll_dma.c **** 
  33:Drivers/STM32F7xx_HAL_Driver/Src/stm32f7xx_ll_dma.c **** #if defined (DMA1) || defined (DMA2)
  34:Drivers/STM32F7xx_HAL_Driver/Src/stm32f7xx_ll_dma.c **** 
  35:Drivers/STM32F7xx_HAL_Driver/Src/stm32f7xx_ll_dma.c **** /** @defgroup DMA_LL DMA
  36:Drivers/STM32F7xx_HAL_Driver/Src/stm32f7xx_ll_dma.c ****   * @{
  37:Drivers/STM32F7xx_HAL_Driver/Src/stm32f7xx_ll_dma.c ****   */
  38:Drivers/STM32F7xx_HAL_Driver/Src/stm32f7xx_ll_dma.c **** 
  39:Drivers/STM32F7xx_HAL_Driver/Src/stm32f7xx_ll_dma.c **** /* Private types -------------------------------------------------------------*/
  40:Drivers/STM32F7xx_HAL_Driver/Src/stm32f7xx_ll_dma.c **** /* Private variables ---------------------------------------------------------*/
  41:Drivers/STM32F7xx_HAL_Driver/Src/stm32f7xx_ll_dma.c **** /* Private constants ---------------------------------------------------------*/
  42:Drivers/STM32F7xx_HAL_Driver/Src/stm32f7xx_ll_dma.c **** /* Private macros ------------------------------------------------------------*/
  43:Drivers/STM32F7xx_HAL_Driver/Src/stm32f7xx_ll_dma.c **** /** @addtogroup DMA_LL_Private_Macros
  44:Drivers/STM32F7xx_HAL_Driver/Src/stm32f7xx_ll_dma.c ****   * @{
  45:Drivers/STM32F7xx_HAL_Driver/Src/stm32f7xx_ll_dma.c ****   */
  46:Drivers/STM32F7xx_HAL_Driver/Src/stm32f7xx_ll_dma.c **** #define IS_LL_DMA_DIRECTION(__VALUE__)          (((__VALUE__) == LL_DMA_DIRECTION_PERIPH_TO_MEMORY)
  47:Drivers/STM32F7xx_HAL_Driver/Src/stm32f7xx_ll_dma.c ****                                                  ((__VALUE__) == LL_DMA_DIRECTION_MEMORY_TO_PERIPH)
  48:Drivers/STM32F7xx_HAL_Driver/Src/stm32f7xx_ll_dma.c ****                                                  ((__VALUE__) == LL_DMA_DIRECTION_MEMORY_TO_MEMORY)
  49:Drivers/STM32F7xx_HAL_Driver/Src/stm32f7xx_ll_dma.c **** 
  50:Drivers/STM32F7xx_HAL_Driver/Src/stm32f7xx_ll_dma.c **** #define IS_LL_DMA_MODE(__VALUE__)               (((__VALUE__) == LL_DMA_MODE_NORMAL)    || \
  51:Drivers/STM32F7xx_HAL_Driver/Src/stm32f7xx_ll_dma.c ****                                                  ((__VALUE__) == LL_DMA_MODE_CIRCULAR)  || \
  52:Drivers/STM32F7xx_HAL_Driver/Src/stm32f7xx_ll_dma.c ****                                                  ((__VALUE__) == LL_DMA_MODE_PFCTRL))
  53:Drivers/STM32F7xx_HAL_Driver/Src/stm32f7xx_ll_dma.c **** 
  54:Drivers/STM32F7xx_HAL_Driver/Src/stm32f7xx_ll_dma.c **** #define IS_LL_DMA_PERIPHINCMODE(__VALUE__)      (((__VALUE__) == LL_DMA_PERIPH_INCREMENT) || \
  55:Drivers/STM32F7xx_HAL_Driver/Src/stm32f7xx_ll_dma.c ****                                                  ((__VALUE__) == LL_DMA_PERIPH_NOINCREMENT))
  56:Drivers/STM32F7xx_HAL_Driver/Src/stm32f7xx_ll_dma.c **** 
  57:Drivers/STM32F7xx_HAL_Driver/Src/stm32f7xx_ll_dma.c **** #define IS_LL_DMA_MEMORYINCMODE(__VALUE__)      (((__VALUE__) == LL_DMA_MEMORY_INCREMENT) || \
  58:Drivers/STM32F7xx_HAL_Driver/Src/stm32f7xx_ll_dma.c ****                                                  ((__VALUE__) == LL_DMA_MEMORY_NOINCREMENT))
  59:Drivers/STM32F7xx_HAL_Driver/Src/stm32f7xx_ll_dma.c **** 
  60:Drivers/STM32F7xx_HAL_Driver/Src/stm32f7xx_ll_dma.c **** #define IS_LL_DMA_PERIPHDATASIZE(__VALUE__)     (((__VALUE__) == LL_DMA_PDATAALIGN_BYTE)      || \
  61:Drivers/STM32F7xx_HAL_Driver/Src/stm32f7xx_ll_dma.c ****                                                  ((__VALUE__) == LL_DMA_PDATAALIGN_HALFWORD)  || \
  62:Drivers/STM32F7xx_HAL_Driver/Src/stm32f7xx_ll_dma.c ****                                                  ((__VALUE__) == LL_DMA_PDATAALIGN_WORD))
  63:Drivers/STM32F7xx_HAL_Driver/Src/stm32f7xx_ll_dma.c **** 
  64:Drivers/STM32F7xx_HAL_Driver/Src/stm32f7xx_ll_dma.c **** #define IS_LL_DMA_MEMORYDATASIZE(__VALUE__)     (((__VALUE__) == LL_DMA_MDATAALIGN_BYTE)      || \
  65:Drivers/STM32F7xx_HAL_Driver/Src/stm32f7xx_ll_dma.c ****                                                  ((__VALUE__) == LL_DMA_MDATAALIGN_HALFWORD)  || \
  66:Drivers/STM32F7xx_HAL_Driver/Src/stm32f7xx_ll_dma.c ****                                                  ((__VALUE__) == LL_DMA_MDATAALIGN_WORD))
  67:Drivers/STM32F7xx_HAL_Driver/Src/stm32f7xx_ll_dma.c **** 
  68:Drivers/STM32F7xx_HAL_Driver/Src/stm32f7xx_ll_dma.c **** #define IS_LL_DMA_NBDATA(__VALUE__)             ((__VALUE__)  <= 0x0000FFFFU)
  69:Drivers/STM32F7xx_HAL_Driver/Src/stm32f7xx_ll_dma.c **** 
  70:Drivers/STM32F7xx_HAL_Driver/Src/stm32f7xx_ll_dma.c **** #if  defined(DMA_CHANNEL_SELECTION_8_15)
  71:Drivers/STM32F7xx_HAL_Driver/Src/stm32f7xx_ll_dma.c **** #define IS_LL_DMA_CHANNEL(__VALUE__)            (((__VALUE__) == LL_DMA_CHANNEL_0)  || \
  72:Drivers/STM32F7xx_HAL_Driver/Src/stm32f7xx_ll_dma.c ****                                                  ((__VALUE__) == LL_DMA_CHANNEL_1)  || \
  73:Drivers/STM32F7xx_HAL_Driver/Src/stm32f7xx_ll_dma.c ****                                                  ((__VALUE__) == LL_DMA_CHANNEL_2)  || \
  74:Drivers/STM32F7xx_HAL_Driver/Src/stm32f7xx_ll_dma.c ****                                                  ((__VALUE__) == LL_DMA_CHANNEL_3)  || \
  75:Drivers/STM32F7xx_HAL_Driver/Src/stm32f7xx_ll_dma.c ****                                                  ((__VALUE__) == LL_DMA_CHANNEL_4)  || \
  76:Drivers/STM32F7xx_HAL_Driver/Src/stm32f7xx_ll_dma.c ****                                                  ((__VALUE__) == LL_DMA_CHANNEL_5)  || \
  77:Drivers/STM32F7xx_HAL_Driver/Src/stm32f7xx_ll_dma.c ****                                                  ((__VALUE__) == LL_DMA_CHANNEL_6)  || \
  78:Drivers/STM32F7xx_HAL_Driver/Src/stm32f7xx_ll_dma.c ****                                                  ((__VALUE__) == LL_DMA_CHANNEL_7)  || \
  79:Drivers/STM32F7xx_HAL_Driver/Src/stm32f7xx_ll_dma.c ****                                                  ((__VALUE__) == LL_DMA_CHANNEL_8)  || \
  80:Drivers/STM32F7xx_HAL_Driver/Src/stm32f7xx_ll_dma.c ****                                                  ((__VALUE__) == LL_DMA_CHANNEL_9)  || \
  81:Drivers/STM32F7xx_HAL_Driver/Src/stm32f7xx_ll_dma.c ****                                                  ((__VALUE__) == LL_DMA_CHANNEL_10)  || \
  82:Drivers/STM32F7xx_HAL_Driver/Src/stm32f7xx_ll_dma.c ****                                                  ((__VALUE__) == LL_DMA_CHANNEL_11)  || \
  83:Drivers/STM32F7xx_HAL_Driver/Src/stm32f7xx_ll_dma.c ****                                                  ((__VALUE__) == LL_DMA_CHANNEL_12)  || \
  84:Drivers/STM32F7xx_HAL_Driver/Src/stm32f7xx_ll_dma.c ****                                                  ((__VALUE__) == LL_DMA_CHANNEL_13)  || \
  85:Drivers/STM32F7xx_HAL_Driver/Src/stm32f7xx_ll_dma.c ****                                                  ((__VALUE__) == LL_DMA_CHANNEL_14)  || \
  86:Drivers/STM32F7xx_HAL_Driver/Src/stm32f7xx_ll_dma.c ****                                                  ((__VALUE__) == LL_DMA_CHANNEL_15))
  87:Drivers/STM32F7xx_HAL_Driver/Src/stm32f7xx_ll_dma.c **** 
ARM GAS  /tmp/ccYTojEy.s 			page 3


  88:Drivers/STM32F7xx_HAL_Driver/Src/stm32f7xx_ll_dma.c **** #else
  89:Drivers/STM32F7xx_HAL_Driver/Src/stm32f7xx_ll_dma.c **** #define IS_LL_DMA_CHANNEL(__VALUE__)            (((__VALUE__) == LL_DMA_CHANNEL_0)  || \
  90:Drivers/STM32F7xx_HAL_Driver/Src/stm32f7xx_ll_dma.c ****                                                  ((__VALUE__) == LL_DMA_CHANNEL_1)  || \
  91:Drivers/STM32F7xx_HAL_Driver/Src/stm32f7xx_ll_dma.c ****                                                  ((__VALUE__) == LL_DMA_CHANNEL_2)  || \
  92:Drivers/STM32F7xx_HAL_Driver/Src/stm32f7xx_ll_dma.c ****                                                  ((__VALUE__) == LL_DMA_CHANNEL_3)  || \
  93:Drivers/STM32F7xx_HAL_Driver/Src/stm32f7xx_ll_dma.c ****                                                  ((__VALUE__) == LL_DMA_CHANNEL_4)  || \
  94:Drivers/STM32F7xx_HAL_Driver/Src/stm32f7xx_ll_dma.c ****                                                  ((__VALUE__) == LL_DMA_CHANNEL_5)  || \
  95:Drivers/STM32F7xx_HAL_Driver/Src/stm32f7xx_ll_dma.c ****                                                  ((__VALUE__) == LL_DMA_CHANNEL_6)  || \
  96:Drivers/STM32F7xx_HAL_Driver/Src/stm32f7xx_ll_dma.c ****                                                  ((__VALUE__) == LL_DMA_CHANNEL_7))
  97:Drivers/STM32F7xx_HAL_Driver/Src/stm32f7xx_ll_dma.c **** 
  98:Drivers/STM32F7xx_HAL_Driver/Src/stm32f7xx_ll_dma.c **** #endif /* DMA_CHANNEL_SELECTION_8_15 */
  99:Drivers/STM32F7xx_HAL_Driver/Src/stm32f7xx_ll_dma.c **** 
 100:Drivers/STM32F7xx_HAL_Driver/Src/stm32f7xx_ll_dma.c **** #define IS_LL_DMA_PRIORITY(__VALUE__)           (((__VALUE__) == LL_DMA_PRIORITY_LOW)    || \
 101:Drivers/STM32F7xx_HAL_Driver/Src/stm32f7xx_ll_dma.c ****                                                  ((__VALUE__) == LL_DMA_PRIORITY_MEDIUM) || \
 102:Drivers/STM32F7xx_HAL_Driver/Src/stm32f7xx_ll_dma.c ****                                                  ((__VALUE__) == LL_DMA_PRIORITY_HIGH)   || \
 103:Drivers/STM32F7xx_HAL_Driver/Src/stm32f7xx_ll_dma.c ****                                                  ((__VALUE__) == LL_DMA_PRIORITY_VERYHIGH))
 104:Drivers/STM32F7xx_HAL_Driver/Src/stm32f7xx_ll_dma.c **** 
 105:Drivers/STM32F7xx_HAL_Driver/Src/stm32f7xx_ll_dma.c **** #define IS_LL_DMA_ALL_STREAM_INSTANCE(INSTANCE, STREAM)   ((((INSTANCE) == DMA1) && \
 106:Drivers/STM32F7xx_HAL_Driver/Src/stm32f7xx_ll_dma.c ****                                                            (((STREAM) == LL_DMA_STREAM_0) || \
 107:Drivers/STM32F7xx_HAL_Driver/Src/stm32f7xx_ll_dma.c ****                                                             ((STREAM) == LL_DMA_STREAM_1) || \
 108:Drivers/STM32F7xx_HAL_Driver/Src/stm32f7xx_ll_dma.c ****                                                             ((STREAM) == LL_DMA_STREAM_2) || \
 109:Drivers/STM32F7xx_HAL_Driver/Src/stm32f7xx_ll_dma.c ****                                                             ((STREAM) == LL_DMA_STREAM_3) || \
 110:Drivers/STM32F7xx_HAL_Driver/Src/stm32f7xx_ll_dma.c ****                                                             ((STREAM) == LL_DMA_STREAM_4) || \
 111:Drivers/STM32F7xx_HAL_Driver/Src/stm32f7xx_ll_dma.c ****                                                             ((STREAM) == LL_DMA_STREAM_5) || \
 112:Drivers/STM32F7xx_HAL_Driver/Src/stm32f7xx_ll_dma.c ****                                                             ((STREAM) == LL_DMA_STREAM_6) || \
 113:Drivers/STM32F7xx_HAL_Driver/Src/stm32f7xx_ll_dma.c ****                                                             ((STREAM) == LL_DMA_STREAM_7) || \
 114:Drivers/STM32F7xx_HAL_Driver/Src/stm32f7xx_ll_dma.c ****                                                             ((STREAM) == LL_DMA_STREAM_ALL))) ||\
 115:Drivers/STM32F7xx_HAL_Driver/Src/stm32f7xx_ll_dma.c ****                                                             (((INSTANCE) == DMA2) && \
 116:Drivers/STM32F7xx_HAL_Driver/Src/stm32f7xx_ll_dma.c ****                                                           (((STREAM) == LL_DMA_STREAM_0) || \
 117:Drivers/STM32F7xx_HAL_Driver/Src/stm32f7xx_ll_dma.c ****                                                            ((STREAM) == LL_DMA_STREAM_1) || \
 118:Drivers/STM32F7xx_HAL_Driver/Src/stm32f7xx_ll_dma.c ****                                                            ((STREAM) == LL_DMA_STREAM_2) || \
 119:Drivers/STM32F7xx_HAL_Driver/Src/stm32f7xx_ll_dma.c ****                                                            ((STREAM) == LL_DMA_STREAM_3) || \
 120:Drivers/STM32F7xx_HAL_Driver/Src/stm32f7xx_ll_dma.c ****                                                            ((STREAM) == LL_DMA_STREAM_4) || \
 121:Drivers/STM32F7xx_HAL_Driver/Src/stm32f7xx_ll_dma.c ****                                                            ((STREAM) == LL_DMA_STREAM_5) || \
 122:Drivers/STM32F7xx_HAL_Driver/Src/stm32f7xx_ll_dma.c ****                                                            ((STREAM) == LL_DMA_STREAM_6) || \
 123:Drivers/STM32F7xx_HAL_Driver/Src/stm32f7xx_ll_dma.c ****                                                            ((STREAM) == LL_DMA_STREAM_7) || \
 124:Drivers/STM32F7xx_HAL_Driver/Src/stm32f7xx_ll_dma.c ****                                                            ((STREAM) == LL_DMA_STREAM_ALL))))
 125:Drivers/STM32F7xx_HAL_Driver/Src/stm32f7xx_ll_dma.c **** 
 126:Drivers/STM32F7xx_HAL_Driver/Src/stm32f7xx_ll_dma.c **** #define IS_LL_DMA_FIFO_MODE_STATE(STATE) (((STATE) == LL_DMA_FIFOMODE_DISABLE ) || \
 127:Drivers/STM32F7xx_HAL_Driver/Src/stm32f7xx_ll_dma.c ****                                           ((STATE) == LL_DMA_FIFOMODE_ENABLE))
 128:Drivers/STM32F7xx_HAL_Driver/Src/stm32f7xx_ll_dma.c **** 
 129:Drivers/STM32F7xx_HAL_Driver/Src/stm32f7xx_ll_dma.c **** #define IS_LL_DMA_FIFO_THRESHOLD(THRESHOLD) (((THRESHOLD) == LL_DMA_FIFOTHRESHOLD_1_4) || \
 130:Drivers/STM32F7xx_HAL_Driver/Src/stm32f7xx_ll_dma.c ****                                              ((THRESHOLD) == LL_DMA_FIFOTHRESHOLD_1_2)  || \
 131:Drivers/STM32F7xx_HAL_Driver/Src/stm32f7xx_ll_dma.c ****                                              ((THRESHOLD) == LL_DMA_FIFOTHRESHOLD_3_4)  || \
 132:Drivers/STM32F7xx_HAL_Driver/Src/stm32f7xx_ll_dma.c ****                                              ((THRESHOLD) == LL_DMA_FIFOTHRESHOLD_FULL))
 133:Drivers/STM32F7xx_HAL_Driver/Src/stm32f7xx_ll_dma.c **** 
 134:Drivers/STM32F7xx_HAL_Driver/Src/stm32f7xx_ll_dma.c **** #define IS_LL_DMA_MEMORY_BURST(BURST) (((BURST) == LL_DMA_MBURST_SINGLE) || \
 135:Drivers/STM32F7xx_HAL_Driver/Src/stm32f7xx_ll_dma.c ****                                        ((BURST) == LL_DMA_MBURST_INC4)   || \
 136:Drivers/STM32F7xx_HAL_Driver/Src/stm32f7xx_ll_dma.c ****                                        ((BURST) == LL_DMA_MBURST_INC8)   || \
 137:Drivers/STM32F7xx_HAL_Driver/Src/stm32f7xx_ll_dma.c ****                                        ((BURST) == LL_DMA_MBURST_INC16))
 138:Drivers/STM32F7xx_HAL_Driver/Src/stm32f7xx_ll_dma.c **** 
 139:Drivers/STM32F7xx_HAL_Driver/Src/stm32f7xx_ll_dma.c **** #define IS_LL_DMA_PERIPHERAL_BURST(BURST) (((BURST) == LL_DMA_PBURST_SINGLE) || \
 140:Drivers/STM32F7xx_HAL_Driver/Src/stm32f7xx_ll_dma.c ****                                            ((BURST) == LL_DMA_PBURST_INC4)   || \
 141:Drivers/STM32F7xx_HAL_Driver/Src/stm32f7xx_ll_dma.c ****                                            ((BURST) == LL_DMA_PBURST_INC8)   || \
 142:Drivers/STM32F7xx_HAL_Driver/Src/stm32f7xx_ll_dma.c ****                                            ((BURST) == LL_DMA_PBURST_INC16))
 143:Drivers/STM32F7xx_HAL_Driver/Src/stm32f7xx_ll_dma.c **** 
 144:Drivers/STM32F7xx_HAL_Driver/Src/stm32f7xx_ll_dma.c **** /**
ARM GAS  /tmp/ccYTojEy.s 			page 4


 145:Drivers/STM32F7xx_HAL_Driver/Src/stm32f7xx_ll_dma.c ****   * @}
 146:Drivers/STM32F7xx_HAL_Driver/Src/stm32f7xx_ll_dma.c ****   */
 147:Drivers/STM32F7xx_HAL_Driver/Src/stm32f7xx_ll_dma.c **** 
 148:Drivers/STM32F7xx_HAL_Driver/Src/stm32f7xx_ll_dma.c **** /* Private function prototypes -----------------------------------------------*/
 149:Drivers/STM32F7xx_HAL_Driver/Src/stm32f7xx_ll_dma.c **** 
 150:Drivers/STM32F7xx_HAL_Driver/Src/stm32f7xx_ll_dma.c **** /* Exported functions --------------------------------------------------------*/
 151:Drivers/STM32F7xx_HAL_Driver/Src/stm32f7xx_ll_dma.c **** /** @addtogroup DMA_LL_Exported_Functions
 152:Drivers/STM32F7xx_HAL_Driver/Src/stm32f7xx_ll_dma.c ****   * @{
 153:Drivers/STM32F7xx_HAL_Driver/Src/stm32f7xx_ll_dma.c ****   */
 154:Drivers/STM32F7xx_HAL_Driver/Src/stm32f7xx_ll_dma.c **** 
 155:Drivers/STM32F7xx_HAL_Driver/Src/stm32f7xx_ll_dma.c **** /** @addtogroup DMA_LL_EF_Init
 156:Drivers/STM32F7xx_HAL_Driver/Src/stm32f7xx_ll_dma.c ****   * @{
 157:Drivers/STM32F7xx_HAL_Driver/Src/stm32f7xx_ll_dma.c ****   */
 158:Drivers/STM32F7xx_HAL_Driver/Src/stm32f7xx_ll_dma.c **** 
 159:Drivers/STM32F7xx_HAL_Driver/Src/stm32f7xx_ll_dma.c **** /**
 160:Drivers/STM32F7xx_HAL_Driver/Src/stm32f7xx_ll_dma.c ****   * @brief  De-initialize the DMA registers to their default reset values.
 161:Drivers/STM32F7xx_HAL_Driver/Src/stm32f7xx_ll_dma.c ****   * @param  DMAx DMAx Instance
 162:Drivers/STM32F7xx_HAL_Driver/Src/stm32f7xx_ll_dma.c ****   * @param  Stream This parameter can be one of the following values:
 163:Drivers/STM32F7xx_HAL_Driver/Src/stm32f7xx_ll_dma.c ****   *         @arg @ref LL_DMA_STREAM_0
 164:Drivers/STM32F7xx_HAL_Driver/Src/stm32f7xx_ll_dma.c ****   *         @arg @ref LL_DMA_STREAM_1
 165:Drivers/STM32F7xx_HAL_Driver/Src/stm32f7xx_ll_dma.c ****   *         @arg @ref LL_DMA_STREAM_2
 166:Drivers/STM32F7xx_HAL_Driver/Src/stm32f7xx_ll_dma.c ****   *         @arg @ref LL_DMA_STREAM_3
 167:Drivers/STM32F7xx_HAL_Driver/Src/stm32f7xx_ll_dma.c ****   *         @arg @ref LL_DMA_STREAM_4
 168:Drivers/STM32F7xx_HAL_Driver/Src/stm32f7xx_ll_dma.c ****   *         @arg @ref LL_DMA_STREAM_5
 169:Drivers/STM32F7xx_HAL_Driver/Src/stm32f7xx_ll_dma.c ****   *         @arg @ref LL_DMA_STREAM_6
 170:Drivers/STM32F7xx_HAL_Driver/Src/stm32f7xx_ll_dma.c ****   *         @arg @ref LL_DMA_STREAM_7
 171:Drivers/STM32F7xx_HAL_Driver/Src/stm32f7xx_ll_dma.c ****   *         @arg @ref LL_DMA_STREAM_ALL
 172:Drivers/STM32F7xx_HAL_Driver/Src/stm32f7xx_ll_dma.c ****   * @retval An ErrorStatus enumeration value:
 173:Drivers/STM32F7xx_HAL_Driver/Src/stm32f7xx_ll_dma.c ****   *          - SUCCESS: DMA registers are de-initialized
 174:Drivers/STM32F7xx_HAL_Driver/Src/stm32f7xx_ll_dma.c ****   *          - ERROR: DMA registers are not de-initialized
 175:Drivers/STM32F7xx_HAL_Driver/Src/stm32f7xx_ll_dma.c ****   */
 176:Drivers/STM32F7xx_HAL_Driver/Src/stm32f7xx_ll_dma.c **** uint32_t LL_DMA_DeInit(DMA_TypeDef *DMAx, uint32_t Stream)
 177:Drivers/STM32F7xx_HAL_Driver/Src/stm32f7xx_ll_dma.c **** {
  29              		.loc 1 177 1 view -0
  30              		.cfi_startproc
  31              		@ args = 0, pretend = 0, frame = 0
  32              		@ frame_needed = 0, uses_anonymous_args = 0
 178:Drivers/STM32F7xx_HAL_Driver/Src/stm32f7xx_ll_dma.c ****   DMA_Stream_TypeDef *tmp = (DMA_Stream_TypeDef *)DMA1_Stream0;
  33              		.loc 1 178 3 view .LVU1
 179:Drivers/STM32F7xx_HAL_Driver/Src/stm32f7xx_ll_dma.c ****   ErrorStatus status = SUCCESS;
  34              		.loc 1 179 3 view .LVU2
 180:Drivers/STM32F7xx_HAL_Driver/Src/stm32f7xx_ll_dma.c **** 
 181:Drivers/STM32F7xx_HAL_Driver/Src/stm32f7xx_ll_dma.c ****   /* Check the DMA Instance DMAx and Stream parameters*/
 182:Drivers/STM32F7xx_HAL_Driver/Src/stm32f7xx_ll_dma.c ****   assert_param(IS_LL_DMA_ALL_STREAM_INSTANCE(DMAx, Stream));
  35              		.loc 1 182 3 view .LVU3
 183:Drivers/STM32F7xx_HAL_Driver/Src/stm32f7xx_ll_dma.c **** 
 184:Drivers/STM32F7xx_HAL_Driver/Src/stm32f7xx_ll_dma.c ****   if (Stream == LL_DMA_STREAM_ALL)
  36              		.loc 1 184 3 view .LVU4
  37              		.loc 1 184 6 is_stmt 0 view .LVU5
  38 0000 11F5803F 		cmn	r1, #65536
  39 0004 59D0     		beq	.L33
 177:Drivers/STM32F7xx_HAL_Driver/Src/stm32f7xx_ll_dma.c ****   DMA_Stream_TypeDef *tmp = (DMA_Stream_TypeDef *)DMA1_Stream0;
  40              		.loc 1 177 1 view .LVU6
  41 0006 10B5     		push	{r4, lr}
  42              	.LCFI0:
  43              		.cfi_def_cfa_offset 8
  44              		.cfi_offset 4, -8
ARM GAS  /tmp/ccYTojEy.s 			page 5


  45              		.cfi_offset 14, -4
 185:Drivers/STM32F7xx_HAL_Driver/Src/stm32f7xx_ll_dma.c ****   {
 186:Drivers/STM32F7xx_HAL_Driver/Src/stm32f7xx_ll_dma.c ****     if (DMAx == DMA1)
 187:Drivers/STM32F7xx_HAL_Driver/Src/stm32f7xx_ll_dma.c ****     {
 188:Drivers/STM32F7xx_HAL_Driver/Src/stm32f7xx_ll_dma.c ****       /* Force reset of DMA clock */
 189:Drivers/STM32F7xx_HAL_Driver/Src/stm32f7xx_ll_dma.c ****       LL_AHB1_GRP1_ForceReset(LL_AHB1_GRP1_PERIPH_DMA1);
 190:Drivers/STM32F7xx_HAL_Driver/Src/stm32f7xx_ll_dma.c **** 
 191:Drivers/STM32F7xx_HAL_Driver/Src/stm32f7xx_ll_dma.c ****       /* Release reset of DMA clock */
 192:Drivers/STM32F7xx_HAL_Driver/Src/stm32f7xx_ll_dma.c ****       LL_AHB1_GRP1_ReleaseReset(LL_AHB1_GRP1_PERIPH_DMA1);
 193:Drivers/STM32F7xx_HAL_Driver/Src/stm32f7xx_ll_dma.c ****     }
 194:Drivers/STM32F7xx_HAL_Driver/Src/stm32f7xx_ll_dma.c ****     else if (DMAx == DMA2)
 195:Drivers/STM32F7xx_HAL_Driver/Src/stm32f7xx_ll_dma.c ****     {
 196:Drivers/STM32F7xx_HAL_Driver/Src/stm32f7xx_ll_dma.c ****       /* Force reset of DMA clock */
 197:Drivers/STM32F7xx_HAL_Driver/Src/stm32f7xx_ll_dma.c ****       LL_AHB1_GRP1_ForceReset(LL_AHB1_GRP1_PERIPH_DMA2);
 198:Drivers/STM32F7xx_HAL_Driver/Src/stm32f7xx_ll_dma.c **** 
 199:Drivers/STM32F7xx_HAL_Driver/Src/stm32f7xx_ll_dma.c ****       /* Release reset of DMA clock */
 200:Drivers/STM32F7xx_HAL_Driver/Src/stm32f7xx_ll_dma.c ****       LL_AHB1_GRP1_ReleaseReset(LL_AHB1_GRP1_PERIPH_DMA2);
 201:Drivers/STM32F7xx_HAL_Driver/Src/stm32f7xx_ll_dma.c ****     }
 202:Drivers/STM32F7xx_HAL_Driver/Src/stm32f7xx_ll_dma.c ****     else
 203:Drivers/STM32F7xx_HAL_Driver/Src/stm32f7xx_ll_dma.c ****     {
 204:Drivers/STM32F7xx_HAL_Driver/Src/stm32f7xx_ll_dma.c ****       status = ERROR;
 205:Drivers/STM32F7xx_HAL_Driver/Src/stm32f7xx_ll_dma.c ****     }
 206:Drivers/STM32F7xx_HAL_Driver/Src/stm32f7xx_ll_dma.c ****   }
 207:Drivers/STM32F7xx_HAL_Driver/Src/stm32f7xx_ll_dma.c ****   else
 208:Drivers/STM32F7xx_HAL_Driver/Src/stm32f7xx_ll_dma.c ****   {
 209:Drivers/STM32F7xx_HAL_Driver/Src/stm32f7xx_ll_dma.c ****     /* Disable the selected Stream */
 210:Drivers/STM32F7xx_HAL_Driver/Src/stm32f7xx_ll_dma.c ****     LL_DMA_DisableStream(DMAx,Stream);
  46              		.loc 1 210 5 is_stmt 1 view .LVU7
  47              	.LVL1:
  48              	.LBB30:
  49              	.LBI30:
  50              		.file 2 "Drivers/STM32F7xx_HAL_Driver/Inc/stm32f7xx_ll_dma.h"
   1:Drivers/STM32F7xx_HAL_Driver/Inc/stm32f7xx_ll_dma.h **** /**
   2:Drivers/STM32F7xx_HAL_Driver/Inc/stm32f7xx_ll_dma.h ****   ******************************************************************************
   3:Drivers/STM32F7xx_HAL_Driver/Inc/stm32f7xx_ll_dma.h ****   * @file    stm32f7xx_ll_dma.h
   4:Drivers/STM32F7xx_HAL_Driver/Inc/stm32f7xx_ll_dma.h ****   * @author  MCD Application Team
   5:Drivers/STM32F7xx_HAL_Driver/Inc/stm32f7xx_ll_dma.h ****   * @brief   Header file of DMA LL module.
   6:Drivers/STM32F7xx_HAL_Driver/Inc/stm32f7xx_ll_dma.h ****   ******************************************************************************
   7:Drivers/STM32F7xx_HAL_Driver/Inc/stm32f7xx_ll_dma.h ****   * @attention
   8:Drivers/STM32F7xx_HAL_Driver/Inc/stm32f7xx_ll_dma.h ****   *
   9:Drivers/STM32F7xx_HAL_Driver/Inc/stm32f7xx_ll_dma.h ****   * Copyright (c) 2017 STMicroelectronics.
  10:Drivers/STM32F7xx_HAL_Driver/Inc/stm32f7xx_ll_dma.h ****   * All rights reserved.
  11:Drivers/STM32F7xx_HAL_Driver/Inc/stm32f7xx_ll_dma.h ****   *
  12:Drivers/STM32F7xx_HAL_Driver/Inc/stm32f7xx_ll_dma.h ****   * This software is licensed under terms that can be found in the LICENSE file in
  13:Drivers/STM32F7xx_HAL_Driver/Inc/stm32f7xx_ll_dma.h ****   * the root directory of this software component.
  14:Drivers/STM32F7xx_HAL_Driver/Inc/stm32f7xx_ll_dma.h ****   * If no LICENSE file comes with this software, it is provided AS-IS.
  15:Drivers/STM32F7xx_HAL_Driver/Inc/stm32f7xx_ll_dma.h ****   *
  16:Drivers/STM32F7xx_HAL_Driver/Inc/stm32f7xx_ll_dma.h ****   ******************************************************************************
  17:Drivers/STM32F7xx_HAL_Driver/Inc/stm32f7xx_ll_dma.h ****   */
  18:Drivers/STM32F7xx_HAL_Driver/Inc/stm32f7xx_ll_dma.h **** 
  19:Drivers/STM32F7xx_HAL_Driver/Inc/stm32f7xx_ll_dma.h **** /* Define to prevent recursive inclusion -------------------------------------*/
  20:Drivers/STM32F7xx_HAL_Driver/Inc/stm32f7xx_ll_dma.h **** #ifndef __STM32F7xx_LL_DMA_H
  21:Drivers/STM32F7xx_HAL_Driver/Inc/stm32f7xx_ll_dma.h **** #define __STM32F7xx_LL_DMA_H
  22:Drivers/STM32F7xx_HAL_Driver/Inc/stm32f7xx_ll_dma.h **** 
  23:Drivers/STM32F7xx_HAL_Driver/Inc/stm32f7xx_ll_dma.h **** #ifdef __cplusplus
  24:Drivers/STM32F7xx_HAL_Driver/Inc/stm32f7xx_ll_dma.h **** extern "C" {
  25:Drivers/STM32F7xx_HAL_Driver/Inc/stm32f7xx_ll_dma.h **** #endif
ARM GAS  /tmp/ccYTojEy.s 			page 6


  26:Drivers/STM32F7xx_HAL_Driver/Inc/stm32f7xx_ll_dma.h **** 
  27:Drivers/STM32F7xx_HAL_Driver/Inc/stm32f7xx_ll_dma.h **** /* Includes ------------------------------------------------------------------*/
  28:Drivers/STM32F7xx_HAL_Driver/Inc/stm32f7xx_ll_dma.h **** #include "stm32f7xx.h"
  29:Drivers/STM32F7xx_HAL_Driver/Inc/stm32f7xx_ll_dma.h **** 
  30:Drivers/STM32F7xx_HAL_Driver/Inc/stm32f7xx_ll_dma.h **** /** @addtogroup STM32F7xx_LL_Driver
  31:Drivers/STM32F7xx_HAL_Driver/Inc/stm32f7xx_ll_dma.h ****   * @{
  32:Drivers/STM32F7xx_HAL_Driver/Inc/stm32f7xx_ll_dma.h ****   */
  33:Drivers/STM32F7xx_HAL_Driver/Inc/stm32f7xx_ll_dma.h **** 
  34:Drivers/STM32F7xx_HAL_Driver/Inc/stm32f7xx_ll_dma.h **** #if defined (DMA1) || defined (DMA2)
  35:Drivers/STM32F7xx_HAL_Driver/Inc/stm32f7xx_ll_dma.h **** 
  36:Drivers/STM32F7xx_HAL_Driver/Inc/stm32f7xx_ll_dma.h **** /** @defgroup DMA_LL DMA
  37:Drivers/STM32F7xx_HAL_Driver/Inc/stm32f7xx_ll_dma.h ****   * @{
  38:Drivers/STM32F7xx_HAL_Driver/Inc/stm32f7xx_ll_dma.h ****   */
  39:Drivers/STM32F7xx_HAL_Driver/Inc/stm32f7xx_ll_dma.h **** 
  40:Drivers/STM32F7xx_HAL_Driver/Inc/stm32f7xx_ll_dma.h **** /* Private types -------------------------------------------------------------*/
  41:Drivers/STM32F7xx_HAL_Driver/Inc/stm32f7xx_ll_dma.h **** /* Private variables ---------------------------------------------------------*/
  42:Drivers/STM32F7xx_HAL_Driver/Inc/stm32f7xx_ll_dma.h **** /** @defgroup DMA_LL_Private_Variables DMA Private Variables
  43:Drivers/STM32F7xx_HAL_Driver/Inc/stm32f7xx_ll_dma.h ****   * @{
  44:Drivers/STM32F7xx_HAL_Driver/Inc/stm32f7xx_ll_dma.h ****   */
  45:Drivers/STM32F7xx_HAL_Driver/Inc/stm32f7xx_ll_dma.h **** /* Array used to get the DMA stream register offset versus stream index LL_DMA_STREAM_x */
  46:Drivers/STM32F7xx_HAL_Driver/Inc/stm32f7xx_ll_dma.h **** static const uint8_t STREAM_OFFSET_TAB[] =
  47:Drivers/STM32F7xx_HAL_Driver/Inc/stm32f7xx_ll_dma.h **** {
  48:Drivers/STM32F7xx_HAL_Driver/Inc/stm32f7xx_ll_dma.h ****   (uint8_t)(DMA1_Stream0_BASE - DMA1_BASE),
  49:Drivers/STM32F7xx_HAL_Driver/Inc/stm32f7xx_ll_dma.h ****   (uint8_t)(DMA1_Stream1_BASE - DMA1_BASE),
  50:Drivers/STM32F7xx_HAL_Driver/Inc/stm32f7xx_ll_dma.h ****   (uint8_t)(DMA1_Stream2_BASE - DMA1_BASE),
  51:Drivers/STM32F7xx_HAL_Driver/Inc/stm32f7xx_ll_dma.h ****   (uint8_t)(DMA1_Stream3_BASE - DMA1_BASE),
  52:Drivers/STM32F7xx_HAL_Driver/Inc/stm32f7xx_ll_dma.h ****   (uint8_t)(DMA1_Stream4_BASE - DMA1_BASE),
  53:Drivers/STM32F7xx_HAL_Driver/Inc/stm32f7xx_ll_dma.h ****   (uint8_t)(DMA1_Stream5_BASE - DMA1_BASE),
  54:Drivers/STM32F7xx_HAL_Driver/Inc/stm32f7xx_ll_dma.h ****   (uint8_t)(DMA1_Stream6_BASE - DMA1_BASE),
  55:Drivers/STM32F7xx_HAL_Driver/Inc/stm32f7xx_ll_dma.h ****   (uint8_t)(DMA1_Stream7_BASE - DMA1_BASE)
  56:Drivers/STM32F7xx_HAL_Driver/Inc/stm32f7xx_ll_dma.h **** };
  57:Drivers/STM32F7xx_HAL_Driver/Inc/stm32f7xx_ll_dma.h **** 
  58:Drivers/STM32F7xx_HAL_Driver/Inc/stm32f7xx_ll_dma.h **** /**
  59:Drivers/STM32F7xx_HAL_Driver/Inc/stm32f7xx_ll_dma.h ****   * @}
  60:Drivers/STM32F7xx_HAL_Driver/Inc/stm32f7xx_ll_dma.h ****   */
  61:Drivers/STM32F7xx_HAL_Driver/Inc/stm32f7xx_ll_dma.h **** 
  62:Drivers/STM32F7xx_HAL_Driver/Inc/stm32f7xx_ll_dma.h **** /* Private constants ---------------------------------------------------------*/
  63:Drivers/STM32F7xx_HAL_Driver/Inc/stm32f7xx_ll_dma.h **** /** @defgroup DMA_LL_Private_Constants DMA Private Constants
  64:Drivers/STM32F7xx_HAL_Driver/Inc/stm32f7xx_ll_dma.h ****   * @{
  65:Drivers/STM32F7xx_HAL_Driver/Inc/stm32f7xx_ll_dma.h ****   */
  66:Drivers/STM32F7xx_HAL_Driver/Inc/stm32f7xx_ll_dma.h **** #if defined(DMA_SxCR_CHSEL_3)
  67:Drivers/STM32F7xx_HAL_Driver/Inc/stm32f7xx_ll_dma.h **** #define DMA_CHANNEL_SELECTION_8_15
  68:Drivers/STM32F7xx_HAL_Driver/Inc/stm32f7xx_ll_dma.h **** #endif /* DMA_SxCR_CHSEL_3 */
  69:Drivers/STM32F7xx_HAL_Driver/Inc/stm32f7xx_ll_dma.h **** /**
  70:Drivers/STM32F7xx_HAL_Driver/Inc/stm32f7xx_ll_dma.h ****   * @}
  71:Drivers/STM32F7xx_HAL_Driver/Inc/stm32f7xx_ll_dma.h ****   */
  72:Drivers/STM32F7xx_HAL_Driver/Inc/stm32f7xx_ll_dma.h **** 
  73:Drivers/STM32F7xx_HAL_Driver/Inc/stm32f7xx_ll_dma.h **** 
  74:Drivers/STM32F7xx_HAL_Driver/Inc/stm32f7xx_ll_dma.h **** /* Private macros ------------------------------------------------------------*/
  75:Drivers/STM32F7xx_HAL_Driver/Inc/stm32f7xx_ll_dma.h **** /* Exported types ------------------------------------------------------------*/
  76:Drivers/STM32F7xx_HAL_Driver/Inc/stm32f7xx_ll_dma.h **** #if defined(USE_FULL_LL_DRIVER)
  77:Drivers/STM32F7xx_HAL_Driver/Inc/stm32f7xx_ll_dma.h **** /** @defgroup DMA_LL_ES_INIT DMA Exported Init structure
  78:Drivers/STM32F7xx_HAL_Driver/Inc/stm32f7xx_ll_dma.h ****   * @{
  79:Drivers/STM32F7xx_HAL_Driver/Inc/stm32f7xx_ll_dma.h ****   */
  80:Drivers/STM32F7xx_HAL_Driver/Inc/stm32f7xx_ll_dma.h **** typedef struct
  81:Drivers/STM32F7xx_HAL_Driver/Inc/stm32f7xx_ll_dma.h **** {
  82:Drivers/STM32F7xx_HAL_Driver/Inc/stm32f7xx_ll_dma.h ****   uint32_t PeriphOrM2MSrcAddress;  /*!< Specifies the peripheral base address for DMA transfer
ARM GAS  /tmp/ccYTojEy.s 			page 7


  83:Drivers/STM32F7xx_HAL_Driver/Inc/stm32f7xx_ll_dma.h ****                                         or as Source base address in case of memory to memory trans
  84:Drivers/STM32F7xx_HAL_Driver/Inc/stm32f7xx_ll_dma.h **** 
  85:Drivers/STM32F7xx_HAL_Driver/Inc/stm32f7xx_ll_dma.h ****                                         This parameter must be a value between Min_Data = 0 and Max
  86:Drivers/STM32F7xx_HAL_Driver/Inc/stm32f7xx_ll_dma.h **** 
  87:Drivers/STM32F7xx_HAL_Driver/Inc/stm32f7xx_ll_dma.h ****   uint32_t MemoryOrM2MDstAddress;  /*!< Specifies the memory base address for DMA transfer
  88:Drivers/STM32F7xx_HAL_Driver/Inc/stm32f7xx_ll_dma.h ****                                         or as Destination base address in case of memory to memory 
  89:Drivers/STM32F7xx_HAL_Driver/Inc/stm32f7xx_ll_dma.h **** 
  90:Drivers/STM32F7xx_HAL_Driver/Inc/stm32f7xx_ll_dma.h ****                                         This parameter must be a value between Min_Data = 0 and Max
  91:Drivers/STM32F7xx_HAL_Driver/Inc/stm32f7xx_ll_dma.h **** 
  92:Drivers/STM32F7xx_HAL_Driver/Inc/stm32f7xx_ll_dma.h ****   uint32_t Direction;              /*!< Specifies if the data will be transferred from memory to pe
  93:Drivers/STM32F7xx_HAL_Driver/Inc/stm32f7xx_ll_dma.h ****                                         from memory to memory or from peripheral to memory.
  94:Drivers/STM32F7xx_HAL_Driver/Inc/stm32f7xx_ll_dma.h ****                                         This parameter can be a value of @ref DMA_LL_EC_DIRECTION
  95:Drivers/STM32F7xx_HAL_Driver/Inc/stm32f7xx_ll_dma.h **** 
  96:Drivers/STM32F7xx_HAL_Driver/Inc/stm32f7xx_ll_dma.h ****                                         This feature can be modified afterwards using unitary funct
  97:Drivers/STM32F7xx_HAL_Driver/Inc/stm32f7xx_ll_dma.h **** 
  98:Drivers/STM32F7xx_HAL_Driver/Inc/stm32f7xx_ll_dma.h ****   uint32_t Mode;                   /*!< Specifies the normal or circular operation mode.
  99:Drivers/STM32F7xx_HAL_Driver/Inc/stm32f7xx_ll_dma.h ****                                         This parameter can be a value of @ref DMA_LL_EC_MODE
 100:Drivers/STM32F7xx_HAL_Driver/Inc/stm32f7xx_ll_dma.h ****                                         @note The circular buffer mode cannot be used if the memory
 101:Drivers/STM32F7xx_HAL_Driver/Inc/stm32f7xx_ll_dma.h ****                                               data transfer direction is configured on the selected
 102:Drivers/STM32F7xx_HAL_Driver/Inc/stm32f7xx_ll_dma.h **** 
 103:Drivers/STM32F7xx_HAL_Driver/Inc/stm32f7xx_ll_dma.h ****                                         This feature can be modified afterwards using unitary funct
 104:Drivers/STM32F7xx_HAL_Driver/Inc/stm32f7xx_ll_dma.h **** 
 105:Drivers/STM32F7xx_HAL_Driver/Inc/stm32f7xx_ll_dma.h ****   uint32_t PeriphOrM2MSrcIncMode;  /*!< Specifies whether the Peripheral address or Source address 
 106:Drivers/STM32F7xx_HAL_Driver/Inc/stm32f7xx_ll_dma.h ****                                         is incremented or not.
 107:Drivers/STM32F7xx_HAL_Driver/Inc/stm32f7xx_ll_dma.h ****                                         This parameter can be a value of @ref DMA_LL_EC_PERIPH
 108:Drivers/STM32F7xx_HAL_Driver/Inc/stm32f7xx_ll_dma.h **** 
 109:Drivers/STM32F7xx_HAL_Driver/Inc/stm32f7xx_ll_dma.h ****                                         This feature can be modified afterwards using unitary funct
 110:Drivers/STM32F7xx_HAL_Driver/Inc/stm32f7xx_ll_dma.h **** 
 111:Drivers/STM32F7xx_HAL_Driver/Inc/stm32f7xx_ll_dma.h ****   uint32_t MemoryOrM2MDstIncMode;  /*!< Specifies whether the Memory address or Destination address
 112:Drivers/STM32F7xx_HAL_Driver/Inc/stm32f7xx_ll_dma.h ****                                         is incremented or not.
 113:Drivers/STM32F7xx_HAL_Driver/Inc/stm32f7xx_ll_dma.h ****                                         This parameter can be a value of @ref DMA_LL_EC_MEMORY
 114:Drivers/STM32F7xx_HAL_Driver/Inc/stm32f7xx_ll_dma.h **** 
 115:Drivers/STM32F7xx_HAL_Driver/Inc/stm32f7xx_ll_dma.h ****                                         This feature can be modified afterwards using unitary funct
 116:Drivers/STM32F7xx_HAL_Driver/Inc/stm32f7xx_ll_dma.h **** 
 117:Drivers/STM32F7xx_HAL_Driver/Inc/stm32f7xx_ll_dma.h ****   uint32_t PeriphOrM2MSrcDataSize; /*!< Specifies the Peripheral data size alignment or Source data
 118:Drivers/STM32F7xx_HAL_Driver/Inc/stm32f7xx_ll_dma.h ****                                         in case of memory to memory transfer direction.
 119:Drivers/STM32F7xx_HAL_Driver/Inc/stm32f7xx_ll_dma.h ****                                         This parameter can be a value of @ref DMA_LL_EC_PDATAALIGN
 120:Drivers/STM32F7xx_HAL_Driver/Inc/stm32f7xx_ll_dma.h **** 
 121:Drivers/STM32F7xx_HAL_Driver/Inc/stm32f7xx_ll_dma.h ****                                         This feature can be modified afterwards using unitary funct
 122:Drivers/STM32F7xx_HAL_Driver/Inc/stm32f7xx_ll_dma.h **** 
 123:Drivers/STM32F7xx_HAL_Driver/Inc/stm32f7xx_ll_dma.h ****   uint32_t MemoryOrM2MDstDataSize; /*!< Specifies the Memory data size alignment or Destination dat
 124:Drivers/STM32F7xx_HAL_Driver/Inc/stm32f7xx_ll_dma.h ****                                         in case of memory to memory transfer direction.
 125:Drivers/STM32F7xx_HAL_Driver/Inc/stm32f7xx_ll_dma.h ****                                         This parameter can be a value of @ref DMA_LL_EC_MDATAALIGN
 126:Drivers/STM32F7xx_HAL_Driver/Inc/stm32f7xx_ll_dma.h **** 
 127:Drivers/STM32F7xx_HAL_Driver/Inc/stm32f7xx_ll_dma.h ****                                         This feature can be modified afterwards using unitary funct
 128:Drivers/STM32F7xx_HAL_Driver/Inc/stm32f7xx_ll_dma.h **** 
 129:Drivers/STM32F7xx_HAL_Driver/Inc/stm32f7xx_ll_dma.h ****   uint32_t NbData;                 /*!< Specifies the number of data to transfer, in data unit.
 130:Drivers/STM32F7xx_HAL_Driver/Inc/stm32f7xx_ll_dma.h ****                                         The data unit is equal to the source buffer configuration s
 131:Drivers/STM32F7xx_HAL_Driver/Inc/stm32f7xx_ll_dma.h ****                                         or MemorySize parameters depending in the transfer directio
 132:Drivers/STM32F7xx_HAL_Driver/Inc/stm32f7xx_ll_dma.h ****                                         This parameter must be a value between Min_Data = 0 and Max
 133:Drivers/STM32F7xx_HAL_Driver/Inc/stm32f7xx_ll_dma.h **** 
 134:Drivers/STM32F7xx_HAL_Driver/Inc/stm32f7xx_ll_dma.h ****                                         This feature can be modified afterwards using unitary funct
 135:Drivers/STM32F7xx_HAL_Driver/Inc/stm32f7xx_ll_dma.h **** 
 136:Drivers/STM32F7xx_HAL_Driver/Inc/stm32f7xx_ll_dma.h ****   uint32_t Channel;                /*!< Specifies the peripheral channel.
 137:Drivers/STM32F7xx_HAL_Driver/Inc/stm32f7xx_ll_dma.h ****                                         This parameter can be a value of @ref DMA_LL_EC_CHANNEL
 138:Drivers/STM32F7xx_HAL_Driver/Inc/stm32f7xx_ll_dma.h **** 
 139:Drivers/STM32F7xx_HAL_Driver/Inc/stm32f7xx_ll_dma.h ****                                         This feature can be modified afterwards using unitary funct
ARM GAS  /tmp/ccYTojEy.s 			page 8


 140:Drivers/STM32F7xx_HAL_Driver/Inc/stm32f7xx_ll_dma.h **** 
 141:Drivers/STM32F7xx_HAL_Driver/Inc/stm32f7xx_ll_dma.h ****   uint32_t Priority;               /*!< Specifies the channel priority level.
 142:Drivers/STM32F7xx_HAL_Driver/Inc/stm32f7xx_ll_dma.h ****                                         This parameter can be a value of @ref DMA_LL_EC_PRIORITY
 143:Drivers/STM32F7xx_HAL_Driver/Inc/stm32f7xx_ll_dma.h **** 
 144:Drivers/STM32F7xx_HAL_Driver/Inc/stm32f7xx_ll_dma.h ****                                         This feature can be modified afterwards using unitary funct
 145:Drivers/STM32F7xx_HAL_Driver/Inc/stm32f7xx_ll_dma.h ****                                         
 146:Drivers/STM32F7xx_HAL_Driver/Inc/stm32f7xx_ll_dma.h ****   uint32_t FIFOMode;               /*!< Specifies if the FIFO mode or Direct mode will be used for 
 147:Drivers/STM32F7xx_HAL_Driver/Inc/stm32f7xx_ll_dma.h ****                                         This parameter can be a value of @ref DMA_LL_FIFOMODE
 148:Drivers/STM32F7xx_HAL_Driver/Inc/stm32f7xx_ll_dma.h ****                                         @note The Direct mode (FIFO mode disabled) cannot be used i
 149:Drivers/STM32F7xx_HAL_Driver/Inc/stm32f7xx_ll_dma.h ****                                         memory-to-memory data transfer is configured on the selecte
 150:Drivers/STM32F7xx_HAL_Driver/Inc/stm32f7xx_ll_dma.h **** 
 151:Drivers/STM32F7xx_HAL_Driver/Inc/stm32f7xx_ll_dma.h ****                                         This feature can be modified afterwards using unitary funct
 152:Drivers/STM32F7xx_HAL_Driver/Inc/stm32f7xx_ll_dma.h **** 
 153:Drivers/STM32F7xx_HAL_Driver/Inc/stm32f7xx_ll_dma.h ****   uint32_t FIFOThreshold;          /*!< Specifies the FIFO threshold level.
 154:Drivers/STM32F7xx_HAL_Driver/Inc/stm32f7xx_ll_dma.h ****                                         This parameter can be a value of @ref DMA_LL_EC_FIFOTHRESHO
 155:Drivers/STM32F7xx_HAL_Driver/Inc/stm32f7xx_ll_dma.h **** 
 156:Drivers/STM32F7xx_HAL_Driver/Inc/stm32f7xx_ll_dma.h ****                                         This feature can be modified afterwards using unitary funct
 157:Drivers/STM32F7xx_HAL_Driver/Inc/stm32f7xx_ll_dma.h **** 
 158:Drivers/STM32F7xx_HAL_Driver/Inc/stm32f7xx_ll_dma.h ****   uint32_t MemBurst;               /*!< Specifies the Burst transfer configuration for the memory t
 159:Drivers/STM32F7xx_HAL_Driver/Inc/stm32f7xx_ll_dma.h ****                                         It specifies the amount of data to be transferred in a sing
 160:Drivers/STM32F7xx_HAL_Driver/Inc/stm32f7xx_ll_dma.h ****                                         transaction.
 161:Drivers/STM32F7xx_HAL_Driver/Inc/stm32f7xx_ll_dma.h ****                                         This parameter can be a value of @ref DMA_LL_EC_MBURST 
 162:Drivers/STM32F7xx_HAL_Driver/Inc/stm32f7xx_ll_dma.h ****                                         @note The burst mode is possible only if the address Increm
 163:Drivers/STM32F7xx_HAL_Driver/Inc/stm32f7xx_ll_dma.h **** 
 164:Drivers/STM32F7xx_HAL_Driver/Inc/stm32f7xx_ll_dma.h ****                                         This feature can be modified afterwards using unitary funct
 165:Drivers/STM32F7xx_HAL_Driver/Inc/stm32f7xx_ll_dma.h **** 
 166:Drivers/STM32F7xx_HAL_Driver/Inc/stm32f7xx_ll_dma.h ****   uint32_t PeriphBurst;            /*!< Specifies the Burst transfer configuration for the peripher
 167:Drivers/STM32F7xx_HAL_Driver/Inc/stm32f7xx_ll_dma.h ****                                         It specifies the amount of data to be transferred in a sing
 168:Drivers/STM32F7xx_HAL_Driver/Inc/stm32f7xx_ll_dma.h ****                                         transaction. 
 169:Drivers/STM32F7xx_HAL_Driver/Inc/stm32f7xx_ll_dma.h ****                                         This parameter can be a value of @ref DMA_LL_EC_PBURST
 170:Drivers/STM32F7xx_HAL_Driver/Inc/stm32f7xx_ll_dma.h ****                                         @note The burst mode is possible only if the address Increm
 171:Drivers/STM32F7xx_HAL_Driver/Inc/stm32f7xx_ll_dma.h **** 
 172:Drivers/STM32F7xx_HAL_Driver/Inc/stm32f7xx_ll_dma.h ****                                         This feature can be modified afterwards using unitary funct
 173:Drivers/STM32F7xx_HAL_Driver/Inc/stm32f7xx_ll_dma.h **** 
 174:Drivers/STM32F7xx_HAL_Driver/Inc/stm32f7xx_ll_dma.h **** } LL_DMA_InitTypeDef;
 175:Drivers/STM32F7xx_HAL_Driver/Inc/stm32f7xx_ll_dma.h **** /**
 176:Drivers/STM32F7xx_HAL_Driver/Inc/stm32f7xx_ll_dma.h ****   * @}
 177:Drivers/STM32F7xx_HAL_Driver/Inc/stm32f7xx_ll_dma.h ****   */
 178:Drivers/STM32F7xx_HAL_Driver/Inc/stm32f7xx_ll_dma.h **** #endif /*USE_FULL_LL_DRIVER*/
 179:Drivers/STM32F7xx_HAL_Driver/Inc/stm32f7xx_ll_dma.h **** /* Exported constants --------------------------------------------------------*/
 180:Drivers/STM32F7xx_HAL_Driver/Inc/stm32f7xx_ll_dma.h **** /** @defgroup DMA_LL_Exported_Constants DMA Exported Constants
 181:Drivers/STM32F7xx_HAL_Driver/Inc/stm32f7xx_ll_dma.h ****   * @{
 182:Drivers/STM32F7xx_HAL_Driver/Inc/stm32f7xx_ll_dma.h ****   */
 183:Drivers/STM32F7xx_HAL_Driver/Inc/stm32f7xx_ll_dma.h **** 
 184:Drivers/STM32F7xx_HAL_Driver/Inc/stm32f7xx_ll_dma.h **** /** @defgroup DMA_LL_EC_STREAM STREAM
 185:Drivers/STM32F7xx_HAL_Driver/Inc/stm32f7xx_ll_dma.h ****   * @{
 186:Drivers/STM32F7xx_HAL_Driver/Inc/stm32f7xx_ll_dma.h ****   */
 187:Drivers/STM32F7xx_HAL_Driver/Inc/stm32f7xx_ll_dma.h **** #define LL_DMA_STREAM_0                   0x00000000U
 188:Drivers/STM32F7xx_HAL_Driver/Inc/stm32f7xx_ll_dma.h **** #define LL_DMA_STREAM_1                   0x00000001U
 189:Drivers/STM32F7xx_HAL_Driver/Inc/stm32f7xx_ll_dma.h **** #define LL_DMA_STREAM_2                   0x00000002U
 190:Drivers/STM32F7xx_HAL_Driver/Inc/stm32f7xx_ll_dma.h **** #define LL_DMA_STREAM_3                   0x00000003U
 191:Drivers/STM32F7xx_HAL_Driver/Inc/stm32f7xx_ll_dma.h **** #define LL_DMA_STREAM_4                   0x00000004U
 192:Drivers/STM32F7xx_HAL_Driver/Inc/stm32f7xx_ll_dma.h **** #define LL_DMA_STREAM_5                   0x00000005U
 193:Drivers/STM32F7xx_HAL_Driver/Inc/stm32f7xx_ll_dma.h **** #define LL_DMA_STREAM_6                   0x00000006U
 194:Drivers/STM32F7xx_HAL_Driver/Inc/stm32f7xx_ll_dma.h **** #define LL_DMA_STREAM_7                   0x00000007U
 195:Drivers/STM32F7xx_HAL_Driver/Inc/stm32f7xx_ll_dma.h **** #define LL_DMA_STREAM_ALL                 0xFFFF0000U
 196:Drivers/STM32F7xx_HAL_Driver/Inc/stm32f7xx_ll_dma.h **** /**
ARM GAS  /tmp/ccYTojEy.s 			page 9


 197:Drivers/STM32F7xx_HAL_Driver/Inc/stm32f7xx_ll_dma.h ****   * @}
 198:Drivers/STM32F7xx_HAL_Driver/Inc/stm32f7xx_ll_dma.h ****   */
 199:Drivers/STM32F7xx_HAL_Driver/Inc/stm32f7xx_ll_dma.h **** 
 200:Drivers/STM32F7xx_HAL_Driver/Inc/stm32f7xx_ll_dma.h **** /** @defgroup DMA_LL_EC_DIRECTION DIRECTION
 201:Drivers/STM32F7xx_HAL_Driver/Inc/stm32f7xx_ll_dma.h ****   * @{
 202:Drivers/STM32F7xx_HAL_Driver/Inc/stm32f7xx_ll_dma.h ****   */
 203:Drivers/STM32F7xx_HAL_Driver/Inc/stm32f7xx_ll_dma.h **** #define LL_DMA_DIRECTION_PERIPH_TO_MEMORY 0x00000000U               /*!< Peripheral to memory direc
 204:Drivers/STM32F7xx_HAL_Driver/Inc/stm32f7xx_ll_dma.h **** #define LL_DMA_DIRECTION_MEMORY_TO_PERIPH DMA_SxCR_DIR_0            /*!< Memory to peripheral direc
 205:Drivers/STM32F7xx_HAL_Driver/Inc/stm32f7xx_ll_dma.h **** #define LL_DMA_DIRECTION_MEMORY_TO_MEMORY DMA_SxCR_DIR_1            /*!< Memory to memory direction
 206:Drivers/STM32F7xx_HAL_Driver/Inc/stm32f7xx_ll_dma.h **** /**
 207:Drivers/STM32F7xx_HAL_Driver/Inc/stm32f7xx_ll_dma.h ****   * @}
 208:Drivers/STM32F7xx_HAL_Driver/Inc/stm32f7xx_ll_dma.h ****   */
 209:Drivers/STM32F7xx_HAL_Driver/Inc/stm32f7xx_ll_dma.h **** 
 210:Drivers/STM32F7xx_HAL_Driver/Inc/stm32f7xx_ll_dma.h **** /** @defgroup DMA_LL_EC_MODE MODE
 211:Drivers/STM32F7xx_HAL_Driver/Inc/stm32f7xx_ll_dma.h ****   * @{
 212:Drivers/STM32F7xx_HAL_Driver/Inc/stm32f7xx_ll_dma.h ****   */
 213:Drivers/STM32F7xx_HAL_Driver/Inc/stm32f7xx_ll_dma.h **** #define LL_DMA_MODE_NORMAL                0x00000000U               /*!< Normal Mode               
 214:Drivers/STM32F7xx_HAL_Driver/Inc/stm32f7xx_ll_dma.h **** #define LL_DMA_MODE_CIRCULAR              DMA_SxCR_CIRC             /*!< Circular Mode             
 215:Drivers/STM32F7xx_HAL_Driver/Inc/stm32f7xx_ll_dma.h **** #define LL_DMA_MODE_PFCTRL                DMA_SxCR_PFCTRL           /*!< Peripheral flow control mo
 216:Drivers/STM32F7xx_HAL_Driver/Inc/stm32f7xx_ll_dma.h **** /**
 217:Drivers/STM32F7xx_HAL_Driver/Inc/stm32f7xx_ll_dma.h ****   * @}
 218:Drivers/STM32F7xx_HAL_Driver/Inc/stm32f7xx_ll_dma.h ****   */
 219:Drivers/STM32F7xx_HAL_Driver/Inc/stm32f7xx_ll_dma.h **** 
 220:Drivers/STM32F7xx_HAL_Driver/Inc/stm32f7xx_ll_dma.h **** /** @defgroup DMA_LL_EC_DOUBLEBUFFER_MODE DOUBLE BUFFER MODE
 221:Drivers/STM32F7xx_HAL_Driver/Inc/stm32f7xx_ll_dma.h ****   * @{
 222:Drivers/STM32F7xx_HAL_Driver/Inc/stm32f7xx_ll_dma.h ****   */
 223:Drivers/STM32F7xx_HAL_Driver/Inc/stm32f7xx_ll_dma.h **** #define LL_DMA_DOUBLEBUFFER_MODE_DISABLE  0x00000000U               /*!< Disable double buffering m
 224:Drivers/STM32F7xx_HAL_Driver/Inc/stm32f7xx_ll_dma.h **** #define LL_DMA_DOUBLEBUFFER_MODE_ENABLE   DMA_SxCR_DBM              /*!< Enable double buffering mo
 225:Drivers/STM32F7xx_HAL_Driver/Inc/stm32f7xx_ll_dma.h **** /**
 226:Drivers/STM32F7xx_HAL_Driver/Inc/stm32f7xx_ll_dma.h ****   * @}
 227:Drivers/STM32F7xx_HAL_Driver/Inc/stm32f7xx_ll_dma.h ****   */
 228:Drivers/STM32F7xx_HAL_Driver/Inc/stm32f7xx_ll_dma.h **** 
 229:Drivers/STM32F7xx_HAL_Driver/Inc/stm32f7xx_ll_dma.h **** /** @defgroup DMA_LL_EC_PERIPH PERIPH
 230:Drivers/STM32F7xx_HAL_Driver/Inc/stm32f7xx_ll_dma.h ****   * @{
 231:Drivers/STM32F7xx_HAL_Driver/Inc/stm32f7xx_ll_dma.h ****   */
 232:Drivers/STM32F7xx_HAL_Driver/Inc/stm32f7xx_ll_dma.h **** #define LL_DMA_PERIPH_NOINCREMENT         0x00000000U               /*!< Peripheral increment mode 
 233:Drivers/STM32F7xx_HAL_Driver/Inc/stm32f7xx_ll_dma.h **** #define LL_DMA_PERIPH_INCREMENT           DMA_SxCR_PINC             /*!< Peripheral increment mode 
 234:Drivers/STM32F7xx_HAL_Driver/Inc/stm32f7xx_ll_dma.h **** /**
 235:Drivers/STM32F7xx_HAL_Driver/Inc/stm32f7xx_ll_dma.h ****   * @}
 236:Drivers/STM32F7xx_HAL_Driver/Inc/stm32f7xx_ll_dma.h ****   */
 237:Drivers/STM32F7xx_HAL_Driver/Inc/stm32f7xx_ll_dma.h **** 
 238:Drivers/STM32F7xx_HAL_Driver/Inc/stm32f7xx_ll_dma.h **** /** @defgroup DMA_LL_EC_MEMORY MEMORY
 239:Drivers/STM32F7xx_HAL_Driver/Inc/stm32f7xx_ll_dma.h ****   * @{
 240:Drivers/STM32F7xx_HAL_Driver/Inc/stm32f7xx_ll_dma.h ****   */
 241:Drivers/STM32F7xx_HAL_Driver/Inc/stm32f7xx_ll_dma.h **** #define LL_DMA_MEMORY_NOINCREMENT         0x00000000U               /*!< Memory increment mode Disa
 242:Drivers/STM32F7xx_HAL_Driver/Inc/stm32f7xx_ll_dma.h **** #define LL_DMA_MEMORY_INCREMENT           DMA_SxCR_MINC             /*!< Memory increment mode Enab
 243:Drivers/STM32F7xx_HAL_Driver/Inc/stm32f7xx_ll_dma.h **** /**
 244:Drivers/STM32F7xx_HAL_Driver/Inc/stm32f7xx_ll_dma.h ****   * @}
 245:Drivers/STM32F7xx_HAL_Driver/Inc/stm32f7xx_ll_dma.h ****   */
 246:Drivers/STM32F7xx_HAL_Driver/Inc/stm32f7xx_ll_dma.h **** 
 247:Drivers/STM32F7xx_HAL_Driver/Inc/stm32f7xx_ll_dma.h **** /** @defgroup DMA_LL_EC_PDATAALIGN PDATAALIGN
 248:Drivers/STM32F7xx_HAL_Driver/Inc/stm32f7xx_ll_dma.h ****   * @{
 249:Drivers/STM32F7xx_HAL_Driver/Inc/stm32f7xx_ll_dma.h ****   */
 250:Drivers/STM32F7xx_HAL_Driver/Inc/stm32f7xx_ll_dma.h **** #define LL_DMA_PDATAALIGN_BYTE            0x00000000U               /*!< Peripheral data alignment 
 251:Drivers/STM32F7xx_HAL_Driver/Inc/stm32f7xx_ll_dma.h **** #define LL_DMA_PDATAALIGN_HALFWORD        DMA_SxCR_PSIZE_0          /*!< Peripheral data alignment 
 252:Drivers/STM32F7xx_HAL_Driver/Inc/stm32f7xx_ll_dma.h **** #define LL_DMA_PDATAALIGN_WORD            DMA_SxCR_PSIZE_1          /*!< Peripheral data alignment 
 253:Drivers/STM32F7xx_HAL_Driver/Inc/stm32f7xx_ll_dma.h **** /**
ARM GAS  /tmp/ccYTojEy.s 			page 10


 254:Drivers/STM32F7xx_HAL_Driver/Inc/stm32f7xx_ll_dma.h ****   * @}
 255:Drivers/STM32F7xx_HAL_Driver/Inc/stm32f7xx_ll_dma.h ****   */
 256:Drivers/STM32F7xx_HAL_Driver/Inc/stm32f7xx_ll_dma.h **** 
 257:Drivers/STM32F7xx_HAL_Driver/Inc/stm32f7xx_ll_dma.h **** /** @defgroup DMA_LL_EC_MDATAALIGN MDATAALIGN
 258:Drivers/STM32F7xx_HAL_Driver/Inc/stm32f7xx_ll_dma.h ****   * @{
 259:Drivers/STM32F7xx_HAL_Driver/Inc/stm32f7xx_ll_dma.h ****   */
 260:Drivers/STM32F7xx_HAL_Driver/Inc/stm32f7xx_ll_dma.h **** #define LL_DMA_MDATAALIGN_BYTE            0x00000000U               /*!< Memory data alignment : By
 261:Drivers/STM32F7xx_HAL_Driver/Inc/stm32f7xx_ll_dma.h **** #define LL_DMA_MDATAALIGN_HALFWORD        DMA_SxCR_MSIZE_0          /*!< Memory data alignment : Ha
 262:Drivers/STM32F7xx_HAL_Driver/Inc/stm32f7xx_ll_dma.h **** #define LL_DMA_MDATAALIGN_WORD            DMA_SxCR_MSIZE_1          /*!< Memory data alignment : Wo
 263:Drivers/STM32F7xx_HAL_Driver/Inc/stm32f7xx_ll_dma.h **** /**
 264:Drivers/STM32F7xx_HAL_Driver/Inc/stm32f7xx_ll_dma.h ****   * @}
 265:Drivers/STM32F7xx_HAL_Driver/Inc/stm32f7xx_ll_dma.h ****   */
 266:Drivers/STM32F7xx_HAL_Driver/Inc/stm32f7xx_ll_dma.h **** 
 267:Drivers/STM32F7xx_HAL_Driver/Inc/stm32f7xx_ll_dma.h **** /** @defgroup DMA_LL_EC_OFFSETSIZE OFFSETSIZE
 268:Drivers/STM32F7xx_HAL_Driver/Inc/stm32f7xx_ll_dma.h ****   * @{
 269:Drivers/STM32F7xx_HAL_Driver/Inc/stm32f7xx_ll_dma.h ****   */
 270:Drivers/STM32F7xx_HAL_Driver/Inc/stm32f7xx_ll_dma.h **** #define LL_DMA_OFFSETSIZE_PSIZE           0x00000000U               /*!< Peripheral increment offse
 271:Drivers/STM32F7xx_HAL_Driver/Inc/stm32f7xx_ll_dma.h **** #define LL_DMA_OFFSETSIZE_FIXEDTO4        DMA_SxCR_PINCOS           /*!< Peripheral increment offse
 272:Drivers/STM32F7xx_HAL_Driver/Inc/stm32f7xx_ll_dma.h **** /**
 273:Drivers/STM32F7xx_HAL_Driver/Inc/stm32f7xx_ll_dma.h ****   * @}
 274:Drivers/STM32F7xx_HAL_Driver/Inc/stm32f7xx_ll_dma.h ****   */
 275:Drivers/STM32F7xx_HAL_Driver/Inc/stm32f7xx_ll_dma.h **** 
 276:Drivers/STM32F7xx_HAL_Driver/Inc/stm32f7xx_ll_dma.h **** /** @defgroup DMA_LL_EC_PRIORITY PRIORITY
 277:Drivers/STM32F7xx_HAL_Driver/Inc/stm32f7xx_ll_dma.h ****   * @{
 278:Drivers/STM32F7xx_HAL_Driver/Inc/stm32f7xx_ll_dma.h ****   */
 279:Drivers/STM32F7xx_HAL_Driver/Inc/stm32f7xx_ll_dma.h **** #define LL_DMA_PRIORITY_LOW               0x00000000U               /*!< Priority level : Low      
 280:Drivers/STM32F7xx_HAL_Driver/Inc/stm32f7xx_ll_dma.h **** #define LL_DMA_PRIORITY_MEDIUM            DMA_SxCR_PL_0             /*!< Priority level : Medium   
 281:Drivers/STM32F7xx_HAL_Driver/Inc/stm32f7xx_ll_dma.h **** #define LL_DMA_PRIORITY_HIGH              DMA_SxCR_PL_1             /*!< Priority level : High     
 282:Drivers/STM32F7xx_HAL_Driver/Inc/stm32f7xx_ll_dma.h **** #define LL_DMA_PRIORITY_VERYHIGH          DMA_SxCR_PL               /*!< Priority level : Very_High
 283:Drivers/STM32F7xx_HAL_Driver/Inc/stm32f7xx_ll_dma.h **** /**
 284:Drivers/STM32F7xx_HAL_Driver/Inc/stm32f7xx_ll_dma.h ****   * @}
 285:Drivers/STM32F7xx_HAL_Driver/Inc/stm32f7xx_ll_dma.h ****   */
 286:Drivers/STM32F7xx_HAL_Driver/Inc/stm32f7xx_ll_dma.h **** 
 287:Drivers/STM32F7xx_HAL_Driver/Inc/stm32f7xx_ll_dma.h **** /** @defgroup DMA_LL_EC_CHANNEL CHANNEL
 288:Drivers/STM32F7xx_HAL_Driver/Inc/stm32f7xx_ll_dma.h ****   * @{
 289:Drivers/STM32F7xx_HAL_Driver/Inc/stm32f7xx_ll_dma.h ****   */
 290:Drivers/STM32F7xx_HAL_Driver/Inc/stm32f7xx_ll_dma.h **** #define LL_DMA_CHANNEL_0                  0x00000000U                                              
 291:Drivers/STM32F7xx_HAL_Driver/Inc/stm32f7xx_ll_dma.h **** #define LL_DMA_CHANNEL_1                  DMA_SxCR_CHSEL_0                                         
 292:Drivers/STM32F7xx_HAL_Driver/Inc/stm32f7xx_ll_dma.h **** #define LL_DMA_CHANNEL_2                  DMA_SxCR_CHSEL_1                                         
 293:Drivers/STM32F7xx_HAL_Driver/Inc/stm32f7xx_ll_dma.h **** #define LL_DMA_CHANNEL_3                  (DMA_SxCR_CHSEL_0 | DMA_SxCR_CHSEL_1)                    
 294:Drivers/STM32F7xx_HAL_Driver/Inc/stm32f7xx_ll_dma.h **** #define LL_DMA_CHANNEL_4                  DMA_SxCR_CHSEL_2                                         
 295:Drivers/STM32F7xx_HAL_Driver/Inc/stm32f7xx_ll_dma.h **** #define LL_DMA_CHANNEL_5                  (DMA_SxCR_CHSEL_2 | DMA_SxCR_CHSEL_0)                    
 296:Drivers/STM32F7xx_HAL_Driver/Inc/stm32f7xx_ll_dma.h **** #define LL_DMA_CHANNEL_6                  (DMA_SxCR_CHSEL_2 | DMA_SxCR_CHSEL_1)                    
 297:Drivers/STM32F7xx_HAL_Driver/Inc/stm32f7xx_ll_dma.h **** #define LL_DMA_CHANNEL_7                  (DMA_SxCR_CHSEL_2 | DMA_SxCR_CHSEL_1 | DMA_SxCR_CHSEL_0) 
 298:Drivers/STM32F7xx_HAL_Driver/Inc/stm32f7xx_ll_dma.h **** #if defined(DMA_CHANNEL_SELECTION_8_15)
 299:Drivers/STM32F7xx_HAL_Driver/Inc/stm32f7xx_ll_dma.h **** #define LL_DMA_CHANNEL_8                  DMA_SxCR_CHSEL_3                                         
 300:Drivers/STM32F7xx_HAL_Driver/Inc/stm32f7xx_ll_dma.h **** #define LL_DMA_CHANNEL_9                  (DMA_SxCR_CHSEL_3 | DMA_SxCR_CHSEL_0)                    
 301:Drivers/STM32F7xx_HAL_Driver/Inc/stm32f7xx_ll_dma.h **** #define LL_DMA_CHANNEL_10                 (DMA_SxCR_CHSEL_3 | DMA_SxCR_CHSEL_1)                    
 302:Drivers/STM32F7xx_HAL_Driver/Inc/stm32f7xx_ll_dma.h **** #define LL_DMA_CHANNEL_11                 (DMA_SxCR_CHSEL_3 | DMA_SxCR_CHSEL_1 | DMA_SxCR_CHSEL_0) 
 303:Drivers/STM32F7xx_HAL_Driver/Inc/stm32f7xx_ll_dma.h **** #define LL_DMA_CHANNEL_12                 (DMA_SxCR_CHSEL_3 | DMA_SxCR_CHSEL_2)                    
 304:Drivers/STM32F7xx_HAL_Driver/Inc/stm32f7xx_ll_dma.h **** #define LL_DMA_CHANNEL_13                 (DMA_SxCR_CHSEL_3 | DMA_SxCR_CHSEL_2 | DMA_SxCR_CHSEL_0) 
 305:Drivers/STM32F7xx_HAL_Driver/Inc/stm32f7xx_ll_dma.h **** #define LL_DMA_CHANNEL_14                 (DMA_SxCR_CHSEL_3 | DMA_SxCR_CHSEL_2 | DMA_SxCR_CHSEL_1) 
 306:Drivers/STM32F7xx_HAL_Driver/Inc/stm32f7xx_ll_dma.h **** #define LL_DMA_CHANNEL_15                 DMA_SxCR_CHSEL                                           
 307:Drivers/STM32F7xx_HAL_Driver/Inc/stm32f7xx_ll_dma.h **** #endif /* DMA_CHANNEL_SELECTION_8_15 */
 308:Drivers/STM32F7xx_HAL_Driver/Inc/stm32f7xx_ll_dma.h **** /**
 309:Drivers/STM32F7xx_HAL_Driver/Inc/stm32f7xx_ll_dma.h ****   * @}
 310:Drivers/STM32F7xx_HAL_Driver/Inc/stm32f7xx_ll_dma.h ****   */
ARM GAS  /tmp/ccYTojEy.s 			page 11


 311:Drivers/STM32F7xx_HAL_Driver/Inc/stm32f7xx_ll_dma.h **** 
 312:Drivers/STM32F7xx_HAL_Driver/Inc/stm32f7xx_ll_dma.h **** /** @defgroup DMA_LL_EC_MBURST MBURST
 313:Drivers/STM32F7xx_HAL_Driver/Inc/stm32f7xx_ll_dma.h ****   * @{
 314:Drivers/STM32F7xx_HAL_Driver/Inc/stm32f7xx_ll_dma.h ****   */
 315:Drivers/STM32F7xx_HAL_Driver/Inc/stm32f7xx_ll_dma.h **** #define LL_DMA_MBURST_SINGLE              0x00000000U                             /*!< Memory burst
 316:Drivers/STM32F7xx_HAL_Driver/Inc/stm32f7xx_ll_dma.h **** #define LL_DMA_MBURST_INC4                DMA_SxCR_MBURST_0                       /*!< Memory burst
 317:Drivers/STM32F7xx_HAL_Driver/Inc/stm32f7xx_ll_dma.h **** #define LL_DMA_MBURST_INC8                DMA_SxCR_MBURST_1                       /*!< Memory burst
 318:Drivers/STM32F7xx_HAL_Driver/Inc/stm32f7xx_ll_dma.h **** #define LL_DMA_MBURST_INC16               (DMA_SxCR_MBURST_0 | DMA_SxCR_MBURST_1) /*!< Memory burst
 319:Drivers/STM32F7xx_HAL_Driver/Inc/stm32f7xx_ll_dma.h **** /**
 320:Drivers/STM32F7xx_HAL_Driver/Inc/stm32f7xx_ll_dma.h ****   * @}
 321:Drivers/STM32F7xx_HAL_Driver/Inc/stm32f7xx_ll_dma.h ****   */
 322:Drivers/STM32F7xx_HAL_Driver/Inc/stm32f7xx_ll_dma.h **** 
 323:Drivers/STM32F7xx_HAL_Driver/Inc/stm32f7xx_ll_dma.h **** /** @defgroup DMA_LL_EC_PBURST PBURST
 324:Drivers/STM32F7xx_HAL_Driver/Inc/stm32f7xx_ll_dma.h ****   * @{
 325:Drivers/STM32F7xx_HAL_Driver/Inc/stm32f7xx_ll_dma.h ****   */
 326:Drivers/STM32F7xx_HAL_Driver/Inc/stm32f7xx_ll_dma.h **** #define LL_DMA_PBURST_SINGLE              0x00000000U                             /*!< Peripheral b
 327:Drivers/STM32F7xx_HAL_Driver/Inc/stm32f7xx_ll_dma.h **** #define LL_DMA_PBURST_INC4                DMA_SxCR_PBURST_0                       /*!< Peripheral b
 328:Drivers/STM32F7xx_HAL_Driver/Inc/stm32f7xx_ll_dma.h **** #define LL_DMA_PBURST_INC8                DMA_SxCR_PBURST_1                       /*!< Peripheral b
 329:Drivers/STM32F7xx_HAL_Driver/Inc/stm32f7xx_ll_dma.h **** #define LL_DMA_PBURST_INC16               (DMA_SxCR_PBURST_0 | DMA_SxCR_PBURST_1) /*!< Peripheral b
 330:Drivers/STM32F7xx_HAL_Driver/Inc/stm32f7xx_ll_dma.h **** /**
 331:Drivers/STM32F7xx_HAL_Driver/Inc/stm32f7xx_ll_dma.h ****   * @}
 332:Drivers/STM32F7xx_HAL_Driver/Inc/stm32f7xx_ll_dma.h ****   */
 333:Drivers/STM32F7xx_HAL_Driver/Inc/stm32f7xx_ll_dma.h ****   
 334:Drivers/STM32F7xx_HAL_Driver/Inc/stm32f7xx_ll_dma.h **** /** @defgroup DMA_LL_FIFOMODE DMA_LL_FIFOMODE
 335:Drivers/STM32F7xx_HAL_Driver/Inc/stm32f7xx_ll_dma.h ****   * @{
 336:Drivers/STM32F7xx_HAL_Driver/Inc/stm32f7xx_ll_dma.h ****   */
 337:Drivers/STM32F7xx_HAL_Driver/Inc/stm32f7xx_ll_dma.h **** #define LL_DMA_FIFOMODE_DISABLE           0x00000000U                             /*!< FIFO mode di
 338:Drivers/STM32F7xx_HAL_Driver/Inc/stm32f7xx_ll_dma.h **** #define LL_DMA_FIFOMODE_ENABLE            DMA_SxFCR_DMDIS                         /*!< FIFO mode en
 339:Drivers/STM32F7xx_HAL_Driver/Inc/stm32f7xx_ll_dma.h **** /**
 340:Drivers/STM32F7xx_HAL_Driver/Inc/stm32f7xx_ll_dma.h ****   * @}
 341:Drivers/STM32F7xx_HAL_Driver/Inc/stm32f7xx_ll_dma.h ****   */  
 342:Drivers/STM32F7xx_HAL_Driver/Inc/stm32f7xx_ll_dma.h **** 
 343:Drivers/STM32F7xx_HAL_Driver/Inc/stm32f7xx_ll_dma.h **** /** @defgroup DMA_LL_EC_FIFOSTATUS_0 FIFOSTATUS 0
 344:Drivers/STM32F7xx_HAL_Driver/Inc/stm32f7xx_ll_dma.h ****   * @{
 345:Drivers/STM32F7xx_HAL_Driver/Inc/stm32f7xx_ll_dma.h ****   */
 346:Drivers/STM32F7xx_HAL_Driver/Inc/stm32f7xx_ll_dma.h **** #define LL_DMA_FIFOSTATUS_0_25            0x00000000U                             /*!< 0 < fifo_lev
 347:Drivers/STM32F7xx_HAL_Driver/Inc/stm32f7xx_ll_dma.h **** #define LL_DMA_FIFOSTATUS_25_50           DMA_SxFCR_FS_0                          /*!< 1/4 < fifo_l
 348:Drivers/STM32F7xx_HAL_Driver/Inc/stm32f7xx_ll_dma.h **** #define LL_DMA_FIFOSTATUS_50_75           DMA_SxFCR_FS_1                          /*!< 1/2 < fifo_l
 349:Drivers/STM32F7xx_HAL_Driver/Inc/stm32f7xx_ll_dma.h **** #define LL_DMA_FIFOSTATUS_75_100          (DMA_SxFCR_FS_1 | DMA_SxFCR_FS_0)       /*!< 3/4 < fifo_l
 350:Drivers/STM32F7xx_HAL_Driver/Inc/stm32f7xx_ll_dma.h **** #define LL_DMA_FIFOSTATUS_EMPTY           DMA_SxFCR_FS_2                          /*!< FIFO is empt
 351:Drivers/STM32F7xx_HAL_Driver/Inc/stm32f7xx_ll_dma.h **** #define LL_DMA_FIFOSTATUS_FULL            (DMA_SxFCR_FS_2 | DMA_SxFCR_FS_0)       /*!< FIFO is full
 352:Drivers/STM32F7xx_HAL_Driver/Inc/stm32f7xx_ll_dma.h **** /**
 353:Drivers/STM32F7xx_HAL_Driver/Inc/stm32f7xx_ll_dma.h ****   * @}
 354:Drivers/STM32F7xx_HAL_Driver/Inc/stm32f7xx_ll_dma.h ****   */
 355:Drivers/STM32F7xx_HAL_Driver/Inc/stm32f7xx_ll_dma.h **** 
 356:Drivers/STM32F7xx_HAL_Driver/Inc/stm32f7xx_ll_dma.h **** /** @defgroup DMA_LL_EC_FIFOTHRESHOLD FIFOTHRESHOLD
 357:Drivers/STM32F7xx_HAL_Driver/Inc/stm32f7xx_ll_dma.h ****   * @{
 358:Drivers/STM32F7xx_HAL_Driver/Inc/stm32f7xx_ll_dma.h ****   */
 359:Drivers/STM32F7xx_HAL_Driver/Inc/stm32f7xx_ll_dma.h **** #define LL_DMA_FIFOTHRESHOLD_1_4          0x00000000U                             /*!< FIFO thresho
 360:Drivers/STM32F7xx_HAL_Driver/Inc/stm32f7xx_ll_dma.h **** #define LL_DMA_FIFOTHRESHOLD_1_2          DMA_SxFCR_FTH_0                         /*!< FIFO thresho
 361:Drivers/STM32F7xx_HAL_Driver/Inc/stm32f7xx_ll_dma.h **** #define LL_DMA_FIFOTHRESHOLD_3_4          DMA_SxFCR_FTH_1                         /*!< FIFO thresho
 362:Drivers/STM32F7xx_HAL_Driver/Inc/stm32f7xx_ll_dma.h **** #define LL_DMA_FIFOTHRESHOLD_FULL         DMA_SxFCR_FTH                           /*!< FIFO thresho
 363:Drivers/STM32F7xx_HAL_Driver/Inc/stm32f7xx_ll_dma.h **** /**
 364:Drivers/STM32F7xx_HAL_Driver/Inc/stm32f7xx_ll_dma.h ****   * @}
 365:Drivers/STM32F7xx_HAL_Driver/Inc/stm32f7xx_ll_dma.h ****   */
 366:Drivers/STM32F7xx_HAL_Driver/Inc/stm32f7xx_ll_dma.h ****     
 367:Drivers/STM32F7xx_HAL_Driver/Inc/stm32f7xx_ll_dma.h **** /** @defgroup DMA_LL_EC_CURRENTTARGETMEM CURRENTTARGETMEM
ARM GAS  /tmp/ccYTojEy.s 			page 12


 368:Drivers/STM32F7xx_HAL_Driver/Inc/stm32f7xx_ll_dma.h ****   * @{
 369:Drivers/STM32F7xx_HAL_Driver/Inc/stm32f7xx_ll_dma.h ****   */
 370:Drivers/STM32F7xx_HAL_Driver/Inc/stm32f7xx_ll_dma.h **** #define LL_DMA_CURRENTTARGETMEM0          0x00000000U                             /*!< Set CurrentT
 371:Drivers/STM32F7xx_HAL_Driver/Inc/stm32f7xx_ll_dma.h **** #define LL_DMA_CURRENTTARGETMEM1          DMA_SxCR_CT                             /*!< Set CurrentT
 372:Drivers/STM32F7xx_HAL_Driver/Inc/stm32f7xx_ll_dma.h **** /**
 373:Drivers/STM32F7xx_HAL_Driver/Inc/stm32f7xx_ll_dma.h ****   * @}
 374:Drivers/STM32F7xx_HAL_Driver/Inc/stm32f7xx_ll_dma.h ****   */
 375:Drivers/STM32F7xx_HAL_Driver/Inc/stm32f7xx_ll_dma.h **** 
 376:Drivers/STM32F7xx_HAL_Driver/Inc/stm32f7xx_ll_dma.h **** /**
 377:Drivers/STM32F7xx_HAL_Driver/Inc/stm32f7xx_ll_dma.h ****   * @}
 378:Drivers/STM32F7xx_HAL_Driver/Inc/stm32f7xx_ll_dma.h ****   */
 379:Drivers/STM32F7xx_HAL_Driver/Inc/stm32f7xx_ll_dma.h **** 
 380:Drivers/STM32F7xx_HAL_Driver/Inc/stm32f7xx_ll_dma.h **** /* Exported macro ------------------------------------------------------------*/
 381:Drivers/STM32F7xx_HAL_Driver/Inc/stm32f7xx_ll_dma.h **** /** @defgroup DMA_LL_Exported_Macros DMA Exported Macros
 382:Drivers/STM32F7xx_HAL_Driver/Inc/stm32f7xx_ll_dma.h ****   * @{
 383:Drivers/STM32F7xx_HAL_Driver/Inc/stm32f7xx_ll_dma.h ****   */
 384:Drivers/STM32F7xx_HAL_Driver/Inc/stm32f7xx_ll_dma.h **** 
 385:Drivers/STM32F7xx_HAL_Driver/Inc/stm32f7xx_ll_dma.h **** /** @defgroup DMA_LL_EM_WRITE_READ Common Write and read registers macros
 386:Drivers/STM32F7xx_HAL_Driver/Inc/stm32f7xx_ll_dma.h ****   * @{
 387:Drivers/STM32F7xx_HAL_Driver/Inc/stm32f7xx_ll_dma.h ****   */
 388:Drivers/STM32F7xx_HAL_Driver/Inc/stm32f7xx_ll_dma.h **** /**
 389:Drivers/STM32F7xx_HAL_Driver/Inc/stm32f7xx_ll_dma.h ****   * @brief  Write a value in DMA register
 390:Drivers/STM32F7xx_HAL_Driver/Inc/stm32f7xx_ll_dma.h ****   * @param  __INSTANCE__ DMA Instance
 391:Drivers/STM32F7xx_HAL_Driver/Inc/stm32f7xx_ll_dma.h ****   * @param  __REG__ Register to be written
 392:Drivers/STM32F7xx_HAL_Driver/Inc/stm32f7xx_ll_dma.h ****   * @param  __VALUE__ Value to be written in the register
 393:Drivers/STM32F7xx_HAL_Driver/Inc/stm32f7xx_ll_dma.h ****   * @retval None
 394:Drivers/STM32F7xx_HAL_Driver/Inc/stm32f7xx_ll_dma.h ****   */
 395:Drivers/STM32F7xx_HAL_Driver/Inc/stm32f7xx_ll_dma.h **** #define LL_DMA_WriteReg(__INSTANCE__, __REG__, __VALUE__) WRITE_REG(__INSTANCE__->__REG__, (__VALUE
 396:Drivers/STM32F7xx_HAL_Driver/Inc/stm32f7xx_ll_dma.h **** 
 397:Drivers/STM32F7xx_HAL_Driver/Inc/stm32f7xx_ll_dma.h **** /**
 398:Drivers/STM32F7xx_HAL_Driver/Inc/stm32f7xx_ll_dma.h ****   * @brief  Read a value in DMA register
 399:Drivers/STM32F7xx_HAL_Driver/Inc/stm32f7xx_ll_dma.h ****   * @param  __INSTANCE__ DMA Instance
 400:Drivers/STM32F7xx_HAL_Driver/Inc/stm32f7xx_ll_dma.h ****   * @param  __REG__ Register to be read
 401:Drivers/STM32F7xx_HAL_Driver/Inc/stm32f7xx_ll_dma.h ****   * @retval Register value
 402:Drivers/STM32F7xx_HAL_Driver/Inc/stm32f7xx_ll_dma.h ****   */
 403:Drivers/STM32F7xx_HAL_Driver/Inc/stm32f7xx_ll_dma.h **** #define LL_DMA_ReadReg(__INSTANCE__, __REG__) READ_REG(__INSTANCE__->__REG__)
 404:Drivers/STM32F7xx_HAL_Driver/Inc/stm32f7xx_ll_dma.h **** /**
 405:Drivers/STM32F7xx_HAL_Driver/Inc/stm32f7xx_ll_dma.h ****   * @}
 406:Drivers/STM32F7xx_HAL_Driver/Inc/stm32f7xx_ll_dma.h ****   */
 407:Drivers/STM32F7xx_HAL_Driver/Inc/stm32f7xx_ll_dma.h **** 
 408:Drivers/STM32F7xx_HAL_Driver/Inc/stm32f7xx_ll_dma.h **** /** @defgroup DMA_LL_EM_CONVERT_DMAxCHANNELy Convert DMAxStreamy
 409:Drivers/STM32F7xx_HAL_Driver/Inc/stm32f7xx_ll_dma.h ****   * @{
 410:Drivers/STM32F7xx_HAL_Driver/Inc/stm32f7xx_ll_dma.h ****   */
 411:Drivers/STM32F7xx_HAL_Driver/Inc/stm32f7xx_ll_dma.h **** /**
 412:Drivers/STM32F7xx_HAL_Driver/Inc/stm32f7xx_ll_dma.h ****   * @brief  Convert DMAx_Streamy into DMAx
 413:Drivers/STM32F7xx_HAL_Driver/Inc/stm32f7xx_ll_dma.h ****   * @param  __STREAM_INSTANCE__ DMAx_Streamy
 414:Drivers/STM32F7xx_HAL_Driver/Inc/stm32f7xx_ll_dma.h ****   * @retval DMAx
 415:Drivers/STM32F7xx_HAL_Driver/Inc/stm32f7xx_ll_dma.h ****   */
 416:Drivers/STM32F7xx_HAL_Driver/Inc/stm32f7xx_ll_dma.h **** #define __LL_DMA_GET_INSTANCE(__STREAM_INSTANCE__)   \
 417:Drivers/STM32F7xx_HAL_Driver/Inc/stm32f7xx_ll_dma.h **** (((uint32_t)(__STREAM_INSTANCE__) > ((uint32_t)DMA1_Stream7)) ?  DMA2 : DMA1)
 418:Drivers/STM32F7xx_HAL_Driver/Inc/stm32f7xx_ll_dma.h **** 
 419:Drivers/STM32F7xx_HAL_Driver/Inc/stm32f7xx_ll_dma.h **** /**
 420:Drivers/STM32F7xx_HAL_Driver/Inc/stm32f7xx_ll_dma.h ****   * @brief  Convert DMAx_Streamy into LL_DMA_STREAM_y
 421:Drivers/STM32F7xx_HAL_Driver/Inc/stm32f7xx_ll_dma.h ****   * @param  __STREAM_INSTANCE__ DMAx_Streamy
 422:Drivers/STM32F7xx_HAL_Driver/Inc/stm32f7xx_ll_dma.h ****   * @retval LL_DMA_CHANNEL_y
 423:Drivers/STM32F7xx_HAL_Driver/Inc/stm32f7xx_ll_dma.h ****   */
 424:Drivers/STM32F7xx_HAL_Driver/Inc/stm32f7xx_ll_dma.h **** #define __LL_DMA_GET_STREAM(__STREAM_INSTANCE__)   \
ARM GAS  /tmp/ccYTojEy.s 			page 13


 425:Drivers/STM32F7xx_HAL_Driver/Inc/stm32f7xx_ll_dma.h **** (((uint32_t)(__STREAM_INSTANCE__) == ((uint32_t)DMA1_Stream0)) ? LL_DMA_STREAM_0 : \
 426:Drivers/STM32F7xx_HAL_Driver/Inc/stm32f7xx_ll_dma.h ****  ((uint32_t)(__STREAM_INSTANCE__) == ((uint32_t)DMA2_Stream0)) ? LL_DMA_STREAM_0 : \
 427:Drivers/STM32F7xx_HAL_Driver/Inc/stm32f7xx_ll_dma.h ****  ((uint32_t)(__STREAM_INSTANCE__) == ((uint32_t)DMA1_Stream1)) ? LL_DMA_STREAM_1 : \
 428:Drivers/STM32F7xx_HAL_Driver/Inc/stm32f7xx_ll_dma.h ****  ((uint32_t)(__STREAM_INSTANCE__) == ((uint32_t)DMA2_Stream1)) ? LL_DMA_STREAM_1 : \
 429:Drivers/STM32F7xx_HAL_Driver/Inc/stm32f7xx_ll_dma.h ****  ((uint32_t)(__STREAM_INSTANCE__) == ((uint32_t)DMA1_Stream2)) ? LL_DMA_STREAM_2 : \
 430:Drivers/STM32F7xx_HAL_Driver/Inc/stm32f7xx_ll_dma.h ****  ((uint32_t)(__STREAM_INSTANCE__) == ((uint32_t)DMA2_Stream2)) ? LL_DMA_STREAM_2 : \
 431:Drivers/STM32F7xx_HAL_Driver/Inc/stm32f7xx_ll_dma.h ****  ((uint32_t)(__STREAM_INSTANCE__) == ((uint32_t)DMA1_Stream3)) ? LL_DMA_STREAM_3 : \
 432:Drivers/STM32F7xx_HAL_Driver/Inc/stm32f7xx_ll_dma.h ****  ((uint32_t)(__STREAM_INSTANCE__) == ((uint32_t)DMA2_Stream3)) ? LL_DMA_STREAM_3 : \
 433:Drivers/STM32F7xx_HAL_Driver/Inc/stm32f7xx_ll_dma.h ****  ((uint32_t)(__STREAM_INSTANCE__) == ((uint32_t)DMA1_Stream4)) ? LL_DMA_STREAM_4 : \
 434:Drivers/STM32F7xx_HAL_Driver/Inc/stm32f7xx_ll_dma.h ****  ((uint32_t)(__STREAM_INSTANCE__) == ((uint32_t)DMA2_Stream4)) ? LL_DMA_STREAM_4 : \
 435:Drivers/STM32F7xx_HAL_Driver/Inc/stm32f7xx_ll_dma.h ****  ((uint32_t)(__STREAM_INSTANCE__) == ((uint32_t)DMA1_Stream5)) ? LL_DMA_STREAM_5 : \
 436:Drivers/STM32F7xx_HAL_Driver/Inc/stm32f7xx_ll_dma.h ****  ((uint32_t)(__STREAM_INSTANCE__) == ((uint32_t)DMA2_Stream5)) ? LL_DMA_STREAM_5 : \
 437:Drivers/STM32F7xx_HAL_Driver/Inc/stm32f7xx_ll_dma.h ****  ((uint32_t)(__STREAM_INSTANCE__) == ((uint32_t)DMA1_Stream6)) ? LL_DMA_STREAM_6 : \
 438:Drivers/STM32F7xx_HAL_Driver/Inc/stm32f7xx_ll_dma.h ****  ((uint32_t)(__STREAM_INSTANCE__) == ((uint32_t)DMA2_Stream6)) ? LL_DMA_STREAM_6 : \
 439:Drivers/STM32F7xx_HAL_Driver/Inc/stm32f7xx_ll_dma.h ****  LL_DMA_STREAM_7)
 440:Drivers/STM32F7xx_HAL_Driver/Inc/stm32f7xx_ll_dma.h **** 
 441:Drivers/STM32F7xx_HAL_Driver/Inc/stm32f7xx_ll_dma.h **** /**
 442:Drivers/STM32F7xx_HAL_Driver/Inc/stm32f7xx_ll_dma.h ****   * @brief  Convert DMA Instance DMAx and LL_DMA_STREAM_y into DMAx_Streamy
 443:Drivers/STM32F7xx_HAL_Driver/Inc/stm32f7xx_ll_dma.h ****   * @param  __DMA_INSTANCE__ DMAx
 444:Drivers/STM32F7xx_HAL_Driver/Inc/stm32f7xx_ll_dma.h ****   * @param  __STREAM__ LL_DMA_STREAM_y
 445:Drivers/STM32F7xx_HAL_Driver/Inc/stm32f7xx_ll_dma.h ****   * @retval DMAx_Streamy
 446:Drivers/STM32F7xx_HAL_Driver/Inc/stm32f7xx_ll_dma.h ****   */
 447:Drivers/STM32F7xx_HAL_Driver/Inc/stm32f7xx_ll_dma.h **** #define __LL_DMA_GET_STREAM_INSTANCE(__DMA_INSTANCE__, __STREAM__)   \
 448:Drivers/STM32F7xx_HAL_Driver/Inc/stm32f7xx_ll_dma.h **** ((((uint32_t)(__DMA_INSTANCE__) == ((uint32_t)DMA1)) && ((uint32_t)(__STREAM__) == ((uint32_t)LL_DM
 449:Drivers/STM32F7xx_HAL_Driver/Inc/stm32f7xx_ll_dma.h ****  (((uint32_t)(__DMA_INSTANCE__) == ((uint32_t)DMA2)) && ((uint32_t)(__STREAM__) == ((uint32_t)LL_DM
 450:Drivers/STM32F7xx_HAL_Driver/Inc/stm32f7xx_ll_dma.h ****  (((uint32_t)(__DMA_INSTANCE__) == ((uint32_t)DMA1)) && ((uint32_t)(__STREAM__) == ((uint32_t)LL_DM
 451:Drivers/STM32F7xx_HAL_Driver/Inc/stm32f7xx_ll_dma.h ****  (((uint32_t)(__DMA_INSTANCE__) == ((uint32_t)DMA2)) && ((uint32_t)(__STREAM__) == ((uint32_t)LL_DM
 452:Drivers/STM32F7xx_HAL_Driver/Inc/stm32f7xx_ll_dma.h ****  (((uint32_t)(__DMA_INSTANCE__) == ((uint32_t)DMA1)) && ((uint32_t)(__STREAM__) == ((uint32_t)LL_DM
 453:Drivers/STM32F7xx_HAL_Driver/Inc/stm32f7xx_ll_dma.h ****  (((uint32_t)(__DMA_INSTANCE__) == ((uint32_t)DMA2)) && ((uint32_t)(__STREAM__) == ((uint32_t)LL_DM
 454:Drivers/STM32F7xx_HAL_Driver/Inc/stm32f7xx_ll_dma.h ****  (((uint32_t)(__DMA_INSTANCE__) == ((uint32_t)DMA1)) && ((uint32_t)(__STREAM__) == ((uint32_t)LL_DM
 455:Drivers/STM32F7xx_HAL_Driver/Inc/stm32f7xx_ll_dma.h ****  (((uint32_t)(__DMA_INSTANCE__) == ((uint32_t)DMA2)) && ((uint32_t)(__STREAM__) == ((uint32_t)LL_DM
 456:Drivers/STM32F7xx_HAL_Driver/Inc/stm32f7xx_ll_dma.h ****  (((uint32_t)(__DMA_INSTANCE__) == ((uint32_t)DMA1)) && ((uint32_t)(__STREAM__) == ((uint32_t)LL_DM
 457:Drivers/STM32F7xx_HAL_Driver/Inc/stm32f7xx_ll_dma.h ****  (((uint32_t)(__DMA_INSTANCE__) == ((uint32_t)DMA2)) && ((uint32_t)(__STREAM__) == ((uint32_t)LL_DM
 458:Drivers/STM32F7xx_HAL_Driver/Inc/stm32f7xx_ll_dma.h ****  (((uint32_t)(__DMA_INSTANCE__) == ((uint32_t)DMA1)) && ((uint32_t)(__STREAM__) == ((uint32_t)LL_DM
 459:Drivers/STM32F7xx_HAL_Driver/Inc/stm32f7xx_ll_dma.h ****  (((uint32_t)(__DMA_INSTANCE__) == ((uint32_t)DMA2)) && ((uint32_t)(__STREAM__) == ((uint32_t)LL_DM
 460:Drivers/STM32F7xx_HAL_Driver/Inc/stm32f7xx_ll_dma.h ****  (((uint32_t)(__DMA_INSTANCE__) == ((uint32_t)DMA1)) && ((uint32_t)(__STREAM__) == ((uint32_t)LL_DM
 461:Drivers/STM32F7xx_HAL_Driver/Inc/stm32f7xx_ll_dma.h ****  (((uint32_t)(__DMA_INSTANCE__) == ((uint32_t)DMA2)) && ((uint32_t)(__STREAM__) == ((uint32_t)LL_DM
 462:Drivers/STM32F7xx_HAL_Driver/Inc/stm32f7xx_ll_dma.h ****  (((uint32_t)(__DMA_INSTANCE__) == ((uint32_t)DMA1)) && ((uint32_t)(__STREAM__) == ((uint32_t)LL_DM
 463:Drivers/STM32F7xx_HAL_Driver/Inc/stm32f7xx_ll_dma.h ****  DMA2_Stream7)
 464:Drivers/STM32F7xx_HAL_Driver/Inc/stm32f7xx_ll_dma.h **** 
 465:Drivers/STM32F7xx_HAL_Driver/Inc/stm32f7xx_ll_dma.h **** /**
 466:Drivers/STM32F7xx_HAL_Driver/Inc/stm32f7xx_ll_dma.h ****   * @}
 467:Drivers/STM32F7xx_HAL_Driver/Inc/stm32f7xx_ll_dma.h ****   */
 468:Drivers/STM32F7xx_HAL_Driver/Inc/stm32f7xx_ll_dma.h **** 
 469:Drivers/STM32F7xx_HAL_Driver/Inc/stm32f7xx_ll_dma.h **** /**
 470:Drivers/STM32F7xx_HAL_Driver/Inc/stm32f7xx_ll_dma.h ****   * @}
 471:Drivers/STM32F7xx_HAL_Driver/Inc/stm32f7xx_ll_dma.h ****   */
 472:Drivers/STM32F7xx_HAL_Driver/Inc/stm32f7xx_ll_dma.h **** 
 473:Drivers/STM32F7xx_HAL_Driver/Inc/stm32f7xx_ll_dma.h **** 
 474:Drivers/STM32F7xx_HAL_Driver/Inc/stm32f7xx_ll_dma.h **** /* Exported functions --------------------------------------------------------*/
 475:Drivers/STM32F7xx_HAL_Driver/Inc/stm32f7xx_ll_dma.h ****  /** @defgroup DMA_LL_Exported_Functions DMA Exported Functions
 476:Drivers/STM32F7xx_HAL_Driver/Inc/stm32f7xx_ll_dma.h ****   * @{
 477:Drivers/STM32F7xx_HAL_Driver/Inc/stm32f7xx_ll_dma.h ****   */
 478:Drivers/STM32F7xx_HAL_Driver/Inc/stm32f7xx_ll_dma.h **** 
 479:Drivers/STM32F7xx_HAL_Driver/Inc/stm32f7xx_ll_dma.h **** /** @defgroup DMA_LL_EF_Configuration Configuration
 480:Drivers/STM32F7xx_HAL_Driver/Inc/stm32f7xx_ll_dma.h ****   * @{
 481:Drivers/STM32F7xx_HAL_Driver/Inc/stm32f7xx_ll_dma.h ****   */
ARM GAS  /tmp/ccYTojEy.s 			page 14


 482:Drivers/STM32F7xx_HAL_Driver/Inc/stm32f7xx_ll_dma.h **** /**
 483:Drivers/STM32F7xx_HAL_Driver/Inc/stm32f7xx_ll_dma.h ****   * @brief Enable DMA stream.
 484:Drivers/STM32F7xx_HAL_Driver/Inc/stm32f7xx_ll_dma.h ****   * @rmtoll CR          EN            LL_DMA_EnableStream
 485:Drivers/STM32F7xx_HAL_Driver/Inc/stm32f7xx_ll_dma.h ****   * @param  DMAx DMAx Instance
 486:Drivers/STM32F7xx_HAL_Driver/Inc/stm32f7xx_ll_dma.h ****   * @param  Stream This parameter can be one of the following values:
 487:Drivers/STM32F7xx_HAL_Driver/Inc/stm32f7xx_ll_dma.h ****   *         @arg @ref LL_DMA_STREAM_0
 488:Drivers/STM32F7xx_HAL_Driver/Inc/stm32f7xx_ll_dma.h ****   *         @arg @ref LL_DMA_STREAM_1
 489:Drivers/STM32F7xx_HAL_Driver/Inc/stm32f7xx_ll_dma.h ****   *         @arg @ref LL_DMA_STREAM_2
 490:Drivers/STM32F7xx_HAL_Driver/Inc/stm32f7xx_ll_dma.h ****   *         @arg @ref LL_DMA_STREAM_3
 491:Drivers/STM32F7xx_HAL_Driver/Inc/stm32f7xx_ll_dma.h ****   *         @arg @ref LL_DMA_STREAM_4
 492:Drivers/STM32F7xx_HAL_Driver/Inc/stm32f7xx_ll_dma.h ****   *         @arg @ref LL_DMA_STREAM_5
 493:Drivers/STM32F7xx_HAL_Driver/Inc/stm32f7xx_ll_dma.h ****   *         @arg @ref LL_DMA_STREAM_6
 494:Drivers/STM32F7xx_HAL_Driver/Inc/stm32f7xx_ll_dma.h ****   *         @arg @ref LL_DMA_STREAM_7
 495:Drivers/STM32F7xx_HAL_Driver/Inc/stm32f7xx_ll_dma.h ****   * @retval None
 496:Drivers/STM32F7xx_HAL_Driver/Inc/stm32f7xx_ll_dma.h ****   */
 497:Drivers/STM32F7xx_HAL_Driver/Inc/stm32f7xx_ll_dma.h **** __STATIC_INLINE void LL_DMA_EnableStream(DMA_TypeDef *DMAx, uint32_t Stream)
 498:Drivers/STM32F7xx_HAL_Driver/Inc/stm32f7xx_ll_dma.h **** {
 499:Drivers/STM32F7xx_HAL_Driver/Inc/stm32f7xx_ll_dma.h ****   SET_BIT(((DMA_Stream_TypeDef *)((uint32_t)((uint32_t)DMAx + STREAM_OFFSET_TAB[Stream])))->CR, DMA
 500:Drivers/STM32F7xx_HAL_Driver/Inc/stm32f7xx_ll_dma.h **** }
 501:Drivers/STM32F7xx_HAL_Driver/Inc/stm32f7xx_ll_dma.h **** 
 502:Drivers/STM32F7xx_HAL_Driver/Inc/stm32f7xx_ll_dma.h **** /**
 503:Drivers/STM32F7xx_HAL_Driver/Inc/stm32f7xx_ll_dma.h ****   * @brief Disable DMA stream.
 504:Drivers/STM32F7xx_HAL_Driver/Inc/stm32f7xx_ll_dma.h ****   * @rmtoll CR          EN            LL_DMA_DisableStream
 505:Drivers/STM32F7xx_HAL_Driver/Inc/stm32f7xx_ll_dma.h ****   * @param  DMAx DMAx Instance
 506:Drivers/STM32F7xx_HAL_Driver/Inc/stm32f7xx_ll_dma.h ****   * @param  Stream This parameter can be one of the following values:
 507:Drivers/STM32F7xx_HAL_Driver/Inc/stm32f7xx_ll_dma.h ****   *         @arg @ref LL_DMA_STREAM_0
 508:Drivers/STM32F7xx_HAL_Driver/Inc/stm32f7xx_ll_dma.h ****   *         @arg @ref LL_DMA_STREAM_1
 509:Drivers/STM32F7xx_HAL_Driver/Inc/stm32f7xx_ll_dma.h ****   *         @arg @ref LL_DMA_STREAM_2
 510:Drivers/STM32F7xx_HAL_Driver/Inc/stm32f7xx_ll_dma.h ****   *         @arg @ref LL_DMA_STREAM_3
 511:Drivers/STM32F7xx_HAL_Driver/Inc/stm32f7xx_ll_dma.h ****   *         @arg @ref LL_DMA_STREAM_4
 512:Drivers/STM32F7xx_HAL_Driver/Inc/stm32f7xx_ll_dma.h ****   *         @arg @ref LL_DMA_STREAM_5
 513:Drivers/STM32F7xx_HAL_Driver/Inc/stm32f7xx_ll_dma.h ****   *         @arg @ref LL_DMA_STREAM_6
 514:Drivers/STM32F7xx_HAL_Driver/Inc/stm32f7xx_ll_dma.h ****   *         @arg @ref LL_DMA_STREAM_7
 515:Drivers/STM32F7xx_HAL_Driver/Inc/stm32f7xx_ll_dma.h ****   * @retval None
 516:Drivers/STM32F7xx_HAL_Driver/Inc/stm32f7xx_ll_dma.h ****   */
 517:Drivers/STM32F7xx_HAL_Driver/Inc/stm32f7xx_ll_dma.h **** __STATIC_INLINE void LL_DMA_DisableStream(DMA_TypeDef *DMAx, uint32_t Stream)
  51              		.loc 2 517 22 view .LVU8
  52              	.LBB31:
 518:Drivers/STM32F7xx_HAL_Driver/Inc/stm32f7xx_ll_dma.h **** {
 519:Drivers/STM32F7xx_HAL_Driver/Inc/stm32f7xx_ll_dma.h ****   CLEAR_BIT(((DMA_Stream_TypeDef *)((uint32_t)((uint32_t)DMAx + STREAM_OFFSET_TAB[Stream])))->CR, D
  53              		.loc 2 519 3 view .LVU9
  54 0008 6D4B     		ldr	r3, .L43
  55 000a 13F801C0 		ldrb	ip, [r3, r1]	@ zero_extendqisi2
  56 000e 50F80C30 		ldr	r3, [r0, ip]
  57 0012 23F00103 		bic	r3, r3, #1
  58 0016 40F80C30 		str	r3, [r0, ip]
  59              	.LVL2:
  60              		.loc 2 519 3 is_stmt 0 view .LVU10
  61              	.LBE31:
  62              	.LBE30:
 211:Drivers/STM32F7xx_HAL_Driver/Src/stm32f7xx_ll_dma.c **** 
 212:Drivers/STM32F7xx_HAL_Driver/Src/stm32f7xx_ll_dma.c ****     /* Get the DMA Stream Instance */
 213:Drivers/STM32F7xx_HAL_Driver/Src/stm32f7xx_ll_dma.c ****     tmp = (DMA_Stream_TypeDef *)(__LL_DMA_GET_STREAM_INSTANCE(DMAx, Stream));
  63              		.loc 1 213 5 is_stmt 1 view .LVU11
  64              		.loc 1 213 34 is_stmt 0 view .LVU12
  65 001a 6A4B     		ldr	r3, .L43+4
  66 001c C31A     		subs	r3, r0, r3
ARM GAS  /tmp/ccYTojEy.s 			page 15


  67 001e 18BF     		it	ne
  68 0020 0123     		movne	r3, #1
  69 0022 0A1E     		subs	r2, r1, #0
  70 0024 18BF     		it	ne
  71 0026 0122     		movne	r2, #1
  72              		.loc 1 213 11 view .LVU13
  73 0028 53EA020E 		orrs	lr, r3, r2
  74 002c 65D0     		beq	.L14
  75              		.loc 1 213 34 discriminator 1 view .LVU14
  76 002e DFF898E1 		ldr	lr, .L43+8
  77 0032 B0EB0E0E 		subs	lr, r0, lr
  78 0036 18BF     		it	ne
  79 0038 4FF0010E 		movne	lr, #1
  80 003c 52EA0E02 		orrs	r2, r2, lr
  81 0040 6FD0     		beq	.L15
  82              		.loc 1 213 34 discriminator 3 view .LVU15
  83 0042 4A1E     		subs	r2, r1, #1
  84 0044 18BF     		it	ne
  85 0046 0122     		movne	r2, #1
  86 0048 53EA0204 		orrs	r4, r3, r2
  87 004c 6BD0     		beq	.L16
  88              		.loc 1 213 34 discriminator 5 view .LVU16
  89 004e 5EEA0202 		orrs	r2, lr, r2
  90 0052 6AD0     		beq	.L17
  91              		.loc 1 213 34 discriminator 7 view .LVU17
  92 0054 8A1E     		subs	r2, r1, #2
  93 0056 18BF     		it	ne
  94 0058 0122     		movne	r2, #1
  95 005a 53EA0204 		orrs	r4, r3, r2
  96 005e 66D0     		beq	.L18
  97              		.loc 1 213 34 discriminator 9 view .LVU18
  98 0060 5EEA0202 		orrs	r2, lr, r2
  99 0064 65D0     		beq	.L19
 100              		.loc 1 213 34 discriminator 11 view .LVU19
 101 0066 CA1E     		subs	r2, r1, #3
 102 0068 18BF     		it	ne
 103 006a 0122     		movne	r2, #1
 104 006c 53EA0204 		orrs	r4, r3, r2
 105 0070 61D0     		beq	.L20
 106              		.loc 1 213 34 discriminator 13 view .LVU20
 107 0072 5EEA0202 		orrs	r2, lr, r2
 108 0076 60D0     		beq	.L21
 109              		.loc 1 213 34 discriminator 15 view .LVU21
 110 0078 0A1F     		subs	r2, r1, #4
 111 007a 18BF     		it	ne
 112 007c 0122     		movne	r2, #1
 113 007e 53EA0204 		orrs	r4, r3, r2
 114 0082 5CD0     		beq	.L22
 115              		.loc 1 213 34 discriminator 17 view .LVU22
 116 0084 5EEA0202 		orrs	r2, lr, r2
 117 0088 5BD0     		beq	.L23
 118              		.loc 1 213 34 discriminator 19 view .LVU23
 119 008a 4A1F     		subs	r2, r1, #5
 120 008c 18BF     		it	ne
 121 008e 0122     		movne	r2, #1
 122 0090 53EA0204 		orrs	r4, r3, r2
 123 0094 57D0     		beq	.L24
ARM GAS  /tmp/ccYTojEy.s 			page 16


 124              		.loc 1 213 34 discriminator 21 view .LVU24
 125 0096 5EEA0202 		orrs	r2, lr, r2
 126 009a 56D0     		beq	.L25
 127              		.loc 1 213 34 discriminator 23 view .LVU25
 128 009c 8A1F     		subs	r2, r1, #6
 129 009e 18BF     		it	ne
 130 00a0 0122     		movne	r2, #1
 131 00a2 1343     		orrs	r3, r3, r2
 132 00a4 53D0     		beq	.L26
 133              		.loc 1 213 34 discriminator 25 view .LVU26
 134 00a6 5EEA0202 		orrs	r2, lr, r2
 135 00aa 52D0     		beq	.L27
 136              		.loc 1 213 34 discriminator 27 view .LVU27
 137 00ac 454B     		ldr	r3, .L43+4
 138 00ae 9842     		cmp	r0, r3
 139 00b0 08BF     		it	eq
 140 00b2 0729     		cmpeq	r1, #7
 141 00b4 4FD1     		bne	.L28
 142              		.loc 1 213 9 discriminator 29 view .LVU28
 143 00b6 B833     		adds	r3, r3, #184
 144 00b8 20E0     		b	.L5
 145              	.L33:
 146              	.LCFI1:
 147              		.cfi_def_cfa_offset 0
 148              		.cfi_restore 4
 149              		.cfi_restore 14
 186:Drivers/STM32F7xx_HAL_Driver/Src/stm32f7xx_ll_dma.c ****     {
 150              		.loc 1 186 5 is_stmt 1 view .LVU29
 186:Drivers/STM32F7xx_HAL_Driver/Src/stm32f7xx_ll_dma.c ****     {
 151              		.loc 1 186 8 is_stmt 0 view .LVU30
 152 00ba 424B     		ldr	r3, .L43+4
 153 00bc 9842     		cmp	r0, r3
 154 00be 04D0     		beq	.L34
 194:Drivers/STM32F7xx_HAL_Driver/Src/stm32f7xx_ll_dma.c ****     {
 155              		.loc 1 194 10 is_stmt 1 view .LVU31
 194:Drivers/STM32F7xx_HAL_Driver/Src/stm32f7xx_ll_dma.c ****     {
 156              		.loc 1 194 13 is_stmt 0 view .LVU32
 157 00c0 414B     		ldr	r3, .L43+8
 158 00c2 9842     		cmp	r0, r3
 159 00c4 0DD0     		beq	.L35
 204:Drivers/STM32F7xx_HAL_Driver/Src/stm32f7xx_ll_dma.c ****     }
 160              		.loc 1 204 14 view .LVU33
 161 00c6 0120     		movs	r0, #1
 162              	.LVL3:
 214:Drivers/STM32F7xx_HAL_Driver/Src/stm32f7xx_ll_dma.c **** 
 215:Drivers/STM32F7xx_HAL_Driver/Src/stm32f7xx_ll_dma.c ****     /* Reset DMAx_Streamy configuration register */
 216:Drivers/STM32F7xx_HAL_Driver/Src/stm32f7xx_ll_dma.c ****     LL_DMA_WriteReg(tmp, CR, 0U);
 217:Drivers/STM32F7xx_HAL_Driver/Src/stm32f7xx_ll_dma.c **** 
 218:Drivers/STM32F7xx_HAL_Driver/Src/stm32f7xx_ll_dma.c ****     /* Reset DMAx_Streamy remaining bytes register */
 219:Drivers/STM32F7xx_HAL_Driver/Src/stm32f7xx_ll_dma.c ****     LL_DMA_WriteReg(tmp, NDTR, 0U);
 220:Drivers/STM32F7xx_HAL_Driver/Src/stm32f7xx_ll_dma.c **** 
 221:Drivers/STM32F7xx_HAL_Driver/Src/stm32f7xx_ll_dma.c ****     /* Reset DMAx_Streamy peripheral address register */
 222:Drivers/STM32F7xx_HAL_Driver/Src/stm32f7xx_ll_dma.c ****     LL_DMA_WriteReg(tmp, PAR, 0U);
 223:Drivers/STM32F7xx_HAL_Driver/Src/stm32f7xx_ll_dma.c **** 
 224:Drivers/STM32F7xx_HAL_Driver/Src/stm32f7xx_ll_dma.c ****     /* Reset DMAx_Streamy memory address register */
 225:Drivers/STM32F7xx_HAL_Driver/Src/stm32f7xx_ll_dma.c ****     LL_DMA_WriteReg(tmp, M0AR, 0U);
 226:Drivers/STM32F7xx_HAL_Driver/Src/stm32f7xx_ll_dma.c **** 
ARM GAS  /tmp/ccYTojEy.s 			page 17


 227:Drivers/STM32F7xx_HAL_Driver/Src/stm32f7xx_ll_dma.c ****     /* Reset DMAx_Streamy memory address register */
 228:Drivers/STM32F7xx_HAL_Driver/Src/stm32f7xx_ll_dma.c ****     LL_DMA_WriteReg(tmp, M1AR, 0U);
 229:Drivers/STM32F7xx_HAL_Driver/Src/stm32f7xx_ll_dma.c **** 
 230:Drivers/STM32F7xx_HAL_Driver/Src/stm32f7xx_ll_dma.c ****     /* Reset DMAx_Streamy FIFO control register */
 231:Drivers/STM32F7xx_HAL_Driver/Src/stm32f7xx_ll_dma.c ****     LL_DMA_WriteReg(tmp, FCR, 0x00000021U);
 232:Drivers/STM32F7xx_HAL_Driver/Src/stm32f7xx_ll_dma.c **** 
 233:Drivers/STM32F7xx_HAL_Driver/Src/stm32f7xx_ll_dma.c ****     /* Reset Channel register field for DMAx Stream*/
 234:Drivers/STM32F7xx_HAL_Driver/Src/stm32f7xx_ll_dma.c ****     LL_DMA_SetChannelSelection(DMAx, Stream, LL_DMA_CHANNEL_0);
 235:Drivers/STM32F7xx_HAL_Driver/Src/stm32f7xx_ll_dma.c **** 
 236:Drivers/STM32F7xx_HAL_Driver/Src/stm32f7xx_ll_dma.c ****     if(Stream == LL_DMA_STREAM_0)
 237:Drivers/STM32F7xx_HAL_Driver/Src/stm32f7xx_ll_dma.c ****     {
 238:Drivers/STM32F7xx_HAL_Driver/Src/stm32f7xx_ll_dma.c ****        /* Reset the Stream0 pending flags */
 239:Drivers/STM32F7xx_HAL_Driver/Src/stm32f7xx_ll_dma.c ****        DMAx->LIFCR = 0x0000003FU;
 240:Drivers/STM32F7xx_HAL_Driver/Src/stm32f7xx_ll_dma.c ****     }
 241:Drivers/STM32F7xx_HAL_Driver/Src/stm32f7xx_ll_dma.c ****     else if(Stream == LL_DMA_STREAM_1)
 242:Drivers/STM32F7xx_HAL_Driver/Src/stm32f7xx_ll_dma.c ****     {
 243:Drivers/STM32F7xx_HAL_Driver/Src/stm32f7xx_ll_dma.c ****        /* Reset the Stream1 pending flags */
 244:Drivers/STM32F7xx_HAL_Driver/Src/stm32f7xx_ll_dma.c ****        DMAx->LIFCR = 0x00000F40U;
 245:Drivers/STM32F7xx_HAL_Driver/Src/stm32f7xx_ll_dma.c ****     }
 246:Drivers/STM32F7xx_HAL_Driver/Src/stm32f7xx_ll_dma.c ****     else if(Stream == LL_DMA_STREAM_2)
 247:Drivers/STM32F7xx_HAL_Driver/Src/stm32f7xx_ll_dma.c ****     {
 248:Drivers/STM32F7xx_HAL_Driver/Src/stm32f7xx_ll_dma.c ****        /* Reset the Stream2 pending flags */
 249:Drivers/STM32F7xx_HAL_Driver/Src/stm32f7xx_ll_dma.c ****        DMAx->LIFCR = 0x003F0000U;
 250:Drivers/STM32F7xx_HAL_Driver/Src/stm32f7xx_ll_dma.c ****     }
 251:Drivers/STM32F7xx_HAL_Driver/Src/stm32f7xx_ll_dma.c ****     else if(Stream == LL_DMA_STREAM_3)
 252:Drivers/STM32F7xx_HAL_Driver/Src/stm32f7xx_ll_dma.c ****     {
 253:Drivers/STM32F7xx_HAL_Driver/Src/stm32f7xx_ll_dma.c ****        /* Reset the Stream3 pending flags */
 254:Drivers/STM32F7xx_HAL_Driver/Src/stm32f7xx_ll_dma.c ****        DMAx->LIFCR = 0x0F400000U;
 255:Drivers/STM32F7xx_HAL_Driver/Src/stm32f7xx_ll_dma.c ****     }
 256:Drivers/STM32F7xx_HAL_Driver/Src/stm32f7xx_ll_dma.c ****     else if(Stream == LL_DMA_STREAM_4)
 257:Drivers/STM32F7xx_HAL_Driver/Src/stm32f7xx_ll_dma.c ****     {
 258:Drivers/STM32F7xx_HAL_Driver/Src/stm32f7xx_ll_dma.c ****        /* Reset the Stream4 pending flags */
 259:Drivers/STM32F7xx_HAL_Driver/Src/stm32f7xx_ll_dma.c ****        DMAx->HIFCR = 0x0000003FU;
 260:Drivers/STM32F7xx_HAL_Driver/Src/stm32f7xx_ll_dma.c ****     }
 261:Drivers/STM32F7xx_HAL_Driver/Src/stm32f7xx_ll_dma.c ****     else if(Stream == LL_DMA_STREAM_5)
 262:Drivers/STM32F7xx_HAL_Driver/Src/stm32f7xx_ll_dma.c ****     {
 263:Drivers/STM32F7xx_HAL_Driver/Src/stm32f7xx_ll_dma.c ****        /* Reset the Stream5 pending flags */
 264:Drivers/STM32F7xx_HAL_Driver/Src/stm32f7xx_ll_dma.c ****        DMAx->HIFCR = 0x00000F40U;
 265:Drivers/STM32F7xx_HAL_Driver/Src/stm32f7xx_ll_dma.c ****     }
 266:Drivers/STM32F7xx_HAL_Driver/Src/stm32f7xx_ll_dma.c ****     else if(Stream == LL_DMA_STREAM_6)
 267:Drivers/STM32F7xx_HAL_Driver/Src/stm32f7xx_ll_dma.c ****     {
 268:Drivers/STM32F7xx_HAL_Driver/Src/stm32f7xx_ll_dma.c ****        /* Reset the Stream6 pending flags */
 269:Drivers/STM32F7xx_HAL_Driver/Src/stm32f7xx_ll_dma.c ****        DMAx->HIFCR = 0x003F0000U;
 270:Drivers/STM32F7xx_HAL_Driver/Src/stm32f7xx_ll_dma.c ****     }
 271:Drivers/STM32F7xx_HAL_Driver/Src/stm32f7xx_ll_dma.c ****     else if(Stream == LL_DMA_STREAM_7)
 272:Drivers/STM32F7xx_HAL_Driver/Src/stm32f7xx_ll_dma.c ****     {
 273:Drivers/STM32F7xx_HAL_Driver/Src/stm32f7xx_ll_dma.c ****        /* Reset the Stream7 pending flags */
 274:Drivers/STM32F7xx_HAL_Driver/Src/stm32f7xx_ll_dma.c ****        DMAx->HIFCR = 0x0F400000U;
 275:Drivers/STM32F7xx_HAL_Driver/Src/stm32f7xx_ll_dma.c ****     }
 276:Drivers/STM32F7xx_HAL_Driver/Src/stm32f7xx_ll_dma.c ****     else
 277:Drivers/STM32F7xx_HAL_Driver/Src/stm32f7xx_ll_dma.c ****     {
 278:Drivers/STM32F7xx_HAL_Driver/Src/stm32f7xx_ll_dma.c ****       status = ERROR;
 279:Drivers/STM32F7xx_HAL_Driver/Src/stm32f7xx_ll_dma.c ****     }
 280:Drivers/STM32F7xx_HAL_Driver/Src/stm32f7xx_ll_dma.c ****   }
 281:Drivers/STM32F7xx_HAL_Driver/Src/stm32f7xx_ll_dma.c **** 
 282:Drivers/STM32F7xx_HAL_Driver/Src/stm32f7xx_ll_dma.c ****   return status;
 163              		.loc 1 282 3 is_stmt 1 view .LVU34
ARM GAS  /tmp/ccYTojEy.s 			page 18


 283:Drivers/STM32F7xx_HAL_Driver/Src/stm32f7xx_ll_dma.c **** }
 164              		.loc 1 283 1 is_stmt 0 view .LVU35
 165 00c8 7047     		bx	lr
 166              	.LVL4:
 167              	.L34:
 189:Drivers/STM32F7xx_HAL_Driver/Src/stm32f7xx_ll_dma.c **** 
 168              		.loc 1 189 7 is_stmt 1 view .LVU36
 169              	.LBB32:
 170              	.LBI32:
 171              		.file 3 "Drivers/STM32F7xx_HAL_Driver/Inc/stm32f7xx_ll_bus.h"
   1:Drivers/STM32F7xx_HAL_Driver/Inc/stm32f7xx_ll_bus.h **** /**
   2:Drivers/STM32F7xx_HAL_Driver/Inc/stm32f7xx_ll_bus.h ****   ******************************************************************************
   3:Drivers/STM32F7xx_HAL_Driver/Inc/stm32f7xx_ll_bus.h ****   * @file    stm32f7xx_ll_bus.h
   4:Drivers/STM32F7xx_HAL_Driver/Inc/stm32f7xx_ll_bus.h ****   * @author  MCD Application Team
   5:Drivers/STM32F7xx_HAL_Driver/Inc/stm32f7xx_ll_bus.h ****   * @brief   Header file of BUS LL module.
   6:Drivers/STM32F7xx_HAL_Driver/Inc/stm32f7xx_ll_bus.h **** 
   7:Drivers/STM32F7xx_HAL_Driver/Inc/stm32f7xx_ll_bus.h ****   @verbatim
   8:Drivers/STM32F7xx_HAL_Driver/Inc/stm32f7xx_ll_bus.h ****                       ##### RCC Limitations #####
   9:Drivers/STM32F7xx_HAL_Driver/Inc/stm32f7xx_ll_bus.h ****   ==============================================================================
  10:Drivers/STM32F7xx_HAL_Driver/Inc/stm32f7xx_ll_bus.h ****     [..]  
  11:Drivers/STM32F7xx_HAL_Driver/Inc/stm32f7xx_ll_bus.h ****       A delay between an RCC peripheral clock enable and the effective peripheral 
  12:Drivers/STM32F7xx_HAL_Driver/Inc/stm32f7xx_ll_bus.h ****       enabling should be taken into account in order to manage the peripheral read/write 
  13:Drivers/STM32F7xx_HAL_Driver/Inc/stm32f7xx_ll_bus.h ****       from/to registers.
  14:Drivers/STM32F7xx_HAL_Driver/Inc/stm32f7xx_ll_bus.h ****       (+) This delay depends on the peripheral mapping.
  15:Drivers/STM32F7xx_HAL_Driver/Inc/stm32f7xx_ll_bus.h ****         (++) AHB & APB peripherals, 1 dummy read is necessary
  16:Drivers/STM32F7xx_HAL_Driver/Inc/stm32f7xx_ll_bus.h **** 
  17:Drivers/STM32F7xx_HAL_Driver/Inc/stm32f7xx_ll_bus.h ****     [..]  
  18:Drivers/STM32F7xx_HAL_Driver/Inc/stm32f7xx_ll_bus.h ****       Workarounds:
  19:Drivers/STM32F7xx_HAL_Driver/Inc/stm32f7xx_ll_bus.h ****       (#) For AHB & APB peripherals, a dummy read to the peripheral register has been
  20:Drivers/STM32F7xx_HAL_Driver/Inc/stm32f7xx_ll_bus.h ****           inserted in each LL_{BUS}_GRP{x}_EnableClock() function.
  21:Drivers/STM32F7xx_HAL_Driver/Inc/stm32f7xx_ll_bus.h **** 
  22:Drivers/STM32F7xx_HAL_Driver/Inc/stm32f7xx_ll_bus.h ****   @endverbatim
  23:Drivers/STM32F7xx_HAL_Driver/Inc/stm32f7xx_ll_bus.h ****   ******************************************************************************
  24:Drivers/STM32F7xx_HAL_Driver/Inc/stm32f7xx_ll_bus.h ****   * @attention
  25:Drivers/STM32F7xx_HAL_Driver/Inc/stm32f7xx_ll_bus.h ****   *
  26:Drivers/STM32F7xx_HAL_Driver/Inc/stm32f7xx_ll_bus.h ****   * Copyright (c) 2017 STMicroelectronics.
  27:Drivers/STM32F7xx_HAL_Driver/Inc/stm32f7xx_ll_bus.h ****   * All rights reserved.
  28:Drivers/STM32F7xx_HAL_Driver/Inc/stm32f7xx_ll_bus.h ****   *
  29:Drivers/STM32F7xx_HAL_Driver/Inc/stm32f7xx_ll_bus.h ****   * This software is licensed under terms that can be found in the LICENSE file in
  30:Drivers/STM32F7xx_HAL_Driver/Inc/stm32f7xx_ll_bus.h ****   * the root directory of this software component.
  31:Drivers/STM32F7xx_HAL_Driver/Inc/stm32f7xx_ll_bus.h ****   * If no LICENSE file comes with this software, it is provided AS-IS.
  32:Drivers/STM32F7xx_HAL_Driver/Inc/stm32f7xx_ll_bus.h ****   ******************************************************************************
  33:Drivers/STM32F7xx_HAL_Driver/Inc/stm32f7xx_ll_bus.h ****   */
  34:Drivers/STM32F7xx_HAL_Driver/Inc/stm32f7xx_ll_bus.h **** 
  35:Drivers/STM32F7xx_HAL_Driver/Inc/stm32f7xx_ll_bus.h **** /* Define to prevent recursive inclusion -------------------------------------*/
  36:Drivers/STM32F7xx_HAL_Driver/Inc/stm32f7xx_ll_bus.h **** #ifndef __STM32F7xx_LL_BUS_H
  37:Drivers/STM32F7xx_HAL_Driver/Inc/stm32f7xx_ll_bus.h **** #define __STM32F7xx_LL_BUS_H
  38:Drivers/STM32F7xx_HAL_Driver/Inc/stm32f7xx_ll_bus.h **** 
  39:Drivers/STM32F7xx_HAL_Driver/Inc/stm32f7xx_ll_bus.h **** #ifdef __cplusplus
  40:Drivers/STM32F7xx_HAL_Driver/Inc/stm32f7xx_ll_bus.h **** extern "C" {
  41:Drivers/STM32F7xx_HAL_Driver/Inc/stm32f7xx_ll_bus.h **** #endif
  42:Drivers/STM32F7xx_HAL_Driver/Inc/stm32f7xx_ll_bus.h **** 
  43:Drivers/STM32F7xx_HAL_Driver/Inc/stm32f7xx_ll_bus.h **** /* Includes ------------------------------------------------------------------*/
  44:Drivers/STM32F7xx_HAL_Driver/Inc/stm32f7xx_ll_bus.h **** #include "stm32f7xx.h"
  45:Drivers/STM32F7xx_HAL_Driver/Inc/stm32f7xx_ll_bus.h **** 
  46:Drivers/STM32F7xx_HAL_Driver/Inc/stm32f7xx_ll_bus.h **** /** @addtogroup STM32F7xx_LL_Driver
  47:Drivers/STM32F7xx_HAL_Driver/Inc/stm32f7xx_ll_bus.h ****   * @{
ARM GAS  /tmp/ccYTojEy.s 			page 19


  48:Drivers/STM32F7xx_HAL_Driver/Inc/stm32f7xx_ll_bus.h ****   */
  49:Drivers/STM32F7xx_HAL_Driver/Inc/stm32f7xx_ll_bus.h **** 
  50:Drivers/STM32F7xx_HAL_Driver/Inc/stm32f7xx_ll_bus.h **** #if defined(RCC)
  51:Drivers/STM32F7xx_HAL_Driver/Inc/stm32f7xx_ll_bus.h **** 
  52:Drivers/STM32F7xx_HAL_Driver/Inc/stm32f7xx_ll_bus.h **** /** @defgroup BUS_LL BUS
  53:Drivers/STM32F7xx_HAL_Driver/Inc/stm32f7xx_ll_bus.h ****   * @{
  54:Drivers/STM32F7xx_HAL_Driver/Inc/stm32f7xx_ll_bus.h ****   */
  55:Drivers/STM32F7xx_HAL_Driver/Inc/stm32f7xx_ll_bus.h **** 
  56:Drivers/STM32F7xx_HAL_Driver/Inc/stm32f7xx_ll_bus.h **** /* Private types -------------------------------------------------------------*/
  57:Drivers/STM32F7xx_HAL_Driver/Inc/stm32f7xx_ll_bus.h **** /* Private variables ---------------------------------------------------------*/
  58:Drivers/STM32F7xx_HAL_Driver/Inc/stm32f7xx_ll_bus.h **** /* Private constants ---------------------------------------------------------*/
  59:Drivers/STM32F7xx_HAL_Driver/Inc/stm32f7xx_ll_bus.h **** /* Private macros ------------------------------------------------------------*/
  60:Drivers/STM32F7xx_HAL_Driver/Inc/stm32f7xx_ll_bus.h **** /* Exported types ------------------------------------------------------------*/
  61:Drivers/STM32F7xx_HAL_Driver/Inc/stm32f7xx_ll_bus.h **** /* Exported constants --------------------------------------------------------*/
  62:Drivers/STM32F7xx_HAL_Driver/Inc/stm32f7xx_ll_bus.h **** /** @defgroup BUS_LL_Exported_Constants BUS Exported Constants
  63:Drivers/STM32F7xx_HAL_Driver/Inc/stm32f7xx_ll_bus.h ****   * @{
  64:Drivers/STM32F7xx_HAL_Driver/Inc/stm32f7xx_ll_bus.h ****   */
  65:Drivers/STM32F7xx_HAL_Driver/Inc/stm32f7xx_ll_bus.h **** 
  66:Drivers/STM32F7xx_HAL_Driver/Inc/stm32f7xx_ll_bus.h **** /** @defgroup BUS_LL_EC_AHB1_GRP1_PERIPH  AHB1 GRP1 PERIPH
  67:Drivers/STM32F7xx_HAL_Driver/Inc/stm32f7xx_ll_bus.h ****   * @{
  68:Drivers/STM32F7xx_HAL_Driver/Inc/stm32f7xx_ll_bus.h ****   */
  69:Drivers/STM32F7xx_HAL_Driver/Inc/stm32f7xx_ll_bus.h **** #define LL_AHB1_GRP1_PERIPH_ALL             0xFFFFFFFFU
  70:Drivers/STM32F7xx_HAL_Driver/Inc/stm32f7xx_ll_bus.h **** #define LL_AHB1_GRP1_PERIPH_GPIOA           RCC_AHB1ENR_GPIOAEN
  71:Drivers/STM32F7xx_HAL_Driver/Inc/stm32f7xx_ll_bus.h **** #define LL_AHB1_GRP1_PERIPH_GPIOB           RCC_AHB1ENR_GPIOBEN
  72:Drivers/STM32F7xx_HAL_Driver/Inc/stm32f7xx_ll_bus.h **** #define LL_AHB1_GRP1_PERIPH_GPIOC           RCC_AHB1ENR_GPIOCEN
  73:Drivers/STM32F7xx_HAL_Driver/Inc/stm32f7xx_ll_bus.h **** #define LL_AHB1_GRP1_PERIPH_GPIOD           RCC_AHB1ENR_GPIODEN
  74:Drivers/STM32F7xx_HAL_Driver/Inc/stm32f7xx_ll_bus.h **** #define LL_AHB1_GRP1_PERIPH_GPIOE           RCC_AHB1ENR_GPIOEEN
  75:Drivers/STM32F7xx_HAL_Driver/Inc/stm32f7xx_ll_bus.h **** #define LL_AHB1_GRP1_PERIPH_GPIOF           RCC_AHB1ENR_GPIOFEN
  76:Drivers/STM32F7xx_HAL_Driver/Inc/stm32f7xx_ll_bus.h **** #define LL_AHB1_GRP1_PERIPH_GPIOG           RCC_AHB1ENR_GPIOGEN
  77:Drivers/STM32F7xx_HAL_Driver/Inc/stm32f7xx_ll_bus.h **** #define LL_AHB1_GRP1_PERIPH_GPIOH           RCC_AHB1ENR_GPIOHEN
  78:Drivers/STM32F7xx_HAL_Driver/Inc/stm32f7xx_ll_bus.h **** #define LL_AHB1_GRP1_PERIPH_GPIOI           RCC_AHB1ENR_GPIOIEN
  79:Drivers/STM32F7xx_HAL_Driver/Inc/stm32f7xx_ll_bus.h **** #if defined(GPIOJ)
  80:Drivers/STM32F7xx_HAL_Driver/Inc/stm32f7xx_ll_bus.h **** #define LL_AHB1_GRP1_PERIPH_GPIOJ           RCC_AHB1ENR_GPIOJEN
  81:Drivers/STM32F7xx_HAL_Driver/Inc/stm32f7xx_ll_bus.h **** #endif /* GPIOJ */
  82:Drivers/STM32F7xx_HAL_Driver/Inc/stm32f7xx_ll_bus.h **** #if defined(GPIOK)
  83:Drivers/STM32F7xx_HAL_Driver/Inc/stm32f7xx_ll_bus.h **** #define LL_AHB1_GRP1_PERIPH_GPIOK           RCC_AHB1ENR_GPIOKEN
  84:Drivers/STM32F7xx_HAL_Driver/Inc/stm32f7xx_ll_bus.h **** #endif /* GPIOK */
  85:Drivers/STM32F7xx_HAL_Driver/Inc/stm32f7xx_ll_bus.h **** #define LL_AHB1_GRP1_PERIPH_CRC             RCC_AHB1ENR_CRCEN
  86:Drivers/STM32F7xx_HAL_Driver/Inc/stm32f7xx_ll_bus.h **** #define LL_AHB1_GRP1_PERIPH_BKPSRAM         RCC_AHB1ENR_BKPSRAMEN
  87:Drivers/STM32F7xx_HAL_Driver/Inc/stm32f7xx_ll_bus.h **** #define LL_AHB1_GRP1_PERIPH_DTCMRAM         RCC_AHB1ENR_DTCMRAMEN
  88:Drivers/STM32F7xx_HAL_Driver/Inc/stm32f7xx_ll_bus.h **** #define LL_AHB1_GRP1_PERIPH_DMA1            RCC_AHB1ENR_DMA1EN
  89:Drivers/STM32F7xx_HAL_Driver/Inc/stm32f7xx_ll_bus.h **** #define LL_AHB1_GRP1_PERIPH_DMA2            RCC_AHB1ENR_DMA2EN
  90:Drivers/STM32F7xx_HAL_Driver/Inc/stm32f7xx_ll_bus.h **** #if defined(DMA2D)
  91:Drivers/STM32F7xx_HAL_Driver/Inc/stm32f7xx_ll_bus.h **** #define LL_AHB1_GRP1_PERIPH_DMA2D           RCC_AHB1ENR_DMA2DEN
  92:Drivers/STM32F7xx_HAL_Driver/Inc/stm32f7xx_ll_bus.h **** #endif /* DMA2D */
  93:Drivers/STM32F7xx_HAL_Driver/Inc/stm32f7xx_ll_bus.h **** #if defined(ETH)
  94:Drivers/STM32F7xx_HAL_Driver/Inc/stm32f7xx_ll_bus.h **** #define LL_AHB1_GRP1_PERIPH_ETHMAC          RCC_AHB1ENR_ETHMACEN
  95:Drivers/STM32F7xx_HAL_Driver/Inc/stm32f7xx_ll_bus.h **** #define LL_AHB1_GRP1_PERIPH_ETHMACTX        RCC_AHB1ENR_ETHMACTXEN
  96:Drivers/STM32F7xx_HAL_Driver/Inc/stm32f7xx_ll_bus.h **** #define LL_AHB1_GRP1_PERIPH_ETHMACRX        RCC_AHB1ENR_ETHMACRXEN
  97:Drivers/STM32F7xx_HAL_Driver/Inc/stm32f7xx_ll_bus.h **** #define LL_AHB1_GRP1_PERIPH_ETHMACPTP       RCC_AHB1ENR_ETHMACPTPEN
  98:Drivers/STM32F7xx_HAL_Driver/Inc/stm32f7xx_ll_bus.h **** #endif /* ETH */
  99:Drivers/STM32F7xx_HAL_Driver/Inc/stm32f7xx_ll_bus.h **** #define LL_AHB1_GRP1_PERIPH_OTGHS           RCC_AHB1ENR_OTGHSEN
 100:Drivers/STM32F7xx_HAL_Driver/Inc/stm32f7xx_ll_bus.h **** #define LL_AHB1_GRP1_PERIPH_OTGHSULPI       RCC_AHB1ENR_OTGHSULPIEN
 101:Drivers/STM32F7xx_HAL_Driver/Inc/stm32f7xx_ll_bus.h **** #define LL_AHB1_GRP1_PERIPH_AXI             RCC_AHB1LPENR_AXILPEN
 102:Drivers/STM32F7xx_HAL_Driver/Inc/stm32f7xx_ll_bus.h **** #define LL_AHB1_GRP1_PERIPH_FLITF           RCC_AHB1LPENR_FLITFLPEN
 103:Drivers/STM32F7xx_HAL_Driver/Inc/stm32f7xx_ll_bus.h **** #define LL_AHB1_GRP1_PERIPH_SRAM1           RCC_AHB1LPENR_SRAM1LPEN
 104:Drivers/STM32F7xx_HAL_Driver/Inc/stm32f7xx_ll_bus.h **** #define LL_AHB1_GRP1_PERIPH_SRAM2           RCC_AHB1LPENR_SRAM2LPEN
ARM GAS  /tmp/ccYTojEy.s 			page 20


 105:Drivers/STM32F7xx_HAL_Driver/Inc/stm32f7xx_ll_bus.h **** /**
 106:Drivers/STM32F7xx_HAL_Driver/Inc/stm32f7xx_ll_bus.h ****   * @}
 107:Drivers/STM32F7xx_HAL_Driver/Inc/stm32f7xx_ll_bus.h ****   */
 108:Drivers/STM32F7xx_HAL_Driver/Inc/stm32f7xx_ll_bus.h **** 
 109:Drivers/STM32F7xx_HAL_Driver/Inc/stm32f7xx_ll_bus.h **** /** @defgroup BUS_LL_EC_AHB2_GRP1_PERIPH  AHB2 GRP1 PERIPH
 110:Drivers/STM32F7xx_HAL_Driver/Inc/stm32f7xx_ll_bus.h ****   * @{
 111:Drivers/STM32F7xx_HAL_Driver/Inc/stm32f7xx_ll_bus.h ****   */
 112:Drivers/STM32F7xx_HAL_Driver/Inc/stm32f7xx_ll_bus.h **** #define LL_AHB2_GRP1_PERIPH_ALL            0xFFFFFFFFU
 113:Drivers/STM32F7xx_HAL_Driver/Inc/stm32f7xx_ll_bus.h **** #if defined(DCMI)
 114:Drivers/STM32F7xx_HAL_Driver/Inc/stm32f7xx_ll_bus.h **** #define LL_AHB2_GRP1_PERIPH_DCMI           RCC_AHB2ENR_DCMIEN
 115:Drivers/STM32F7xx_HAL_Driver/Inc/stm32f7xx_ll_bus.h **** #endif /* DCMI */
 116:Drivers/STM32F7xx_HAL_Driver/Inc/stm32f7xx_ll_bus.h **** #if defined(JPEG)
 117:Drivers/STM32F7xx_HAL_Driver/Inc/stm32f7xx_ll_bus.h **** #define LL_AHB2_GRP1_PERIPH_JPEG           RCC_AHB2ENR_JPEGEN
 118:Drivers/STM32F7xx_HAL_Driver/Inc/stm32f7xx_ll_bus.h **** #endif /* JPEG */
 119:Drivers/STM32F7xx_HAL_Driver/Inc/stm32f7xx_ll_bus.h **** #if defined(CRYP) 
 120:Drivers/STM32F7xx_HAL_Driver/Inc/stm32f7xx_ll_bus.h **** #define LL_AHB2_GRP1_PERIPH_CRYP           RCC_AHB2ENR_CRYPEN
 121:Drivers/STM32F7xx_HAL_Driver/Inc/stm32f7xx_ll_bus.h **** #endif /* CRYP */
 122:Drivers/STM32F7xx_HAL_Driver/Inc/stm32f7xx_ll_bus.h **** #if defined(AES)
 123:Drivers/STM32F7xx_HAL_Driver/Inc/stm32f7xx_ll_bus.h **** #define LL_AHB2_GRP1_PERIPH_AES            RCC_AHB2ENR_AESEN
 124:Drivers/STM32F7xx_HAL_Driver/Inc/stm32f7xx_ll_bus.h **** #endif /* AES */
 125:Drivers/STM32F7xx_HAL_Driver/Inc/stm32f7xx_ll_bus.h **** #if defined(HASH)
 126:Drivers/STM32F7xx_HAL_Driver/Inc/stm32f7xx_ll_bus.h **** #define LL_AHB2_GRP1_PERIPH_HASH           RCC_AHB2ENR_HASHEN
 127:Drivers/STM32F7xx_HAL_Driver/Inc/stm32f7xx_ll_bus.h **** #endif /* HASH */
 128:Drivers/STM32F7xx_HAL_Driver/Inc/stm32f7xx_ll_bus.h **** #define LL_AHB2_GRP1_PERIPH_RNG            RCC_AHB2ENR_RNGEN
 129:Drivers/STM32F7xx_HAL_Driver/Inc/stm32f7xx_ll_bus.h **** #define LL_AHB2_GRP1_PERIPH_OTGFS          RCC_AHB2ENR_OTGFSEN
 130:Drivers/STM32F7xx_HAL_Driver/Inc/stm32f7xx_ll_bus.h **** /**
 131:Drivers/STM32F7xx_HAL_Driver/Inc/stm32f7xx_ll_bus.h ****   * @}
 132:Drivers/STM32F7xx_HAL_Driver/Inc/stm32f7xx_ll_bus.h ****   */
 133:Drivers/STM32F7xx_HAL_Driver/Inc/stm32f7xx_ll_bus.h **** 
 134:Drivers/STM32F7xx_HAL_Driver/Inc/stm32f7xx_ll_bus.h **** /** @defgroup BUS_LL_EC_AHB3_GRP1_PERIPH  AHB3 GRP1 PERIPH
 135:Drivers/STM32F7xx_HAL_Driver/Inc/stm32f7xx_ll_bus.h ****   * @{
 136:Drivers/STM32F7xx_HAL_Driver/Inc/stm32f7xx_ll_bus.h ****   */
 137:Drivers/STM32F7xx_HAL_Driver/Inc/stm32f7xx_ll_bus.h **** #define LL_AHB3_GRP1_PERIPH_ALL            0xFFFFFFFFU
 138:Drivers/STM32F7xx_HAL_Driver/Inc/stm32f7xx_ll_bus.h **** #define LL_AHB3_GRP1_PERIPH_FMC            RCC_AHB3ENR_FMCEN
 139:Drivers/STM32F7xx_HAL_Driver/Inc/stm32f7xx_ll_bus.h **** #define LL_AHB3_GRP1_PERIPH_QSPI           RCC_AHB3ENR_QSPIEN
 140:Drivers/STM32F7xx_HAL_Driver/Inc/stm32f7xx_ll_bus.h **** /**
 141:Drivers/STM32F7xx_HAL_Driver/Inc/stm32f7xx_ll_bus.h ****   * @}
 142:Drivers/STM32F7xx_HAL_Driver/Inc/stm32f7xx_ll_bus.h ****   */
 143:Drivers/STM32F7xx_HAL_Driver/Inc/stm32f7xx_ll_bus.h **** 
 144:Drivers/STM32F7xx_HAL_Driver/Inc/stm32f7xx_ll_bus.h **** /** @defgroup BUS_LL_EC_APB1_GRP1_PERIPH  APB1 GRP1 PERIPH
 145:Drivers/STM32F7xx_HAL_Driver/Inc/stm32f7xx_ll_bus.h ****   * @{
 146:Drivers/STM32F7xx_HAL_Driver/Inc/stm32f7xx_ll_bus.h ****   */
 147:Drivers/STM32F7xx_HAL_Driver/Inc/stm32f7xx_ll_bus.h **** #define LL_APB1_GRP1_PERIPH_ALL            0xFFFFFFFFU
 148:Drivers/STM32F7xx_HAL_Driver/Inc/stm32f7xx_ll_bus.h **** #define LL_APB1_GRP1_PERIPH_TIM2           RCC_APB1ENR_TIM2EN
 149:Drivers/STM32F7xx_HAL_Driver/Inc/stm32f7xx_ll_bus.h **** #define LL_APB1_GRP1_PERIPH_TIM3           RCC_APB1ENR_TIM3EN
 150:Drivers/STM32F7xx_HAL_Driver/Inc/stm32f7xx_ll_bus.h **** #define LL_APB1_GRP1_PERIPH_TIM4           RCC_APB1ENR_TIM4EN
 151:Drivers/STM32F7xx_HAL_Driver/Inc/stm32f7xx_ll_bus.h **** #define LL_APB1_GRP1_PERIPH_TIM5           RCC_APB1ENR_TIM5EN
 152:Drivers/STM32F7xx_HAL_Driver/Inc/stm32f7xx_ll_bus.h **** #define LL_APB1_GRP1_PERIPH_TIM6           RCC_APB1ENR_TIM6EN
 153:Drivers/STM32F7xx_HAL_Driver/Inc/stm32f7xx_ll_bus.h **** #define LL_APB1_GRP1_PERIPH_TIM7           RCC_APB1ENR_TIM7EN
 154:Drivers/STM32F7xx_HAL_Driver/Inc/stm32f7xx_ll_bus.h **** #define LL_APB1_GRP1_PERIPH_TIM12          RCC_APB1ENR_TIM12EN
 155:Drivers/STM32F7xx_HAL_Driver/Inc/stm32f7xx_ll_bus.h **** #define LL_APB1_GRP1_PERIPH_TIM13          RCC_APB1ENR_TIM13EN
 156:Drivers/STM32F7xx_HAL_Driver/Inc/stm32f7xx_ll_bus.h **** #define LL_APB1_GRP1_PERIPH_TIM14          RCC_APB1ENR_TIM14EN
 157:Drivers/STM32F7xx_HAL_Driver/Inc/stm32f7xx_ll_bus.h **** #define LL_APB1_GRP1_PERIPH_LPTIM1         RCC_APB1ENR_LPTIM1EN
 158:Drivers/STM32F7xx_HAL_Driver/Inc/stm32f7xx_ll_bus.h **** #define LL_APB1_GRP1_PERIPH_WWDG           RCC_APB1ENR_WWDGEN
 159:Drivers/STM32F7xx_HAL_Driver/Inc/stm32f7xx_ll_bus.h **** #define LL_APB1_GRP1_PERIPH_SPI2           RCC_APB1ENR_SPI2EN
 160:Drivers/STM32F7xx_HAL_Driver/Inc/stm32f7xx_ll_bus.h **** #define LL_APB1_GRP1_PERIPH_SPI3           RCC_APB1ENR_SPI3EN
 161:Drivers/STM32F7xx_HAL_Driver/Inc/stm32f7xx_ll_bus.h **** #if defined(SPDIFRX)
ARM GAS  /tmp/ccYTojEy.s 			page 21


 162:Drivers/STM32F7xx_HAL_Driver/Inc/stm32f7xx_ll_bus.h **** #define LL_APB1_GRP1_PERIPH_SPDIFRX        RCC_APB1ENR_SPDIFRXEN
 163:Drivers/STM32F7xx_HAL_Driver/Inc/stm32f7xx_ll_bus.h **** #endif /* SPDIFRX */
 164:Drivers/STM32F7xx_HAL_Driver/Inc/stm32f7xx_ll_bus.h **** #define LL_APB1_GRP1_PERIPH_USART2         RCC_APB1ENR_USART2EN
 165:Drivers/STM32F7xx_HAL_Driver/Inc/stm32f7xx_ll_bus.h **** #define LL_APB1_GRP1_PERIPH_USART3         RCC_APB1ENR_USART3EN
 166:Drivers/STM32F7xx_HAL_Driver/Inc/stm32f7xx_ll_bus.h **** #define LL_APB1_GRP1_PERIPH_UART4          RCC_APB1ENR_UART4EN
 167:Drivers/STM32F7xx_HAL_Driver/Inc/stm32f7xx_ll_bus.h **** #define LL_APB1_GRP1_PERIPH_UART5          RCC_APB1ENR_UART5EN
 168:Drivers/STM32F7xx_HAL_Driver/Inc/stm32f7xx_ll_bus.h **** #define LL_APB1_GRP1_PERIPH_I2C1           RCC_APB1ENR_I2C1EN
 169:Drivers/STM32F7xx_HAL_Driver/Inc/stm32f7xx_ll_bus.h **** #define LL_APB1_GRP1_PERIPH_I2C2           RCC_APB1ENR_I2C2EN
 170:Drivers/STM32F7xx_HAL_Driver/Inc/stm32f7xx_ll_bus.h **** #define LL_APB1_GRP1_PERIPH_I2C3           RCC_APB1ENR_I2C3EN
 171:Drivers/STM32F7xx_HAL_Driver/Inc/stm32f7xx_ll_bus.h **** #if defined(I2C4)
 172:Drivers/STM32F7xx_HAL_Driver/Inc/stm32f7xx_ll_bus.h **** #define LL_APB1_GRP1_PERIPH_I2C4           RCC_APB1ENR_I2C4EN
 173:Drivers/STM32F7xx_HAL_Driver/Inc/stm32f7xx_ll_bus.h **** #endif /* I2C4 */
 174:Drivers/STM32F7xx_HAL_Driver/Inc/stm32f7xx_ll_bus.h **** #define LL_APB1_GRP1_PERIPH_CAN1           RCC_APB1ENR_CAN1EN
 175:Drivers/STM32F7xx_HAL_Driver/Inc/stm32f7xx_ll_bus.h **** #if defined(CAN2)
 176:Drivers/STM32F7xx_HAL_Driver/Inc/stm32f7xx_ll_bus.h **** #define LL_APB1_GRP1_PERIPH_CAN2           RCC_APB1ENR_CAN2EN
 177:Drivers/STM32F7xx_HAL_Driver/Inc/stm32f7xx_ll_bus.h **** #endif /* CAN2 */
 178:Drivers/STM32F7xx_HAL_Driver/Inc/stm32f7xx_ll_bus.h **** #if defined(CAN3)
 179:Drivers/STM32F7xx_HAL_Driver/Inc/stm32f7xx_ll_bus.h **** #define LL_APB1_GRP1_PERIPH_CAN3           RCC_APB1ENR_CAN3EN
 180:Drivers/STM32F7xx_HAL_Driver/Inc/stm32f7xx_ll_bus.h **** #endif /* CAN3 */
 181:Drivers/STM32F7xx_HAL_Driver/Inc/stm32f7xx_ll_bus.h **** #if defined(CEC)
 182:Drivers/STM32F7xx_HAL_Driver/Inc/stm32f7xx_ll_bus.h **** #define LL_APB1_GRP1_PERIPH_CEC            RCC_APB1ENR_CECEN
 183:Drivers/STM32F7xx_HAL_Driver/Inc/stm32f7xx_ll_bus.h **** #endif /* CEC */
 184:Drivers/STM32F7xx_HAL_Driver/Inc/stm32f7xx_ll_bus.h **** #define LL_APB1_GRP1_PERIPH_PWR            RCC_APB1ENR_PWREN
 185:Drivers/STM32F7xx_HAL_Driver/Inc/stm32f7xx_ll_bus.h **** #define LL_APB1_GRP1_PERIPH_DAC1           RCC_APB1ENR_DACEN
 186:Drivers/STM32F7xx_HAL_Driver/Inc/stm32f7xx_ll_bus.h **** #define LL_APB1_GRP1_PERIPH_UART7          RCC_APB1ENR_UART7EN
 187:Drivers/STM32F7xx_HAL_Driver/Inc/stm32f7xx_ll_bus.h **** #define LL_APB1_GRP1_PERIPH_UART8          RCC_APB1ENR_UART8EN
 188:Drivers/STM32F7xx_HAL_Driver/Inc/stm32f7xx_ll_bus.h **** #if defined(RCC_APB1ENR_RTCEN)
 189:Drivers/STM32F7xx_HAL_Driver/Inc/stm32f7xx_ll_bus.h **** #define LL_APB1_GRP1_PERIPH_RTCAPB         RCC_APB1ENR_RTCEN
 190:Drivers/STM32F7xx_HAL_Driver/Inc/stm32f7xx_ll_bus.h **** #endif /* RCC_APB1ENR_RTCEN */
 191:Drivers/STM32F7xx_HAL_Driver/Inc/stm32f7xx_ll_bus.h **** /**
 192:Drivers/STM32F7xx_HAL_Driver/Inc/stm32f7xx_ll_bus.h ****   * @}
 193:Drivers/STM32F7xx_HAL_Driver/Inc/stm32f7xx_ll_bus.h ****   */
 194:Drivers/STM32F7xx_HAL_Driver/Inc/stm32f7xx_ll_bus.h **** 
 195:Drivers/STM32F7xx_HAL_Driver/Inc/stm32f7xx_ll_bus.h **** /** @defgroup BUS_LL_EC_APB2_GRP1_PERIPH  APB2 GRP1 PERIPH
 196:Drivers/STM32F7xx_HAL_Driver/Inc/stm32f7xx_ll_bus.h ****   * @{
 197:Drivers/STM32F7xx_HAL_Driver/Inc/stm32f7xx_ll_bus.h ****   */
 198:Drivers/STM32F7xx_HAL_Driver/Inc/stm32f7xx_ll_bus.h **** #define LL_APB2_GRP1_PERIPH_ALL          0xFFFFFFFFU
 199:Drivers/STM32F7xx_HAL_Driver/Inc/stm32f7xx_ll_bus.h **** #define LL_APB2_GRP1_PERIPH_TIM1         RCC_APB2ENR_TIM1EN
 200:Drivers/STM32F7xx_HAL_Driver/Inc/stm32f7xx_ll_bus.h **** #define LL_APB2_GRP1_PERIPH_TIM8         RCC_APB2ENR_TIM8EN
 201:Drivers/STM32F7xx_HAL_Driver/Inc/stm32f7xx_ll_bus.h **** #define LL_APB2_GRP1_PERIPH_USART1       RCC_APB2ENR_USART1EN
 202:Drivers/STM32F7xx_HAL_Driver/Inc/stm32f7xx_ll_bus.h **** #define LL_APB2_GRP1_PERIPH_USART6       RCC_APB2ENR_USART6EN
 203:Drivers/STM32F7xx_HAL_Driver/Inc/stm32f7xx_ll_bus.h **** #define LL_APB2_GRP1_PERIPH_ADC1         RCC_APB2ENR_ADC1EN
 204:Drivers/STM32F7xx_HAL_Driver/Inc/stm32f7xx_ll_bus.h **** #define LL_APB2_GRP1_PERIPH_ADC2         RCC_APB2ENR_ADC2EN
 205:Drivers/STM32F7xx_HAL_Driver/Inc/stm32f7xx_ll_bus.h **** #define LL_APB2_GRP1_PERIPH_ADC3         RCC_APB2ENR_ADC3EN
 206:Drivers/STM32F7xx_HAL_Driver/Inc/stm32f7xx_ll_bus.h **** #define LL_APB2_GRP1_PERIPH_SDMMC1       RCC_APB2ENR_SDMMC1EN
 207:Drivers/STM32F7xx_HAL_Driver/Inc/stm32f7xx_ll_bus.h **** #if defined(SDMMC2)
 208:Drivers/STM32F7xx_HAL_Driver/Inc/stm32f7xx_ll_bus.h **** #define LL_APB2_GRP1_PERIPH_SDMMC2       RCC_APB2ENR_SDMMC2EN
 209:Drivers/STM32F7xx_HAL_Driver/Inc/stm32f7xx_ll_bus.h **** #endif /* SDMMC2 */
 210:Drivers/STM32F7xx_HAL_Driver/Inc/stm32f7xx_ll_bus.h **** #define LL_APB2_GRP1_PERIPH_SPI1         RCC_APB2ENR_SPI1EN
 211:Drivers/STM32F7xx_HAL_Driver/Inc/stm32f7xx_ll_bus.h **** #define LL_APB2_GRP1_PERIPH_SPI4         RCC_APB2ENR_SPI4EN
 212:Drivers/STM32F7xx_HAL_Driver/Inc/stm32f7xx_ll_bus.h **** #define LL_APB2_GRP1_PERIPH_SYSCFG       RCC_APB2ENR_SYSCFGEN
 213:Drivers/STM32F7xx_HAL_Driver/Inc/stm32f7xx_ll_bus.h **** #define LL_APB2_GRP1_PERIPH_TIM9         RCC_APB2ENR_TIM9EN
 214:Drivers/STM32F7xx_HAL_Driver/Inc/stm32f7xx_ll_bus.h **** #define LL_APB2_GRP1_PERIPH_TIM10        RCC_APB2ENR_TIM10EN
 215:Drivers/STM32F7xx_HAL_Driver/Inc/stm32f7xx_ll_bus.h **** #define LL_APB2_GRP1_PERIPH_TIM11        RCC_APB2ENR_TIM11EN
 216:Drivers/STM32F7xx_HAL_Driver/Inc/stm32f7xx_ll_bus.h **** #define LL_APB2_GRP1_PERIPH_SPI5         RCC_APB2ENR_SPI5EN
 217:Drivers/STM32F7xx_HAL_Driver/Inc/stm32f7xx_ll_bus.h **** #if defined(SPI6)
 218:Drivers/STM32F7xx_HAL_Driver/Inc/stm32f7xx_ll_bus.h **** #define LL_APB2_GRP1_PERIPH_SPI6         RCC_APB2ENR_SPI6EN
ARM GAS  /tmp/ccYTojEy.s 			page 22


 219:Drivers/STM32F7xx_HAL_Driver/Inc/stm32f7xx_ll_bus.h **** #endif /* SPI6 */
 220:Drivers/STM32F7xx_HAL_Driver/Inc/stm32f7xx_ll_bus.h **** #define LL_APB2_GRP1_PERIPH_SAI1         RCC_APB2ENR_SAI1EN
 221:Drivers/STM32F7xx_HAL_Driver/Inc/stm32f7xx_ll_bus.h **** #define LL_APB2_GRP1_PERIPH_SAI2         RCC_APB2ENR_SAI2EN
 222:Drivers/STM32F7xx_HAL_Driver/Inc/stm32f7xx_ll_bus.h **** #if defined(LTDC)
 223:Drivers/STM32F7xx_HAL_Driver/Inc/stm32f7xx_ll_bus.h **** #define LL_APB2_GRP1_PERIPH_LTDC         RCC_APB2ENR_LTDCEN
 224:Drivers/STM32F7xx_HAL_Driver/Inc/stm32f7xx_ll_bus.h **** #endif /* LTDC */
 225:Drivers/STM32F7xx_HAL_Driver/Inc/stm32f7xx_ll_bus.h **** #if defined(DSI)
 226:Drivers/STM32F7xx_HAL_Driver/Inc/stm32f7xx_ll_bus.h **** #define LL_APB2_GRP1_PERIPH_DSI          RCC_APB2ENR_DSIEN
 227:Drivers/STM32F7xx_HAL_Driver/Inc/stm32f7xx_ll_bus.h **** #endif /* DSI */
 228:Drivers/STM32F7xx_HAL_Driver/Inc/stm32f7xx_ll_bus.h **** #if defined(DFSDM1_Channel0)
 229:Drivers/STM32F7xx_HAL_Driver/Inc/stm32f7xx_ll_bus.h **** #define LL_APB2_GRP1_PERIPH_DFSDM1       RCC_APB2ENR_DFSDM1EN
 230:Drivers/STM32F7xx_HAL_Driver/Inc/stm32f7xx_ll_bus.h **** #endif /* DFSDM1_Channel0 */
 231:Drivers/STM32F7xx_HAL_Driver/Inc/stm32f7xx_ll_bus.h **** #if defined(MDIOS)
 232:Drivers/STM32F7xx_HAL_Driver/Inc/stm32f7xx_ll_bus.h **** #define LL_APB2_GRP1_PERIPH_MDIO         RCC_APB2ENR_MDIOEN
 233:Drivers/STM32F7xx_HAL_Driver/Inc/stm32f7xx_ll_bus.h **** #endif /* MDIOS */
 234:Drivers/STM32F7xx_HAL_Driver/Inc/stm32f7xx_ll_bus.h **** #if defined(USB_HS_PHYC)
 235:Drivers/STM32F7xx_HAL_Driver/Inc/stm32f7xx_ll_bus.h **** #define LL_APB2_GRP1_PERIPH_OTGPHYC      RCC_APB2ENR_OTGPHYCEN
 236:Drivers/STM32F7xx_HAL_Driver/Inc/stm32f7xx_ll_bus.h **** #endif /* USB_HS_PHYC */
 237:Drivers/STM32F7xx_HAL_Driver/Inc/stm32f7xx_ll_bus.h **** #define LL_APB2_GRP1_PERIPH_ADC          RCC_APB2RSTR_ADCRST
 238:Drivers/STM32F7xx_HAL_Driver/Inc/stm32f7xx_ll_bus.h **** /**
 239:Drivers/STM32F7xx_HAL_Driver/Inc/stm32f7xx_ll_bus.h ****   * @}
 240:Drivers/STM32F7xx_HAL_Driver/Inc/stm32f7xx_ll_bus.h ****   */
 241:Drivers/STM32F7xx_HAL_Driver/Inc/stm32f7xx_ll_bus.h **** 
 242:Drivers/STM32F7xx_HAL_Driver/Inc/stm32f7xx_ll_bus.h **** /**
 243:Drivers/STM32F7xx_HAL_Driver/Inc/stm32f7xx_ll_bus.h ****   * @}
 244:Drivers/STM32F7xx_HAL_Driver/Inc/stm32f7xx_ll_bus.h ****   */
 245:Drivers/STM32F7xx_HAL_Driver/Inc/stm32f7xx_ll_bus.h **** 
 246:Drivers/STM32F7xx_HAL_Driver/Inc/stm32f7xx_ll_bus.h **** /* Exported macro ------------------------------------------------------------*/
 247:Drivers/STM32F7xx_HAL_Driver/Inc/stm32f7xx_ll_bus.h **** /* Exported functions --------------------------------------------------------*/
 248:Drivers/STM32F7xx_HAL_Driver/Inc/stm32f7xx_ll_bus.h **** /** @defgroup BUS_LL_Exported_Functions BUS Exported Functions
 249:Drivers/STM32F7xx_HAL_Driver/Inc/stm32f7xx_ll_bus.h ****   * @{
 250:Drivers/STM32F7xx_HAL_Driver/Inc/stm32f7xx_ll_bus.h ****   */
 251:Drivers/STM32F7xx_HAL_Driver/Inc/stm32f7xx_ll_bus.h **** 
 252:Drivers/STM32F7xx_HAL_Driver/Inc/stm32f7xx_ll_bus.h **** /** @defgroup BUS_LL_EF_AHB1 AHB1
 253:Drivers/STM32F7xx_HAL_Driver/Inc/stm32f7xx_ll_bus.h ****   * @{
 254:Drivers/STM32F7xx_HAL_Driver/Inc/stm32f7xx_ll_bus.h ****   */
 255:Drivers/STM32F7xx_HAL_Driver/Inc/stm32f7xx_ll_bus.h **** 
 256:Drivers/STM32F7xx_HAL_Driver/Inc/stm32f7xx_ll_bus.h **** /**
 257:Drivers/STM32F7xx_HAL_Driver/Inc/stm32f7xx_ll_bus.h ****   * @brief  Enable AHB1 peripherals clock.
 258:Drivers/STM32F7xx_HAL_Driver/Inc/stm32f7xx_ll_bus.h ****   * @rmtoll AHB1ENR      GPIOAEN            LL_AHB1_GRP1_EnableClock\n
 259:Drivers/STM32F7xx_HAL_Driver/Inc/stm32f7xx_ll_bus.h ****   *         AHB1ENR      GPIOBEN            LL_AHB1_GRP1_EnableClock\n
 260:Drivers/STM32F7xx_HAL_Driver/Inc/stm32f7xx_ll_bus.h ****   *         AHB1ENR      GPIOCEN            LL_AHB1_GRP1_EnableClock\n
 261:Drivers/STM32F7xx_HAL_Driver/Inc/stm32f7xx_ll_bus.h ****   *         AHB1ENR      GPIODEN            LL_AHB1_GRP1_EnableClock\n
 262:Drivers/STM32F7xx_HAL_Driver/Inc/stm32f7xx_ll_bus.h ****   *         AHB1ENR      GPIOEEN            LL_AHB1_GRP1_EnableClock\n
 263:Drivers/STM32F7xx_HAL_Driver/Inc/stm32f7xx_ll_bus.h ****   *         AHB1ENR      GPIOFEN            LL_AHB1_GRP1_EnableClock\n
 264:Drivers/STM32F7xx_HAL_Driver/Inc/stm32f7xx_ll_bus.h ****   *         AHB1ENR      GPIOGEN            LL_AHB1_GRP1_EnableClock\n
 265:Drivers/STM32F7xx_HAL_Driver/Inc/stm32f7xx_ll_bus.h ****   *         AHB1ENR      GPIOHEN            LL_AHB1_GRP1_EnableClock\n
 266:Drivers/STM32F7xx_HAL_Driver/Inc/stm32f7xx_ll_bus.h ****   *         AHB1ENR      GPIOIEN            LL_AHB1_GRP1_EnableClock\n
 267:Drivers/STM32F7xx_HAL_Driver/Inc/stm32f7xx_ll_bus.h ****   *         AHB1ENR      GPIOJEN            LL_AHB1_GRP1_EnableClock\n
 268:Drivers/STM32F7xx_HAL_Driver/Inc/stm32f7xx_ll_bus.h ****   *         AHB1ENR      GPIOKEN            LL_AHB1_GRP1_EnableClock\n
 269:Drivers/STM32F7xx_HAL_Driver/Inc/stm32f7xx_ll_bus.h ****   *         AHB1ENR      CRCEN              LL_AHB1_GRP1_EnableClock\n
 270:Drivers/STM32F7xx_HAL_Driver/Inc/stm32f7xx_ll_bus.h ****   *         AHB1ENR      BKPSRAMEN          LL_AHB1_GRP1_EnableClock\n
 271:Drivers/STM32F7xx_HAL_Driver/Inc/stm32f7xx_ll_bus.h ****   *         AHB1ENR      DTCMRAMEN          LL_AHB1_GRP1_EnableClock\n
 272:Drivers/STM32F7xx_HAL_Driver/Inc/stm32f7xx_ll_bus.h ****   *         AHB1ENR      DMA1EN             LL_AHB1_GRP1_EnableClock\n
 273:Drivers/STM32F7xx_HAL_Driver/Inc/stm32f7xx_ll_bus.h ****   *         AHB1ENR      DMA2EN             LL_AHB1_GRP1_EnableClock\n
 274:Drivers/STM32F7xx_HAL_Driver/Inc/stm32f7xx_ll_bus.h ****   *         AHB1ENR      DMA2DEN            LL_AHB1_GRP1_EnableClock\n
 275:Drivers/STM32F7xx_HAL_Driver/Inc/stm32f7xx_ll_bus.h ****   *         AHB1ENR      ETHMACEN           LL_AHB1_GRP1_EnableClock\n
ARM GAS  /tmp/ccYTojEy.s 			page 23


 276:Drivers/STM32F7xx_HAL_Driver/Inc/stm32f7xx_ll_bus.h ****   *         AHB1ENR      ETHMACTXEN         LL_AHB1_GRP1_EnableClock\n
 277:Drivers/STM32F7xx_HAL_Driver/Inc/stm32f7xx_ll_bus.h ****   *         AHB1ENR      ETHMACRXEN         LL_AHB1_GRP1_EnableClock\n
 278:Drivers/STM32F7xx_HAL_Driver/Inc/stm32f7xx_ll_bus.h ****   *         AHB1ENR      ETHMACPTPEN        LL_AHB1_GRP1_EnableClock\n
 279:Drivers/STM32F7xx_HAL_Driver/Inc/stm32f7xx_ll_bus.h ****   *         AHB1ENR      OTGHSEN            LL_AHB1_GRP1_EnableClock\n
 280:Drivers/STM32F7xx_HAL_Driver/Inc/stm32f7xx_ll_bus.h ****   *         AHB1ENR      OTGHSULPIEN        LL_AHB1_GRP1_EnableClock
 281:Drivers/STM32F7xx_HAL_Driver/Inc/stm32f7xx_ll_bus.h ****   * @param  Periphs This parameter can be a combination of the following values:
 282:Drivers/STM32F7xx_HAL_Driver/Inc/stm32f7xx_ll_bus.h ****   *         @arg @ref LL_AHB1_GRP1_PERIPH_GPIOA
 283:Drivers/STM32F7xx_HAL_Driver/Inc/stm32f7xx_ll_bus.h ****   *         @arg @ref LL_AHB1_GRP1_PERIPH_GPIOB
 284:Drivers/STM32F7xx_HAL_Driver/Inc/stm32f7xx_ll_bus.h ****   *         @arg @ref LL_AHB1_GRP1_PERIPH_GPIOC
 285:Drivers/STM32F7xx_HAL_Driver/Inc/stm32f7xx_ll_bus.h ****   *         @arg @ref LL_AHB1_GRP1_PERIPH_GPIOD
 286:Drivers/STM32F7xx_HAL_Driver/Inc/stm32f7xx_ll_bus.h ****   *         @arg @ref LL_AHB1_GRP1_PERIPH_GPIOE
 287:Drivers/STM32F7xx_HAL_Driver/Inc/stm32f7xx_ll_bus.h ****   *         @arg @ref LL_AHB1_GRP1_PERIPH_GPIOF
 288:Drivers/STM32F7xx_HAL_Driver/Inc/stm32f7xx_ll_bus.h ****   *         @arg @ref LL_AHB1_GRP1_PERIPH_GPIOG
 289:Drivers/STM32F7xx_HAL_Driver/Inc/stm32f7xx_ll_bus.h ****   *         @arg @ref LL_AHB1_GRP1_PERIPH_GPIOH
 290:Drivers/STM32F7xx_HAL_Driver/Inc/stm32f7xx_ll_bus.h ****   *         @arg @ref LL_AHB1_GRP1_PERIPH_GPIOI
 291:Drivers/STM32F7xx_HAL_Driver/Inc/stm32f7xx_ll_bus.h ****   *         @arg @ref LL_AHB1_GRP1_PERIPH_GPIOJ (*)
 292:Drivers/STM32F7xx_HAL_Driver/Inc/stm32f7xx_ll_bus.h ****   *         @arg @ref LL_AHB1_GRP1_PERIPH_GPIOK (*)
 293:Drivers/STM32F7xx_HAL_Driver/Inc/stm32f7xx_ll_bus.h ****   *         @arg @ref LL_AHB1_GRP1_PERIPH_CRC
 294:Drivers/STM32F7xx_HAL_Driver/Inc/stm32f7xx_ll_bus.h ****   *         @arg @ref LL_AHB1_GRP1_PERIPH_BKPSRAM
 295:Drivers/STM32F7xx_HAL_Driver/Inc/stm32f7xx_ll_bus.h ****   *         @arg @ref LL_AHB1_GRP1_PERIPH_DTCMRAM
 296:Drivers/STM32F7xx_HAL_Driver/Inc/stm32f7xx_ll_bus.h ****   *         @arg @ref LL_AHB1_GRP1_PERIPH_DMA1
 297:Drivers/STM32F7xx_HAL_Driver/Inc/stm32f7xx_ll_bus.h ****   *         @arg @ref LL_AHB1_GRP1_PERIPH_DMA2
 298:Drivers/STM32F7xx_HAL_Driver/Inc/stm32f7xx_ll_bus.h ****   *         @arg @ref LL_AHB1_GRP1_PERIPH_DMA2D (*)
 299:Drivers/STM32F7xx_HAL_Driver/Inc/stm32f7xx_ll_bus.h ****   *         @arg @ref LL_AHB1_GRP1_PERIPH_ETHMAC (*)
 300:Drivers/STM32F7xx_HAL_Driver/Inc/stm32f7xx_ll_bus.h ****   *         @arg @ref LL_AHB1_GRP1_PERIPH_ETHMACTX (*)
 301:Drivers/STM32F7xx_HAL_Driver/Inc/stm32f7xx_ll_bus.h ****   *         @arg @ref LL_AHB1_GRP1_PERIPH_ETHMACRX (*)
 302:Drivers/STM32F7xx_HAL_Driver/Inc/stm32f7xx_ll_bus.h ****   *         @arg @ref LL_AHB1_GRP1_PERIPH_ETHMACPTP (*)
 303:Drivers/STM32F7xx_HAL_Driver/Inc/stm32f7xx_ll_bus.h ****   *         @arg @ref LL_AHB1_GRP1_PERIPH_OTGHS
 304:Drivers/STM32F7xx_HAL_Driver/Inc/stm32f7xx_ll_bus.h ****   *         @arg @ref LL_AHB1_GRP1_PERIPH_OTGHSULPI
 305:Drivers/STM32F7xx_HAL_Driver/Inc/stm32f7xx_ll_bus.h ****   *
 306:Drivers/STM32F7xx_HAL_Driver/Inc/stm32f7xx_ll_bus.h ****   *         (*) value not defined in all devices.
 307:Drivers/STM32F7xx_HAL_Driver/Inc/stm32f7xx_ll_bus.h ****   * @retval None
 308:Drivers/STM32F7xx_HAL_Driver/Inc/stm32f7xx_ll_bus.h **** */
 309:Drivers/STM32F7xx_HAL_Driver/Inc/stm32f7xx_ll_bus.h **** __STATIC_INLINE void LL_AHB1_GRP1_EnableClock(uint32_t Periphs)
 310:Drivers/STM32F7xx_HAL_Driver/Inc/stm32f7xx_ll_bus.h **** {
 311:Drivers/STM32F7xx_HAL_Driver/Inc/stm32f7xx_ll_bus.h ****   __IO uint32_t tmpreg;
 312:Drivers/STM32F7xx_HAL_Driver/Inc/stm32f7xx_ll_bus.h ****   SET_BIT(RCC->AHB1ENR, Periphs);
 313:Drivers/STM32F7xx_HAL_Driver/Inc/stm32f7xx_ll_bus.h ****   /* Delay after an RCC peripheral clock enabling */
 314:Drivers/STM32F7xx_HAL_Driver/Inc/stm32f7xx_ll_bus.h ****   tmpreg = READ_BIT(RCC->AHB1ENR, Periphs);
 315:Drivers/STM32F7xx_HAL_Driver/Inc/stm32f7xx_ll_bus.h ****   (void)tmpreg;
 316:Drivers/STM32F7xx_HAL_Driver/Inc/stm32f7xx_ll_bus.h **** }
 317:Drivers/STM32F7xx_HAL_Driver/Inc/stm32f7xx_ll_bus.h **** 
 318:Drivers/STM32F7xx_HAL_Driver/Inc/stm32f7xx_ll_bus.h **** /**
 319:Drivers/STM32F7xx_HAL_Driver/Inc/stm32f7xx_ll_bus.h ****   * @brief  Check if AHB1 peripheral clock is enabled or not
 320:Drivers/STM32F7xx_HAL_Driver/Inc/stm32f7xx_ll_bus.h ****   * @rmtoll AHB1ENR      GPIOAEN            LL_AHB1_GRP1_IsEnabledClock\n
 321:Drivers/STM32F7xx_HAL_Driver/Inc/stm32f7xx_ll_bus.h ****   *         AHB1ENR      GPIOBEN            LL_AHB1_GRP1_IsEnabledClock\n
 322:Drivers/STM32F7xx_HAL_Driver/Inc/stm32f7xx_ll_bus.h ****   *         AHB1ENR      GPIOCEN            LL_AHB1_GRP1_IsEnabledClock\n
 323:Drivers/STM32F7xx_HAL_Driver/Inc/stm32f7xx_ll_bus.h ****   *         AHB1ENR      GPIODEN            LL_AHB1_GRP1_IsEnabledClock\n
 324:Drivers/STM32F7xx_HAL_Driver/Inc/stm32f7xx_ll_bus.h ****   *         AHB1ENR      GPIOEEN            LL_AHB1_GRP1_IsEnabledClock\n
 325:Drivers/STM32F7xx_HAL_Driver/Inc/stm32f7xx_ll_bus.h ****   *         AHB1ENR      GPIOFEN            LL_AHB1_GRP1_IsEnabledClock\n
 326:Drivers/STM32F7xx_HAL_Driver/Inc/stm32f7xx_ll_bus.h ****   *         AHB1ENR      GPIOGEN            LL_AHB1_GRP1_IsEnabledClock\n
 327:Drivers/STM32F7xx_HAL_Driver/Inc/stm32f7xx_ll_bus.h ****   *         AHB1ENR      GPIOHEN            LL_AHB1_GRP1_IsEnabledClock\n
 328:Drivers/STM32F7xx_HAL_Driver/Inc/stm32f7xx_ll_bus.h ****   *         AHB1ENR      GPIOIEN            LL_AHB1_GRP1_IsEnabledClock\n
 329:Drivers/STM32F7xx_HAL_Driver/Inc/stm32f7xx_ll_bus.h ****   *         AHB1ENR      GPIOJEN            LL_AHB1_GRP1_IsEnabledClock\n
 330:Drivers/STM32F7xx_HAL_Driver/Inc/stm32f7xx_ll_bus.h ****   *         AHB1ENR      GPIOKEN            LL_AHB1_GRP1_IsEnabledClock\n
 331:Drivers/STM32F7xx_HAL_Driver/Inc/stm32f7xx_ll_bus.h ****   *         AHB1ENR      CRCEN              LL_AHB1_GRP1_IsEnabledClock\n
 332:Drivers/STM32F7xx_HAL_Driver/Inc/stm32f7xx_ll_bus.h ****   *         AHB1ENR      BKPSRAMEN          LL_AHB1_GRP1_IsEnabledClock\n
ARM GAS  /tmp/ccYTojEy.s 			page 24


 333:Drivers/STM32F7xx_HAL_Driver/Inc/stm32f7xx_ll_bus.h ****   *         AHB1ENR      DTCMRAMEN          LL_AHB1_GRP1_IsEnabledClock\n
 334:Drivers/STM32F7xx_HAL_Driver/Inc/stm32f7xx_ll_bus.h ****   *         AHB1ENR      DMA1EN             LL_AHB1_GRP1_IsEnabledClock\n
 335:Drivers/STM32F7xx_HAL_Driver/Inc/stm32f7xx_ll_bus.h ****   *         AHB1ENR      DMA2EN             LL_AHB1_GRP1_IsEnabledClock\n
 336:Drivers/STM32F7xx_HAL_Driver/Inc/stm32f7xx_ll_bus.h ****   *         AHB1ENR      DMA2DEN            LL_AHB1_GRP1_IsEnabledClock\n
 337:Drivers/STM32F7xx_HAL_Driver/Inc/stm32f7xx_ll_bus.h ****   *         AHB1ENR      ETHMACEN           LL_AHB1_GRP1_IsEnabledClock\n
 338:Drivers/STM32F7xx_HAL_Driver/Inc/stm32f7xx_ll_bus.h ****   *         AHB1ENR      ETHMACTXEN         LL_AHB1_GRP1_IsEnabledClock\n
 339:Drivers/STM32F7xx_HAL_Driver/Inc/stm32f7xx_ll_bus.h ****   *         AHB1ENR      ETHMACRXEN         LL_AHB1_GRP1_IsEnabledClock\n
 340:Drivers/STM32F7xx_HAL_Driver/Inc/stm32f7xx_ll_bus.h ****   *         AHB1ENR      ETHMACPTPEN        LL_AHB1_GRP1_IsEnabledClock\n
 341:Drivers/STM32F7xx_HAL_Driver/Inc/stm32f7xx_ll_bus.h ****   *         AHB1ENR      OTGHSEN            LL_AHB1_GRP1_IsEnabledClock\n
 342:Drivers/STM32F7xx_HAL_Driver/Inc/stm32f7xx_ll_bus.h ****   *         AHB1ENR      OTGHSULPIENDEN     LL_AHB1_GRP1_IsEnabledClock
 343:Drivers/STM32F7xx_HAL_Driver/Inc/stm32f7xx_ll_bus.h ****   * @param  Periphs This parameter can be a combination of the following values:
 344:Drivers/STM32F7xx_HAL_Driver/Inc/stm32f7xx_ll_bus.h ****   *         @arg @ref LL_AHB1_GRP1_PERIPH_GPIOA
 345:Drivers/STM32F7xx_HAL_Driver/Inc/stm32f7xx_ll_bus.h ****   *         @arg @ref LL_AHB1_GRP1_PERIPH_GPIOB
 346:Drivers/STM32F7xx_HAL_Driver/Inc/stm32f7xx_ll_bus.h ****   *         @arg @ref LL_AHB1_GRP1_PERIPH_GPIOC
 347:Drivers/STM32F7xx_HAL_Driver/Inc/stm32f7xx_ll_bus.h ****   *         @arg @ref LL_AHB1_GRP1_PERIPH_GPIOD
 348:Drivers/STM32F7xx_HAL_Driver/Inc/stm32f7xx_ll_bus.h ****   *         @arg @ref LL_AHB1_GRP1_PERIPH_GPIOE
 349:Drivers/STM32F7xx_HAL_Driver/Inc/stm32f7xx_ll_bus.h ****   *         @arg @ref LL_AHB1_GRP1_PERIPH_GPIOF
 350:Drivers/STM32F7xx_HAL_Driver/Inc/stm32f7xx_ll_bus.h ****   *         @arg @ref LL_AHB1_GRP1_PERIPH_GPIOG
 351:Drivers/STM32F7xx_HAL_Driver/Inc/stm32f7xx_ll_bus.h ****   *         @arg @ref LL_AHB1_GRP1_PERIPH_GPIOH
 352:Drivers/STM32F7xx_HAL_Driver/Inc/stm32f7xx_ll_bus.h ****   *         @arg @ref LL_AHB1_GRP1_PERIPH_GPIOI
 353:Drivers/STM32F7xx_HAL_Driver/Inc/stm32f7xx_ll_bus.h ****   *         @arg @ref LL_AHB1_GRP1_PERIPH_GPIOJ (*)
 354:Drivers/STM32F7xx_HAL_Driver/Inc/stm32f7xx_ll_bus.h ****   *         @arg @ref LL_AHB1_GRP1_PERIPH_GPIOK (*)
 355:Drivers/STM32F7xx_HAL_Driver/Inc/stm32f7xx_ll_bus.h ****   *         @arg @ref LL_AHB1_GRP1_PERIPH_CRC
 356:Drivers/STM32F7xx_HAL_Driver/Inc/stm32f7xx_ll_bus.h ****   *         @arg @ref LL_AHB1_GRP1_PERIPH_BKPSRAM
 357:Drivers/STM32F7xx_HAL_Driver/Inc/stm32f7xx_ll_bus.h ****   *         @arg @ref LL_AHB1_GRP1_PERIPH_DTCMRAM
 358:Drivers/STM32F7xx_HAL_Driver/Inc/stm32f7xx_ll_bus.h ****   *         @arg @ref LL_AHB1_GRP1_PERIPH_DMA1
 359:Drivers/STM32F7xx_HAL_Driver/Inc/stm32f7xx_ll_bus.h ****   *         @arg @ref LL_AHB1_GRP1_PERIPH_DMA2
 360:Drivers/STM32F7xx_HAL_Driver/Inc/stm32f7xx_ll_bus.h ****   *         @arg @ref LL_AHB1_GRP1_PERIPH_DMA2D (*)
 361:Drivers/STM32F7xx_HAL_Driver/Inc/stm32f7xx_ll_bus.h ****   *         @arg @ref LL_AHB1_GRP1_PERIPH_ETHMAC (*)
 362:Drivers/STM32F7xx_HAL_Driver/Inc/stm32f7xx_ll_bus.h ****   *         @arg @ref LL_AHB1_GRP1_PERIPH_ETHMACTX (*)
 363:Drivers/STM32F7xx_HAL_Driver/Inc/stm32f7xx_ll_bus.h ****   *         @arg @ref LL_AHB1_GRP1_PERIPH_ETHMACRX (*)
 364:Drivers/STM32F7xx_HAL_Driver/Inc/stm32f7xx_ll_bus.h ****   *         @arg @ref LL_AHB1_GRP1_PERIPH_ETHMACPTP (*)
 365:Drivers/STM32F7xx_HAL_Driver/Inc/stm32f7xx_ll_bus.h ****   *         @arg @ref LL_AHB1_GRP1_PERIPH_OTGHS
 366:Drivers/STM32F7xx_HAL_Driver/Inc/stm32f7xx_ll_bus.h ****   *         @arg @ref LL_AHB1_GRP1_PERIPH_OTGHSULPI
 367:Drivers/STM32F7xx_HAL_Driver/Inc/stm32f7xx_ll_bus.h ****   *
 368:Drivers/STM32F7xx_HAL_Driver/Inc/stm32f7xx_ll_bus.h ****   *         (*) value not defined in all devices.
 369:Drivers/STM32F7xx_HAL_Driver/Inc/stm32f7xx_ll_bus.h ****   * @retval State of Periphs (1 or 0).
 370:Drivers/STM32F7xx_HAL_Driver/Inc/stm32f7xx_ll_bus.h **** */
 371:Drivers/STM32F7xx_HAL_Driver/Inc/stm32f7xx_ll_bus.h **** __STATIC_INLINE uint32_t LL_AHB1_GRP1_IsEnabledClock(uint32_t Periphs)
 372:Drivers/STM32F7xx_HAL_Driver/Inc/stm32f7xx_ll_bus.h **** {
 373:Drivers/STM32F7xx_HAL_Driver/Inc/stm32f7xx_ll_bus.h ****   return (READ_BIT(RCC->AHB1ENR, Periphs) == Periphs);
 374:Drivers/STM32F7xx_HAL_Driver/Inc/stm32f7xx_ll_bus.h **** }
 375:Drivers/STM32F7xx_HAL_Driver/Inc/stm32f7xx_ll_bus.h **** 
 376:Drivers/STM32F7xx_HAL_Driver/Inc/stm32f7xx_ll_bus.h **** /**
 377:Drivers/STM32F7xx_HAL_Driver/Inc/stm32f7xx_ll_bus.h ****   * @brief  Disable AHB1 peripherals clock.
 378:Drivers/STM32F7xx_HAL_Driver/Inc/stm32f7xx_ll_bus.h ****   * @rmtoll AHB1ENR      GPIOAEN            LL_AHB1_GRP1_DisableClock\n
 379:Drivers/STM32F7xx_HAL_Driver/Inc/stm32f7xx_ll_bus.h ****   *         AHB1ENR      GPIOBEN            LL_AHB1_GRP1_DisableClock\n
 380:Drivers/STM32F7xx_HAL_Driver/Inc/stm32f7xx_ll_bus.h ****   *         AHB1ENR      GPIOCEN            LL_AHB1_GRP1_DisableClock\n
 381:Drivers/STM32F7xx_HAL_Driver/Inc/stm32f7xx_ll_bus.h ****   *         AHB1ENR      GPIODEN            LL_AHB1_GRP1_DisableClock\n
 382:Drivers/STM32F7xx_HAL_Driver/Inc/stm32f7xx_ll_bus.h ****   *         AHB1ENR      GPIOEEN            LL_AHB1_GRP1_DisableClock\n
 383:Drivers/STM32F7xx_HAL_Driver/Inc/stm32f7xx_ll_bus.h ****   *         AHB1ENR      GPIOFEN            LL_AHB1_GRP1_DisableClock\n
 384:Drivers/STM32F7xx_HAL_Driver/Inc/stm32f7xx_ll_bus.h ****   *         AHB1ENR      GPIOGEN            LL_AHB1_GRP1_DisableClock\n
 385:Drivers/STM32F7xx_HAL_Driver/Inc/stm32f7xx_ll_bus.h ****   *         AHB1ENR      GPIOHEN            LL_AHB1_GRP1_DisableClock\n
 386:Drivers/STM32F7xx_HAL_Driver/Inc/stm32f7xx_ll_bus.h ****   *         AHB1ENR      GPIOIEN            LL_AHB1_GRP1_DisableClock\n
 387:Drivers/STM32F7xx_HAL_Driver/Inc/stm32f7xx_ll_bus.h ****   *         AHB1ENR      GPIOJEN            LL_AHB1_GRP1_DisableClock\n
 388:Drivers/STM32F7xx_HAL_Driver/Inc/stm32f7xx_ll_bus.h ****   *         AHB1ENR      GPIOKEN            LL_AHB1_GRP1_DisableClock\n
 389:Drivers/STM32F7xx_HAL_Driver/Inc/stm32f7xx_ll_bus.h ****   *         AHB1ENR      CRCEN              LL_AHB1_GRP1_DisableClock\n
ARM GAS  /tmp/ccYTojEy.s 			page 25


 390:Drivers/STM32F7xx_HAL_Driver/Inc/stm32f7xx_ll_bus.h ****   *         AHB1ENR      BKPSRAMEN          LL_AHB1_GRP1_DisableClock\n
 391:Drivers/STM32F7xx_HAL_Driver/Inc/stm32f7xx_ll_bus.h ****   *         AHB1ENR      DTCMRAMEN          LL_AHB1_GRP1_DisableClock\n
 392:Drivers/STM32F7xx_HAL_Driver/Inc/stm32f7xx_ll_bus.h ****   *         AHB1ENR      DMA1EN             LL_AHB1_GRP1_DisableClock\n
 393:Drivers/STM32F7xx_HAL_Driver/Inc/stm32f7xx_ll_bus.h ****   *         AHB1ENR      DMA2EN             LL_AHB1_GRP1_DisableClock\n
 394:Drivers/STM32F7xx_HAL_Driver/Inc/stm32f7xx_ll_bus.h ****   *         AHB1ENR      DMA2DEN            LL_AHB1_GRP1_DisableClock\n
 395:Drivers/STM32F7xx_HAL_Driver/Inc/stm32f7xx_ll_bus.h ****   *         AHB1ENR      ETHMACEN           LL_AHB1_GRP1_DisableClock\n
 396:Drivers/STM32F7xx_HAL_Driver/Inc/stm32f7xx_ll_bus.h ****   *         AHB1ENR      ETHMACTXEN         LL_AHB1_GRP1_DisableClock\n
 397:Drivers/STM32F7xx_HAL_Driver/Inc/stm32f7xx_ll_bus.h ****   *         AHB1ENR      ETHMACRXEN         LL_AHB1_GRP1_DisableClock\n
 398:Drivers/STM32F7xx_HAL_Driver/Inc/stm32f7xx_ll_bus.h ****   *         AHB1ENR      ETHMACPTPEN        LL_AHB1_GRP1_DisableClock\n
 399:Drivers/STM32F7xx_HAL_Driver/Inc/stm32f7xx_ll_bus.h ****   *         AHB1ENR      OTGHSEN            LL_AHB1_GRP1_DisableClock\n
 400:Drivers/STM32F7xx_HAL_Driver/Inc/stm32f7xx_ll_bus.h ****   *         AHB1ENR      OTGHSULPIENDEN     LL_AHB1_GRP1_DisableClock
 401:Drivers/STM32F7xx_HAL_Driver/Inc/stm32f7xx_ll_bus.h ****   * @param  Periphs This parameter can be a combination of the following values:
 402:Drivers/STM32F7xx_HAL_Driver/Inc/stm32f7xx_ll_bus.h ****   *         @arg @ref LL_AHB1_GRP1_PERIPH_GPIOA
 403:Drivers/STM32F7xx_HAL_Driver/Inc/stm32f7xx_ll_bus.h ****   *         @arg @ref LL_AHB1_GRP1_PERIPH_GPIOB
 404:Drivers/STM32F7xx_HAL_Driver/Inc/stm32f7xx_ll_bus.h ****   *         @arg @ref LL_AHB1_GRP1_PERIPH_GPIOC
 405:Drivers/STM32F7xx_HAL_Driver/Inc/stm32f7xx_ll_bus.h ****   *         @arg @ref LL_AHB1_GRP1_PERIPH_GPIOD
 406:Drivers/STM32F7xx_HAL_Driver/Inc/stm32f7xx_ll_bus.h ****   *         @arg @ref LL_AHB1_GRP1_PERIPH_GPIOE
 407:Drivers/STM32F7xx_HAL_Driver/Inc/stm32f7xx_ll_bus.h ****   *         @arg @ref LL_AHB1_GRP1_PERIPH_GPIOF
 408:Drivers/STM32F7xx_HAL_Driver/Inc/stm32f7xx_ll_bus.h ****   *         @arg @ref LL_AHB1_GRP1_PERIPH_GPIOG
 409:Drivers/STM32F7xx_HAL_Driver/Inc/stm32f7xx_ll_bus.h ****   *         @arg @ref LL_AHB1_GRP1_PERIPH_GPIOH
 410:Drivers/STM32F7xx_HAL_Driver/Inc/stm32f7xx_ll_bus.h ****   *         @arg @ref LL_AHB1_GRP1_PERIPH_GPIOI
 411:Drivers/STM32F7xx_HAL_Driver/Inc/stm32f7xx_ll_bus.h ****   *         @arg @ref LL_AHB1_GRP1_PERIPH_GPIOJ (*)
 412:Drivers/STM32F7xx_HAL_Driver/Inc/stm32f7xx_ll_bus.h ****   *         @arg @ref LL_AHB1_GRP1_PERIPH_GPIOK (*)
 413:Drivers/STM32F7xx_HAL_Driver/Inc/stm32f7xx_ll_bus.h ****   *         @arg @ref LL_AHB1_GRP1_PERIPH_CRC
 414:Drivers/STM32F7xx_HAL_Driver/Inc/stm32f7xx_ll_bus.h ****   *         @arg @ref LL_AHB1_GRP1_PERIPH_BKPSRAM
 415:Drivers/STM32F7xx_HAL_Driver/Inc/stm32f7xx_ll_bus.h ****   *         @arg @ref LL_AHB1_GRP1_PERIPH_DTCMRAM
 416:Drivers/STM32F7xx_HAL_Driver/Inc/stm32f7xx_ll_bus.h ****   *         @arg @ref LL_AHB1_GRP1_PERIPH_DMA1
 417:Drivers/STM32F7xx_HAL_Driver/Inc/stm32f7xx_ll_bus.h ****   *         @arg @ref LL_AHB1_GRP1_PERIPH_DMA2
 418:Drivers/STM32F7xx_HAL_Driver/Inc/stm32f7xx_ll_bus.h ****   *         @arg @ref LL_AHB1_GRP1_PERIPH_DMA2D (*)
 419:Drivers/STM32F7xx_HAL_Driver/Inc/stm32f7xx_ll_bus.h ****   *         @arg @ref LL_AHB1_GRP1_PERIPH_ETHMAC (*)
 420:Drivers/STM32F7xx_HAL_Driver/Inc/stm32f7xx_ll_bus.h ****   *         @arg @ref LL_AHB1_GRP1_PERIPH_ETHMACTX (*)
 421:Drivers/STM32F7xx_HAL_Driver/Inc/stm32f7xx_ll_bus.h ****   *         @arg @ref LL_AHB1_GRP1_PERIPH_ETHMACRX (*)
 422:Drivers/STM32F7xx_HAL_Driver/Inc/stm32f7xx_ll_bus.h ****   *         @arg @ref LL_AHB1_GRP1_PERIPH_ETHMACPTP (*)
 423:Drivers/STM32F7xx_HAL_Driver/Inc/stm32f7xx_ll_bus.h ****   *         @arg @ref LL_AHB1_GRP1_PERIPH_OTGHS
 424:Drivers/STM32F7xx_HAL_Driver/Inc/stm32f7xx_ll_bus.h ****   *         @arg @ref LL_AHB1_GRP1_PERIPH_OTGHSULPI
 425:Drivers/STM32F7xx_HAL_Driver/Inc/stm32f7xx_ll_bus.h ****   *
 426:Drivers/STM32F7xx_HAL_Driver/Inc/stm32f7xx_ll_bus.h ****   *         (*) value not defined in all devices.
 427:Drivers/STM32F7xx_HAL_Driver/Inc/stm32f7xx_ll_bus.h ****   * @retval None
 428:Drivers/STM32F7xx_HAL_Driver/Inc/stm32f7xx_ll_bus.h **** */
 429:Drivers/STM32F7xx_HAL_Driver/Inc/stm32f7xx_ll_bus.h **** __STATIC_INLINE void LL_AHB1_GRP1_DisableClock(uint32_t Periphs)
 430:Drivers/STM32F7xx_HAL_Driver/Inc/stm32f7xx_ll_bus.h **** {
 431:Drivers/STM32F7xx_HAL_Driver/Inc/stm32f7xx_ll_bus.h ****   CLEAR_BIT(RCC->AHB1ENR, Periphs);
 432:Drivers/STM32F7xx_HAL_Driver/Inc/stm32f7xx_ll_bus.h **** }
 433:Drivers/STM32F7xx_HAL_Driver/Inc/stm32f7xx_ll_bus.h **** 
 434:Drivers/STM32F7xx_HAL_Driver/Inc/stm32f7xx_ll_bus.h **** /**
 435:Drivers/STM32F7xx_HAL_Driver/Inc/stm32f7xx_ll_bus.h ****   * @brief  Force AHB1 peripherals reset.
 436:Drivers/STM32F7xx_HAL_Driver/Inc/stm32f7xx_ll_bus.h ****   * @rmtoll AHB1RSTR     GPIOARST      LL_AHB1_GRP1_ForceReset\n
 437:Drivers/STM32F7xx_HAL_Driver/Inc/stm32f7xx_ll_bus.h ****   *         AHB1RSTR     GPIOBRST      LL_AHB1_GRP1_ForceReset\n
 438:Drivers/STM32F7xx_HAL_Driver/Inc/stm32f7xx_ll_bus.h ****   *         AHB1RSTR     GPIOCRST      LL_AHB1_GRP1_ForceReset\n
 439:Drivers/STM32F7xx_HAL_Driver/Inc/stm32f7xx_ll_bus.h ****   *         AHB1RSTR     GPIODRST      LL_AHB1_GRP1_ForceReset\n
 440:Drivers/STM32F7xx_HAL_Driver/Inc/stm32f7xx_ll_bus.h ****   *         AHB1RSTR     GPIOERST      LL_AHB1_GRP1_ForceReset\n
 441:Drivers/STM32F7xx_HAL_Driver/Inc/stm32f7xx_ll_bus.h ****   *         AHB1RSTR     GPIOFRST      LL_AHB1_GRP1_ForceReset\n
 442:Drivers/STM32F7xx_HAL_Driver/Inc/stm32f7xx_ll_bus.h ****   *         AHB1RSTR     GPIOGRST      LL_AHB1_GRP1_ForceReset\n
 443:Drivers/STM32F7xx_HAL_Driver/Inc/stm32f7xx_ll_bus.h ****   *         AHB1RSTR     GPIOHRST      LL_AHB1_GRP1_ForceReset\n
 444:Drivers/STM32F7xx_HAL_Driver/Inc/stm32f7xx_ll_bus.h ****   *         AHB1RSTR     GPIOIRST      LL_AHB1_GRP1_ForceReset\n
 445:Drivers/STM32F7xx_HAL_Driver/Inc/stm32f7xx_ll_bus.h ****   *         AHB1RSTR     GPIOJRST      LL_AHB1_GRP1_ForceReset\n
 446:Drivers/STM32F7xx_HAL_Driver/Inc/stm32f7xx_ll_bus.h ****   *         AHB1RSTR     GPIOKRST      LL_AHB1_GRP1_ForceReset\n
ARM GAS  /tmp/ccYTojEy.s 			page 26


 447:Drivers/STM32F7xx_HAL_Driver/Inc/stm32f7xx_ll_bus.h ****   *         AHB1RSTR     CRCRST        LL_AHB1_GRP1_ForceReset\n
 448:Drivers/STM32F7xx_HAL_Driver/Inc/stm32f7xx_ll_bus.h ****   *         AHB1RSTR     DMA1RST       LL_AHB1_GRP1_ForceReset\n
 449:Drivers/STM32F7xx_HAL_Driver/Inc/stm32f7xx_ll_bus.h ****   *         AHB1RSTR     DMA2RST       LL_AHB1_GRP1_ForceReset\n
 450:Drivers/STM32F7xx_HAL_Driver/Inc/stm32f7xx_ll_bus.h ****   *         AHB1RSTR     DMA2DRST      LL_AHB1_GRP1_ForceReset\n
 451:Drivers/STM32F7xx_HAL_Driver/Inc/stm32f7xx_ll_bus.h ****   *         AHB1RSTR     ETHMACRST     LL_AHB1_GRP1_ForceReset\n
 452:Drivers/STM32F7xx_HAL_Driver/Inc/stm32f7xx_ll_bus.h ****   *         AHB1RSTR     OTGHSRST      LL_AHB1_GRP1_ForceReset
 453:Drivers/STM32F7xx_HAL_Driver/Inc/stm32f7xx_ll_bus.h ****   * @param  Periphs This parameter can be a combination of the following values:
 454:Drivers/STM32F7xx_HAL_Driver/Inc/stm32f7xx_ll_bus.h ****   *         @arg @ref LL_AHB1_GRP1_PERIPH_ALL
 455:Drivers/STM32F7xx_HAL_Driver/Inc/stm32f7xx_ll_bus.h ****   *         @arg @ref LL_AHB1_GRP1_PERIPH_GPIOA
 456:Drivers/STM32F7xx_HAL_Driver/Inc/stm32f7xx_ll_bus.h ****   *         @arg @ref LL_AHB1_GRP1_PERIPH_GPIOB
 457:Drivers/STM32F7xx_HAL_Driver/Inc/stm32f7xx_ll_bus.h ****   *         @arg @ref LL_AHB1_GRP1_PERIPH_GPIOC
 458:Drivers/STM32F7xx_HAL_Driver/Inc/stm32f7xx_ll_bus.h ****   *         @arg @ref LL_AHB1_GRP1_PERIPH_GPIOD
 459:Drivers/STM32F7xx_HAL_Driver/Inc/stm32f7xx_ll_bus.h ****   *         @arg @ref LL_AHB1_GRP1_PERIPH_GPIOE
 460:Drivers/STM32F7xx_HAL_Driver/Inc/stm32f7xx_ll_bus.h ****   *         @arg @ref LL_AHB1_GRP1_PERIPH_GPIOF
 461:Drivers/STM32F7xx_HAL_Driver/Inc/stm32f7xx_ll_bus.h ****   *         @arg @ref LL_AHB1_GRP1_PERIPH_GPIOG
 462:Drivers/STM32F7xx_HAL_Driver/Inc/stm32f7xx_ll_bus.h ****   *         @arg @ref LL_AHB1_GRP1_PERIPH_GPIOH
 463:Drivers/STM32F7xx_HAL_Driver/Inc/stm32f7xx_ll_bus.h ****   *         @arg @ref LL_AHB1_GRP1_PERIPH_GPIOI
 464:Drivers/STM32F7xx_HAL_Driver/Inc/stm32f7xx_ll_bus.h ****   *         @arg @ref LL_AHB1_GRP1_PERIPH_GPIOJ (*)
 465:Drivers/STM32F7xx_HAL_Driver/Inc/stm32f7xx_ll_bus.h ****   *         @arg @ref LL_AHB1_GRP1_PERIPH_GPIOK (*)
 466:Drivers/STM32F7xx_HAL_Driver/Inc/stm32f7xx_ll_bus.h ****   *         @arg @ref LL_AHB1_GRP1_PERIPH_CRC
 467:Drivers/STM32F7xx_HAL_Driver/Inc/stm32f7xx_ll_bus.h ****   *         @arg @ref LL_AHB1_GRP1_PERIPH_DMA1
 468:Drivers/STM32F7xx_HAL_Driver/Inc/stm32f7xx_ll_bus.h ****   *         @arg @ref LL_AHB1_GRP1_PERIPH_DMA2
 469:Drivers/STM32F7xx_HAL_Driver/Inc/stm32f7xx_ll_bus.h ****   *         @arg @ref LL_AHB1_GRP1_PERIPH_DMA2D (*)
 470:Drivers/STM32F7xx_HAL_Driver/Inc/stm32f7xx_ll_bus.h ****   *         @arg @ref LL_AHB1_GRP1_PERIPH_ETHMAC (*)
 471:Drivers/STM32F7xx_HAL_Driver/Inc/stm32f7xx_ll_bus.h ****   *         @arg @ref LL_AHB1_GRP1_PERIPH_OTGHS
 472:Drivers/STM32F7xx_HAL_Driver/Inc/stm32f7xx_ll_bus.h ****   *
 473:Drivers/STM32F7xx_HAL_Driver/Inc/stm32f7xx_ll_bus.h ****   *         (*) value not defined in all devices.
 474:Drivers/STM32F7xx_HAL_Driver/Inc/stm32f7xx_ll_bus.h ****   * @retval None
 475:Drivers/STM32F7xx_HAL_Driver/Inc/stm32f7xx_ll_bus.h **** */
 476:Drivers/STM32F7xx_HAL_Driver/Inc/stm32f7xx_ll_bus.h **** __STATIC_INLINE void LL_AHB1_GRP1_ForceReset(uint32_t Periphs)
 172              		.loc 3 476 22 view .LVU37
 173              	.LBB33:
 477:Drivers/STM32F7xx_HAL_Driver/Inc/stm32f7xx_ll_bus.h **** {
 478:Drivers/STM32F7xx_HAL_Driver/Inc/stm32f7xx_ll_bus.h ****   SET_BIT(RCC->AHB1RSTR, Periphs);
 174              		.loc 3 478 3 view .LVU38
 175 00ca A3F52053 		sub	r3, r3, #10240
 176 00ce 1A69     		ldr	r2, [r3, #16]
 177 00d0 42F40012 		orr	r2, r2, #2097152
 178 00d4 1A61     		str	r2, [r3, #16]
 179              	.LVL5:
 180              		.loc 3 478 3 is_stmt 0 view .LVU39
 181              	.LBE33:
 182              	.LBE32:
 192:Drivers/STM32F7xx_HAL_Driver/Src/stm32f7xx_ll_dma.c ****     }
 183              		.loc 1 192 7 is_stmt 1 view .LVU40
 184              	.LBB34:
 185              	.LBI34:
 479:Drivers/STM32F7xx_HAL_Driver/Inc/stm32f7xx_ll_bus.h **** }
 480:Drivers/STM32F7xx_HAL_Driver/Inc/stm32f7xx_ll_bus.h **** 
 481:Drivers/STM32F7xx_HAL_Driver/Inc/stm32f7xx_ll_bus.h **** /**
 482:Drivers/STM32F7xx_HAL_Driver/Inc/stm32f7xx_ll_bus.h ****   * @brief  Release AHB1 peripherals reset.
 483:Drivers/STM32F7xx_HAL_Driver/Inc/stm32f7xx_ll_bus.h ****   * @rmtoll AHB1RSTR     GPIOARST      LL_AHB1_GRP1_ReleaseReset\n
 484:Drivers/STM32F7xx_HAL_Driver/Inc/stm32f7xx_ll_bus.h ****   *         AHB1RSTR     GPIOBRST      LL_AHB1_GRP1_ReleaseReset\n
 485:Drivers/STM32F7xx_HAL_Driver/Inc/stm32f7xx_ll_bus.h ****   *         AHB1RSTR     GPIOCRST      LL_AHB1_GRP1_ReleaseReset\n
 486:Drivers/STM32F7xx_HAL_Driver/Inc/stm32f7xx_ll_bus.h ****   *         AHB1RSTR     GPIODRST      LL_AHB1_GRP1_ReleaseReset\n
 487:Drivers/STM32F7xx_HAL_Driver/Inc/stm32f7xx_ll_bus.h ****   *         AHB1RSTR     GPIOERST      LL_AHB1_GRP1_ReleaseReset\n
 488:Drivers/STM32F7xx_HAL_Driver/Inc/stm32f7xx_ll_bus.h ****   *         AHB1RSTR     GPIOFRST      LL_AHB1_GRP1_ReleaseReset\n
ARM GAS  /tmp/ccYTojEy.s 			page 27


 489:Drivers/STM32F7xx_HAL_Driver/Inc/stm32f7xx_ll_bus.h ****   *         AHB1RSTR     GPIOGRST      LL_AHB1_GRP1_ReleaseReset\n
 490:Drivers/STM32F7xx_HAL_Driver/Inc/stm32f7xx_ll_bus.h ****   *         AHB1RSTR     GPIOHRST      LL_AHB1_GRP1_ReleaseReset\n
 491:Drivers/STM32F7xx_HAL_Driver/Inc/stm32f7xx_ll_bus.h ****   *         AHB1RSTR     GPIOIRST      LL_AHB1_GRP1_ReleaseReset\n
 492:Drivers/STM32F7xx_HAL_Driver/Inc/stm32f7xx_ll_bus.h ****   *         AHB1RSTR     GPIOJRST      LL_AHB1_GRP1_ReleaseReset\n
 493:Drivers/STM32F7xx_HAL_Driver/Inc/stm32f7xx_ll_bus.h ****   *         AHB1RSTR     GPIOKRST      LL_AHB1_GRP1_ReleaseReset\n
 494:Drivers/STM32F7xx_HAL_Driver/Inc/stm32f7xx_ll_bus.h ****   *         AHB1RSTR     CRCRST        LL_AHB1_GRP1_ReleaseReset\n
 495:Drivers/STM32F7xx_HAL_Driver/Inc/stm32f7xx_ll_bus.h ****   *         AHB1RSTR     DMA1RST       LL_AHB1_GRP1_ReleaseReset\n
 496:Drivers/STM32F7xx_HAL_Driver/Inc/stm32f7xx_ll_bus.h ****   *         AHB1RSTR     DMA2RST       LL_AHB1_GRP1_ReleaseReset\n
 497:Drivers/STM32F7xx_HAL_Driver/Inc/stm32f7xx_ll_bus.h ****   *         AHB1RSTR     DMA2DRST      LL_AHB1_GRP1_ReleaseReset\n
 498:Drivers/STM32F7xx_HAL_Driver/Inc/stm32f7xx_ll_bus.h ****   *         AHB1RSTR     ETHMACRST     LL_AHB1_GRP1_ReleaseReset\n
 499:Drivers/STM32F7xx_HAL_Driver/Inc/stm32f7xx_ll_bus.h ****   *         AHB1RSTR     OTGHSRST      LL_AHB1_GRP1_ReleaseReset
 500:Drivers/STM32F7xx_HAL_Driver/Inc/stm32f7xx_ll_bus.h ****   * @param  Periphs This parameter can be a combination of the following values:
 501:Drivers/STM32F7xx_HAL_Driver/Inc/stm32f7xx_ll_bus.h ****   *         @arg @ref LL_AHB1_GRP1_PERIPH_ALL
 502:Drivers/STM32F7xx_HAL_Driver/Inc/stm32f7xx_ll_bus.h ****   *         @arg @ref LL_AHB1_GRP1_PERIPH_GPIOA
 503:Drivers/STM32F7xx_HAL_Driver/Inc/stm32f7xx_ll_bus.h ****   *         @arg @ref LL_AHB1_GRP1_PERIPH_GPIOB
 504:Drivers/STM32F7xx_HAL_Driver/Inc/stm32f7xx_ll_bus.h ****   *         @arg @ref LL_AHB1_GRP1_PERIPH_GPIOC
 505:Drivers/STM32F7xx_HAL_Driver/Inc/stm32f7xx_ll_bus.h ****   *         @arg @ref LL_AHB1_GRP1_PERIPH_GPIOD
 506:Drivers/STM32F7xx_HAL_Driver/Inc/stm32f7xx_ll_bus.h ****   *         @arg @ref LL_AHB1_GRP1_PERIPH_GPIOE
 507:Drivers/STM32F7xx_HAL_Driver/Inc/stm32f7xx_ll_bus.h ****   *         @arg @ref LL_AHB1_GRP1_PERIPH_GPIOF
 508:Drivers/STM32F7xx_HAL_Driver/Inc/stm32f7xx_ll_bus.h ****   *         @arg @ref LL_AHB1_GRP1_PERIPH_GPIOG
 509:Drivers/STM32F7xx_HAL_Driver/Inc/stm32f7xx_ll_bus.h ****   *         @arg @ref LL_AHB1_GRP1_PERIPH_GPIOH
 510:Drivers/STM32F7xx_HAL_Driver/Inc/stm32f7xx_ll_bus.h ****   *         @arg @ref LL_AHB1_GRP1_PERIPH_GPIOI
 511:Drivers/STM32F7xx_HAL_Driver/Inc/stm32f7xx_ll_bus.h ****   *         @arg @ref LL_AHB1_GRP1_PERIPH_GPIOJ (*)
 512:Drivers/STM32F7xx_HAL_Driver/Inc/stm32f7xx_ll_bus.h ****   *         @arg @ref LL_AHB1_GRP1_PERIPH_GPIOK (*)
 513:Drivers/STM32F7xx_HAL_Driver/Inc/stm32f7xx_ll_bus.h ****   *         @arg @ref LL_AHB1_GRP1_PERIPH_CRC
 514:Drivers/STM32F7xx_HAL_Driver/Inc/stm32f7xx_ll_bus.h ****   *         @arg @ref LL_AHB1_GRP1_PERIPH_DMA1
 515:Drivers/STM32F7xx_HAL_Driver/Inc/stm32f7xx_ll_bus.h ****   *         @arg @ref LL_AHB1_GRP1_PERIPH_DMA2
 516:Drivers/STM32F7xx_HAL_Driver/Inc/stm32f7xx_ll_bus.h ****   *         @arg @ref LL_AHB1_GRP1_PERIPH_DMA2D (*)
 517:Drivers/STM32F7xx_HAL_Driver/Inc/stm32f7xx_ll_bus.h ****   *         @arg @ref LL_AHB1_GRP1_PERIPH_ETHMAC (*)
 518:Drivers/STM32F7xx_HAL_Driver/Inc/stm32f7xx_ll_bus.h ****   *         @arg @ref LL_AHB1_GRP1_PERIPH_OTGHS
 519:Drivers/STM32F7xx_HAL_Driver/Inc/stm32f7xx_ll_bus.h ****   *
 520:Drivers/STM32F7xx_HAL_Driver/Inc/stm32f7xx_ll_bus.h ****   *         (*) value not defined in all devices.
 521:Drivers/STM32F7xx_HAL_Driver/Inc/stm32f7xx_ll_bus.h ****   * @retval None
 522:Drivers/STM32F7xx_HAL_Driver/Inc/stm32f7xx_ll_bus.h **** */
 523:Drivers/STM32F7xx_HAL_Driver/Inc/stm32f7xx_ll_bus.h **** __STATIC_INLINE void LL_AHB1_GRP1_ReleaseReset(uint32_t Periphs)
 186              		.loc 3 523 22 view .LVU41
 187              	.LBB35:
 524:Drivers/STM32F7xx_HAL_Driver/Inc/stm32f7xx_ll_bus.h **** {
 525:Drivers/STM32F7xx_HAL_Driver/Inc/stm32f7xx_ll_bus.h ****   CLEAR_BIT(RCC->AHB1RSTR, Periphs);
 188              		.loc 3 525 3 view .LVU42
 189 00d6 1A69     		ldr	r2, [r3, #16]
 190 00d8 22F40012 		bic	r2, r2, #2097152
 191 00dc 1A61     		str	r2, [r3, #16]
 192              	.LVL6:
 193              		.loc 3 525 3 is_stmt 0 view .LVU43
 194              	.LBE35:
 195              	.LBE34:
 179:Drivers/STM32F7xx_HAL_Driver/Src/stm32f7xx_ll_dma.c **** 
 196              		.loc 1 179 15 view .LVU44
 197 00de 0020     		movs	r0, #0
 198              	.LVL7:
 199              	.LBB37:
 200              	.LBB36:
 526:Drivers/STM32F7xx_HAL_Driver/Inc/stm32f7xx_ll_bus.h **** }
 201              		.loc 3 526 1 view .LVU45
 202 00e0 7047     		bx	lr
 203              	.LVL8:
ARM GAS  /tmp/ccYTojEy.s 			page 28


 204              	.L35:
 205              		.loc 3 526 1 view .LVU46
 206              	.LBE36:
 207              	.LBE37:
 197:Drivers/STM32F7xx_HAL_Driver/Src/stm32f7xx_ll_dma.c **** 
 208              		.loc 1 197 7 is_stmt 1 view .LVU47
 209              	.LBB38:
 210              	.LBI38:
 476:Drivers/STM32F7xx_HAL_Driver/Inc/stm32f7xx_ll_bus.h **** {
 211              		.loc 3 476 22 view .LVU48
 212              	.LBB39:
 478:Drivers/STM32F7xx_HAL_Driver/Inc/stm32f7xx_ll_bus.h **** }
 213              		.loc 3 478 3 view .LVU49
 214 00e2 A3F53053 		sub	r3, r3, #11264
 215 00e6 1A69     		ldr	r2, [r3, #16]
 216 00e8 42F48002 		orr	r2, r2, #4194304
 217 00ec 1A61     		str	r2, [r3, #16]
 218              	.LVL9:
 478:Drivers/STM32F7xx_HAL_Driver/Inc/stm32f7xx_ll_bus.h **** }
 219              		.loc 3 478 3 is_stmt 0 view .LVU50
 220              	.LBE39:
 221              	.LBE38:
 200:Drivers/STM32F7xx_HAL_Driver/Src/stm32f7xx_ll_dma.c ****     }
 222              		.loc 1 200 7 is_stmt 1 view .LVU51
 223              	.LBB40:
 224              	.LBI40:
 523:Drivers/STM32F7xx_HAL_Driver/Inc/stm32f7xx_ll_bus.h **** {
 225              		.loc 3 523 22 view .LVU52
 226              	.LBB41:
 525:Drivers/STM32F7xx_HAL_Driver/Inc/stm32f7xx_ll_bus.h **** }
 227              		.loc 3 525 3 view .LVU53
 228 00ee 1A69     		ldr	r2, [r3, #16]
 229 00f0 22F48002 		bic	r2, r2, #4194304
 230 00f4 1A61     		str	r2, [r3, #16]
 231              	.LVL10:
 525:Drivers/STM32F7xx_HAL_Driver/Inc/stm32f7xx_ll_bus.h **** }
 232              		.loc 3 525 3 is_stmt 0 view .LVU54
 233              	.LBE41:
 234              	.LBE40:
 179:Drivers/STM32F7xx_HAL_Driver/Src/stm32f7xx_ll_dma.c **** 
 235              		.loc 1 179 15 view .LVU55
 236 00f6 0020     		movs	r0, #0
 237              	.LVL11:
 238              	.LBB43:
 239              	.LBB42:
 240              		.loc 3 526 1 view .LVU56
 241 00f8 7047     		bx	lr
 242              	.LVL12:
 243              	.L14:
 244              	.LCFI2:
 245              		.cfi_def_cfa_offset 8
 246              		.cfi_offset 4, -8
 247              		.cfi_offset 14, -4
 248              		.loc 3 526 1 view .LVU57
 249              	.LBE42:
 250              	.LBE43:
 213:Drivers/STM32F7xx_HAL_Driver/Src/stm32f7xx_ll_dma.c **** 
ARM GAS  /tmp/ccYTojEy.s 			page 29


 251              		.loc 1 213 9 discriminator 2 view .LVU58
 252 00fa 344B     		ldr	r3, .L43+12
 253              	.L5:
 254              	.LVL13:
 216:Drivers/STM32F7xx_HAL_Driver/Src/stm32f7xx_ll_dma.c **** 
 255              		.loc 1 216 5 is_stmt 1 view .LVU59
 256 00fc 0022     		movs	r2, #0
 257 00fe 1A60     		str	r2, [r3]
 219:Drivers/STM32F7xx_HAL_Driver/Src/stm32f7xx_ll_dma.c **** 
 258              		.loc 1 219 5 view .LVU60
 259 0100 5A60     		str	r2, [r3, #4]
 222:Drivers/STM32F7xx_HAL_Driver/Src/stm32f7xx_ll_dma.c **** 
 260              		.loc 1 222 5 view .LVU61
 261 0102 9A60     		str	r2, [r3, #8]
 225:Drivers/STM32F7xx_HAL_Driver/Src/stm32f7xx_ll_dma.c **** 
 262              		.loc 1 225 5 view .LVU62
 263 0104 DA60     		str	r2, [r3, #12]
 228:Drivers/STM32F7xx_HAL_Driver/Src/stm32f7xx_ll_dma.c **** 
 264              		.loc 1 228 5 view .LVU63
 265 0106 1A61     		str	r2, [r3, #16]
 231:Drivers/STM32F7xx_HAL_Driver/Src/stm32f7xx_ll_dma.c **** 
 266              		.loc 1 231 5 view .LVU64
 267 0108 2122     		movs	r2, #33
 268 010a 5A61     		str	r2, [r3, #20]
 234:Drivers/STM32F7xx_HAL_Driver/Src/stm32f7xx_ll_dma.c **** 
 269              		.loc 1 234 5 view .LVU65
 270              	.LVL14:
 271              	.LBB44:
 272              	.LBI44:
 520:Drivers/STM32F7xx_HAL_Driver/Inc/stm32f7xx_ll_dma.h **** }
 521:Drivers/STM32F7xx_HAL_Driver/Inc/stm32f7xx_ll_dma.h **** 
 522:Drivers/STM32F7xx_HAL_Driver/Inc/stm32f7xx_ll_dma.h **** /**
 523:Drivers/STM32F7xx_HAL_Driver/Inc/stm32f7xx_ll_dma.h ****   * @brief Check if DMA stream is enabled or disabled.
 524:Drivers/STM32F7xx_HAL_Driver/Inc/stm32f7xx_ll_dma.h ****   * @rmtoll CR          EN            LL_DMA_IsEnabledStream
 525:Drivers/STM32F7xx_HAL_Driver/Inc/stm32f7xx_ll_dma.h ****   * @param  DMAx DMAx Instance
 526:Drivers/STM32F7xx_HAL_Driver/Inc/stm32f7xx_ll_dma.h ****   * @param  Stream This parameter can be one of the following values:
 527:Drivers/STM32F7xx_HAL_Driver/Inc/stm32f7xx_ll_dma.h ****   *         @arg @ref LL_DMA_STREAM_0
 528:Drivers/STM32F7xx_HAL_Driver/Inc/stm32f7xx_ll_dma.h ****   *         @arg @ref LL_DMA_STREAM_1
 529:Drivers/STM32F7xx_HAL_Driver/Inc/stm32f7xx_ll_dma.h ****   *         @arg @ref LL_DMA_STREAM_2
 530:Drivers/STM32F7xx_HAL_Driver/Inc/stm32f7xx_ll_dma.h ****   *         @arg @ref LL_DMA_STREAM_3
 531:Drivers/STM32F7xx_HAL_Driver/Inc/stm32f7xx_ll_dma.h ****   *         @arg @ref LL_DMA_STREAM_4
 532:Drivers/STM32F7xx_HAL_Driver/Inc/stm32f7xx_ll_dma.h ****   *         @arg @ref LL_DMA_STREAM_5
 533:Drivers/STM32F7xx_HAL_Driver/Inc/stm32f7xx_ll_dma.h ****   *         @arg @ref LL_DMA_STREAM_6
 534:Drivers/STM32F7xx_HAL_Driver/Inc/stm32f7xx_ll_dma.h ****   *         @arg @ref LL_DMA_STREAM_7
 535:Drivers/STM32F7xx_HAL_Driver/Inc/stm32f7xx_ll_dma.h ****   * @retval State of bit (1 or 0).
 536:Drivers/STM32F7xx_HAL_Driver/Inc/stm32f7xx_ll_dma.h ****   */
 537:Drivers/STM32F7xx_HAL_Driver/Inc/stm32f7xx_ll_dma.h **** __STATIC_INLINE uint32_t LL_DMA_IsEnabledStream(DMA_TypeDef *DMAx, uint32_t Stream)
 538:Drivers/STM32F7xx_HAL_Driver/Inc/stm32f7xx_ll_dma.h **** {
 539:Drivers/STM32F7xx_HAL_Driver/Inc/stm32f7xx_ll_dma.h ****   return (READ_BIT(((DMA_Stream_TypeDef*)((uint32_t)((uint32_t)DMAx + STREAM_OFFSET_TAB[Stream])))-
 540:Drivers/STM32F7xx_HAL_Driver/Inc/stm32f7xx_ll_dma.h **** }
 541:Drivers/STM32F7xx_HAL_Driver/Inc/stm32f7xx_ll_dma.h **** 
 542:Drivers/STM32F7xx_HAL_Driver/Inc/stm32f7xx_ll_dma.h **** /**
 543:Drivers/STM32F7xx_HAL_Driver/Inc/stm32f7xx_ll_dma.h ****   * @brief  Configure all parameters linked to DMA transfer.
 544:Drivers/STM32F7xx_HAL_Driver/Inc/stm32f7xx_ll_dma.h ****   * @rmtoll CR          DIR           LL_DMA_ConfigTransfer\n
 545:Drivers/STM32F7xx_HAL_Driver/Inc/stm32f7xx_ll_dma.h ****   *         CR          CIRC          LL_DMA_ConfigTransfer\n
 546:Drivers/STM32F7xx_HAL_Driver/Inc/stm32f7xx_ll_dma.h ****   *         CR          PINC          LL_DMA_ConfigTransfer\n
 547:Drivers/STM32F7xx_HAL_Driver/Inc/stm32f7xx_ll_dma.h ****   *         CR          MINC          LL_DMA_ConfigTransfer\n
ARM GAS  /tmp/ccYTojEy.s 			page 30


 548:Drivers/STM32F7xx_HAL_Driver/Inc/stm32f7xx_ll_dma.h ****   *         CR          PSIZE         LL_DMA_ConfigTransfer\n
 549:Drivers/STM32F7xx_HAL_Driver/Inc/stm32f7xx_ll_dma.h ****   *         CR          MSIZE         LL_DMA_ConfigTransfer\n
 550:Drivers/STM32F7xx_HAL_Driver/Inc/stm32f7xx_ll_dma.h ****   *         CR          PL            LL_DMA_ConfigTransfer\n
 551:Drivers/STM32F7xx_HAL_Driver/Inc/stm32f7xx_ll_dma.h ****   *         CR          PFCTRL        LL_DMA_ConfigTransfer
 552:Drivers/STM32F7xx_HAL_Driver/Inc/stm32f7xx_ll_dma.h ****   * @param  DMAx DMAx Instance
 553:Drivers/STM32F7xx_HAL_Driver/Inc/stm32f7xx_ll_dma.h ****   * @param  Stream This parameter can be one of the following values:
 554:Drivers/STM32F7xx_HAL_Driver/Inc/stm32f7xx_ll_dma.h ****   *         @arg @ref LL_DMA_STREAM_0
 555:Drivers/STM32F7xx_HAL_Driver/Inc/stm32f7xx_ll_dma.h ****   *         @arg @ref LL_DMA_STREAM_1
 556:Drivers/STM32F7xx_HAL_Driver/Inc/stm32f7xx_ll_dma.h ****   *         @arg @ref LL_DMA_STREAM_2
 557:Drivers/STM32F7xx_HAL_Driver/Inc/stm32f7xx_ll_dma.h ****   *         @arg @ref LL_DMA_STREAM_3
 558:Drivers/STM32F7xx_HAL_Driver/Inc/stm32f7xx_ll_dma.h ****   *         @arg @ref LL_DMA_STREAM_4
 559:Drivers/STM32F7xx_HAL_Driver/Inc/stm32f7xx_ll_dma.h ****   *         @arg @ref LL_DMA_STREAM_5
 560:Drivers/STM32F7xx_HAL_Driver/Inc/stm32f7xx_ll_dma.h ****   *         @arg @ref LL_DMA_STREAM_6
 561:Drivers/STM32F7xx_HAL_Driver/Inc/stm32f7xx_ll_dma.h ****   *         @arg @ref LL_DMA_STREAM_7
 562:Drivers/STM32F7xx_HAL_Driver/Inc/stm32f7xx_ll_dma.h ****   * @param  Configuration This parameter must be a combination of all the following values:
 563:Drivers/STM32F7xx_HAL_Driver/Inc/stm32f7xx_ll_dma.h ****   *         @arg @ref LL_DMA_DIRECTION_PERIPH_TO_MEMORY or @ref LL_DMA_DIRECTION_MEMORY_TO_PERIPH o
 564:Drivers/STM32F7xx_HAL_Driver/Inc/stm32f7xx_ll_dma.h ****   *         @arg @ref LL_DMA_MODE_NORMAL or @ref LL_DMA_MODE_CIRCULAR  or @ref LL_DMA_MODE_PFCTRL
 565:Drivers/STM32F7xx_HAL_Driver/Inc/stm32f7xx_ll_dma.h ****   *         @arg @ref LL_DMA_PERIPH_INCREMENT or @ref LL_DMA_PERIPH_NOINCREMENT
 566:Drivers/STM32F7xx_HAL_Driver/Inc/stm32f7xx_ll_dma.h ****   *         @arg @ref LL_DMA_MEMORY_INCREMENT or @ref LL_DMA_MEMORY_NOINCREMENT
 567:Drivers/STM32F7xx_HAL_Driver/Inc/stm32f7xx_ll_dma.h ****   *         @arg @ref LL_DMA_PDATAALIGN_BYTE or @ref LL_DMA_PDATAALIGN_HALFWORD or @ref LL_DMA_PDAT
 568:Drivers/STM32F7xx_HAL_Driver/Inc/stm32f7xx_ll_dma.h ****   *         @arg @ref LL_DMA_MDATAALIGN_BYTE or @ref LL_DMA_MDATAALIGN_HALFWORD or @ref LL_DMA_MDAT
 569:Drivers/STM32F7xx_HAL_Driver/Inc/stm32f7xx_ll_dma.h ****   *         @arg @ref LL_DMA_PRIORITY_LOW or @ref LL_DMA_PRIORITY_MEDIUM or @ref LL_DMA_PRIORITY_HI
 570:Drivers/STM32F7xx_HAL_Driver/Inc/stm32f7xx_ll_dma.h ****   *@retval None
 571:Drivers/STM32F7xx_HAL_Driver/Inc/stm32f7xx_ll_dma.h ****   */
 572:Drivers/STM32F7xx_HAL_Driver/Inc/stm32f7xx_ll_dma.h **** __STATIC_INLINE void LL_DMA_ConfigTransfer(DMA_TypeDef *DMAx, uint32_t Stream, uint32_t Configurati
 573:Drivers/STM32F7xx_HAL_Driver/Inc/stm32f7xx_ll_dma.h **** {
 574:Drivers/STM32F7xx_HAL_Driver/Inc/stm32f7xx_ll_dma.h ****   MODIFY_REG(((DMA_Stream_TypeDef *)((uint32_t)((uint32_t)DMAx + STREAM_OFFSET_TAB[Stream])))->CR,
 575:Drivers/STM32F7xx_HAL_Driver/Inc/stm32f7xx_ll_dma.h ****              DMA_SxCR_DIR | DMA_SxCR_CIRC | DMA_SxCR_PINC | DMA_SxCR_MINC | DMA_SxCR_PSIZE | DMA_Sx
 576:Drivers/STM32F7xx_HAL_Driver/Inc/stm32f7xx_ll_dma.h ****              Configuration);
 577:Drivers/STM32F7xx_HAL_Driver/Inc/stm32f7xx_ll_dma.h **** }
 578:Drivers/STM32F7xx_HAL_Driver/Inc/stm32f7xx_ll_dma.h **** 
 579:Drivers/STM32F7xx_HAL_Driver/Inc/stm32f7xx_ll_dma.h **** /**
 580:Drivers/STM32F7xx_HAL_Driver/Inc/stm32f7xx_ll_dma.h ****   * @brief Set Data transfer direction (read from peripheral or from memory).
 581:Drivers/STM32F7xx_HAL_Driver/Inc/stm32f7xx_ll_dma.h ****   * @rmtoll CR          DIR           LL_DMA_SetDataTransferDirection
 582:Drivers/STM32F7xx_HAL_Driver/Inc/stm32f7xx_ll_dma.h ****   * @param  DMAx DMAx Instance
 583:Drivers/STM32F7xx_HAL_Driver/Inc/stm32f7xx_ll_dma.h ****   * @param  Stream This parameter can be one of the following values:
 584:Drivers/STM32F7xx_HAL_Driver/Inc/stm32f7xx_ll_dma.h ****   *         @arg @ref LL_DMA_STREAM_0
 585:Drivers/STM32F7xx_HAL_Driver/Inc/stm32f7xx_ll_dma.h ****   *         @arg @ref LL_DMA_STREAM_1
 586:Drivers/STM32F7xx_HAL_Driver/Inc/stm32f7xx_ll_dma.h ****   *         @arg @ref LL_DMA_STREAM_2
 587:Drivers/STM32F7xx_HAL_Driver/Inc/stm32f7xx_ll_dma.h ****   *         @arg @ref LL_DMA_STREAM_3
 588:Drivers/STM32F7xx_HAL_Driver/Inc/stm32f7xx_ll_dma.h ****   *         @arg @ref LL_DMA_STREAM_4
 589:Drivers/STM32F7xx_HAL_Driver/Inc/stm32f7xx_ll_dma.h ****   *         @arg @ref LL_DMA_STREAM_5
 590:Drivers/STM32F7xx_HAL_Driver/Inc/stm32f7xx_ll_dma.h ****   *         @arg @ref LL_DMA_STREAM_6
 591:Drivers/STM32F7xx_HAL_Driver/Inc/stm32f7xx_ll_dma.h ****   *         @arg @ref LL_DMA_STREAM_7
 592:Drivers/STM32F7xx_HAL_Driver/Inc/stm32f7xx_ll_dma.h ****   * @param  Direction This parameter can be one of the following values:
 593:Drivers/STM32F7xx_HAL_Driver/Inc/stm32f7xx_ll_dma.h ****   *         @arg @ref LL_DMA_DIRECTION_PERIPH_TO_MEMORY
 594:Drivers/STM32F7xx_HAL_Driver/Inc/stm32f7xx_ll_dma.h ****   *         @arg @ref LL_DMA_DIRECTION_MEMORY_TO_PERIPH
 595:Drivers/STM32F7xx_HAL_Driver/Inc/stm32f7xx_ll_dma.h ****   *         @arg @ref LL_DMA_DIRECTION_MEMORY_TO_MEMORY
 596:Drivers/STM32F7xx_HAL_Driver/Inc/stm32f7xx_ll_dma.h ****   * @retval None
 597:Drivers/STM32F7xx_HAL_Driver/Inc/stm32f7xx_ll_dma.h ****   */
 598:Drivers/STM32F7xx_HAL_Driver/Inc/stm32f7xx_ll_dma.h **** __STATIC_INLINE void LL_DMA_SetDataTransferDirection(DMA_TypeDef *DMAx, uint32_t Stream, uint32_t  
 599:Drivers/STM32F7xx_HAL_Driver/Inc/stm32f7xx_ll_dma.h **** {
 600:Drivers/STM32F7xx_HAL_Driver/Inc/stm32f7xx_ll_dma.h ****   MODIFY_REG(((DMA_Stream_TypeDef*)((uint32_t)((uint32_t)DMAx + STREAM_OFFSET_TAB[Stream])))->CR, D
 601:Drivers/STM32F7xx_HAL_Driver/Inc/stm32f7xx_ll_dma.h **** }
 602:Drivers/STM32F7xx_HAL_Driver/Inc/stm32f7xx_ll_dma.h **** 
 603:Drivers/STM32F7xx_HAL_Driver/Inc/stm32f7xx_ll_dma.h **** /**
 604:Drivers/STM32F7xx_HAL_Driver/Inc/stm32f7xx_ll_dma.h ****   * @brief Get Data transfer direction (read from peripheral or from memory).
ARM GAS  /tmp/ccYTojEy.s 			page 31


 605:Drivers/STM32F7xx_HAL_Driver/Inc/stm32f7xx_ll_dma.h ****   * @rmtoll CR          DIR           LL_DMA_GetDataTransferDirection
 606:Drivers/STM32F7xx_HAL_Driver/Inc/stm32f7xx_ll_dma.h ****   * @param  DMAx DMAx Instance
 607:Drivers/STM32F7xx_HAL_Driver/Inc/stm32f7xx_ll_dma.h ****   * @param  Stream This parameter can be one of the following values:
 608:Drivers/STM32F7xx_HAL_Driver/Inc/stm32f7xx_ll_dma.h ****   *         @arg @ref LL_DMA_STREAM_0
 609:Drivers/STM32F7xx_HAL_Driver/Inc/stm32f7xx_ll_dma.h ****   *         @arg @ref LL_DMA_STREAM_1
 610:Drivers/STM32F7xx_HAL_Driver/Inc/stm32f7xx_ll_dma.h ****   *         @arg @ref LL_DMA_STREAM_2
 611:Drivers/STM32F7xx_HAL_Driver/Inc/stm32f7xx_ll_dma.h ****   *         @arg @ref LL_DMA_STREAM_3
 612:Drivers/STM32F7xx_HAL_Driver/Inc/stm32f7xx_ll_dma.h ****   *         @arg @ref LL_DMA_STREAM_4
 613:Drivers/STM32F7xx_HAL_Driver/Inc/stm32f7xx_ll_dma.h ****   *         @arg @ref LL_DMA_STREAM_5
 614:Drivers/STM32F7xx_HAL_Driver/Inc/stm32f7xx_ll_dma.h ****   *         @arg @ref LL_DMA_STREAM_6
 615:Drivers/STM32F7xx_HAL_Driver/Inc/stm32f7xx_ll_dma.h ****   *         @arg @ref LL_DMA_STREAM_7
 616:Drivers/STM32F7xx_HAL_Driver/Inc/stm32f7xx_ll_dma.h ****   * @retval Returned value can be one of the following values:
 617:Drivers/STM32F7xx_HAL_Driver/Inc/stm32f7xx_ll_dma.h ****   *         @arg @ref LL_DMA_DIRECTION_PERIPH_TO_MEMORY
 618:Drivers/STM32F7xx_HAL_Driver/Inc/stm32f7xx_ll_dma.h ****   *         @arg @ref LL_DMA_DIRECTION_MEMORY_TO_PERIPH
 619:Drivers/STM32F7xx_HAL_Driver/Inc/stm32f7xx_ll_dma.h ****   *         @arg @ref LL_DMA_DIRECTION_MEMORY_TO_MEMORY
 620:Drivers/STM32F7xx_HAL_Driver/Inc/stm32f7xx_ll_dma.h ****   */
 621:Drivers/STM32F7xx_HAL_Driver/Inc/stm32f7xx_ll_dma.h **** __STATIC_INLINE uint32_t LL_DMA_GetDataTransferDirection(DMA_TypeDef *DMAx, uint32_t Stream)
 622:Drivers/STM32F7xx_HAL_Driver/Inc/stm32f7xx_ll_dma.h **** {
 623:Drivers/STM32F7xx_HAL_Driver/Inc/stm32f7xx_ll_dma.h ****   return (READ_BIT(((DMA_Stream_TypeDef*)((uint32_t)((uint32_t)DMAx + STREAM_OFFSET_TAB[Stream])))-
 624:Drivers/STM32F7xx_HAL_Driver/Inc/stm32f7xx_ll_dma.h **** }
 625:Drivers/STM32F7xx_HAL_Driver/Inc/stm32f7xx_ll_dma.h **** 
 626:Drivers/STM32F7xx_HAL_Driver/Inc/stm32f7xx_ll_dma.h **** /**
 627:Drivers/STM32F7xx_HAL_Driver/Inc/stm32f7xx_ll_dma.h ****   * @brief Set DMA mode normal, circular or peripheral flow control.
 628:Drivers/STM32F7xx_HAL_Driver/Inc/stm32f7xx_ll_dma.h ****   * @rmtoll CR          CIRC           LL_DMA_SetMode\n
 629:Drivers/STM32F7xx_HAL_Driver/Inc/stm32f7xx_ll_dma.h ****   *         CR          PFCTRL         LL_DMA_SetMode
 630:Drivers/STM32F7xx_HAL_Driver/Inc/stm32f7xx_ll_dma.h ****   * @param  DMAx DMAx Instance
 631:Drivers/STM32F7xx_HAL_Driver/Inc/stm32f7xx_ll_dma.h ****   * @param  Stream This parameter can be one of the following values:
 632:Drivers/STM32F7xx_HAL_Driver/Inc/stm32f7xx_ll_dma.h ****   *         @arg @ref LL_DMA_STREAM_0
 633:Drivers/STM32F7xx_HAL_Driver/Inc/stm32f7xx_ll_dma.h ****   *         @arg @ref LL_DMA_STREAM_1
 634:Drivers/STM32F7xx_HAL_Driver/Inc/stm32f7xx_ll_dma.h ****   *         @arg @ref LL_DMA_STREAM_2
 635:Drivers/STM32F7xx_HAL_Driver/Inc/stm32f7xx_ll_dma.h ****   *         @arg @ref LL_DMA_STREAM_3
 636:Drivers/STM32F7xx_HAL_Driver/Inc/stm32f7xx_ll_dma.h ****   *         @arg @ref LL_DMA_STREAM_4
 637:Drivers/STM32F7xx_HAL_Driver/Inc/stm32f7xx_ll_dma.h ****   *         @arg @ref LL_DMA_STREAM_5
 638:Drivers/STM32F7xx_HAL_Driver/Inc/stm32f7xx_ll_dma.h ****   *         @arg @ref LL_DMA_STREAM_6
 639:Drivers/STM32F7xx_HAL_Driver/Inc/stm32f7xx_ll_dma.h ****   *         @arg @ref LL_DMA_STREAM_7
 640:Drivers/STM32F7xx_HAL_Driver/Inc/stm32f7xx_ll_dma.h ****   * @param  Mode This parameter can be one of the following values:
 641:Drivers/STM32F7xx_HAL_Driver/Inc/stm32f7xx_ll_dma.h ****   *         @arg @ref LL_DMA_MODE_NORMAL
 642:Drivers/STM32F7xx_HAL_Driver/Inc/stm32f7xx_ll_dma.h ****   *         @arg @ref LL_DMA_MODE_CIRCULAR
 643:Drivers/STM32F7xx_HAL_Driver/Inc/stm32f7xx_ll_dma.h ****   *         @arg @ref LL_DMA_MODE_PFCTRL
 644:Drivers/STM32F7xx_HAL_Driver/Inc/stm32f7xx_ll_dma.h ****   * @retval None
 645:Drivers/STM32F7xx_HAL_Driver/Inc/stm32f7xx_ll_dma.h ****   */
 646:Drivers/STM32F7xx_HAL_Driver/Inc/stm32f7xx_ll_dma.h **** __STATIC_INLINE void LL_DMA_SetMode(DMA_TypeDef *DMAx, uint32_t Stream, uint32_t Mode)
 647:Drivers/STM32F7xx_HAL_Driver/Inc/stm32f7xx_ll_dma.h **** {
 648:Drivers/STM32F7xx_HAL_Driver/Inc/stm32f7xx_ll_dma.h ****   MODIFY_REG(((DMA_Stream_TypeDef*)((uint32_t)((uint32_t)DMAx + STREAM_OFFSET_TAB[Stream])))->CR, D
 649:Drivers/STM32F7xx_HAL_Driver/Inc/stm32f7xx_ll_dma.h **** }
 650:Drivers/STM32F7xx_HAL_Driver/Inc/stm32f7xx_ll_dma.h **** 
 651:Drivers/STM32F7xx_HAL_Driver/Inc/stm32f7xx_ll_dma.h **** /**
 652:Drivers/STM32F7xx_HAL_Driver/Inc/stm32f7xx_ll_dma.h ****   * @brief Get DMA mode normal, circular or peripheral flow control.
 653:Drivers/STM32F7xx_HAL_Driver/Inc/stm32f7xx_ll_dma.h ****   * @rmtoll CR          CIRC           LL_DMA_GetMode\n
 654:Drivers/STM32F7xx_HAL_Driver/Inc/stm32f7xx_ll_dma.h ****   *         CR          PFCTRL         LL_DMA_GetMode
 655:Drivers/STM32F7xx_HAL_Driver/Inc/stm32f7xx_ll_dma.h ****   * @param  DMAx DMAx Instance
 656:Drivers/STM32F7xx_HAL_Driver/Inc/stm32f7xx_ll_dma.h ****   * @param  Stream This parameter can be one of the following values:
 657:Drivers/STM32F7xx_HAL_Driver/Inc/stm32f7xx_ll_dma.h ****   *         @arg @ref LL_DMA_STREAM_0
 658:Drivers/STM32F7xx_HAL_Driver/Inc/stm32f7xx_ll_dma.h ****   *         @arg @ref LL_DMA_STREAM_1
 659:Drivers/STM32F7xx_HAL_Driver/Inc/stm32f7xx_ll_dma.h ****   *         @arg @ref LL_DMA_STREAM_2
 660:Drivers/STM32F7xx_HAL_Driver/Inc/stm32f7xx_ll_dma.h ****   *         @arg @ref LL_DMA_STREAM_3
 661:Drivers/STM32F7xx_HAL_Driver/Inc/stm32f7xx_ll_dma.h ****   *         @arg @ref LL_DMA_STREAM_4
ARM GAS  /tmp/ccYTojEy.s 			page 32


 662:Drivers/STM32F7xx_HAL_Driver/Inc/stm32f7xx_ll_dma.h ****   *         @arg @ref LL_DMA_STREAM_5
 663:Drivers/STM32F7xx_HAL_Driver/Inc/stm32f7xx_ll_dma.h ****   *         @arg @ref LL_DMA_STREAM_6
 664:Drivers/STM32F7xx_HAL_Driver/Inc/stm32f7xx_ll_dma.h ****   *         @arg @ref LL_DMA_STREAM_7
 665:Drivers/STM32F7xx_HAL_Driver/Inc/stm32f7xx_ll_dma.h ****   * @retval Returned value can be one of the following values:
 666:Drivers/STM32F7xx_HAL_Driver/Inc/stm32f7xx_ll_dma.h ****   *         @arg @ref LL_DMA_MODE_NORMAL
 667:Drivers/STM32F7xx_HAL_Driver/Inc/stm32f7xx_ll_dma.h ****   *         @arg @ref LL_DMA_MODE_CIRCULAR
 668:Drivers/STM32F7xx_HAL_Driver/Inc/stm32f7xx_ll_dma.h ****   *         @arg @ref LL_DMA_MODE_PFCTRL
 669:Drivers/STM32F7xx_HAL_Driver/Inc/stm32f7xx_ll_dma.h ****   */
 670:Drivers/STM32F7xx_HAL_Driver/Inc/stm32f7xx_ll_dma.h **** __STATIC_INLINE uint32_t LL_DMA_GetMode(DMA_TypeDef *DMAx, uint32_t Stream)
 671:Drivers/STM32F7xx_HAL_Driver/Inc/stm32f7xx_ll_dma.h **** {
 672:Drivers/STM32F7xx_HAL_Driver/Inc/stm32f7xx_ll_dma.h ****   return (READ_BIT(((DMA_Stream_TypeDef*)((uint32_t)((uint32_t)DMAx + STREAM_OFFSET_TAB[Stream])))-
 673:Drivers/STM32F7xx_HAL_Driver/Inc/stm32f7xx_ll_dma.h **** }
 674:Drivers/STM32F7xx_HAL_Driver/Inc/stm32f7xx_ll_dma.h **** 
 675:Drivers/STM32F7xx_HAL_Driver/Inc/stm32f7xx_ll_dma.h **** /**
 676:Drivers/STM32F7xx_HAL_Driver/Inc/stm32f7xx_ll_dma.h ****   * @brief Set Peripheral increment mode.
 677:Drivers/STM32F7xx_HAL_Driver/Inc/stm32f7xx_ll_dma.h ****   * @rmtoll CR          PINC           LL_DMA_SetPeriphIncMode
 678:Drivers/STM32F7xx_HAL_Driver/Inc/stm32f7xx_ll_dma.h ****   * @param  DMAx DMAx Instance
 679:Drivers/STM32F7xx_HAL_Driver/Inc/stm32f7xx_ll_dma.h ****   * @param  Stream This parameter can be one of the following values:
 680:Drivers/STM32F7xx_HAL_Driver/Inc/stm32f7xx_ll_dma.h ****   *         @arg @ref LL_DMA_STREAM_0
 681:Drivers/STM32F7xx_HAL_Driver/Inc/stm32f7xx_ll_dma.h ****   *         @arg @ref LL_DMA_STREAM_1
 682:Drivers/STM32F7xx_HAL_Driver/Inc/stm32f7xx_ll_dma.h ****   *         @arg @ref LL_DMA_STREAM_2
 683:Drivers/STM32F7xx_HAL_Driver/Inc/stm32f7xx_ll_dma.h ****   *         @arg @ref LL_DMA_STREAM_3
 684:Drivers/STM32F7xx_HAL_Driver/Inc/stm32f7xx_ll_dma.h ****   *         @arg @ref LL_DMA_STREAM_4
 685:Drivers/STM32F7xx_HAL_Driver/Inc/stm32f7xx_ll_dma.h ****   *         @arg @ref LL_DMA_STREAM_5
 686:Drivers/STM32F7xx_HAL_Driver/Inc/stm32f7xx_ll_dma.h ****   *         @arg @ref LL_DMA_STREAM_6
 687:Drivers/STM32F7xx_HAL_Driver/Inc/stm32f7xx_ll_dma.h ****   *         @arg @ref LL_DMA_STREAM_7
 688:Drivers/STM32F7xx_HAL_Driver/Inc/stm32f7xx_ll_dma.h ****   * @param  IncrementMode This parameter can be one of the following values:
 689:Drivers/STM32F7xx_HAL_Driver/Inc/stm32f7xx_ll_dma.h ****   *         @arg @ref LL_DMA_PERIPH_NOINCREMENT
 690:Drivers/STM32F7xx_HAL_Driver/Inc/stm32f7xx_ll_dma.h ****   *         @arg @ref LL_DMA_PERIPH_INCREMENT
 691:Drivers/STM32F7xx_HAL_Driver/Inc/stm32f7xx_ll_dma.h ****   * @retval None
 692:Drivers/STM32F7xx_HAL_Driver/Inc/stm32f7xx_ll_dma.h ****   */
 693:Drivers/STM32F7xx_HAL_Driver/Inc/stm32f7xx_ll_dma.h **** __STATIC_INLINE void LL_DMA_SetPeriphIncMode(DMA_TypeDef *DMAx, uint32_t Stream, uint32_t Increment
 694:Drivers/STM32F7xx_HAL_Driver/Inc/stm32f7xx_ll_dma.h **** {
 695:Drivers/STM32F7xx_HAL_Driver/Inc/stm32f7xx_ll_dma.h ****   MODIFY_REG(((DMA_Stream_TypeDef*)((uint32_t)((uint32_t)DMAx + STREAM_OFFSET_TAB[Stream])))->CR, D
 696:Drivers/STM32F7xx_HAL_Driver/Inc/stm32f7xx_ll_dma.h **** }
 697:Drivers/STM32F7xx_HAL_Driver/Inc/stm32f7xx_ll_dma.h **** 
 698:Drivers/STM32F7xx_HAL_Driver/Inc/stm32f7xx_ll_dma.h **** /**
 699:Drivers/STM32F7xx_HAL_Driver/Inc/stm32f7xx_ll_dma.h ****   * @brief Get Peripheral increment mode.
 700:Drivers/STM32F7xx_HAL_Driver/Inc/stm32f7xx_ll_dma.h ****   * @rmtoll CR          PINC           LL_DMA_GetPeriphIncMode
 701:Drivers/STM32F7xx_HAL_Driver/Inc/stm32f7xx_ll_dma.h ****   * @param  DMAx DMAx Instance
 702:Drivers/STM32F7xx_HAL_Driver/Inc/stm32f7xx_ll_dma.h ****   * @param  Stream This parameter can be one of the following values:
 703:Drivers/STM32F7xx_HAL_Driver/Inc/stm32f7xx_ll_dma.h ****   *         @arg @ref LL_DMA_STREAM_0
 704:Drivers/STM32F7xx_HAL_Driver/Inc/stm32f7xx_ll_dma.h ****   *         @arg @ref LL_DMA_STREAM_1
 705:Drivers/STM32F7xx_HAL_Driver/Inc/stm32f7xx_ll_dma.h ****   *         @arg @ref LL_DMA_STREAM_2
 706:Drivers/STM32F7xx_HAL_Driver/Inc/stm32f7xx_ll_dma.h ****   *         @arg @ref LL_DMA_STREAM_3
 707:Drivers/STM32F7xx_HAL_Driver/Inc/stm32f7xx_ll_dma.h ****   *         @arg @ref LL_DMA_STREAM_4
 708:Drivers/STM32F7xx_HAL_Driver/Inc/stm32f7xx_ll_dma.h ****   *         @arg @ref LL_DMA_STREAM_5
 709:Drivers/STM32F7xx_HAL_Driver/Inc/stm32f7xx_ll_dma.h ****   *         @arg @ref LL_DMA_STREAM_6
 710:Drivers/STM32F7xx_HAL_Driver/Inc/stm32f7xx_ll_dma.h ****   *         @arg @ref LL_DMA_STREAM_7
 711:Drivers/STM32F7xx_HAL_Driver/Inc/stm32f7xx_ll_dma.h ****   * @retval Returned value can be one of the following values:
 712:Drivers/STM32F7xx_HAL_Driver/Inc/stm32f7xx_ll_dma.h ****   *         @arg @ref LL_DMA_PERIPH_NOINCREMENT
 713:Drivers/STM32F7xx_HAL_Driver/Inc/stm32f7xx_ll_dma.h ****   *         @arg @ref LL_DMA_PERIPH_INCREMENT
 714:Drivers/STM32F7xx_HAL_Driver/Inc/stm32f7xx_ll_dma.h ****   */
 715:Drivers/STM32F7xx_HAL_Driver/Inc/stm32f7xx_ll_dma.h **** __STATIC_INLINE uint32_t LL_DMA_GetPeriphIncMode(DMA_TypeDef *DMAx, uint32_t Stream)
 716:Drivers/STM32F7xx_HAL_Driver/Inc/stm32f7xx_ll_dma.h **** {
 717:Drivers/STM32F7xx_HAL_Driver/Inc/stm32f7xx_ll_dma.h ****   return (READ_BIT(((DMA_Stream_TypeDef*)((uint32_t)((uint32_t)DMAx + STREAM_OFFSET_TAB[Stream])))-
 718:Drivers/STM32F7xx_HAL_Driver/Inc/stm32f7xx_ll_dma.h **** }
ARM GAS  /tmp/ccYTojEy.s 			page 33


 719:Drivers/STM32F7xx_HAL_Driver/Inc/stm32f7xx_ll_dma.h **** 
 720:Drivers/STM32F7xx_HAL_Driver/Inc/stm32f7xx_ll_dma.h **** /**
 721:Drivers/STM32F7xx_HAL_Driver/Inc/stm32f7xx_ll_dma.h ****   * @brief Set Memory increment mode.
 722:Drivers/STM32F7xx_HAL_Driver/Inc/stm32f7xx_ll_dma.h ****   * @rmtoll CR          MINC           LL_DMA_SetMemoryIncMode
 723:Drivers/STM32F7xx_HAL_Driver/Inc/stm32f7xx_ll_dma.h ****   * @param  DMAx DMAx Instance
 724:Drivers/STM32F7xx_HAL_Driver/Inc/stm32f7xx_ll_dma.h ****   * @param  Stream This parameter can be one of the following values:
 725:Drivers/STM32F7xx_HAL_Driver/Inc/stm32f7xx_ll_dma.h ****   *         @arg @ref LL_DMA_STREAM_0
 726:Drivers/STM32F7xx_HAL_Driver/Inc/stm32f7xx_ll_dma.h ****   *         @arg @ref LL_DMA_STREAM_1
 727:Drivers/STM32F7xx_HAL_Driver/Inc/stm32f7xx_ll_dma.h ****   *         @arg @ref LL_DMA_STREAM_2
 728:Drivers/STM32F7xx_HAL_Driver/Inc/stm32f7xx_ll_dma.h ****   *         @arg @ref LL_DMA_STREAM_3
 729:Drivers/STM32F7xx_HAL_Driver/Inc/stm32f7xx_ll_dma.h ****   *         @arg @ref LL_DMA_STREAM_4
 730:Drivers/STM32F7xx_HAL_Driver/Inc/stm32f7xx_ll_dma.h ****   *         @arg @ref LL_DMA_STREAM_5
 731:Drivers/STM32F7xx_HAL_Driver/Inc/stm32f7xx_ll_dma.h ****   *         @arg @ref LL_DMA_STREAM_6
 732:Drivers/STM32F7xx_HAL_Driver/Inc/stm32f7xx_ll_dma.h ****   *         @arg @ref LL_DMA_STREAM_7
 733:Drivers/STM32F7xx_HAL_Driver/Inc/stm32f7xx_ll_dma.h ****   * @param  IncrementMode This parameter can be one of the following values:
 734:Drivers/STM32F7xx_HAL_Driver/Inc/stm32f7xx_ll_dma.h ****   *         @arg @ref LL_DMA_MEMORY_NOINCREMENT
 735:Drivers/STM32F7xx_HAL_Driver/Inc/stm32f7xx_ll_dma.h ****   *         @arg @ref LL_DMA_MEMORY_INCREMENT
 736:Drivers/STM32F7xx_HAL_Driver/Inc/stm32f7xx_ll_dma.h ****   * @retval None
 737:Drivers/STM32F7xx_HAL_Driver/Inc/stm32f7xx_ll_dma.h ****   */
 738:Drivers/STM32F7xx_HAL_Driver/Inc/stm32f7xx_ll_dma.h **** __STATIC_INLINE void LL_DMA_SetMemoryIncMode(DMA_TypeDef *DMAx, uint32_t Stream, uint32_t Increment
 739:Drivers/STM32F7xx_HAL_Driver/Inc/stm32f7xx_ll_dma.h **** {
 740:Drivers/STM32F7xx_HAL_Driver/Inc/stm32f7xx_ll_dma.h ****   MODIFY_REG(((DMA_Stream_TypeDef*)((uint32_t)((uint32_t)DMAx + STREAM_OFFSET_TAB[Stream])))->CR, D
 741:Drivers/STM32F7xx_HAL_Driver/Inc/stm32f7xx_ll_dma.h **** }
 742:Drivers/STM32F7xx_HAL_Driver/Inc/stm32f7xx_ll_dma.h **** 
 743:Drivers/STM32F7xx_HAL_Driver/Inc/stm32f7xx_ll_dma.h **** /**
 744:Drivers/STM32F7xx_HAL_Driver/Inc/stm32f7xx_ll_dma.h ****   * @brief Get Memory increment mode.
 745:Drivers/STM32F7xx_HAL_Driver/Inc/stm32f7xx_ll_dma.h ****   * @rmtoll CR          MINC           LL_DMA_GetMemoryIncMode
 746:Drivers/STM32F7xx_HAL_Driver/Inc/stm32f7xx_ll_dma.h ****   * @param  DMAx DMAx Instance
 747:Drivers/STM32F7xx_HAL_Driver/Inc/stm32f7xx_ll_dma.h ****   * @param  Stream This parameter can be one of the following values:
 748:Drivers/STM32F7xx_HAL_Driver/Inc/stm32f7xx_ll_dma.h ****   *         @arg @ref LL_DMA_STREAM_0
 749:Drivers/STM32F7xx_HAL_Driver/Inc/stm32f7xx_ll_dma.h ****   *         @arg @ref LL_DMA_STREAM_1
 750:Drivers/STM32F7xx_HAL_Driver/Inc/stm32f7xx_ll_dma.h ****   *         @arg @ref LL_DMA_STREAM_2
 751:Drivers/STM32F7xx_HAL_Driver/Inc/stm32f7xx_ll_dma.h ****   *         @arg @ref LL_DMA_STREAM_3
 752:Drivers/STM32F7xx_HAL_Driver/Inc/stm32f7xx_ll_dma.h ****   *         @arg @ref LL_DMA_STREAM_4
 753:Drivers/STM32F7xx_HAL_Driver/Inc/stm32f7xx_ll_dma.h ****   *         @arg @ref LL_DMA_STREAM_5
 754:Drivers/STM32F7xx_HAL_Driver/Inc/stm32f7xx_ll_dma.h ****   *         @arg @ref LL_DMA_STREAM_6
 755:Drivers/STM32F7xx_HAL_Driver/Inc/stm32f7xx_ll_dma.h ****   *         @arg @ref LL_DMA_STREAM_7
 756:Drivers/STM32F7xx_HAL_Driver/Inc/stm32f7xx_ll_dma.h ****   * @retval Returned value can be one of the following values:
 757:Drivers/STM32F7xx_HAL_Driver/Inc/stm32f7xx_ll_dma.h ****   *         @arg @ref LL_DMA_MEMORY_NOINCREMENT
 758:Drivers/STM32F7xx_HAL_Driver/Inc/stm32f7xx_ll_dma.h ****   *         @arg @ref LL_DMA_MEMORY_INCREMENT
 759:Drivers/STM32F7xx_HAL_Driver/Inc/stm32f7xx_ll_dma.h ****   */
 760:Drivers/STM32F7xx_HAL_Driver/Inc/stm32f7xx_ll_dma.h **** __STATIC_INLINE uint32_t LL_DMA_GetMemoryIncMode(DMA_TypeDef *DMAx, uint32_t Stream)
 761:Drivers/STM32F7xx_HAL_Driver/Inc/stm32f7xx_ll_dma.h **** {
 762:Drivers/STM32F7xx_HAL_Driver/Inc/stm32f7xx_ll_dma.h ****   return (READ_BIT(((DMA_Stream_TypeDef*)((uint32_t)((uint32_t)DMAx + STREAM_OFFSET_TAB[Stream])))-
 763:Drivers/STM32F7xx_HAL_Driver/Inc/stm32f7xx_ll_dma.h **** }
 764:Drivers/STM32F7xx_HAL_Driver/Inc/stm32f7xx_ll_dma.h **** 
 765:Drivers/STM32F7xx_HAL_Driver/Inc/stm32f7xx_ll_dma.h **** /**
 766:Drivers/STM32F7xx_HAL_Driver/Inc/stm32f7xx_ll_dma.h ****   * @brief Set Peripheral size.
 767:Drivers/STM32F7xx_HAL_Driver/Inc/stm32f7xx_ll_dma.h ****   * @rmtoll CR          PSIZE           LL_DMA_SetPeriphSize
 768:Drivers/STM32F7xx_HAL_Driver/Inc/stm32f7xx_ll_dma.h ****   * @param  DMAx DMAx Instance
 769:Drivers/STM32F7xx_HAL_Driver/Inc/stm32f7xx_ll_dma.h ****   * @param  Stream This parameter can be one of the following values:
 770:Drivers/STM32F7xx_HAL_Driver/Inc/stm32f7xx_ll_dma.h ****   *         @arg @ref LL_DMA_STREAM_0
 771:Drivers/STM32F7xx_HAL_Driver/Inc/stm32f7xx_ll_dma.h ****   *         @arg @ref LL_DMA_STREAM_1
 772:Drivers/STM32F7xx_HAL_Driver/Inc/stm32f7xx_ll_dma.h ****   *         @arg @ref LL_DMA_STREAM_2
 773:Drivers/STM32F7xx_HAL_Driver/Inc/stm32f7xx_ll_dma.h ****   *         @arg @ref LL_DMA_STREAM_3
 774:Drivers/STM32F7xx_HAL_Driver/Inc/stm32f7xx_ll_dma.h ****   *         @arg @ref LL_DMA_STREAM_4
 775:Drivers/STM32F7xx_HAL_Driver/Inc/stm32f7xx_ll_dma.h ****   *         @arg @ref LL_DMA_STREAM_5
ARM GAS  /tmp/ccYTojEy.s 			page 34


 776:Drivers/STM32F7xx_HAL_Driver/Inc/stm32f7xx_ll_dma.h ****   *         @arg @ref LL_DMA_STREAM_6
 777:Drivers/STM32F7xx_HAL_Driver/Inc/stm32f7xx_ll_dma.h ****   *         @arg @ref LL_DMA_STREAM_7
 778:Drivers/STM32F7xx_HAL_Driver/Inc/stm32f7xx_ll_dma.h ****   * @param  Size This parameter can be one of the following values:
 779:Drivers/STM32F7xx_HAL_Driver/Inc/stm32f7xx_ll_dma.h ****   *         @arg @ref LL_DMA_PDATAALIGN_BYTE
 780:Drivers/STM32F7xx_HAL_Driver/Inc/stm32f7xx_ll_dma.h ****   *         @arg @ref LL_DMA_PDATAALIGN_HALFWORD
 781:Drivers/STM32F7xx_HAL_Driver/Inc/stm32f7xx_ll_dma.h ****   *         @arg @ref LL_DMA_PDATAALIGN_WORD
 782:Drivers/STM32F7xx_HAL_Driver/Inc/stm32f7xx_ll_dma.h ****   * @retval None
 783:Drivers/STM32F7xx_HAL_Driver/Inc/stm32f7xx_ll_dma.h ****   */
 784:Drivers/STM32F7xx_HAL_Driver/Inc/stm32f7xx_ll_dma.h **** __STATIC_INLINE void LL_DMA_SetPeriphSize(DMA_TypeDef *DMAx, uint32_t Stream, uint32_t  Size)
 785:Drivers/STM32F7xx_HAL_Driver/Inc/stm32f7xx_ll_dma.h **** {
 786:Drivers/STM32F7xx_HAL_Driver/Inc/stm32f7xx_ll_dma.h ****   MODIFY_REG(((DMA_Stream_TypeDef*)((uint32_t)((uint32_t)DMAx + STREAM_OFFSET_TAB[Stream])))->CR, D
 787:Drivers/STM32F7xx_HAL_Driver/Inc/stm32f7xx_ll_dma.h **** }
 788:Drivers/STM32F7xx_HAL_Driver/Inc/stm32f7xx_ll_dma.h **** 
 789:Drivers/STM32F7xx_HAL_Driver/Inc/stm32f7xx_ll_dma.h **** /**
 790:Drivers/STM32F7xx_HAL_Driver/Inc/stm32f7xx_ll_dma.h ****   * @brief Get Peripheral size.
 791:Drivers/STM32F7xx_HAL_Driver/Inc/stm32f7xx_ll_dma.h ****   * @rmtoll CR          PSIZE           LL_DMA_GetPeriphSize
 792:Drivers/STM32F7xx_HAL_Driver/Inc/stm32f7xx_ll_dma.h ****   * @param  DMAx DMAx Instance
 793:Drivers/STM32F7xx_HAL_Driver/Inc/stm32f7xx_ll_dma.h ****   * @param  Stream This parameter can be one of the following values:
 794:Drivers/STM32F7xx_HAL_Driver/Inc/stm32f7xx_ll_dma.h ****   *         @arg @ref LL_DMA_STREAM_0
 795:Drivers/STM32F7xx_HAL_Driver/Inc/stm32f7xx_ll_dma.h ****   *         @arg @ref LL_DMA_STREAM_1
 796:Drivers/STM32F7xx_HAL_Driver/Inc/stm32f7xx_ll_dma.h ****   *         @arg @ref LL_DMA_STREAM_2
 797:Drivers/STM32F7xx_HAL_Driver/Inc/stm32f7xx_ll_dma.h ****   *         @arg @ref LL_DMA_STREAM_3
 798:Drivers/STM32F7xx_HAL_Driver/Inc/stm32f7xx_ll_dma.h ****   *         @arg @ref LL_DMA_STREAM_4
 799:Drivers/STM32F7xx_HAL_Driver/Inc/stm32f7xx_ll_dma.h ****   *         @arg @ref LL_DMA_STREAM_5
 800:Drivers/STM32F7xx_HAL_Driver/Inc/stm32f7xx_ll_dma.h ****   *         @arg @ref LL_DMA_STREAM_6
 801:Drivers/STM32F7xx_HAL_Driver/Inc/stm32f7xx_ll_dma.h ****   *         @arg @ref LL_DMA_STREAM_7
 802:Drivers/STM32F7xx_HAL_Driver/Inc/stm32f7xx_ll_dma.h ****   * @retval Returned value can be one of the following values:
 803:Drivers/STM32F7xx_HAL_Driver/Inc/stm32f7xx_ll_dma.h ****   *         @arg @ref LL_DMA_PDATAALIGN_BYTE
 804:Drivers/STM32F7xx_HAL_Driver/Inc/stm32f7xx_ll_dma.h ****   *         @arg @ref LL_DMA_PDATAALIGN_HALFWORD
 805:Drivers/STM32F7xx_HAL_Driver/Inc/stm32f7xx_ll_dma.h ****   *         @arg @ref LL_DMA_PDATAALIGN_WORD
 806:Drivers/STM32F7xx_HAL_Driver/Inc/stm32f7xx_ll_dma.h ****   */
 807:Drivers/STM32F7xx_HAL_Driver/Inc/stm32f7xx_ll_dma.h **** __STATIC_INLINE uint32_t LL_DMA_GetPeriphSize(DMA_TypeDef *DMAx, uint32_t Stream)
 808:Drivers/STM32F7xx_HAL_Driver/Inc/stm32f7xx_ll_dma.h **** {
 809:Drivers/STM32F7xx_HAL_Driver/Inc/stm32f7xx_ll_dma.h ****   return (READ_BIT(((DMA_Stream_TypeDef*)((uint32_t)((uint32_t)DMAx + STREAM_OFFSET_TAB[Stream])))-
 810:Drivers/STM32F7xx_HAL_Driver/Inc/stm32f7xx_ll_dma.h **** }
 811:Drivers/STM32F7xx_HAL_Driver/Inc/stm32f7xx_ll_dma.h **** 
 812:Drivers/STM32F7xx_HAL_Driver/Inc/stm32f7xx_ll_dma.h **** /**
 813:Drivers/STM32F7xx_HAL_Driver/Inc/stm32f7xx_ll_dma.h ****   * @brief Set Memory size.
 814:Drivers/STM32F7xx_HAL_Driver/Inc/stm32f7xx_ll_dma.h ****   * @rmtoll CR          MSIZE           LL_DMA_SetMemorySize
 815:Drivers/STM32F7xx_HAL_Driver/Inc/stm32f7xx_ll_dma.h ****   * @param  DMAx DMAx Instance
 816:Drivers/STM32F7xx_HAL_Driver/Inc/stm32f7xx_ll_dma.h ****   * @param  Stream This parameter can be one of the following values:
 817:Drivers/STM32F7xx_HAL_Driver/Inc/stm32f7xx_ll_dma.h ****   *         @arg @ref LL_DMA_STREAM_0
 818:Drivers/STM32F7xx_HAL_Driver/Inc/stm32f7xx_ll_dma.h ****   *         @arg @ref LL_DMA_STREAM_1
 819:Drivers/STM32F7xx_HAL_Driver/Inc/stm32f7xx_ll_dma.h ****   *         @arg @ref LL_DMA_STREAM_2
 820:Drivers/STM32F7xx_HAL_Driver/Inc/stm32f7xx_ll_dma.h ****   *         @arg @ref LL_DMA_STREAM_3
 821:Drivers/STM32F7xx_HAL_Driver/Inc/stm32f7xx_ll_dma.h ****   *         @arg @ref LL_DMA_STREAM_4
 822:Drivers/STM32F7xx_HAL_Driver/Inc/stm32f7xx_ll_dma.h ****   *         @arg @ref LL_DMA_STREAM_5
 823:Drivers/STM32F7xx_HAL_Driver/Inc/stm32f7xx_ll_dma.h ****   *         @arg @ref LL_DMA_STREAM_6
 824:Drivers/STM32F7xx_HAL_Driver/Inc/stm32f7xx_ll_dma.h ****   *         @arg @ref LL_DMA_STREAM_7
 825:Drivers/STM32F7xx_HAL_Driver/Inc/stm32f7xx_ll_dma.h ****   * @param  Size This parameter can be one of the following values:
 826:Drivers/STM32F7xx_HAL_Driver/Inc/stm32f7xx_ll_dma.h ****   *         @arg @ref LL_DMA_MDATAALIGN_BYTE
 827:Drivers/STM32F7xx_HAL_Driver/Inc/stm32f7xx_ll_dma.h ****   *         @arg @ref LL_DMA_MDATAALIGN_HALFWORD
 828:Drivers/STM32F7xx_HAL_Driver/Inc/stm32f7xx_ll_dma.h ****   *         @arg @ref LL_DMA_MDATAALIGN_WORD
 829:Drivers/STM32F7xx_HAL_Driver/Inc/stm32f7xx_ll_dma.h ****   * @retval None
 830:Drivers/STM32F7xx_HAL_Driver/Inc/stm32f7xx_ll_dma.h ****   */
 831:Drivers/STM32F7xx_HAL_Driver/Inc/stm32f7xx_ll_dma.h **** __STATIC_INLINE void LL_DMA_SetMemorySize(DMA_TypeDef *DMAx, uint32_t Stream, uint32_t  Size)
 832:Drivers/STM32F7xx_HAL_Driver/Inc/stm32f7xx_ll_dma.h **** {
ARM GAS  /tmp/ccYTojEy.s 			page 35


 833:Drivers/STM32F7xx_HAL_Driver/Inc/stm32f7xx_ll_dma.h ****   MODIFY_REG(((DMA_Stream_TypeDef*)((uint32_t)((uint32_t)DMAx + STREAM_OFFSET_TAB[Stream])))->CR, D
 834:Drivers/STM32F7xx_HAL_Driver/Inc/stm32f7xx_ll_dma.h **** }
 835:Drivers/STM32F7xx_HAL_Driver/Inc/stm32f7xx_ll_dma.h **** 
 836:Drivers/STM32F7xx_HAL_Driver/Inc/stm32f7xx_ll_dma.h **** /**
 837:Drivers/STM32F7xx_HAL_Driver/Inc/stm32f7xx_ll_dma.h ****   * @brief Get Memory size.
 838:Drivers/STM32F7xx_HAL_Driver/Inc/stm32f7xx_ll_dma.h ****   * @rmtoll CR          MSIZE           LL_DMA_GetMemorySize
 839:Drivers/STM32F7xx_HAL_Driver/Inc/stm32f7xx_ll_dma.h ****   * @param  DMAx DMAx Instance
 840:Drivers/STM32F7xx_HAL_Driver/Inc/stm32f7xx_ll_dma.h ****   * @param  Stream This parameter can be one of the following values:
 841:Drivers/STM32F7xx_HAL_Driver/Inc/stm32f7xx_ll_dma.h ****   *         @arg @ref LL_DMA_STREAM_0
 842:Drivers/STM32F7xx_HAL_Driver/Inc/stm32f7xx_ll_dma.h ****   *         @arg @ref LL_DMA_STREAM_1
 843:Drivers/STM32F7xx_HAL_Driver/Inc/stm32f7xx_ll_dma.h ****   *         @arg @ref LL_DMA_STREAM_2
 844:Drivers/STM32F7xx_HAL_Driver/Inc/stm32f7xx_ll_dma.h ****   *         @arg @ref LL_DMA_STREAM_3
 845:Drivers/STM32F7xx_HAL_Driver/Inc/stm32f7xx_ll_dma.h ****   *         @arg @ref LL_DMA_STREAM_4
 846:Drivers/STM32F7xx_HAL_Driver/Inc/stm32f7xx_ll_dma.h ****   *         @arg @ref LL_DMA_STREAM_5
 847:Drivers/STM32F7xx_HAL_Driver/Inc/stm32f7xx_ll_dma.h ****   *         @arg @ref LL_DMA_STREAM_6
 848:Drivers/STM32F7xx_HAL_Driver/Inc/stm32f7xx_ll_dma.h ****   *         @arg @ref LL_DMA_STREAM_7
 849:Drivers/STM32F7xx_HAL_Driver/Inc/stm32f7xx_ll_dma.h ****   * @retval Returned value can be one of the following values:
 850:Drivers/STM32F7xx_HAL_Driver/Inc/stm32f7xx_ll_dma.h ****   *         @arg @ref LL_DMA_MDATAALIGN_BYTE
 851:Drivers/STM32F7xx_HAL_Driver/Inc/stm32f7xx_ll_dma.h ****   *         @arg @ref LL_DMA_MDATAALIGN_HALFWORD
 852:Drivers/STM32F7xx_HAL_Driver/Inc/stm32f7xx_ll_dma.h ****   *         @arg @ref LL_DMA_MDATAALIGN_WORD
 853:Drivers/STM32F7xx_HAL_Driver/Inc/stm32f7xx_ll_dma.h ****   */
 854:Drivers/STM32F7xx_HAL_Driver/Inc/stm32f7xx_ll_dma.h **** __STATIC_INLINE uint32_t LL_DMA_GetMemorySize(DMA_TypeDef *DMAx, uint32_t Stream)
 855:Drivers/STM32F7xx_HAL_Driver/Inc/stm32f7xx_ll_dma.h **** {
 856:Drivers/STM32F7xx_HAL_Driver/Inc/stm32f7xx_ll_dma.h ****   return (READ_BIT(((DMA_Stream_TypeDef*)((uint32_t)((uint32_t)DMAx + STREAM_OFFSET_TAB[Stream])))-
 857:Drivers/STM32F7xx_HAL_Driver/Inc/stm32f7xx_ll_dma.h **** }
 858:Drivers/STM32F7xx_HAL_Driver/Inc/stm32f7xx_ll_dma.h **** 
 859:Drivers/STM32F7xx_HAL_Driver/Inc/stm32f7xx_ll_dma.h **** /**
 860:Drivers/STM32F7xx_HAL_Driver/Inc/stm32f7xx_ll_dma.h ****   * @brief Set Peripheral increment offset size.
 861:Drivers/STM32F7xx_HAL_Driver/Inc/stm32f7xx_ll_dma.h ****   * @rmtoll CR          PINCOS           LL_DMA_SetIncOffsetSize
 862:Drivers/STM32F7xx_HAL_Driver/Inc/stm32f7xx_ll_dma.h ****   * @param  DMAx DMAx Instance
 863:Drivers/STM32F7xx_HAL_Driver/Inc/stm32f7xx_ll_dma.h ****   * @param  Stream This parameter can be one of the following values:
 864:Drivers/STM32F7xx_HAL_Driver/Inc/stm32f7xx_ll_dma.h ****   *         @arg @ref LL_DMA_STREAM_0
 865:Drivers/STM32F7xx_HAL_Driver/Inc/stm32f7xx_ll_dma.h ****   *         @arg @ref LL_DMA_STREAM_1
 866:Drivers/STM32F7xx_HAL_Driver/Inc/stm32f7xx_ll_dma.h ****   *         @arg @ref LL_DMA_STREAM_2
 867:Drivers/STM32F7xx_HAL_Driver/Inc/stm32f7xx_ll_dma.h ****   *         @arg @ref LL_DMA_STREAM_3
 868:Drivers/STM32F7xx_HAL_Driver/Inc/stm32f7xx_ll_dma.h ****   *         @arg @ref LL_DMA_STREAM_4
 869:Drivers/STM32F7xx_HAL_Driver/Inc/stm32f7xx_ll_dma.h ****   *         @arg @ref LL_DMA_STREAM_5
 870:Drivers/STM32F7xx_HAL_Driver/Inc/stm32f7xx_ll_dma.h ****   *         @arg @ref LL_DMA_STREAM_6
 871:Drivers/STM32F7xx_HAL_Driver/Inc/stm32f7xx_ll_dma.h ****   *         @arg @ref LL_DMA_STREAM_7
 872:Drivers/STM32F7xx_HAL_Driver/Inc/stm32f7xx_ll_dma.h ****   * @param  OffsetSize This parameter can be one of the following values:
 873:Drivers/STM32F7xx_HAL_Driver/Inc/stm32f7xx_ll_dma.h ****   *         @arg @ref LL_DMA_OFFSETSIZE_PSIZE
 874:Drivers/STM32F7xx_HAL_Driver/Inc/stm32f7xx_ll_dma.h ****   *         @arg @ref LL_DMA_OFFSETSIZE_FIXEDTO4
 875:Drivers/STM32F7xx_HAL_Driver/Inc/stm32f7xx_ll_dma.h ****   * @retval None
 876:Drivers/STM32F7xx_HAL_Driver/Inc/stm32f7xx_ll_dma.h ****   */
 877:Drivers/STM32F7xx_HAL_Driver/Inc/stm32f7xx_ll_dma.h **** __STATIC_INLINE void LL_DMA_SetIncOffsetSize(DMA_TypeDef *DMAx, uint32_t Stream, uint32_t OffsetSiz
 878:Drivers/STM32F7xx_HAL_Driver/Inc/stm32f7xx_ll_dma.h **** {
 879:Drivers/STM32F7xx_HAL_Driver/Inc/stm32f7xx_ll_dma.h ****   MODIFY_REG(((DMA_Stream_TypeDef*)((uint32_t)((uint32_t)DMAx + STREAM_OFFSET_TAB[Stream])))->CR, D
 880:Drivers/STM32F7xx_HAL_Driver/Inc/stm32f7xx_ll_dma.h **** }
 881:Drivers/STM32F7xx_HAL_Driver/Inc/stm32f7xx_ll_dma.h **** 
 882:Drivers/STM32F7xx_HAL_Driver/Inc/stm32f7xx_ll_dma.h **** /**
 883:Drivers/STM32F7xx_HAL_Driver/Inc/stm32f7xx_ll_dma.h ****   * @brief Get Peripheral increment offset size.
 884:Drivers/STM32F7xx_HAL_Driver/Inc/stm32f7xx_ll_dma.h ****   * @rmtoll CR          PINCOS           LL_DMA_GetIncOffsetSize
 885:Drivers/STM32F7xx_HAL_Driver/Inc/stm32f7xx_ll_dma.h ****   * @param  DMAx DMAx Instance
 886:Drivers/STM32F7xx_HAL_Driver/Inc/stm32f7xx_ll_dma.h ****   * @param  Stream This parameter can be one of the following values:
 887:Drivers/STM32F7xx_HAL_Driver/Inc/stm32f7xx_ll_dma.h ****   *         @arg @ref LL_DMA_STREAM_0
 888:Drivers/STM32F7xx_HAL_Driver/Inc/stm32f7xx_ll_dma.h ****   *         @arg @ref LL_DMA_STREAM_1
 889:Drivers/STM32F7xx_HAL_Driver/Inc/stm32f7xx_ll_dma.h ****   *         @arg @ref LL_DMA_STREAM_2
ARM GAS  /tmp/ccYTojEy.s 			page 36


 890:Drivers/STM32F7xx_HAL_Driver/Inc/stm32f7xx_ll_dma.h ****   *         @arg @ref LL_DMA_STREAM_3
 891:Drivers/STM32F7xx_HAL_Driver/Inc/stm32f7xx_ll_dma.h ****   *         @arg @ref LL_DMA_STREAM_4
 892:Drivers/STM32F7xx_HAL_Driver/Inc/stm32f7xx_ll_dma.h ****   *         @arg @ref LL_DMA_STREAM_5
 893:Drivers/STM32F7xx_HAL_Driver/Inc/stm32f7xx_ll_dma.h ****   *         @arg @ref LL_DMA_STREAM_6
 894:Drivers/STM32F7xx_HAL_Driver/Inc/stm32f7xx_ll_dma.h ****   *         @arg @ref LL_DMA_STREAM_7
 895:Drivers/STM32F7xx_HAL_Driver/Inc/stm32f7xx_ll_dma.h ****   * @retval Returned value can be one of the following values:
 896:Drivers/STM32F7xx_HAL_Driver/Inc/stm32f7xx_ll_dma.h ****   *         @arg @ref LL_DMA_OFFSETSIZE_PSIZE
 897:Drivers/STM32F7xx_HAL_Driver/Inc/stm32f7xx_ll_dma.h ****   *         @arg @ref LL_DMA_OFFSETSIZE_FIXEDTO4
 898:Drivers/STM32F7xx_HAL_Driver/Inc/stm32f7xx_ll_dma.h ****   */
 899:Drivers/STM32F7xx_HAL_Driver/Inc/stm32f7xx_ll_dma.h **** __STATIC_INLINE uint32_t LL_DMA_GetIncOffsetSize(DMA_TypeDef *DMAx, uint32_t Stream)
 900:Drivers/STM32F7xx_HAL_Driver/Inc/stm32f7xx_ll_dma.h **** {
 901:Drivers/STM32F7xx_HAL_Driver/Inc/stm32f7xx_ll_dma.h ****   return (READ_BIT(((DMA_Stream_TypeDef*)((uint32_t)((uint32_t)DMAx + STREAM_OFFSET_TAB[Stream])))-
 902:Drivers/STM32F7xx_HAL_Driver/Inc/stm32f7xx_ll_dma.h **** }
 903:Drivers/STM32F7xx_HAL_Driver/Inc/stm32f7xx_ll_dma.h **** 
 904:Drivers/STM32F7xx_HAL_Driver/Inc/stm32f7xx_ll_dma.h **** /**
 905:Drivers/STM32F7xx_HAL_Driver/Inc/stm32f7xx_ll_dma.h ****   * @brief Set Stream priority level.
 906:Drivers/STM32F7xx_HAL_Driver/Inc/stm32f7xx_ll_dma.h ****   * @rmtoll CR          PL           LL_DMA_SetStreamPriorityLevel
 907:Drivers/STM32F7xx_HAL_Driver/Inc/stm32f7xx_ll_dma.h ****   * @param  DMAx DMAx Instance
 908:Drivers/STM32F7xx_HAL_Driver/Inc/stm32f7xx_ll_dma.h ****   * @param  Stream This parameter can be one of the following values:
 909:Drivers/STM32F7xx_HAL_Driver/Inc/stm32f7xx_ll_dma.h ****   *         @arg @ref LL_DMA_STREAM_0
 910:Drivers/STM32F7xx_HAL_Driver/Inc/stm32f7xx_ll_dma.h ****   *         @arg @ref LL_DMA_STREAM_1
 911:Drivers/STM32F7xx_HAL_Driver/Inc/stm32f7xx_ll_dma.h ****   *         @arg @ref LL_DMA_STREAM_2
 912:Drivers/STM32F7xx_HAL_Driver/Inc/stm32f7xx_ll_dma.h ****   *         @arg @ref LL_DMA_STREAM_3
 913:Drivers/STM32F7xx_HAL_Driver/Inc/stm32f7xx_ll_dma.h ****   *         @arg @ref LL_DMA_STREAM_4
 914:Drivers/STM32F7xx_HAL_Driver/Inc/stm32f7xx_ll_dma.h ****   *         @arg @ref LL_DMA_STREAM_5
 915:Drivers/STM32F7xx_HAL_Driver/Inc/stm32f7xx_ll_dma.h ****   *         @arg @ref LL_DMA_STREAM_6
 916:Drivers/STM32F7xx_HAL_Driver/Inc/stm32f7xx_ll_dma.h ****   *         @arg @ref LL_DMA_STREAM_7
 917:Drivers/STM32F7xx_HAL_Driver/Inc/stm32f7xx_ll_dma.h ****   * @param  Priority This parameter can be one of the following values:
 918:Drivers/STM32F7xx_HAL_Driver/Inc/stm32f7xx_ll_dma.h ****   *         @arg @ref LL_DMA_PRIORITY_LOW
 919:Drivers/STM32F7xx_HAL_Driver/Inc/stm32f7xx_ll_dma.h ****   *         @arg @ref LL_DMA_PRIORITY_MEDIUM
 920:Drivers/STM32F7xx_HAL_Driver/Inc/stm32f7xx_ll_dma.h ****   *         @arg @ref LL_DMA_PRIORITY_HIGH
 921:Drivers/STM32F7xx_HAL_Driver/Inc/stm32f7xx_ll_dma.h ****   *         @arg @ref LL_DMA_PRIORITY_VERYHIGH
 922:Drivers/STM32F7xx_HAL_Driver/Inc/stm32f7xx_ll_dma.h ****   * @retval None
 923:Drivers/STM32F7xx_HAL_Driver/Inc/stm32f7xx_ll_dma.h ****   */
 924:Drivers/STM32F7xx_HAL_Driver/Inc/stm32f7xx_ll_dma.h **** __STATIC_INLINE void LL_DMA_SetStreamPriorityLevel(DMA_TypeDef *DMAx, uint32_t Stream, uint32_t  Pr
 925:Drivers/STM32F7xx_HAL_Driver/Inc/stm32f7xx_ll_dma.h **** {
 926:Drivers/STM32F7xx_HAL_Driver/Inc/stm32f7xx_ll_dma.h ****   MODIFY_REG(((DMA_Stream_TypeDef*)((uint32_t)((uint32_t)DMAx + STREAM_OFFSET_TAB[Stream])))->CR, D
 927:Drivers/STM32F7xx_HAL_Driver/Inc/stm32f7xx_ll_dma.h **** }
 928:Drivers/STM32F7xx_HAL_Driver/Inc/stm32f7xx_ll_dma.h **** 
 929:Drivers/STM32F7xx_HAL_Driver/Inc/stm32f7xx_ll_dma.h **** /**
 930:Drivers/STM32F7xx_HAL_Driver/Inc/stm32f7xx_ll_dma.h ****   * @brief Get Stream priority level.
 931:Drivers/STM32F7xx_HAL_Driver/Inc/stm32f7xx_ll_dma.h ****   * @rmtoll CR          PL           LL_DMA_GetStreamPriorityLevel
 932:Drivers/STM32F7xx_HAL_Driver/Inc/stm32f7xx_ll_dma.h ****   * @param  DMAx DMAx Instance
 933:Drivers/STM32F7xx_HAL_Driver/Inc/stm32f7xx_ll_dma.h ****   * @param  Stream This parameter can be one of the following values:
 934:Drivers/STM32F7xx_HAL_Driver/Inc/stm32f7xx_ll_dma.h ****   *         @arg @ref LL_DMA_STREAM_0
 935:Drivers/STM32F7xx_HAL_Driver/Inc/stm32f7xx_ll_dma.h ****   *         @arg @ref LL_DMA_STREAM_1
 936:Drivers/STM32F7xx_HAL_Driver/Inc/stm32f7xx_ll_dma.h ****   *         @arg @ref LL_DMA_STREAM_2
 937:Drivers/STM32F7xx_HAL_Driver/Inc/stm32f7xx_ll_dma.h ****   *         @arg @ref LL_DMA_STREAM_3
 938:Drivers/STM32F7xx_HAL_Driver/Inc/stm32f7xx_ll_dma.h ****   *         @arg @ref LL_DMA_STREAM_4
 939:Drivers/STM32F7xx_HAL_Driver/Inc/stm32f7xx_ll_dma.h ****   *         @arg @ref LL_DMA_STREAM_5
 940:Drivers/STM32F7xx_HAL_Driver/Inc/stm32f7xx_ll_dma.h ****   *         @arg @ref LL_DMA_STREAM_6
 941:Drivers/STM32F7xx_HAL_Driver/Inc/stm32f7xx_ll_dma.h ****   *         @arg @ref LL_DMA_STREAM_7
 942:Drivers/STM32F7xx_HAL_Driver/Inc/stm32f7xx_ll_dma.h ****   * @retval Returned value can be one of the following values:
 943:Drivers/STM32F7xx_HAL_Driver/Inc/stm32f7xx_ll_dma.h ****   *         @arg @ref LL_DMA_PRIORITY_LOW
 944:Drivers/STM32F7xx_HAL_Driver/Inc/stm32f7xx_ll_dma.h ****   *         @arg @ref LL_DMA_PRIORITY_MEDIUM
 945:Drivers/STM32F7xx_HAL_Driver/Inc/stm32f7xx_ll_dma.h ****   *         @arg @ref LL_DMA_PRIORITY_HIGH
 946:Drivers/STM32F7xx_HAL_Driver/Inc/stm32f7xx_ll_dma.h ****   *         @arg @ref LL_DMA_PRIORITY_VERYHIGH
ARM GAS  /tmp/ccYTojEy.s 			page 37


 947:Drivers/STM32F7xx_HAL_Driver/Inc/stm32f7xx_ll_dma.h ****   */
 948:Drivers/STM32F7xx_HAL_Driver/Inc/stm32f7xx_ll_dma.h **** __STATIC_INLINE uint32_t LL_DMA_GetStreamPriorityLevel(DMA_TypeDef *DMAx, uint32_t Stream)
 949:Drivers/STM32F7xx_HAL_Driver/Inc/stm32f7xx_ll_dma.h **** {
 950:Drivers/STM32F7xx_HAL_Driver/Inc/stm32f7xx_ll_dma.h ****   return (READ_BIT(((DMA_Stream_TypeDef*)((uint32_t)((uint32_t)DMAx + STREAM_OFFSET_TAB[Stream])))-
 951:Drivers/STM32F7xx_HAL_Driver/Inc/stm32f7xx_ll_dma.h **** }
 952:Drivers/STM32F7xx_HAL_Driver/Inc/stm32f7xx_ll_dma.h **** 
 953:Drivers/STM32F7xx_HAL_Driver/Inc/stm32f7xx_ll_dma.h **** /**
 954:Drivers/STM32F7xx_HAL_Driver/Inc/stm32f7xx_ll_dma.h ****   * @brief Set Number of data to transfer.
 955:Drivers/STM32F7xx_HAL_Driver/Inc/stm32f7xx_ll_dma.h ****   * @rmtoll NDTR          NDT           LL_DMA_SetDataLength
 956:Drivers/STM32F7xx_HAL_Driver/Inc/stm32f7xx_ll_dma.h ****   * @note   This action has no effect if
 957:Drivers/STM32F7xx_HAL_Driver/Inc/stm32f7xx_ll_dma.h ****   *         stream is enabled.
 958:Drivers/STM32F7xx_HAL_Driver/Inc/stm32f7xx_ll_dma.h ****   * @param  DMAx DMAx Instance
 959:Drivers/STM32F7xx_HAL_Driver/Inc/stm32f7xx_ll_dma.h ****   * @param  Stream This parameter can be one of the following values:
 960:Drivers/STM32F7xx_HAL_Driver/Inc/stm32f7xx_ll_dma.h ****   *         @arg @ref LL_DMA_STREAM_0
 961:Drivers/STM32F7xx_HAL_Driver/Inc/stm32f7xx_ll_dma.h ****   *         @arg @ref LL_DMA_STREAM_1
 962:Drivers/STM32F7xx_HAL_Driver/Inc/stm32f7xx_ll_dma.h ****   *         @arg @ref LL_DMA_STREAM_2
 963:Drivers/STM32F7xx_HAL_Driver/Inc/stm32f7xx_ll_dma.h ****   *         @arg @ref LL_DMA_STREAM_3
 964:Drivers/STM32F7xx_HAL_Driver/Inc/stm32f7xx_ll_dma.h ****   *         @arg @ref LL_DMA_STREAM_4
 965:Drivers/STM32F7xx_HAL_Driver/Inc/stm32f7xx_ll_dma.h ****   *         @arg @ref LL_DMA_STREAM_5
 966:Drivers/STM32F7xx_HAL_Driver/Inc/stm32f7xx_ll_dma.h ****   *         @arg @ref LL_DMA_STREAM_6
 967:Drivers/STM32F7xx_HAL_Driver/Inc/stm32f7xx_ll_dma.h ****   *         @arg @ref LL_DMA_STREAM_7
 968:Drivers/STM32F7xx_HAL_Driver/Inc/stm32f7xx_ll_dma.h ****   * @param  NbData Between 0 to 0xFFFFFFFF
 969:Drivers/STM32F7xx_HAL_Driver/Inc/stm32f7xx_ll_dma.h ****   * @retval None
 970:Drivers/STM32F7xx_HAL_Driver/Inc/stm32f7xx_ll_dma.h ****   */
 971:Drivers/STM32F7xx_HAL_Driver/Inc/stm32f7xx_ll_dma.h **** __STATIC_INLINE void LL_DMA_SetDataLength(DMA_TypeDef* DMAx, uint32_t Stream, uint32_t NbData)
 972:Drivers/STM32F7xx_HAL_Driver/Inc/stm32f7xx_ll_dma.h **** {
 973:Drivers/STM32F7xx_HAL_Driver/Inc/stm32f7xx_ll_dma.h ****   MODIFY_REG(((DMA_Stream_TypeDef*)((uint32_t)((uint32_t)DMAx + STREAM_OFFSET_TAB[Stream])))->NDTR,
 974:Drivers/STM32F7xx_HAL_Driver/Inc/stm32f7xx_ll_dma.h **** }
 975:Drivers/STM32F7xx_HAL_Driver/Inc/stm32f7xx_ll_dma.h **** 
 976:Drivers/STM32F7xx_HAL_Driver/Inc/stm32f7xx_ll_dma.h **** /**
 977:Drivers/STM32F7xx_HAL_Driver/Inc/stm32f7xx_ll_dma.h ****   * @brief Get Number of data to transfer.
 978:Drivers/STM32F7xx_HAL_Driver/Inc/stm32f7xx_ll_dma.h ****   * @rmtoll NDTR          NDT           LL_DMA_GetDataLength
 979:Drivers/STM32F7xx_HAL_Driver/Inc/stm32f7xx_ll_dma.h ****   * @note   Once the stream is enabled, the return value indicate the
 980:Drivers/STM32F7xx_HAL_Driver/Inc/stm32f7xx_ll_dma.h ****   *         remaining bytes to be transmitted.
 981:Drivers/STM32F7xx_HAL_Driver/Inc/stm32f7xx_ll_dma.h ****   * @param  DMAx DMAx Instance
 982:Drivers/STM32F7xx_HAL_Driver/Inc/stm32f7xx_ll_dma.h ****   * @param  Stream This parameter can be one of the following values:
 983:Drivers/STM32F7xx_HAL_Driver/Inc/stm32f7xx_ll_dma.h ****   *         @arg @ref LL_DMA_STREAM_0
 984:Drivers/STM32F7xx_HAL_Driver/Inc/stm32f7xx_ll_dma.h ****   *         @arg @ref LL_DMA_STREAM_1
 985:Drivers/STM32F7xx_HAL_Driver/Inc/stm32f7xx_ll_dma.h ****   *         @arg @ref LL_DMA_STREAM_2
 986:Drivers/STM32F7xx_HAL_Driver/Inc/stm32f7xx_ll_dma.h ****   *         @arg @ref LL_DMA_STREAM_3
 987:Drivers/STM32F7xx_HAL_Driver/Inc/stm32f7xx_ll_dma.h ****   *         @arg @ref LL_DMA_STREAM_4
 988:Drivers/STM32F7xx_HAL_Driver/Inc/stm32f7xx_ll_dma.h ****   *         @arg @ref LL_DMA_STREAM_5
 989:Drivers/STM32F7xx_HAL_Driver/Inc/stm32f7xx_ll_dma.h ****   *         @arg @ref LL_DMA_STREAM_6
 990:Drivers/STM32F7xx_HAL_Driver/Inc/stm32f7xx_ll_dma.h ****   *         @arg @ref LL_DMA_STREAM_7
 991:Drivers/STM32F7xx_HAL_Driver/Inc/stm32f7xx_ll_dma.h ****   * @retval Between 0 to 0xFFFFFFFF
 992:Drivers/STM32F7xx_HAL_Driver/Inc/stm32f7xx_ll_dma.h ****   */
 993:Drivers/STM32F7xx_HAL_Driver/Inc/stm32f7xx_ll_dma.h **** __STATIC_INLINE uint32_t LL_DMA_GetDataLength(DMA_TypeDef* DMAx, uint32_t Stream)
 994:Drivers/STM32F7xx_HAL_Driver/Inc/stm32f7xx_ll_dma.h **** {
 995:Drivers/STM32F7xx_HAL_Driver/Inc/stm32f7xx_ll_dma.h ****   return (READ_BIT(((DMA_Stream_TypeDef*)((uint32_t)((uint32_t)DMAx + STREAM_OFFSET_TAB[Stream])))-
 996:Drivers/STM32F7xx_HAL_Driver/Inc/stm32f7xx_ll_dma.h **** }
 997:Drivers/STM32F7xx_HAL_Driver/Inc/stm32f7xx_ll_dma.h **** 
 998:Drivers/STM32F7xx_HAL_Driver/Inc/stm32f7xx_ll_dma.h **** /**
 999:Drivers/STM32F7xx_HAL_Driver/Inc/stm32f7xx_ll_dma.h ****   * @brief Select Channel number associated to the Stream.
1000:Drivers/STM32F7xx_HAL_Driver/Inc/stm32f7xx_ll_dma.h ****   * @rmtoll CR          CHSEL           LL_DMA_SetChannelSelection
1001:Drivers/STM32F7xx_HAL_Driver/Inc/stm32f7xx_ll_dma.h ****   * @param  DMAx DMAx Instance
1002:Drivers/STM32F7xx_HAL_Driver/Inc/stm32f7xx_ll_dma.h ****   * @param  Stream This parameter can be one of the following values:
1003:Drivers/STM32F7xx_HAL_Driver/Inc/stm32f7xx_ll_dma.h ****   *         @arg @ref LL_DMA_STREAM_0
ARM GAS  /tmp/ccYTojEy.s 			page 38


1004:Drivers/STM32F7xx_HAL_Driver/Inc/stm32f7xx_ll_dma.h ****   *         @arg @ref LL_DMA_STREAM_1
1005:Drivers/STM32F7xx_HAL_Driver/Inc/stm32f7xx_ll_dma.h ****   *         @arg @ref LL_DMA_STREAM_2
1006:Drivers/STM32F7xx_HAL_Driver/Inc/stm32f7xx_ll_dma.h ****   *         @arg @ref LL_DMA_STREAM_3
1007:Drivers/STM32F7xx_HAL_Driver/Inc/stm32f7xx_ll_dma.h ****   *         @arg @ref LL_DMA_STREAM_4
1008:Drivers/STM32F7xx_HAL_Driver/Inc/stm32f7xx_ll_dma.h ****   *         @arg @ref LL_DMA_STREAM_5
1009:Drivers/STM32F7xx_HAL_Driver/Inc/stm32f7xx_ll_dma.h ****   *         @arg @ref LL_DMA_STREAM_6
1010:Drivers/STM32F7xx_HAL_Driver/Inc/stm32f7xx_ll_dma.h ****   *         @arg @ref LL_DMA_STREAM_7
1011:Drivers/STM32F7xx_HAL_Driver/Inc/stm32f7xx_ll_dma.h ****   * @param  Channel This parameter can be one of the following values:
1012:Drivers/STM32F7xx_HAL_Driver/Inc/stm32f7xx_ll_dma.h ****   *         @arg @ref LL_DMA_CHANNEL_0
1013:Drivers/STM32F7xx_HAL_Driver/Inc/stm32f7xx_ll_dma.h ****   *         @arg @ref LL_DMA_CHANNEL_1
1014:Drivers/STM32F7xx_HAL_Driver/Inc/stm32f7xx_ll_dma.h ****   *         @arg @ref LL_DMA_CHANNEL_2
1015:Drivers/STM32F7xx_HAL_Driver/Inc/stm32f7xx_ll_dma.h ****   *         @arg @ref LL_DMA_CHANNEL_3
1016:Drivers/STM32F7xx_HAL_Driver/Inc/stm32f7xx_ll_dma.h ****   *         @arg @ref LL_DMA_CHANNEL_4
1017:Drivers/STM32F7xx_HAL_Driver/Inc/stm32f7xx_ll_dma.h ****   *         @arg @ref LL_DMA_CHANNEL_5
1018:Drivers/STM32F7xx_HAL_Driver/Inc/stm32f7xx_ll_dma.h ****   *         @arg @ref LL_DMA_CHANNEL_6
1019:Drivers/STM32F7xx_HAL_Driver/Inc/stm32f7xx_ll_dma.h ****   *         @arg @ref LL_DMA_CHANNEL_7
1020:Drivers/STM32F7xx_HAL_Driver/Inc/stm32f7xx_ll_dma.h ****   *         @arg @ref LL_DMA_CHANNEL_8 (*)
1021:Drivers/STM32F7xx_HAL_Driver/Inc/stm32f7xx_ll_dma.h ****   *         @arg @ref LL_DMA_CHANNEL_9 (*)
1022:Drivers/STM32F7xx_HAL_Driver/Inc/stm32f7xx_ll_dma.h ****   *         @arg @ref LL_DMA_CHANNEL_10 (*)
1023:Drivers/STM32F7xx_HAL_Driver/Inc/stm32f7xx_ll_dma.h ****   *         @arg @ref LL_DMA_CHANNEL_11 (*)
1024:Drivers/STM32F7xx_HAL_Driver/Inc/stm32f7xx_ll_dma.h ****   *         @arg @ref LL_DMA_CHANNEL_12 (*)
1025:Drivers/STM32F7xx_HAL_Driver/Inc/stm32f7xx_ll_dma.h ****   *         @arg @ref LL_DMA_CHANNEL_13 (*)
1026:Drivers/STM32F7xx_HAL_Driver/Inc/stm32f7xx_ll_dma.h ****   *         @arg @ref LL_DMA_CHANNEL_14 (*)
1027:Drivers/STM32F7xx_HAL_Driver/Inc/stm32f7xx_ll_dma.h ****   *         @arg @ref LL_DMA_CHANNEL_15 (*)
1028:Drivers/STM32F7xx_HAL_Driver/Inc/stm32f7xx_ll_dma.h ****   *
1029:Drivers/STM32F7xx_HAL_Driver/Inc/stm32f7xx_ll_dma.h ****   *         (*) value not defined in all devices.
1030:Drivers/STM32F7xx_HAL_Driver/Inc/stm32f7xx_ll_dma.h ****   * @retval None
1031:Drivers/STM32F7xx_HAL_Driver/Inc/stm32f7xx_ll_dma.h ****   */
1032:Drivers/STM32F7xx_HAL_Driver/Inc/stm32f7xx_ll_dma.h **** __STATIC_INLINE void LL_DMA_SetChannelSelection(DMA_TypeDef *DMAx, uint32_t Stream, uint32_t Channe
 273              		.loc 2 1032 22 view .LVU66
 274              	.LBB45:
1033:Drivers/STM32F7xx_HAL_Driver/Inc/stm32f7xx_ll_dma.h **** {
1034:Drivers/STM32F7xx_HAL_Driver/Inc/stm32f7xx_ll_dma.h ****   MODIFY_REG(((DMA_Stream_TypeDef*)((uint32_t)((uint32_t)DMAx + STREAM_OFFSET_TAB[Stream])))->CR, D
 275              		.loc 2 1034 3 view .LVU67
 276 010c 50F80C30 		ldr	r3, [r0, ip]
 277              	.LVL15:
 278              		.loc 2 1034 3 is_stmt 0 view .LVU68
 279 0110 23F0F053 		bic	r3, r3, #503316480
 280 0114 40F80C30 		str	r3, [r0, ip]
 281              	.LVL16:
 282              		.loc 2 1034 3 view .LVU69
 283              	.LBE45:
 284              	.LBE44:
 236:Drivers/STM32F7xx_HAL_Driver/Src/stm32f7xx_ll_dma.c ****     {
 285              		.loc 1 236 5 is_stmt 1 view .LVU70
 236:Drivers/STM32F7xx_HAL_Driver/Src/stm32f7xx_ll_dma.c ****     {
 286              		.loc 1 236 7 is_stmt 0 view .LVU71
 287 0118 F9B9     		cbnz	r1, .L6
 239:Drivers/STM32F7xx_HAL_Driver/Src/stm32f7xx_ll_dma.c ****     }
 288              		.loc 1 239 8 is_stmt 1 view .LVU72
 239:Drivers/STM32F7xx_HAL_Driver/Src/stm32f7xx_ll_dma.c ****     }
 289              		.loc 1 239 20 is_stmt 0 view .LVU73
 290 011a 3F23     		movs	r3, #63
 291 011c 8360     		str	r3, [r0, #8]
 179:Drivers/STM32F7xx_HAL_Driver/Src/stm32f7xx_ll_dma.c **** 
 292              		.loc 1 179 15 view .LVU74
 293 011e 0846     		mov	r0, r1
ARM GAS  /tmp/ccYTojEy.s 			page 39


 294              	.LVL17:
 295              	.L4:
 282:Drivers/STM32F7xx_HAL_Driver/Src/stm32f7xx_ll_dma.c **** }
 296              		.loc 1 282 3 is_stmt 1 view .LVU75
 297              		.loc 1 283 1 is_stmt 0 view .LVU76
 298 0120 10BD     		pop	{r4, pc}
 299              	.LVL18:
 300              	.L15:
 213:Drivers/STM32F7xx_HAL_Driver/Src/stm32f7xx_ll_dma.c **** 
 301              		.loc 1 213 9 discriminator 4 view .LVU77
 302 0122 2B4B     		ldr	r3, .L43+16
 303 0124 EAE7     		b	.L5
 304              	.L16:
 213:Drivers/STM32F7xx_HAL_Driver/Src/stm32f7xx_ll_dma.c **** 
 305              		.loc 1 213 9 discriminator 6 view .LVU78
 306 0126 2B4B     		ldr	r3, .L43+20
 307 0128 E8E7     		b	.L5
 308              	.L17:
 213:Drivers/STM32F7xx_HAL_Driver/Src/stm32f7xx_ll_dma.c **** 
 309              		.loc 1 213 9 discriminator 8 view .LVU79
 310 012a 2B4B     		ldr	r3, .L43+24
 311 012c E6E7     		b	.L5
 312              	.L18:
 213:Drivers/STM32F7xx_HAL_Driver/Src/stm32f7xx_ll_dma.c **** 
 313              		.loc 1 213 9 discriminator 10 view .LVU80
 314 012e 2B4B     		ldr	r3, .L43+28
 315 0130 E4E7     		b	.L5
 316              	.L19:
 213:Drivers/STM32F7xx_HAL_Driver/Src/stm32f7xx_ll_dma.c **** 
 317              		.loc 1 213 9 discriminator 12 view .LVU81
 318 0132 2B4B     		ldr	r3, .L43+32
 319 0134 E2E7     		b	.L5
 320              	.L20:
 213:Drivers/STM32F7xx_HAL_Driver/Src/stm32f7xx_ll_dma.c **** 
 321              		.loc 1 213 9 discriminator 14 view .LVU82
 322 0136 2B4B     		ldr	r3, .L43+36
 323 0138 E0E7     		b	.L5
 324              	.L21:
 213:Drivers/STM32F7xx_HAL_Driver/Src/stm32f7xx_ll_dma.c **** 
 325              		.loc 1 213 9 discriminator 16 view .LVU83
 326 013a 2B4B     		ldr	r3, .L43+40
 327 013c DEE7     		b	.L5
 328              	.L22:
 213:Drivers/STM32F7xx_HAL_Driver/Src/stm32f7xx_ll_dma.c **** 
 329              		.loc 1 213 9 discriminator 18 view .LVU84
 330 013e 2B4B     		ldr	r3, .L43+44
 331 0140 DCE7     		b	.L5
 332              	.L23:
 213:Drivers/STM32F7xx_HAL_Driver/Src/stm32f7xx_ll_dma.c **** 
 333              		.loc 1 213 9 discriminator 20 view .LVU85
 334 0142 2B4B     		ldr	r3, .L43+48
 335 0144 DAE7     		b	.L5
 336              	.L24:
 213:Drivers/STM32F7xx_HAL_Driver/Src/stm32f7xx_ll_dma.c **** 
 337              		.loc 1 213 9 discriminator 22 view .LVU86
 338 0146 2B4B     		ldr	r3, .L43+52
 339 0148 D8E7     		b	.L5
ARM GAS  /tmp/ccYTojEy.s 			page 40


 340              	.L25:
 213:Drivers/STM32F7xx_HAL_Driver/Src/stm32f7xx_ll_dma.c **** 
 341              		.loc 1 213 9 discriminator 24 view .LVU87
 342 014a 2B4B     		ldr	r3, .L43+56
 343 014c D6E7     		b	.L5
 344              	.L26:
 213:Drivers/STM32F7xx_HAL_Driver/Src/stm32f7xx_ll_dma.c **** 
 345              		.loc 1 213 9 discriminator 26 view .LVU88
 346 014e 2B4B     		ldr	r3, .L43+60
 347 0150 D4E7     		b	.L5
 348              	.L27:
 213:Drivers/STM32F7xx_HAL_Driver/Src/stm32f7xx_ll_dma.c **** 
 349              		.loc 1 213 9 discriminator 28 view .LVU89
 350 0152 2B4B     		ldr	r3, .L43+64
 351 0154 D2E7     		b	.L5
 352              	.L28:
 213:Drivers/STM32F7xx_HAL_Driver/Src/stm32f7xx_ll_dma.c **** 
 353              		.loc 1 213 9 discriminator 30 view .LVU90
 354 0156 2B4B     		ldr	r3, .L43+68
 355 0158 D0E7     		b	.L5
 356              	.LVL19:
 357              	.L6:
 241:Drivers/STM32F7xx_HAL_Driver/Src/stm32f7xx_ll_dma.c ****     {
 358              		.loc 1 241 10 is_stmt 1 view .LVU91
 241:Drivers/STM32F7xx_HAL_Driver/Src/stm32f7xx_ll_dma.c ****     {
 359              		.loc 1 241 12 is_stmt 0 view .LVU92
 360 015a 0129     		cmp	r1, #1
 361 015c 0DD0     		beq	.L36
 246:Drivers/STM32F7xx_HAL_Driver/Src/stm32f7xx_ll_dma.c ****     {
 362              		.loc 1 246 10 is_stmt 1 view .LVU93
 246:Drivers/STM32F7xx_HAL_Driver/Src/stm32f7xx_ll_dma.c ****     {
 363              		.loc 1 246 12 is_stmt 0 view .LVU94
 364 015e 0229     		cmp	r1, #2
 365 0160 10D0     		beq	.L37
 251:Drivers/STM32F7xx_HAL_Driver/Src/stm32f7xx_ll_dma.c ****     {
 366              		.loc 1 251 10 is_stmt 1 view .LVU95
 251:Drivers/STM32F7xx_HAL_Driver/Src/stm32f7xx_ll_dma.c ****     {
 367              		.loc 1 251 12 is_stmt 0 view .LVU96
 368 0162 0329     		cmp	r1, #3
 369 0164 13D0     		beq	.L38
 256:Drivers/STM32F7xx_HAL_Driver/Src/stm32f7xx_ll_dma.c ****     {
 370              		.loc 1 256 10 is_stmt 1 view .LVU97
 256:Drivers/STM32F7xx_HAL_Driver/Src/stm32f7xx_ll_dma.c ****     {
 371              		.loc 1 256 12 is_stmt 0 view .LVU98
 372 0166 0429     		cmp	r1, #4
 373 0168 16D0     		beq	.L39
 261:Drivers/STM32F7xx_HAL_Driver/Src/stm32f7xx_ll_dma.c ****     {
 374              		.loc 1 261 10 is_stmt 1 view .LVU99
 261:Drivers/STM32F7xx_HAL_Driver/Src/stm32f7xx_ll_dma.c ****     {
 375              		.loc 1 261 12 is_stmt 0 view .LVU100
 376 016a 0529     		cmp	r1, #5
 377 016c 18D0     		beq	.L40
 266:Drivers/STM32F7xx_HAL_Driver/Src/stm32f7xx_ll_dma.c ****     {
 378              		.loc 1 266 10 is_stmt 1 view .LVU101
 266:Drivers/STM32F7xx_HAL_Driver/Src/stm32f7xx_ll_dma.c ****     {
 379              		.loc 1 266 12 is_stmt 0 view .LVU102
 380 016e 0629     		cmp	r1, #6
ARM GAS  /tmp/ccYTojEy.s 			page 41


 381 0170 1BD0     		beq	.L41
 271:Drivers/STM32F7xx_HAL_Driver/Src/stm32f7xx_ll_dma.c ****     {
 382              		.loc 1 271 10 is_stmt 1 view .LVU103
 271:Drivers/STM32F7xx_HAL_Driver/Src/stm32f7xx_ll_dma.c ****     {
 383              		.loc 1 271 12 is_stmt 0 view .LVU104
 384 0172 0729     		cmp	r1, #7
 385 0174 1ED0     		beq	.L42
 278:Drivers/STM32F7xx_HAL_Driver/Src/stm32f7xx_ll_dma.c ****     }
 386              		.loc 1 278 14 view .LVU105
 387 0176 0120     		movs	r0, #1
 388              	.LVL20:
 278:Drivers/STM32F7xx_HAL_Driver/Src/stm32f7xx_ll_dma.c ****     }
 389              		.loc 1 278 14 view .LVU106
 390 0178 D2E7     		b	.L4
 391              	.LVL21:
 392              	.L36:
 244:Drivers/STM32F7xx_HAL_Driver/Src/stm32f7xx_ll_dma.c ****     }
 393              		.loc 1 244 8 is_stmt 1 view .LVU107
 244:Drivers/STM32F7xx_HAL_Driver/Src/stm32f7xx_ll_dma.c ****     }
 394              		.loc 1 244 20 is_stmt 0 view .LVU108
 395 017a 4FF47463 		mov	r3, #3904
 396 017e 8360     		str	r3, [r0, #8]
 179:Drivers/STM32F7xx_HAL_Driver/Src/stm32f7xx_ll_dma.c **** 
 397              		.loc 1 179 15 view .LVU109
 398 0180 0020     		movs	r0, #0
 399              	.LVL22:
 179:Drivers/STM32F7xx_HAL_Driver/Src/stm32f7xx_ll_dma.c **** 
 400              		.loc 1 179 15 view .LVU110
 401 0182 CDE7     		b	.L4
 402              	.LVL23:
 403              	.L37:
 249:Drivers/STM32F7xx_HAL_Driver/Src/stm32f7xx_ll_dma.c ****     }
 404              		.loc 1 249 8 is_stmt 1 view .LVU111
 249:Drivers/STM32F7xx_HAL_Driver/Src/stm32f7xx_ll_dma.c ****     }
 405              		.loc 1 249 20 is_stmt 0 view .LVU112
 406 0184 4FF47C13 		mov	r3, #4128768
 407 0188 8360     		str	r3, [r0, #8]
 179:Drivers/STM32F7xx_HAL_Driver/Src/stm32f7xx_ll_dma.c **** 
 408              		.loc 1 179 15 view .LVU113
 409 018a 0020     		movs	r0, #0
 410              	.LVL24:
 179:Drivers/STM32F7xx_HAL_Driver/Src/stm32f7xx_ll_dma.c **** 
 411              		.loc 1 179 15 view .LVU114
 412 018c C8E7     		b	.L4
 413              	.LVL25:
 414              	.L38:
 254:Drivers/STM32F7xx_HAL_Driver/Src/stm32f7xx_ll_dma.c ****     }
 415              		.loc 1 254 8 is_stmt 1 view .LVU115
 254:Drivers/STM32F7xx_HAL_Driver/Src/stm32f7xx_ll_dma.c ****     }
 416              		.loc 1 254 20 is_stmt 0 view .LVU116
 417 018e 4FF07463 		mov	r3, #255852544
 418 0192 8360     		str	r3, [r0, #8]
 179:Drivers/STM32F7xx_HAL_Driver/Src/stm32f7xx_ll_dma.c **** 
 419              		.loc 1 179 15 view .LVU117
 420 0194 0020     		movs	r0, #0
 421              	.LVL26:
 179:Drivers/STM32F7xx_HAL_Driver/Src/stm32f7xx_ll_dma.c **** 
ARM GAS  /tmp/ccYTojEy.s 			page 42


 422              		.loc 1 179 15 view .LVU118
 423 0196 C3E7     		b	.L4
 424              	.LVL27:
 425              	.L39:
 259:Drivers/STM32F7xx_HAL_Driver/Src/stm32f7xx_ll_dma.c ****     }
 426              		.loc 1 259 8 is_stmt 1 view .LVU119
 259:Drivers/STM32F7xx_HAL_Driver/Src/stm32f7xx_ll_dma.c ****     }
 427              		.loc 1 259 20 is_stmt 0 view .LVU120
 428 0198 3F23     		movs	r3, #63
 429 019a C360     		str	r3, [r0, #12]
 179:Drivers/STM32F7xx_HAL_Driver/Src/stm32f7xx_ll_dma.c **** 
 430              		.loc 1 179 15 view .LVU121
 431 019c 0020     		movs	r0, #0
 432              	.LVL28:
 179:Drivers/STM32F7xx_HAL_Driver/Src/stm32f7xx_ll_dma.c **** 
 433              		.loc 1 179 15 view .LVU122
 434 019e BFE7     		b	.L4
 435              	.LVL29:
 436              	.L40:
 264:Drivers/STM32F7xx_HAL_Driver/Src/stm32f7xx_ll_dma.c ****     }
 437              		.loc 1 264 8 is_stmt 1 view .LVU123
 264:Drivers/STM32F7xx_HAL_Driver/Src/stm32f7xx_ll_dma.c ****     }
 438              		.loc 1 264 20 is_stmt 0 view .LVU124
 439 01a0 4FF47463 		mov	r3, #3904
 440 01a4 C360     		str	r3, [r0, #12]
 179:Drivers/STM32F7xx_HAL_Driver/Src/stm32f7xx_ll_dma.c **** 
 441              		.loc 1 179 15 view .LVU125
 442 01a6 0020     		movs	r0, #0
 443              	.LVL30:
 179:Drivers/STM32F7xx_HAL_Driver/Src/stm32f7xx_ll_dma.c **** 
 444              		.loc 1 179 15 view .LVU126
 445 01a8 BAE7     		b	.L4
 446              	.LVL31:
 447              	.L41:
 269:Drivers/STM32F7xx_HAL_Driver/Src/stm32f7xx_ll_dma.c ****     }
 448              		.loc 1 269 8 is_stmt 1 view .LVU127
 269:Drivers/STM32F7xx_HAL_Driver/Src/stm32f7xx_ll_dma.c ****     }
 449              		.loc 1 269 20 is_stmt 0 view .LVU128
 450 01aa 4FF47C13 		mov	r3, #4128768
 451 01ae C360     		str	r3, [r0, #12]
 179:Drivers/STM32F7xx_HAL_Driver/Src/stm32f7xx_ll_dma.c **** 
 452              		.loc 1 179 15 view .LVU129
 453 01b0 0020     		movs	r0, #0
 454              	.LVL32:
 179:Drivers/STM32F7xx_HAL_Driver/Src/stm32f7xx_ll_dma.c **** 
 455              		.loc 1 179 15 view .LVU130
 456 01b2 B5E7     		b	.L4
 457              	.LVL33:
 458              	.L42:
 274:Drivers/STM32F7xx_HAL_Driver/Src/stm32f7xx_ll_dma.c ****     }
 459              		.loc 1 274 8 is_stmt 1 view .LVU131
 274:Drivers/STM32F7xx_HAL_Driver/Src/stm32f7xx_ll_dma.c ****     }
 460              		.loc 1 274 20 is_stmt 0 view .LVU132
 461 01b4 4FF07463 		mov	r3, #255852544
 462 01b8 C360     		str	r3, [r0, #12]
 179:Drivers/STM32F7xx_HAL_Driver/Src/stm32f7xx_ll_dma.c **** 
 463              		.loc 1 179 15 view .LVU133
ARM GAS  /tmp/ccYTojEy.s 			page 43


 464 01ba 0020     		movs	r0, #0
 465              	.LVL34:
 179:Drivers/STM32F7xx_HAL_Driver/Src/stm32f7xx_ll_dma.c **** 
 466              		.loc 1 179 15 view .LVU134
 467 01bc B0E7     		b	.L4
 468              	.L44:
 469 01be 00BF     		.align	2
 470              	.L43:
 471 01c0 00000000 		.word	STREAM_OFFSET_TAB
 472 01c4 00600240 		.word	1073897472
 473 01c8 00640240 		.word	1073898496
 474 01cc 10600240 		.word	1073897488
 475 01d0 10640240 		.word	1073898512
 476 01d4 28600240 		.word	1073897512
 477 01d8 28640240 		.word	1073898536
 478 01dc 40600240 		.word	1073897536
 479 01e0 40640240 		.word	1073898560
 480 01e4 58600240 		.word	1073897560
 481 01e8 58640240 		.word	1073898584
 482 01ec 70600240 		.word	1073897584
 483 01f0 70640240 		.word	1073898608
 484 01f4 88600240 		.word	1073897608
 485 01f8 88640240 		.word	1073898632
 486 01fc A0600240 		.word	1073897632
 487 0200 A0640240 		.word	1073898656
 488 0204 B8640240 		.word	1073898680
 489              		.cfi_endproc
 490              	.LFE320:
 492              		.section	.text.LL_DMA_Init,"ax",%progbits
 493              		.align	1
 494              		.global	LL_DMA_Init
 495              		.syntax unified
 496              		.thumb
 497              		.thumb_func
 499              	LL_DMA_Init:
 500              	.LVL35:
 501              	.LFB321:
 284:Drivers/STM32F7xx_HAL_Driver/Src/stm32f7xx_ll_dma.c **** 
 285:Drivers/STM32F7xx_HAL_Driver/Src/stm32f7xx_ll_dma.c **** /**
 286:Drivers/STM32F7xx_HAL_Driver/Src/stm32f7xx_ll_dma.c ****   * @brief  Initialize the DMA registers according to the specified parameters in DMA_InitStruct.
 287:Drivers/STM32F7xx_HAL_Driver/Src/stm32f7xx_ll_dma.c ****   * @note   To convert DMAx_Streamy Instance to DMAx Instance and Streamy, use helper macros :
 288:Drivers/STM32F7xx_HAL_Driver/Src/stm32f7xx_ll_dma.c ****   *         @arg @ref __LL_DMA_GET_INSTANCE
 289:Drivers/STM32F7xx_HAL_Driver/Src/stm32f7xx_ll_dma.c ****   *         @arg @ref __LL_DMA_GET_STREAM
 290:Drivers/STM32F7xx_HAL_Driver/Src/stm32f7xx_ll_dma.c ****   * @param  DMAx DMAx Instance
 291:Drivers/STM32F7xx_HAL_Driver/Src/stm32f7xx_ll_dma.c ****   * @param  Stream This parameter can be one of the following values:
 292:Drivers/STM32F7xx_HAL_Driver/Src/stm32f7xx_ll_dma.c ****   *         @arg @ref LL_DMA_STREAM_0
 293:Drivers/STM32F7xx_HAL_Driver/Src/stm32f7xx_ll_dma.c ****   *         @arg @ref LL_DMA_STREAM_1
 294:Drivers/STM32F7xx_HAL_Driver/Src/stm32f7xx_ll_dma.c ****   *         @arg @ref LL_DMA_STREAM_2
 295:Drivers/STM32F7xx_HAL_Driver/Src/stm32f7xx_ll_dma.c ****   *         @arg @ref LL_DMA_STREAM_3
 296:Drivers/STM32F7xx_HAL_Driver/Src/stm32f7xx_ll_dma.c ****   *         @arg @ref LL_DMA_STREAM_4
 297:Drivers/STM32F7xx_HAL_Driver/Src/stm32f7xx_ll_dma.c ****   *         @arg @ref LL_DMA_STREAM_5
 298:Drivers/STM32F7xx_HAL_Driver/Src/stm32f7xx_ll_dma.c ****   *         @arg @ref LL_DMA_STREAM_6
 299:Drivers/STM32F7xx_HAL_Driver/Src/stm32f7xx_ll_dma.c ****   *         @arg @ref LL_DMA_STREAM_7
 300:Drivers/STM32F7xx_HAL_Driver/Src/stm32f7xx_ll_dma.c ****   * @param  DMA_InitStruct pointer to a @ref LL_DMA_InitTypeDef structure.
 301:Drivers/STM32F7xx_HAL_Driver/Src/stm32f7xx_ll_dma.c ****   * @retval An ErrorStatus enumeration value:
 302:Drivers/STM32F7xx_HAL_Driver/Src/stm32f7xx_ll_dma.c ****   *          - SUCCESS: DMA registers are initialized
 303:Drivers/STM32F7xx_HAL_Driver/Src/stm32f7xx_ll_dma.c ****   *          - ERROR: Not applicable
ARM GAS  /tmp/ccYTojEy.s 			page 44


 304:Drivers/STM32F7xx_HAL_Driver/Src/stm32f7xx_ll_dma.c ****   */
 305:Drivers/STM32F7xx_HAL_Driver/Src/stm32f7xx_ll_dma.c **** uint32_t LL_DMA_Init(DMA_TypeDef *DMAx, uint32_t Stream, LL_DMA_InitTypeDef *DMA_InitStruct)
 306:Drivers/STM32F7xx_HAL_Driver/Src/stm32f7xx_ll_dma.c **** {
 502              		.loc 1 306 1 is_stmt 1 view -0
 503              		.cfi_startproc
 504              		@ args = 0, pretend = 0, frame = 0
 505              		@ frame_needed = 0, uses_anonymous_args = 0
 506              		.loc 1 306 1 is_stmt 0 view .LVU136
 507 0000 10B5     		push	{r4, lr}
 508              	.LCFI3:
 509              		.cfi_def_cfa_offset 8
 510              		.cfi_offset 4, -8
 511              		.cfi_offset 14, -4
 307:Drivers/STM32F7xx_HAL_Driver/Src/stm32f7xx_ll_dma.c ****   /* Check the DMA Instance DMAx and Stream parameters*/
 308:Drivers/STM32F7xx_HAL_Driver/Src/stm32f7xx_ll_dma.c ****   assert_param(IS_LL_DMA_ALL_STREAM_INSTANCE(DMAx, Stream));
 512              		.loc 1 308 3 is_stmt 1 view .LVU137
 309:Drivers/STM32F7xx_HAL_Driver/Src/stm32f7xx_ll_dma.c **** 
 310:Drivers/STM32F7xx_HAL_Driver/Src/stm32f7xx_ll_dma.c ****   /* Check the DMA parameters from DMA_InitStruct */
 311:Drivers/STM32F7xx_HAL_Driver/Src/stm32f7xx_ll_dma.c ****   assert_param(IS_LL_DMA_DIRECTION(DMA_InitStruct->Direction));
 513              		.loc 1 311 3 view .LVU138
 312:Drivers/STM32F7xx_HAL_Driver/Src/stm32f7xx_ll_dma.c ****   assert_param(IS_LL_DMA_MODE(DMA_InitStruct->Mode));
 514              		.loc 1 312 3 view .LVU139
 313:Drivers/STM32F7xx_HAL_Driver/Src/stm32f7xx_ll_dma.c ****   assert_param(IS_LL_DMA_PERIPHINCMODE(DMA_InitStruct->PeriphOrM2MSrcIncMode));
 515              		.loc 1 313 3 view .LVU140
 314:Drivers/STM32F7xx_HAL_Driver/Src/stm32f7xx_ll_dma.c ****   assert_param(IS_LL_DMA_MEMORYINCMODE(DMA_InitStruct->MemoryOrM2MDstIncMode));
 516              		.loc 1 314 3 view .LVU141
 315:Drivers/STM32F7xx_HAL_Driver/Src/stm32f7xx_ll_dma.c ****   assert_param(IS_LL_DMA_PERIPHDATASIZE(DMA_InitStruct->PeriphOrM2MSrcDataSize));
 517              		.loc 1 315 3 view .LVU142
 316:Drivers/STM32F7xx_HAL_Driver/Src/stm32f7xx_ll_dma.c ****   assert_param(IS_LL_DMA_MEMORYDATASIZE(DMA_InitStruct->MemoryOrM2MDstDataSize));
 518              		.loc 1 316 3 view .LVU143
 317:Drivers/STM32F7xx_HAL_Driver/Src/stm32f7xx_ll_dma.c ****   assert_param(IS_LL_DMA_NBDATA(DMA_InitStruct->NbData));
 519              		.loc 1 317 3 view .LVU144
 318:Drivers/STM32F7xx_HAL_Driver/Src/stm32f7xx_ll_dma.c ****   assert_param(IS_LL_DMA_CHANNEL(DMA_InitStruct->Channel));
 520              		.loc 1 318 3 view .LVU145
 319:Drivers/STM32F7xx_HAL_Driver/Src/stm32f7xx_ll_dma.c ****   assert_param(IS_LL_DMA_PRIORITY(DMA_InitStruct->Priority));
 521              		.loc 1 319 3 view .LVU146
 320:Drivers/STM32F7xx_HAL_Driver/Src/stm32f7xx_ll_dma.c ****   assert_param(IS_LL_DMA_FIFO_MODE_STATE(DMA_InitStruct->FIFOMode));
 522              		.loc 1 320 3 view .LVU147
 321:Drivers/STM32F7xx_HAL_Driver/Src/stm32f7xx_ll_dma.c ****   /* Check the memory burst, peripheral burst and FIFO threshold parameters only
 322:Drivers/STM32F7xx_HAL_Driver/Src/stm32f7xx_ll_dma.c ****      when FIFO mode is enabled */
 323:Drivers/STM32F7xx_HAL_Driver/Src/stm32f7xx_ll_dma.c ****   if(DMA_InitStruct->FIFOMode != LL_DMA_FIFOMODE_DISABLE)
 523              		.loc 1 323 3 view .LVU148
 324:Drivers/STM32F7xx_HAL_Driver/Src/stm32f7xx_ll_dma.c ****   {
 325:Drivers/STM32F7xx_HAL_Driver/Src/stm32f7xx_ll_dma.c ****     assert_param(IS_LL_DMA_FIFO_THRESHOLD(DMA_InitStruct->FIFOThreshold));
 524              		.loc 1 325 5 view .LVU149
 326:Drivers/STM32F7xx_HAL_Driver/Src/stm32f7xx_ll_dma.c ****     assert_param(IS_LL_DMA_MEMORY_BURST(DMA_InitStruct->MemBurst));
 525              		.loc 1 326 5 view .LVU150
 327:Drivers/STM32F7xx_HAL_Driver/Src/stm32f7xx_ll_dma.c ****     assert_param(IS_LL_DMA_PERIPHERAL_BURST(DMA_InitStruct->PeriphBurst));
 526              		.loc 1 327 5 view .LVU151
 328:Drivers/STM32F7xx_HAL_Driver/Src/stm32f7xx_ll_dma.c ****   }
 329:Drivers/STM32F7xx_HAL_Driver/Src/stm32f7xx_ll_dma.c **** 
 330:Drivers/STM32F7xx_HAL_Driver/Src/stm32f7xx_ll_dma.c ****   /*---------------------------- DMAx SxCR Configuration ------------------------
 331:Drivers/STM32F7xx_HAL_Driver/Src/stm32f7xx_ll_dma.c ****    * Configure DMAx_Streamy: data transfer direction, data transfer mode,
 332:Drivers/STM32F7xx_HAL_Driver/Src/stm32f7xx_ll_dma.c ****    *                          peripheral and memory increment mode,
 333:Drivers/STM32F7xx_HAL_Driver/Src/stm32f7xx_ll_dma.c ****    *                          data size alignment and  priority level with parameters :
 334:Drivers/STM32F7xx_HAL_Driver/Src/stm32f7xx_ll_dma.c ****    * - Direction:      DMA_SxCR_DIR[1:0] bits
 335:Drivers/STM32F7xx_HAL_Driver/Src/stm32f7xx_ll_dma.c ****    * - Mode:           DMA_SxCR_CIRC bit
ARM GAS  /tmp/ccYTojEy.s 			page 45


 336:Drivers/STM32F7xx_HAL_Driver/Src/stm32f7xx_ll_dma.c ****    * - PeriphOrM2MSrcIncMode:  DMA_SxCR_PINC bit
 337:Drivers/STM32F7xx_HAL_Driver/Src/stm32f7xx_ll_dma.c ****    * - MemoryOrM2MDstIncMode:  DMA_SxCR_MINC bit
 338:Drivers/STM32F7xx_HAL_Driver/Src/stm32f7xx_ll_dma.c ****    * - PeriphOrM2MSrcDataSize: DMA_SxCR_PSIZE[1:0] bits
 339:Drivers/STM32F7xx_HAL_Driver/Src/stm32f7xx_ll_dma.c ****    * - MemoryOrM2MDstDataSize: DMA_SxCR_MSIZE[1:0] bits
 340:Drivers/STM32F7xx_HAL_Driver/Src/stm32f7xx_ll_dma.c ****    * - Priority:               DMA_SxCR_PL[1:0] bits
 341:Drivers/STM32F7xx_HAL_Driver/Src/stm32f7xx_ll_dma.c ****    */
 342:Drivers/STM32F7xx_HAL_Driver/Src/stm32f7xx_ll_dma.c ****   LL_DMA_ConfigTransfer(DMAx, Stream, DMA_InitStruct->Direction | \
 527              		.loc 1 342 3 view .LVU152
 528              		.loc 1 342 53 is_stmt 0 view .LVU153
 529 0002 9368     		ldr	r3, [r2, #8]
 343:Drivers/STM32F7xx_HAL_Driver/Src/stm32f7xx_ll_dma.c ****                         DMA_InitStruct->Mode                    | \
 530              		.loc 1 343 39 view .LVU154
 531 0004 D468     		ldr	r4, [r2, #12]
 342:Drivers/STM32F7xx_HAL_Driver/Src/stm32f7xx_ll_dma.c ****                         DMA_InitStruct->Mode                    | \
 532              		.loc 1 342 65 view .LVU155
 533 0006 2343     		orrs	r3, r3, r4
 344:Drivers/STM32F7xx_HAL_Driver/Src/stm32f7xx_ll_dma.c ****                         DMA_InitStruct->PeriphOrM2MSrcIncMode   | \
 534              		.loc 1 344 39 view .LVU156
 535 0008 1469     		ldr	r4, [r2, #16]
 343:Drivers/STM32F7xx_HAL_Driver/Src/stm32f7xx_ll_dma.c ****                         DMA_InitStruct->Mode                    | \
 536              		.loc 1 343 65 view .LVU157
 537 000a 2343     		orrs	r3, r3, r4
 345:Drivers/STM32F7xx_HAL_Driver/Src/stm32f7xx_ll_dma.c ****                         DMA_InitStruct->MemoryOrM2MDstIncMode   | \
 538              		.loc 1 345 39 view .LVU158
 539 000c 5469     		ldr	r4, [r2, #20]
 344:Drivers/STM32F7xx_HAL_Driver/Src/stm32f7xx_ll_dma.c ****                         DMA_InitStruct->PeriphOrM2MSrcIncMode   | \
 540              		.loc 1 344 65 view .LVU159
 541 000e 2343     		orrs	r3, r3, r4
 346:Drivers/STM32F7xx_HAL_Driver/Src/stm32f7xx_ll_dma.c ****                         DMA_InitStruct->PeriphOrM2MSrcDataSize  | \
 542              		.loc 1 346 39 view .LVU160
 543 0010 9469     		ldr	r4, [r2, #24]
 345:Drivers/STM32F7xx_HAL_Driver/Src/stm32f7xx_ll_dma.c ****                         DMA_InitStruct->MemoryOrM2MDstIncMode   | \
 544              		.loc 1 345 65 view .LVU161
 545 0012 2343     		orrs	r3, r3, r4
 347:Drivers/STM32F7xx_HAL_Driver/Src/stm32f7xx_ll_dma.c ****                         DMA_InitStruct->MemoryOrM2MDstDataSize  | \
 546              		.loc 1 347 39 view .LVU162
 547 0014 D469     		ldr	r4, [r2, #28]
 346:Drivers/STM32F7xx_HAL_Driver/Src/stm32f7xx_ll_dma.c ****                         DMA_InitStruct->PeriphOrM2MSrcDataSize  | \
 548              		.loc 1 346 65 view .LVU163
 549 0016 2343     		orrs	r3, r3, r4
 348:Drivers/STM32F7xx_HAL_Driver/Src/stm32f7xx_ll_dma.c ****                         DMA_InitStruct->Priority
 550              		.loc 1 348 39 view .LVU164
 551 0018 946A     		ldr	r4, [r2, #40]
 342:Drivers/STM32F7xx_HAL_Driver/Src/stm32f7xx_ll_dma.c ****                         DMA_InitStruct->Mode                    | \
 552              		.loc 1 342 3 view .LVU165
 553 001a 2343     		orrs	r3, r3, r4
 554              	.LVL36:
 555              	.LBB46:
 556              	.LBI46:
 572:Drivers/STM32F7xx_HAL_Driver/Inc/stm32f7xx_ll_dma.h **** {
 557              		.loc 2 572 22 is_stmt 1 view .LVU166
 558              	.LBB47:
 574:Drivers/STM32F7xx_HAL_Driver/Inc/stm32f7xx_ll_dma.h ****              DMA_SxCR_DIR | DMA_SxCR_CIRC | DMA_SxCR_PINC | DMA_SxCR_MINC | DMA_SxCR_PSIZE | DMA_Sx
 559              		.loc 2 574 3 view .LVU167
 560 001c 1F4C     		ldr	r4, .L48
 561 001e 615C     		ldrb	r1, [r4, r1]	@ zero_extendqisi2
 562              	.LVL37:
ARM GAS  /tmp/ccYTojEy.s 			page 46


 574:Drivers/STM32F7xx_HAL_Driver/Inc/stm32f7xx_ll_dma.h ****              DMA_SxCR_DIR | DMA_SxCR_CIRC | DMA_SxCR_PINC | DMA_SxCR_MINC | DMA_SxCR_PSIZE | DMA_Sx
 563              		.loc 2 574 3 is_stmt 0 view .LVU168
 564 0020 01EB000C 		add	ip, r1, r0
 565 0024 4458     		ldr	r4, [r0, r1]
 566 0026 DFF878E0 		ldr	lr, .L48+4
 567 002a 04EA0E0E 		and	lr, r4, lr
 568 002e 43EA0E03 		orr	r3, r3, lr
 569              	.LVL38:
 574:Drivers/STM32F7xx_HAL_Driver/Inc/stm32f7xx_ll_dma.h ****              DMA_SxCR_DIR | DMA_SxCR_CIRC | DMA_SxCR_PINC | DMA_SxCR_MINC | DMA_SxCR_PSIZE | DMA_Sx
 570              		.loc 2 574 3 view .LVU169
 571 0032 4350     		str	r3, [r0, r1]
 572              	.LVL39:
 574:Drivers/STM32F7xx_HAL_Driver/Inc/stm32f7xx_ll_dma.h ****              DMA_SxCR_DIR | DMA_SxCR_CIRC | DMA_SxCR_PINC | DMA_SxCR_MINC | DMA_SxCR_PSIZE | DMA_Sx
 573              		.loc 2 574 3 view .LVU170
 574              	.LBE47:
 575              	.LBE46:
 349:Drivers/STM32F7xx_HAL_Driver/Src/stm32f7xx_ll_dma.c ****                         );
 350:Drivers/STM32F7xx_HAL_Driver/Src/stm32f7xx_ll_dma.c **** 
 351:Drivers/STM32F7xx_HAL_Driver/Src/stm32f7xx_ll_dma.c ****   if(DMA_InitStruct->FIFOMode != LL_DMA_FIFOMODE_DISABLE)
 576              		.loc 1 351 3 is_stmt 1 view .LVU171
 577              		.loc 1 351 20 is_stmt 0 view .LVU172
 578 0034 D36A     		ldr	r3, [r2, #44]
 579              		.loc 1 351 5 view .LVU173
 580 0036 BBB1     		cbz	r3, .L46
 352:Drivers/STM32F7xx_HAL_Driver/Src/stm32f7xx_ll_dma.c ****   {
 353:Drivers/STM32F7xx_HAL_Driver/Src/stm32f7xx_ll_dma.c ****     /*---------------------------- DMAx SxFCR Configuration ------------------------
 354:Drivers/STM32F7xx_HAL_Driver/Src/stm32f7xx_ll_dma.c ****      * Configure DMAx_Streamy:  fifo mode and fifo threshold with parameters :
 355:Drivers/STM32F7xx_HAL_Driver/Src/stm32f7xx_ll_dma.c ****      * - FIFOMode:                DMA_SxFCR_DMDIS bit
 356:Drivers/STM32F7xx_HAL_Driver/Src/stm32f7xx_ll_dma.c ****      * - FIFOThreshold:           DMA_SxFCR_FTH[1:0] bits
 357:Drivers/STM32F7xx_HAL_Driver/Src/stm32f7xx_ll_dma.c ****      */
 358:Drivers/STM32F7xx_HAL_Driver/Src/stm32f7xx_ll_dma.c ****     LL_DMA_ConfigFifo(DMAx, Stream, DMA_InitStruct->FIFOMode, DMA_InitStruct->FIFOThreshold);   
 581              		.loc 1 358 5 is_stmt 1 view .LVU174
 582              	.LVL40:
 583              	.LBB48:
 584              	.LBI48:
1035:Drivers/STM32F7xx_HAL_Driver/Inc/stm32f7xx_ll_dma.h **** }
1036:Drivers/STM32F7xx_HAL_Driver/Inc/stm32f7xx_ll_dma.h **** 
1037:Drivers/STM32F7xx_HAL_Driver/Inc/stm32f7xx_ll_dma.h **** /**
1038:Drivers/STM32F7xx_HAL_Driver/Inc/stm32f7xx_ll_dma.h ****   * @brief Get the Channel number associated to the Stream.
1039:Drivers/STM32F7xx_HAL_Driver/Inc/stm32f7xx_ll_dma.h ****   * @rmtoll CR          CHSEL           LL_DMA_GetChannelSelection
1040:Drivers/STM32F7xx_HAL_Driver/Inc/stm32f7xx_ll_dma.h ****   * @param  DMAx DMAx Instance
1041:Drivers/STM32F7xx_HAL_Driver/Inc/stm32f7xx_ll_dma.h ****   * @param  Stream This parameter can be one of the following values:
1042:Drivers/STM32F7xx_HAL_Driver/Inc/stm32f7xx_ll_dma.h ****   *         @arg @ref LL_DMA_STREAM_0
1043:Drivers/STM32F7xx_HAL_Driver/Inc/stm32f7xx_ll_dma.h ****   *         @arg @ref LL_DMA_STREAM_1
1044:Drivers/STM32F7xx_HAL_Driver/Inc/stm32f7xx_ll_dma.h ****   *         @arg @ref LL_DMA_STREAM_2
1045:Drivers/STM32F7xx_HAL_Driver/Inc/stm32f7xx_ll_dma.h ****   *         @arg @ref LL_DMA_STREAM_3
1046:Drivers/STM32F7xx_HAL_Driver/Inc/stm32f7xx_ll_dma.h ****   *         @arg @ref LL_DMA_STREAM_4
1047:Drivers/STM32F7xx_HAL_Driver/Inc/stm32f7xx_ll_dma.h ****   *         @arg @ref LL_DMA_STREAM_5
1048:Drivers/STM32F7xx_HAL_Driver/Inc/stm32f7xx_ll_dma.h ****   *         @arg @ref LL_DMA_STREAM_6
1049:Drivers/STM32F7xx_HAL_Driver/Inc/stm32f7xx_ll_dma.h ****   *         @arg @ref LL_DMA_STREAM_7
1050:Drivers/STM32F7xx_HAL_Driver/Inc/stm32f7xx_ll_dma.h ****   * @retval Returned value can be one of the following values:
1051:Drivers/STM32F7xx_HAL_Driver/Inc/stm32f7xx_ll_dma.h ****   *         @arg @ref LL_DMA_CHANNEL_0
1052:Drivers/STM32F7xx_HAL_Driver/Inc/stm32f7xx_ll_dma.h ****   *         @arg @ref LL_DMA_CHANNEL_1
1053:Drivers/STM32F7xx_HAL_Driver/Inc/stm32f7xx_ll_dma.h ****   *         @arg @ref LL_DMA_CHANNEL_2
1054:Drivers/STM32F7xx_HAL_Driver/Inc/stm32f7xx_ll_dma.h ****   *         @arg @ref LL_DMA_CHANNEL_3
1055:Drivers/STM32F7xx_HAL_Driver/Inc/stm32f7xx_ll_dma.h ****   *         @arg @ref LL_DMA_CHANNEL_4
1056:Drivers/STM32F7xx_HAL_Driver/Inc/stm32f7xx_ll_dma.h ****   *         @arg @ref LL_DMA_CHANNEL_5
ARM GAS  /tmp/ccYTojEy.s 			page 47


1057:Drivers/STM32F7xx_HAL_Driver/Inc/stm32f7xx_ll_dma.h ****   *         @arg @ref LL_DMA_CHANNEL_6
1058:Drivers/STM32F7xx_HAL_Driver/Inc/stm32f7xx_ll_dma.h ****   *         @arg @ref LL_DMA_CHANNEL_7
1059:Drivers/STM32F7xx_HAL_Driver/Inc/stm32f7xx_ll_dma.h ****   *         @arg @ref LL_DMA_CHANNEL_8 (*)
1060:Drivers/STM32F7xx_HAL_Driver/Inc/stm32f7xx_ll_dma.h ****   *         @arg @ref LL_DMA_CHANNEL_9 (*)
1061:Drivers/STM32F7xx_HAL_Driver/Inc/stm32f7xx_ll_dma.h ****   *         @arg @ref LL_DMA_CHANNEL_10 (*)
1062:Drivers/STM32F7xx_HAL_Driver/Inc/stm32f7xx_ll_dma.h ****   *         @arg @ref LL_DMA_CHANNEL_11 (*)
1063:Drivers/STM32F7xx_HAL_Driver/Inc/stm32f7xx_ll_dma.h ****   *         @arg @ref LL_DMA_CHANNEL_12 (*)
1064:Drivers/STM32F7xx_HAL_Driver/Inc/stm32f7xx_ll_dma.h ****   *         @arg @ref LL_DMA_CHANNEL_13 (*)
1065:Drivers/STM32F7xx_HAL_Driver/Inc/stm32f7xx_ll_dma.h ****   *         @arg @ref LL_DMA_CHANNEL_14 (*)
1066:Drivers/STM32F7xx_HAL_Driver/Inc/stm32f7xx_ll_dma.h ****   *         @arg @ref LL_DMA_CHANNEL_15 (*)
1067:Drivers/STM32F7xx_HAL_Driver/Inc/stm32f7xx_ll_dma.h ****   *
1068:Drivers/STM32F7xx_HAL_Driver/Inc/stm32f7xx_ll_dma.h ****   *         (*) value not defined in all devices.
1069:Drivers/STM32F7xx_HAL_Driver/Inc/stm32f7xx_ll_dma.h ****   */
1070:Drivers/STM32F7xx_HAL_Driver/Inc/stm32f7xx_ll_dma.h **** __STATIC_INLINE uint32_t LL_DMA_GetChannelSelection(DMA_TypeDef *DMAx, uint32_t Stream)
1071:Drivers/STM32F7xx_HAL_Driver/Inc/stm32f7xx_ll_dma.h **** {
1072:Drivers/STM32F7xx_HAL_Driver/Inc/stm32f7xx_ll_dma.h ****   return (READ_BIT(((DMA_Stream_TypeDef*)((uint32_t)((uint32_t)DMAx + STREAM_OFFSET_TAB[Stream])))-
1073:Drivers/STM32F7xx_HAL_Driver/Inc/stm32f7xx_ll_dma.h **** }
1074:Drivers/STM32F7xx_HAL_Driver/Inc/stm32f7xx_ll_dma.h **** 
1075:Drivers/STM32F7xx_HAL_Driver/Inc/stm32f7xx_ll_dma.h **** /**
1076:Drivers/STM32F7xx_HAL_Driver/Inc/stm32f7xx_ll_dma.h ****   * @brief Set Memory burst transfer configuration.
1077:Drivers/STM32F7xx_HAL_Driver/Inc/stm32f7xx_ll_dma.h ****   * @rmtoll CR          MBURST           LL_DMA_SetMemoryBurstxfer
1078:Drivers/STM32F7xx_HAL_Driver/Inc/stm32f7xx_ll_dma.h ****   * @param  DMAx DMAx Instance
1079:Drivers/STM32F7xx_HAL_Driver/Inc/stm32f7xx_ll_dma.h ****   * @param  Stream This parameter can be one of the following values:
1080:Drivers/STM32F7xx_HAL_Driver/Inc/stm32f7xx_ll_dma.h ****   *         @arg @ref LL_DMA_STREAM_0
1081:Drivers/STM32F7xx_HAL_Driver/Inc/stm32f7xx_ll_dma.h ****   *         @arg @ref LL_DMA_STREAM_1
1082:Drivers/STM32F7xx_HAL_Driver/Inc/stm32f7xx_ll_dma.h ****   *         @arg @ref LL_DMA_STREAM_2
1083:Drivers/STM32F7xx_HAL_Driver/Inc/stm32f7xx_ll_dma.h ****   *         @arg @ref LL_DMA_STREAM_3
1084:Drivers/STM32F7xx_HAL_Driver/Inc/stm32f7xx_ll_dma.h ****   *         @arg @ref LL_DMA_STREAM_4
1085:Drivers/STM32F7xx_HAL_Driver/Inc/stm32f7xx_ll_dma.h ****   *         @arg @ref LL_DMA_STREAM_5
1086:Drivers/STM32F7xx_HAL_Driver/Inc/stm32f7xx_ll_dma.h ****   *         @arg @ref LL_DMA_STREAM_6
1087:Drivers/STM32F7xx_HAL_Driver/Inc/stm32f7xx_ll_dma.h ****   *         @arg @ref LL_DMA_STREAM_7
1088:Drivers/STM32F7xx_HAL_Driver/Inc/stm32f7xx_ll_dma.h ****   * @param  Mburst This parameter can be one of the following values:
1089:Drivers/STM32F7xx_HAL_Driver/Inc/stm32f7xx_ll_dma.h ****   *         @arg @ref LL_DMA_MBURST_SINGLE
1090:Drivers/STM32F7xx_HAL_Driver/Inc/stm32f7xx_ll_dma.h ****   *         @arg @ref LL_DMA_MBURST_INC4
1091:Drivers/STM32F7xx_HAL_Driver/Inc/stm32f7xx_ll_dma.h ****   *         @arg @ref LL_DMA_MBURST_INC8
1092:Drivers/STM32F7xx_HAL_Driver/Inc/stm32f7xx_ll_dma.h ****   *         @arg @ref LL_DMA_MBURST_INC16
1093:Drivers/STM32F7xx_HAL_Driver/Inc/stm32f7xx_ll_dma.h ****   * @retval None
1094:Drivers/STM32F7xx_HAL_Driver/Inc/stm32f7xx_ll_dma.h ****   */
1095:Drivers/STM32F7xx_HAL_Driver/Inc/stm32f7xx_ll_dma.h **** __STATIC_INLINE void LL_DMA_SetMemoryBurstxfer(DMA_TypeDef *DMAx, uint32_t Stream, uint32_t Mburst)
1096:Drivers/STM32F7xx_HAL_Driver/Inc/stm32f7xx_ll_dma.h **** {
1097:Drivers/STM32F7xx_HAL_Driver/Inc/stm32f7xx_ll_dma.h ****   MODIFY_REG(((DMA_Stream_TypeDef*)((uint32_t)((uint32_t)DMAx + STREAM_OFFSET_TAB[Stream])))->CR, D
1098:Drivers/STM32F7xx_HAL_Driver/Inc/stm32f7xx_ll_dma.h **** }
1099:Drivers/STM32F7xx_HAL_Driver/Inc/stm32f7xx_ll_dma.h **** 
1100:Drivers/STM32F7xx_HAL_Driver/Inc/stm32f7xx_ll_dma.h **** /**
1101:Drivers/STM32F7xx_HAL_Driver/Inc/stm32f7xx_ll_dma.h ****   * @brief Get Memory burst transfer configuration.
1102:Drivers/STM32F7xx_HAL_Driver/Inc/stm32f7xx_ll_dma.h ****   * @rmtoll CR          MBURST           LL_DMA_GetMemoryBurstxfer
1103:Drivers/STM32F7xx_HAL_Driver/Inc/stm32f7xx_ll_dma.h ****   * @param  DMAx DMAx Instance
1104:Drivers/STM32F7xx_HAL_Driver/Inc/stm32f7xx_ll_dma.h ****   * @param  Stream This parameter can be one of the following values:
1105:Drivers/STM32F7xx_HAL_Driver/Inc/stm32f7xx_ll_dma.h ****   *         @arg @ref LL_DMA_STREAM_0
1106:Drivers/STM32F7xx_HAL_Driver/Inc/stm32f7xx_ll_dma.h ****   *         @arg @ref LL_DMA_STREAM_1
1107:Drivers/STM32F7xx_HAL_Driver/Inc/stm32f7xx_ll_dma.h ****   *         @arg @ref LL_DMA_STREAM_2
1108:Drivers/STM32F7xx_HAL_Driver/Inc/stm32f7xx_ll_dma.h ****   *         @arg @ref LL_DMA_STREAM_3
1109:Drivers/STM32F7xx_HAL_Driver/Inc/stm32f7xx_ll_dma.h ****   *         @arg @ref LL_DMA_STREAM_4
1110:Drivers/STM32F7xx_HAL_Driver/Inc/stm32f7xx_ll_dma.h ****   *         @arg @ref LL_DMA_STREAM_5
1111:Drivers/STM32F7xx_HAL_Driver/Inc/stm32f7xx_ll_dma.h ****   *         @arg @ref LL_DMA_STREAM_6
1112:Drivers/STM32F7xx_HAL_Driver/Inc/stm32f7xx_ll_dma.h ****   *         @arg @ref LL_DMA_STREAM_7
1113:Drivers/STM32F7xx_HAL_Driver/Inc/stm32f7xx_ll_dma.h ****   * @retval Returned value can be one of the following values:
ARM GAS  /tmp/ccYTojEy.s 			page 48


1114:Drivers/STM32F7xx_HAL_Driver/Inc/stm32f7xx_ll_dma.h ****   *         @arg @ref LL_DMA_MBURST_SINGLE
1115:Drivers/STM32F7xx_HAL_Driver/Inc/stm32f7xx_ll_dma.h ****   *         @arg @ref LL_DMA_MBURST_INC4
1116:Drivers/STM32F7xx_HAL_Driver/Inc/stm32f7xx_ll_dma.h ****   *         @arg @ref LL_DMA_MBURST_INC8
1117:Drivers/STM32F7xx_HAL_Driver/Inc/stm32f7xx_ll_dma.h ****   *         @arg @ref LL_DMA_MBURST_INC16
1118:Drivers/STM32F7xx_HAL_Driver/Inc/stm32f7xx_ll_dma.h ****   */
1119:Drivers/STM32F7xx_HAL_Driver/Inc/stm32f7xx_ll_dma.h **** __STATIC_INLINE uint32_t LL_DMA_GetMemoryBurstxfer(DMA_TypeDef *DMAx, uint32_t Stream)
1120:Drivers/STM32F7xx_HAL_Driver/Inc/stm32f7xx_ll_dma.h **** {
1121:Drivers/STM32F7xx_HAL_Driver/Inc/stm32f7xx_ll_dma.h ****   return (READ_BIT(((DMA_Stream_TypeDef*)((uint32_t)((uint32_t)DMAx + STREAM_OFFSET_TAB[Stream])))-
1122:Drivers/STM32F7xx_HAL_Driver/Inc/stm32f7xx_ll_dma.h **** }
1123:Drivers/STM32F7xx_HAL_Driver/Inc/stm32f7xx_ll_dma.h **** 
1124:Drivers/STM32F7xx_HAL_Driver/Inc/stm32f7xx_ll_dma.h **** /**
1125:Drivers/STM32F7xx_HAL_Driver/Inc/stm32f7xx_ll_dma.h ****   * @brief Set  Peripheral burst transfer configuration.
1126:Drivers/STM32F7xx_HAL_Driver/Inc/stm32f7xx_ll_dma.h ****   * @rmtoll CR          PBURST           LL_DMA_SetPeriphBurstxfer
1127:Drivers/STM32F7xx_HAL_Driver/Inc/stm32f7xx_ll_dma.h ****   * @param  DMAx DMAx Instance
1128:Drivers/STM32F7xx_HAL_Driver/Inc/stm32f7xx_ll_dma.h ****   * @param  Stream This parameter can be one of the following values:
1129:Drivers/STM32F7xx_HAL_Driver/Inc/stm32f7xx_ll_dma.h ****   *         @arg @ref LL_DMA_STREAM_0
1130:Drivers/STM32F7xx_HAL_Driver/Inc/stm32f7xx_ll_dma.h ****   *         @arg @ref LL_DMA_STREAM_1
1131:Drivers/STM32F7xx_HAL_Driver/Inc/stm32f7xx_ll_dma.h ****   *         @arg @ref LL_DMA_STREAM_2
1132:Drivers/STM32F7xx_HAL_Driver/Inc/stm32f7xx_ll_dma.h ****   *         @arg @ref LL_DMA_STREAM_3
1133:Drivers/STM32F7xx_HAL_Driver/Inc/stm32f7xx_ll_dma.h ****   *         @arg @ref LL_DMA_STREAM_4
1134:Drivers/STM32F7xx_HAL_Driver/Inc/stm32f7xx_ll_dma.h ****   *         @arg @ref LL_DMA_STREAM_5
1135:Drivers/STM32F7xx_HAL_Driver/Inc/stm32f7xx_ll_dma.h ****   *         @arg @ref LL_DMA_STREAM_6
1136:Drivers/STM32F7xx_HAL_Driver/Inc/stm32f7xx_ll_dma.h ****   *         @arg @ref LL_DMA_STREAM_7
1137:Drivers/STM32F7xx_HAL_Driver/Inc/stm32f7xx_ll_dma.h ****   * @param  Pburst This parameter can be one of the following values:
1138:Drivers/STM32F7xx_HAL_Driver/Inc/stm32f7xx_ll_dma.h ****   *         @arg @ref LL_DMA_PBURST_SINGLE
1139:Drivers/STM32F7xx_HAL_Driver/Inc/stm32f7xx_ll_dma.h ****   *         @arg @ref LL_DMA_PBURST_INC4
1140:Drivers/STM32F7xx_HAL_Driver/Inc/stm32f7xx_ll_dma.h ****   *         @arg @ref LL_DMA_PBURST_INC8
1141:Drivers/STM32F7xx_HAL_Driver/Inc/stm32f7xx_ll_dma.h ****   *         @arg @ref LL_DMA_PBURST_INC16
1142:Drivers/STM32F7xx_HAL_Driver/Inc/stm32f7xx_ll_dma.h ****   * @retval None
1143:Drivers/STM32F7xx_HAL_Driver/Inc/stm32f7xx_ll_dma.h ****   */
1144:Drivers/STM32F7xx_HAL_Driver/Inc/stm32f7xx_ll_dma.h **** __STATIC_INLINE void LL_DMA_SetPeriphBurstxfer(DMA_TypeDef *DMAx, uint32_t Stream, uint32_t Pburst)
1145:Drivers/STM32F7xx_HAL_Driver/Inc/stm32f7xx_ll_dma.h **** {
1146:Drivers/STM32F7xx_HAL_Driver/Inc/stm32f7xx_ll_dma.h ****   MODIFY_REG(((DMA_Stream_TypeDef*)((uint32_t)((uint32_t)DMAx + STREAM_OFFSET_TAB[Stream])))->CR, D
1147:Drivers/STM32F7xx_HAL_Driver/Inc/stm32f7xx_ll_dma.h **** }
1148:Drivers/STM32F7xx_HAL_Driver/Inc/stm32f7xx_ll_dma.h **** 
1149:Drivers/STM32F7xx_HAL_Driver/Inc/stm32f7xx_ll_dma.h **** /**
1150:Drivers/STM32F7xx_HAL_Driver/Inc/stm32f7xx_ll_dma.h ****   * @brief Get Peripheral burst transfer configuration.
1151:Drivers/STM32F7xx_HAL_Driver/Inc/stm32f7xx_ll_dma.h ****   * @rmtoll CR          PBURST           LL_DMA_GetPeriphBurstxfer
1152:Drivers/STM32F7xx_HAL_Driver/Inc/stm32f7xx_ll_dma.h ****   * @param  DMAx DMAx Instance
1153:Drivers/STM32F7xx_HAL_Driver/Inc/stm32f7xx_ll_dma.h ****   * @param  Stream This parameter can be one of the following values:
1154:Drivers/STM32F7xx_HAL_Driver/Inc/stm32f7xx_ll_dma.h ****   *         @arg @ref LL_DMA_STREAM_0
1155:Drivers/STM32F7xx_HAL_Driver/Inc/stm32f7xx_ll_dma.h ****   *         @arg @ref LL_DMA_STREAM_1
1156:Drivers/STM32F7xx_HAL_Driver/Inc/stm32f7xx_ll_dma.h ****   *         @arg @ref LL_DMA_STREAM_2
1157:Drivers/STM32F7xx_HAL_Driver/Inc/stm32f7xx_ll_dma.h ****   *         @arg @ref LL_DMA_STREAM_3
1158:Drivers/STM32F7xx_HAL_Driver/Inc/stm32f7xx_ll_dma.h ****   *         @arg @ref LL_DMA_STREAM_4
1159:Drivers/STM32F7xx_HAL_Driver/Inc/stm32f7xx_ll_dma.h ****   *         @arg @ref LL_DMA_STREAM_5
1160:Drivers/STM32F7xx_HAL_Driver/Inc/stm32f7xx_ll_dma.h ****   *         @arg @ref LL_DMA_STREAM_6
1161:Drivers/STM32F7xx_HAL_Driver/Inc/stm32f7xx_ll_dma.h ****   *         @arg @ref LL_DMA_STREAM_7
1162:Drivers/STM32F7xx_HAL_Driver/Inc/stm32f7xx_ll_dma.h ****   * @retval Returned value can be one of the following values:
1163:Drivers/STM32F7xx_HAL_Driver/Inc/stm32f7xx_ll_dma.h ****   *         @arg @ref LL_DMA_PBURST_SINGLE
1164:Drivers/STM32F7xx_HAL_Driver/Inc/stm32f7xx_ll_dma.h ****   *         @arg @ref LL_DMA_PBURST_INC4
1165:Drivers/STM32F7xx_HAL_Driver/Inc/stm32f7xx_ll_dma.h ****   *         @arg @ref LL_DMA_PBURST_INC8
1166:Drivers/STM32F7xx_HAL_Driver/Inc/stm32f7xx_ll_dma.h ****   *         @arg @ref LL_DMA_PBURST_INC16
1167:Drivers/STM32F7xx_HAL_Driver/Inc/stm32f7xx_ll_dma.h ****   */
1168:Drivers/STM32F7xx_HAL_Driver/Inc/stm32f7xx_ll_dma.h **** __STATIC_INLINE uint32_t LL_DMA_GetPeriphBurstxfer(DMA_TypeDef *DMAx, uint32_t Stream)
1169:Drivers/STM32F7xx_HAL_Driver/Inc/stm32f7xx_ll_dma.h **** {
1170:Drivers/STM32F7xx_HAL_Driver/Inc/stm32f7xx_ll_dma.h ****   return (READ_BIT(((DMA_Stream_TypeDef*)((uint32_t)((uint32_t)DMAx + STREAM_OFFSET_TAB[Stream])))-
ARM GAS  /tmp/ccYTojEy.s 			page 49


1171:Drivers/STM32F7xx_HAL_Driver/Inc/stm32f7xx_ll_dma.h **** }
1172:Drivers/STM32F7xx_HAL_Driver/Inc/stm32f7xx_ll_dma.h **** 
1173:Drivers/STM32F7xx_HAL_Driver/Inc/stm32f7xx_ll_dma.h **** /**
1174:Drivers/STM32F7xx_HAL_Driver/Inc/stm32f7xx_ll_dma.h ****   * @brief Set Current target (only in double buffer mode) to Memory 1 or Memory 0.
1175:Drivers/STM32F7xx_HAL_Driver/Inc/stm32f7xx_ll_dma.h ****   * @rmtoll CR          CT           LL_DMA_SetCurrentTargetMem 
1176:Drivers/STM32F7xx_HAL_Driver/Inc/stm32f7xx_ll_dma.h ****   * @param  DMAx DMAx Instance
1177:Drivers/STM32F7xx_HAL_Driver/Inc/stm32f7xx_ll_dma.h ****   * @param  Stream This parameter can be one of the following values:
1178:Drivers/STM32F7xx_HAL_Driver/Inc/stm32f7xx_ll_dma.h ****   *         @arg @ref LL_DMA_STREAM_0
1179:Drivers/STM32F7xx_HAL_Driver/Inc/stm32f7xx_ll_dma.h ****   *         @arg @ref LL_DMA_STREAM_1
1180:Drivers/STM32F7xx_HAL_Driver/Inc/stm32f7xx_ll_dma.h ****   *         @arg @ref LL_DMA_STREAM_2
1181:Drivers/STM32F7xx_HAL_Driver/Inc/stm32f7xx_ll_dma.h ****   *         @arg @ref LL_DMA_STREAM_3
1182:Drivers/STM32F7xx_HAL_Driver/Inc/stm32f7xx_ll_dma.h ****   *         @arg @ref LL_DMA_STREAM_4
1183:Drivers/STM32F7xx_HAL_Driver/Inc/stm32f7xx_ll_dma.h ****   *         @arg @ref LL_DMA_STREAM_5
1184:Drivers/STM32F7xx_HAL_Driver/Inc/stm32f7xx_ll_dma.h ****   *         @arg @ref LL_DMA_STREAM_6
