ARM GAS  /tmp/cczFzV9F.s 			page 1


   1              		.cpu cortex-m7
   2              		.arch armv7e-m
   3              		.fpu fpv5-d16
   4              		.eabi_attribute 28, 1
   5              		.eabi_attribute 20, 1
   6              		.eabi_attribute 21, 1
   7              		.eabi_attribute 23, 3
   8              		.eabi_attribute 24, 1
   9              		.eabi_attribute 25, 1
  10              		.eabi_attribute 26, 1
  11              		.eabi_attribute 30, 1
  12              		.eabi_attribute 34, 1
  13              		.eabi_attribute 18, 4
  14              		.file	"stm32f7xx_hal_gpio.c"
  15              		.text
  16              	.Ltext0:
  17              		.cfi_sections	.debug_frame
  18              		.file 1 "Drivers/STM32F7xx_HAL_Driver/Src/stm32f7xx_hal_gpio.c"
  19              		.section	.text.HAL_GPIO_Init,"ax",%progbits
  20              		.align	1
  21              		.global	HAL_GPIO_Init
  22              		.syntax unified
  23              		.thumb
  24              		.thumb_func
  26              	HAL_GPIO_Init:
  27              	.LVL0:
  28              	.LFB141:
   1:Drivers/STM32F7xx_HAL_Driver/Src/stm32f7xx_hal_gpio.c **** /**
   2:Drivers/STM32F7xx_HAL_Driver/Src/stm32f7xx_hal_gpio.c ****   ******************************************************************************
   3:Drivers/STM32F7xx_HAL_Driver/Src/stm32f7xx_hal_gpio.c ****   * @file    stm32f7xx_hal_gpio.c
   4:Drivers/STM32F7xx_HAL_Driver/Src/stm32f7xx_hal_gpio.c ****   * @author  MCD Application Team
   5:Drivers/STM32F7xx_HAL_Driver/Src/stm32f7xx_hal_gpio.c ****   * @brief   GPIO HAL module driver.
   6:Drivers/STM32F7xx_HAL_Driver/Src/stm32f7xx_hal_gpio.c ****   *          This file provides firmware functions to manage the following
   7:Drivers/STM32F7xx_HAL_Driver/Src/stm32f7xx_hal_gpio.c ****   *          functionalities of the General Purpose Input/Output (GPIO) peripheral:
   8:Drivers/STM32F7xx_HAL_Driver/Src/stm32f7xx_hal_gpio.c ****   *           + Initialization and de-initialization functions
   9:Drivers/STM32F7xx_HAL_Driver/Src/stm32f7xx_hal_gpio.c ****   *           + IO operation functions
  10:Drivers/STM32F7xx_HAL_Driver/Src/stm32f7xx_hal_gpio.c ****   *
  11:Drivers/STM32F7xx_HAL_Driver/Src/stm32f7xx_hal_gpio.c ****   ******************************************************************************
  12:Drivers/STM32F7xx_HAL_Driver/Src/stm32f7xx_hal_gpio.c ****   * @attention
  13:Drivers/STM32F7xx_HAL_Driver/Src/stm32f7xx_hal_gpio.c ****   *
  14:Drivers/STM32F7xx_HAL_Driver/Src/stm32f7xx_hal_gpio.c ****   * Copyright (c) 2017 STMicroelectronics.
  15:Drivers/STM32F7xx_HAL_Driver/Src/stm32f7xx_hal_gpio.c ****   * All rights reserved.
  16:Drivers/STM32F7xx_HAL_Driver/Src/stm32f7xx_hal_gpio.c ****   *
  17:Drivers/STM32F7xx_HAL_Driver/Src/stm32f7xx_hal_gpio.c ****   * This software is licensed under terms that can be found in the LICENSE file
  18:Drivers/STM32F7xx_HAL_Driver/Src/stm32f7xx_hal_gpio.c ****   * in the root directory of this software component.
  19:Drivers/STM32F7xx_HAL_Driver/Src/stm32f7xx_hal_gpio.c ****   * If no LICENSE file comes with this software, it is provided AS-IS.
  20:Drivers/STM32F7xx_HAL_Driver/Src/stm32f7xx_hal_gpio.c ****   *
  21:Drivers/STM32F7xx_HAL_Driver/Src/stm32f7xx_hal_gpio.c ****   ******************************************************************************
  22:Drivers/STM32F7xx_HAL_Driver/Src/stm32f7xx_hal_gpio.c ****   @verbatim
  23:Drivers/STM32F7xx_HAL_Driver/Src/stm32f7xx_hal_gpio.c ****   ==============================================================================
  24:Drivers/STM32F7xx_HAL_Driver/Src/stm32f7xx_hal_gpio.c ****                     ##### GPIO Peripheral features #####
  25:Drivers/STM32F7xx_HAL_Driver/Src/stm32f7xx_hal_gpio.c ****   ==============================================================================
  26:Drivers/STM32F7xx_HAL_Driver/Src/stm32f7xx_hal_gpio.c ****   [..]
  27:Drivers/STM32F7xx_HAL_Driver/Src/stm32f7xx_hal_gpio.c ****   Subject to the specific hardware characteristics of each I/O port listed in the datasheet, each
  28:Drivers/STM32F7xx_HAL_Driver/Src/stm32f7xx_hal_gpio.c ****   port bit of the General Purpose IO (GPIO) Ports, can be individually configured by software
  29:Drivers/STM32F7xx_HAL_Driver/Src/stm32f7xx_hal_gpio.c ****   in several modes:
  30:Drivers/STM32F7xx_HAL_Driver/Src/stm32f7xx_hal_gpio.c ****   (+) Input mode
ARM GAS  /tmp/cczFzV9F.s 			page 2


  31:Drivers/STM32F7xx_HAL_Driver/Src/stm32f7xx_hal_gpio.c ****   (+) Analog mode
  32:Drivers/STM32F7xx_HAL_Driver/Src/stm32f7xx_hal_gpio.c ****   (+) Output mode
  33:Drivers/STM32F7xx_HAL_Driver/Src/stm32f7xx_hal_gpio.c ****   (+) Alternate function mode
  34:Drivers/STM32F7xx_HAL_Driver/Src/stm32f7xx_hal_gpio.c ****   (+) External interrupt/event lines
  35:Drivers/STM32F7xx_HAL_Driver/Src/stm32f7xx_hal_gpio.c **** 
  36:Drivers/STM32F7xx_HAL_Driver/Src/stm32f7xx_hal_gpio.c ****   [..]
  37:Drivers/STM32F7xx_HAL_Driver/Src/stm32f7xx_hal_gpio.c ****   During and just after reset, the alternate functions and external interrupt
  38:Drivers/STM32F7xx_HAL_Driver/Src/stm32f7xx_hal_gpio.c ****   lines are not active and the I/O ports are configured in input floating mode.
  39:Drivers/STM32F7xx_HAL_Driver/Src/stm32f7xx_hal_gpio.c **** 
  40:Drivers/STM32F7xx_HAL_Driver/Src/stm32f7xx_hal_gpio.c ****   [..]
  41:Drivers/STM32F7xx_HAL_Driver/Src/stm32f7xx_hal_gpio.c ****   All GPIO pins have weak internal pull-up and pull-down resistors, which can be
  42:Drivers/STM32F7xx_HAL_Driver/Src/stm32f7xx_hal_gpio.c ****   activated or not.
  43:Drivers/STM32F7xx_HAL_Driver/Src/stm32f7xx_hal_gpio.c **** 
  44:Drivers/STM32F7xx_HAL_Driver/Src/stm32f7xx_hal_gpio.c ****   [..]
  45:Drivers/STM32F7xx_HAL_Driver/Src/stm32f7xx_hal_gpio.c ****   In Output or Alternate mode, each IO can be configured on open-drain or push-pull
  46:Drivers/STM32F7xx_HAL_Driver/Src/stm32f7xx_hal_gpio.c ****   type and the IO speed can be selected depending on the VDD value.
  47:Drivers/STM32F7xx_HAL_Driver/Src/stm32f7xx_hal_gpio.c **** 
  48:Drivers/STM32F7xx_HAL_Driver/Src/stm32f7xx_hal_gpio.c ****   [..]
  49:Drivers/STM32F7xx_HAL_Driver/Src/stm32f7xx_hal_gpio.c ****   All ports have external interrupt/event capability. To use external interrupt
  50:Drivers/STM32F7xx_HAL_Driver/Src/stm32f7xx_hal_gpio.c ****   lines, the port must be configured in input mode. All available GPIO pins are
  51:Drivers/STM32F7xx_HAL_Driver/Src/stm32f7xx_hal_gpio.c ****   connected to the 16 external interrupt/event lines from EXTI0 to EXTI15.
  52:Drivers/STM32F7xx_HAL_Driver/Src/stm32f7xx_hal_gpio.c **** 
  53:Drivers/STM32F7xx_HAL_Driver/Src/stm32f7xx_hal_gpio.c ****   [..]
  54:Drivers/STM32F7xx_HAL_Driver/Src/stm32f7xx_hal_gpio.c ****   The external interrupt/event controller consists of up to 23 edge detectors
  55:Drivers/STM32F7xx_HAL_Driver/Src/stm32f7xx_hal_gpio.c ****   (16 lines are connected to GPIO) for generating event/interrupt requests (each
  56:Drivers/STM32F7xx_HAL_Driver/Src/stm32f7xx_hal_gpio.c ****   input line can be independently configured to select the type (interrupt or event)
  57:Drivers/STM32F7xx_HAL_Driver/Src/stm32f7xx_hal_gpio.c ****   and the corresponding trigger event (rising or falling or both). Each line can
  58:Drivers/STM32F7xx_HAL_Driver/Src/stm32f7xx_hal_gpio.c ****   also be masked independently.
  59:Drivers/STM32F7xx_HAL_Driver/Src/stm32f7xx_hal_gpio.c **** 
  60:Drivers/STM32F7xx_HAL_Driver/Src/stm32f7xx_hal_gpio.c ****                      ##### How to use this driver #####
  61:Drivers/STM32F7xx_HAL_Driver/Src/stm32f7xx_hal_gpio.c ****   ==============================================================================
  62:Drivers/STM32F7xx_HAL_Driver/Src/stm32f7xx_hal_gpio.c ****   [..]
  63:Drivers/STM32F7xx_HAL_Driver/Src/stm32f7xx_hal_gpio.c ****     (#) Enable the GPIO AHB clock using the following function: __HAL_RCC_GPIOx_CLK_ENABLE().
  64:Drivers/STM32F7xx_HAL_Driver/Src/stm32f7xx_hal_gpio.c **** 
  65:Drivers/STM32F7xx_HAL_Driver/Src/stm32f7xx_hal_gpio.c ****     (#) Configure the GPIO pin(s) using HAL_GPIO_Init().
  66:Drivers/STM32F7xx_HAL_Driver/Src/stm32f7xx_hal_gpio.c ****         (++) Configure the IO mode using "Mode" member from GPIO_InitTypeDef structure
  67:Drivers/STM32F7xx_HAL_Driver/Src/stm32f7xx_hal_gpio.c ****         (++) Activate Pull-up, Pull-down resistor using "Pull" member from GPIO_InitTypeDef
  68:Drivers/STM32F7xx_HAL_Driver/Src/stm32f7xx_hal_gpio.c ****              structure.
  69:Drivers/STM32F7xx_HAL_Driver/Src/stm32f7xx_hal_gpio.c ****         (++) In case of Output or alternate function mode selection: the speed is
  70:Drivers/STM32F7xx_HAL_Driver/Src/stm32f7xx_hal_gpio.c ****              configured through "Speed" member from GPIO_InitTypeDef structure.
  71:Drivers/STM32F7xx_HAL_Driver/Src/stm32f7xx_hal_gpio.c ****         (++) In alternate mode is selection, the alternate function connected to the IO
  72:Drivers/STM32F7xx_HAL_Driver/Src/stm32f7xx_hal_gpio.c ****              is configured through "Alternate" member from GPIO_InitTypeDef structure.
  73:Drivers/STM32F7xx_HAL_Driver/Src/stm32f7xx_hal_gpio.c ****         (++) Analog mode is required when a pin is to be used as ADC channel
  74:Drivers/STM32F7xx_HAL_Driver/Src/stm32f7xx_hal_gpio.c ****              or DAC output.
  75:Drivers/STM32F7xx_HAL_Driver/Src/stm32f7xx_hal_gpio.c ****         (++) In case of external interrupt/event selection the "Mode" member from
  76:Drivers/STM32F7xx_HAL_Driver/Src/stm32f7xx_hal_gpio.c ****              GPIO_InitTypeDef structure select the type (interrupt or event) and
  77:Drivers/STM32F7xx_HAL_Driver/Src/stm32f7xx_hal_gpio.c ****              the corresponding trigger event (rising or falling or both).
  78:Drivers/STM32F7xx_HAL_Driver/Src/stm32f7xx_hal_gpio.c **** 
  79:Drivers/STM32F7xx_HAL_Driver/Src/stm32f7xx_hal_gpio.c ****     (#) In case of external interrupt/event mode selection, configure NVIC IRQ priority
  80:Drivers/STM32F7xx_HAL_Driver/Src/stm32f7xx_hal_gpio.c ****         mapped to the EXTI line using HAL_NVIC_SetPriority() and enable it using
  81:Drivers/STM32F7xx_HAL_Driver/Src/stm32f7xx_hal_gpio.c ****         HAL_NVIC_EnableIRQ().
  82:Drivers/STM32F7xx_HAL_Driver/Src/stm32f7xx_hal_gpio.c **** 
  83:Drivers/STM32F7xx_HAL_Driver/Src/stm32f7xx_hal_gpio.c ****     (#) To get the level of a pin configured in input mode use HAL_GPIO_ReadPin().
  84:Drivers/STM32F7xx_HAL_Driver/Src/stm32f7xx_hal_gpio.c **** 
  85:Drivers/STM32F7xx_HAL_Driver/Src/stm32f7xx_hal_gpio.c ****     (#) To set/reset the level of a pin configured in output mode use
  86:Drivers/STM32F7xx_HAL_Driver/Src/stm32f7xx_hal_gpio.c ****         HAL_GPIO_WritePin()/HAL_GPIO_TogglePin().
  87:Drivers/STM32F7xx_HAL_Driver/Src/stm32f7xx_hal_gpio.c **** 
ARM GAS  /tmp/cczFzV9F.s 			page 3


  88:Drivers/STM32F7xx_HAL_Driver/Src/stm32f7xx_hal_gpio.c ****     (#) To lock pin configuration until next reset use HAL_GPIO_LockPin().
  89:Drivers/STM32F7xx_HAL_Driver/Src/stm32f7xx_hal_gpio.c **** 
  90:Drivers/STM32F7xx_HAL_Driver/Src/stm32f7xx_hal_gpio.c **** 
  91:Drivers/STM32F7xx_HAL_Driver/Src/stm32f7xx_hal_gpio.c ****     (#) During and just after reset, the alternate functions are not
  92:Drivers/STM32F7xx_HAL_Driver/Src/stm32f7xx_hal_gpio.c ****         active and the GPIO pins are configured in input floating mode (except JTAG
  93:Drivers/STM32F7xx_HAL_Driver/Src/stm32f7xx_hal_gpio.c ****         pins).
  94:Drivers/STM32F7xx_HAL_Driver/Src/stm32f7xx_hal_gpio.c **** 
  95:Drivers/STM32F7xx_HAL_Driver/Src/stm32f7xx_hal_gpio.c ****     (#) The LSE oscillator pins OSC32_IN and OSC32_OUT can be used as general purpose
  96:Drivers/STM32F7xx_HAL_Driver/Src/stm32f7xx_hal_gpio.c ****         (PC14 and PC15, respectively) when the LSE oscillator is off. The LSE has
  97:Drivers/STM32F7xx_HAL_Driver/Src/stm32f7xx_hal_gpio.c ****         priority over the GPIO function.
  98:Drivers/STM32F7xx_HAL_Driver/Src/stm32f7xx_hal_gpio.c **** 
  99:Drivers/STM32F7xx_HAL_Driver/Src/stm32f7xx_hal_gpio.c ****     (#) The HSE oscillator pins OSC_IN/OSC_OUT can be used as
 100:Drivers/STM32F7xx_HAL_Driver/Src/stm32f7xx_hal_gpio.c ****         general purpose PH0 and PH1, respectively, when the HSE oscillator is off.
 101:Drivers/STM32F7xx_HAL_Driver/Src/stm32f7xx_hal_gpio.c ****         The HSE has priority over the GPIO function.
 102:Drivers/STM32F7xx_HAL_Driver/Src/stm32f7xx_hal_gpio.c **** 
 103:Drivers/STM32F7xx_HAL_Driver/Src/stm32f7xx_hal_gpio.c ****   @endverbatim
 104:Drivers/STM32F7xx_HAL_Driver/Src/stm32f7xx_hal_gpio.c ****   ******************************************************************************
 105:Drivers/STM32F7xx_HAL_Driver/Src/stm32f7xx_hal_gpio.c ****   */
 106:Drivers/STM32F7xx_HAL_Driver/Src/stm32f7xx_hal_gpio.c **** 
 107:Drivers/STM32F7xx_HAL_Driver/Src/stm32f7xx_hal_gpio.c **** /* Includes ------------------------------------------------------------------*/
 108:Drivers/STM32F7xx_HAL_Driver/Src/stm32f7xx_hal_gpio.c **** #include "stm32f7xx_hal.h"
 109:Drivers/STM32F7xx_HAL_Driver/Src/stm32f7xx_hal_gpio.c **** 
 110:Drivers/STM32F7xx_HAL_Driver/Src/stm32f7xx_hal_gpio.c **** /** @addtogroup STM32F7xx_HAL_Driver
 111:Drivers/STM32F7xx_HAL_Driver/Src/stm32f7xx_hal_gpio.c ****   * @{
 112:Drivers/STM32F7xx_HAL_Driver/Src/stm32f7xx_hal_gpio.c ****   */
 113:Drivers/STM32F7xx_HAL_Driver/Src/stm32f7xx_hal_gpio.c **** 
 114:Drivers/STM32F7xx_HAL_Driver/Src/stm32f7xx_hal_gpio.c **** /** @defgroup GPIO GPIO
 115:Drivers/STM32F7xx_HAL_Driver/Src/stm32f7xx_hal_gpio.c ****   * @brief GPIO HAL module driver
 116:Drivers/STM32F7xx_HAL_Driver/Src/stm32f7xx_hal_gpio.c ****   * @{
 117:Drivers/STM32F7xx_HAL_Driver/Src/stm32f7xx_hal_gpio.c ****   */
 118:Drivers/STM32F7xx_HAL_Driver/Src/stm32f7xx_hal_gpio.c **** 
 119:Drivers/STM32F7xx_HAL_Driver/Src/stm32f7xx_hal_gpio.c **** #ifdef HAL_GPIO_MODULE_ENABLED
 120:Drivers/STM32F7xx_HAL_Driver/Src/stm32f7xx_hal_gpio.c **** 
 121:Drivers/STM32F7xx_HAL_Driver/Src/stm32f7xx_hal_gpio.c **** /* Private typedef -----------------------------------------------------------*/
 122:Drivers/STM32F7xx_HAL_Driver/Src/stm32f7xx_hal_gpio.c **** /* Private define ------------------------------------------------------------*/
 123:Drivers/STM32F7xx_HAL_Driver/Src/stm32f7xx_hal_gpio.c **** /** @addtogroup GPIO_Private_Constants GPIO Private Constants
 124:Drivers/STM32F7xx_HAL_Driver/Src/stm32f7xx_hal_gpio.c ****   * @{
 125:Drivers/STM32F7xx_HAL_Driver/Src/stm32f7xx_hal_gpio.c ****   */
 126:Drivers/STM32F7xx_HAL_Driver/Src/stm32f7xx_hal_gpio.c **** 
 127:Drivers/STM32F7xx_HAL_Driver/Src/stm32f7xx_hal_gpio.c **** #define GPIO_NUMBER           ((uint32_t)16U)
 128:Drivers/STM32F7xx_HAL_Driver/Src/stm32f7xx_hal_gpio.c **** /**
 129:Drivers/STM32F7xx_HAL_Driver/Src/stm32f7xx_hal_gpio.c ****   * @}
 130:Drivers/STM32F7xx_HAL_Driver/Src/stm32f7xx_hal_gpio.c ****   */
 131:Drivers/STM32F7xx_HAL_Driver/Src/stm32f7xx_hal_gpio.c **** /* Private macro -------------------------------------------------------------*/
 132:Drivers/STM32F7xx_HAL_Driver/Src/stm32f7xx_hal_gpio.c **** /* Private variables ---------------------------------------------------------*/
 133:Drivers/STM32F7xx_HAL_Driver/Src/stm32f7xx_hal_gpio.c **** /* Private function prototypes -----------------------------------------------*/
 134:Drivers/STM32F7xx_HAL_Driver/Src/stm32f7xx_hal_gpio.c **** /* Private functions ---------------------------------------------------------*/
 135:Drivers/STM32F7xx_HAL_Driver/Src/stm32f7xx_hal_gpio.c **** /* Exported functions --------------------------------------------------------*/
 136:Drivers/STM32F7xx_HAL_Driver/Src/stm32f7xx_hal_gpio.c **** /** @defgroup GPIO_Exported_Functions GPIO Exported Functions
 137:Drivers/STM32F7xx_HAL_Driver/Src/stm32f7xx_hal_gpio.c ****   * @{
 138:Drivers/STM32F7xx_HAL_Driver/Src/stm32f7xx_hal_gpio.c ****   */
 139:Drivers/STM32F7xx_HAL_Driver/Src/stm32f7xx_hal_gpio.c **** 
 140:Drivers/STM32F7xx_HAL_Driver/Src/stm32f7xx_hal_gpio.c **** /** @defgroup GPIO_Exported_Functions_Group1 Initialization and de-initialization functions
 141:Drivers/STM32F7xx_HAL_Driver/Src/stm32f7xx_hal_gpio.c ****  *  @brief    Initialization and Configuration functions
 142:Drivers/STM32F7xx_HAL_Driver/Src/stm32f7xx_hal_gpio.c ****  *
 143:Drivers/STM32F7xx_HAL_Driver/Src/stm32f7xx_hal_gpio.c **** @verbatim
 144:Drivers/STM32F7xx_HAL_Driver/Src/stm32f7xx_hal_gpio.c ****  ===============================================================================
ARM GAS  /tmp/cczFzV9F.s 			page 4


 145:Drivers/STM32F7xx_HAL_Driver/Src/stm32f7xx_hal_gpio.c ****               ##### Initialization and de-initialization functions #####
 146:Drivers/STM32F7xx_HAL_Driver/Src/stm32f7xx_hal_gpio.c ****  ===============================================================================
 147:Drivers/STM32F7xx_HAL_Driver/Src/stm32f7xx_hal_gpio.c ****   [..]
 148:Drivers/STM32F7xx_HAL_Driver/Src/stm32f7xx_hal_gpio.c ****     This section provides functions allowing to initialize and de-initialize the GPIOs
 149:Drivers/STM32F7xx_HAL_Driver/Src/stm32f7xx_hal_gpio.c ****     to be ready for use.
 150:Drivers/STM32F7xx_HAL_Driver/Src/stm32f7xx_hal_gpio.c **** 
 151:Drivers/STM32F7xx_HAL_Driver/Src/stm32f7xx_hal_gpio.c **** @endverbatim
 152:Drivers/STM32F7xx_HAL_Driver/Src/stm32f7xx_hal_gpio.c ****   * @{
 153:Drivers/STM32F7xx_HAL_Driver/Src/stm32f7xx_hal_gpio.c ****   */
 154:Drivers/STM32F7xx_HAL_Driver/Src/stm32f7xx_hal_gpio.c **** 
 155:Drivers/STM32F7xx_HAL_Driver/Src/stm32f7xx_hal_gpio.c **** /**
 156:Drivers/STM32F7xx_HAL_Driver/Src/stm32f7xx_hal_gpio.c ****   * @brief  Initializes the GPIOx peripheral according to the specified parameters in the GPIO_Init
 157:Drivers/STM32F7xx_HAL_Driver/Src/stm32f7xx_hal_gpio.c ****   * @param  GPIOx where x can be (A..K) to select the GPIO peripheral.
 158:Drivers/STM32F7xx_HAL_Driver/Src/stm32f7xx_hal_gpio.c ****   * @param  GPIO_Init pointer to a GPIO_InitTypeDef structure that contains
 159:Drivers/STM32F7xx_HAL_Driver/Src/stm32f7xx_hal_gpio.c ****   *         the configuration information for the specified GPIO peripheral.
 160:Drivers/STM32F7xx_HAL_Driver/Src/stm32f7xx_hal_gpio.c ****   * @retval None
 161:Drivers/STM32F7xx_HAL_Driver/Src/stm32f7xx_hal_gpio.c ****   */
 162:Drivers/STM32F7xx_HAL_Driver/Src/stm32f7xx_hal_gpio.c **** void HAL_GPIO_Init(GPIO_TypeDef  *GPIOx, GPIO_InitTypeDef *GPIO_Init)
 163:Drivers/STM32F7xx_HAL_Driver/Src/stm32f7xx_hal_gpio.c **** {
  29              		.loc 1 163 1 view -0
  30              		.cfi_startproc
  31              		@ args = 0, pretend = 0, frame = 8
  32              		@ frame_needed = 0, uses_anonymous_args = 0
  33              		.loc 1 163 1 is_stmt 0 view .LVU1
  34 0000 70B5     		push	{r4, r5, r6, lr}
  35              	.LCFI0:
  36              		.cfi_def_cfa_offset 16
  37              		.cfi_offset 4, -16
  38              		.cfi_offset 5, -12
  39              		.cfi_offset 6, -8
  40              		.cfi_offset 14, -4
  41 0002 82B0     		sub	sp, sp, #8
  42              	.LCFI1:
  43              		.cfi_def_cfa_offset 24
  44 0004 8E46     		mov	lr, r1
 164:Drivers/STM32F7xx_HAL_Driver/Src/stm32f7xx_hal_gpio.c ****   uint32_t position = 0x00;
  45              		.loc 1 164 3 is_stmt 1 view .LVU2
 165:Drivers/STM32F7xx_HAL_Driver/Src/stm32f7xx_hal_gpio.c ****   uint32_t ioposition = 0x00;
  46              		.loc 1 165 3 view .LVU3
  47              	.LVL1:
 166:Drivers/STM32F7xx_HAL_Driver/Src/stm32f7xx_hal_gpio.c ****   uint32_t iocurrent = 0x00;
  48              		.loc 1 166 3 view .LVU4
 167:Drivers/STM32F7xx_HAL_Driver/Src/stm32f7xx_hal_gpio.c ****   uint32_t temp = 0x00;
  49              		.loc 1 167 3 view .LVU5
 168:Drivers/STM32F7xx_HAL_Driver/Src/stm32f7xx_hal_gpio.c **** 
 169:Drivers/STM32F7xx_HAL_Driver/Src/stm32f7xx_hal_gpio.c ****   /* Check the parameters */
 170:Drivers/STM32F7xx_HAL_Driver/Src/stm32f7xx_hal_gpio.c ****   assert_param(IS_GPIO_ALL_INSTANCE(GPIOx));
  50              		.loc 1 170 3 view .LVU6
 171:Drivers/STM32F7xx_HAL_Driver/Src/stm32f7xx_hal_gpio.c ****   assert_param(IS_GPIO_PIN(GPIO_Init->Pin));
  51              		.loc 1 171 3 view .LVU7
 172:Drivers/STM32F7xx_HAL_Driver/Src/stm32f7xx_hal_gpio.c ****   assert_param(IS_GPIO_MODE(GPIO_Init->Mode));
  52              		.loc 1 172 3 view .LVU8
 173:Drivers/STM32F7xx_HAL_Driver/Src/stm32f7xx_hal_gpio.c **** 
 174:Drivers/STM32F7xx_HAL_Driver/Src/stm32f7xx_hal_gpio.c ****   /* Configure the port pins */
 175:Drivers/STM32F7xx_HAL_Driver/Src/stm32f7xx_hal_gpio.c ****   for (position = 0; position < GPIO_NUMBER; position++)
  53              		.loc 1 175 3 view .LVU9
  54              		.loc 1 175 17 is_stmt 0 view .LVU10
ARM GAS  /tmp/cczFzV9F.s 			page 5


  55 0006 0023     		movs	r3, #0
  56              		.loc 1 175 3 view .LVU11
  57 0008 69E0     		b	.L2
  58              	.LVL2:
  59              	.L25:
 176:Drivers/STM32F7xx_HAL_Driver/Src/stm32f7xx_hal_gpio.c ****   {
 177:Drivers/STM32F7xx_HAL_Driver/Src/stm32f7xx_hal_gpio.c ****     /* Get the IO position */
 178:Drivers/STM32F7xx_HAL_Driver/Src/stm32f7xx_hal_gpio.c ****     ioposition = ((uint32_t)0x01) << position;
 179:Drivers/STM32F7xx_HAL_Driver/Src/stm32f7xx_hal_gpio.c ****     /* Get the current IO position */
 180:Drivers/STM32F7xx_HAL_Driver/Src/stm32f7xx_hal_gpio.c ****     iocurrent = (uint32_t)(GPIO_Init->Pin) & ioposition;
 181:Drivers/STM32F7xx_HAL_Driver/Src/stm32f7xx_hal_gpio.c **** 
 182:Drivers/STM32F7xx_HAL_Driver/Src/stm32f7xx_hal_gpio.c ****     if (iocurrent == ioposition)
 183:Drivers/STM32F7xx_HAL_Driver/Src/stm32f7xx_hal_gpio.c ****     {
 184:Drivers/STM32F7xx_HAL_Driver/Src/stm32f7xx_hal_gpio.c ****       /*--------------------- GPIO Mode Configuration ------------------------*/
 185:Drivers/STM32F7xx_HAL_Driver/Src/stm32f7xx_hal_gpio.c ****       /* In case of Output or Alternate function mode selection */
 186:Drivers/STM32F7xx_HAL_Driver/Src/stm32f7xx_hal_gpio.c ****       if (((GPIO_Init->Mode & GPIO_MODE) == MODE_OUTPUT) || ((GPIO_Init->Mode & GPIO_MODE) == MODE_
 187:Drivers/STM32F7xx_HAL_Driver/Src/stm32f7xx_hal_gpio.c ****       {
 188:Drivers/STM32F7xx_HAL_Driver/Src/stm32f7xx_hal_gpio.c ****         /* Check the Speed parameter */
 189:Drivers/STM32F7xx_HAL_Driver/Src/stm32f7xx_hal_gpio.c ****         assert_param(IS_GPIO_SPEED(GPIO_Init->Speed));
  60              		.loc 1 189 9 is_stmt 1 view .LVU12
 190:Drivers/STM32F7xx_HAL_Driver/Src/stm32f7xx_hal_gpio.c ****         /* Configure the IO Speed */
 191:Drivers/STM32F7xx_HAL_Driver/Src/stm32f7xx_hal_gpio.c ****         temp = GPIOx->OSPEEDR;
  61              		.loc 1 191 9 view .LVU13
  62              		.loc 1 191 14 is_stmt 0 view .LVU14
  63 000a 8568     		ldr	r5, [r0, #8]
  64              	.LVL3:
 192:Drivers/STM32F7xx_HAL_Driver/Src/stm32f7xx_hal_gpio.c ****         temp &= ~(GPIO_OSPEEDER_OSPEEDR0 << (position * 2));
  65              		.loc 1 192 9 is_stmt 1 view .LVU15
  66              		.loc 1 192 55 is_stmt 0 view .LVU16
  67 000c 4FEA430C 		lsl	ip, r3, #1
  68              		.loc 1 192 42 view .LVU17
  69 0010 0321     		movs	r1, #3
  70 0012 01FA0CF1 		lsl	r1, r1, ip
  71              		.loc 1 192 14 view .LVU18
  72 0016 25EA0105 		bic	r5, r5, r1
  73              	.LVL4:
 193:Drivers/STM32F7xx_HAL_Driver/Src/stm32f7xx_hal_gpio.c ****         temp |= (GPIO_Init->Speed << (position * 2));
  74              		.loc 1 193 9 is_stmt 1 view .LVU19
  75              		.loc 1 193 27 is_stmt 0 view .LVU20
  76 001a DEF80C10 		ldr	r1, [lr, #12]
  77              		.loc 1 193 35 view .LVU21
  78 001e 01FA0CF1 		lsl	r1, r1, ip
  79              		.loc 1 193 14 view .LVU22
  80 0022 2943     		orrs	r1, r1, r5
  81              	.LVL5:
 194:Drivers/STM32F7xx_HAL_Driver/Src/stm32f7xx_hal_gpio.c ****         GPIOx->OSPEEDR = temp;
  82              		.loc 1 194 9 is_stmt 1 view .LVU23
  83              		.loc 1 194 24 is_stmt 0 view .LVU24
  84 0024 8160     		str	r1, [r0, #8]
 195:Drivers/STM32F7xx_HAL_Driver/Src/stm32f7xx_hal_gpio.c **** 
 196:Drivers/STM32F7xx_HAL_Driver/Src/stm32f7xx_hal_gpio.c ****         /* Configure the IO Output Type */
 197:Drivers/STM32F7xx_HAL_Driver/Src/stm32f7xx_hal_gpio.c ****         temp = GPIOx->OTYPER;
  85              		.loc 1 197 9 is_stmt 1 view .LVU25
  86              		.loc 1 197 14 is_stmt 0 view .LVU26
  87 0026 4168     		ldr	r1, [r0, #4]
  88              	.LVL6:
 198:Drivers/STM32F7xx_HAL_Driver/Src/stm32f7xx_hal_gpio.c ****         temp &= ~(GPIO_OTYPER_OT_0 << position) ;
ARM GAS  /tmp/cczFzV9F.s 			page 6


  89              		.loc 1 198 9 is_stmt 1 view .LVU27
  90              		.loc 1 198 14 is_stmt 0 view .LVU28
  91 0028 21EA0201 		bic	r1, r1, r2
  92              	.LVL7:
 199:Drivers/STM32F7xx_HAL_Driver/Src/stm32f7xx_hal_gpio.c ****         temp |= (((GPIO_Init->Mode & OUTPUT_TYPE) >> OUTPUT_TYPE_Pos) << position);
  93              		.loc 1 199 9 is_stmt 1 view .LVU29
  94              		.loc 1 199 29 is_stmt 0 view .LVU30
  95 002c DEF80420 		ldr	r2, [lr, #4]
  96              	.LVL8:
  97              		.loc 1 199 51 view .LVU31
  98 0030 C2F30012 		ubfx	r2, r2, #4, #1
  99              		.loc 1 199 71 view .LVU32
 100 0034 9A40     		lsls	r2, r2, r3
 101              		.loc 1 199 14 view .LVU33
 102 0036 0A43     		orrs	r2, r2, r1
 103              	.LVL9:
 200:Drivers/STM32F7xx_HAL_Driver/Src/stm32f7xx_hal_gpio.c ****         GPIOx->OTYPER = temp;
 104              		.loc 1 200 9 is_stmt 1 view .LVU34
 105              		.loc 1 200 23 is_stmt 0 view .LVU35
 106 0038 4260     		str	r2, [r0, #4]
 107 003a 65E0     		b	.L4
 108              	.LVL10:
 109              	.L26:
 201:Drivers/STM32F7xx_HAL_Driver/Src/stm32f7xx_hal_gpio.c ****       }
 202:Drivers/STM32F7xx_HAL_Driver/Src/stm32f7xx_hal_gpio.c **** 
 203:Drivers/STM32F7xx_HAL_Driver/Src/stm32f7xx_hal_gpio.c ****       if ((GPIO_Init->Mode & GPIO_MODE) != MODE_ANALOG)
 204:Drivers/STM32F7xx_HAL_Driver/Src/stm32f7xx_hal_gpio.c ****       {
 205:Drivers/STM32F7xx_HAL_Driver/Src/stm32f7xx_hal_gpio.c ****         /* Check the Pull parameter */
 206:Drivers/STM32F7xx_HAL_Driver/Src/stm32f7xx_hal_gpio.c ****         assert_param(IS_GPIO_PULL(GPIO_Init->Pull));
 207:Drivers/STM32F7xx_HAL_Driver/Src/stm32f7xx_hal_gpio.c **** 
 208:Drivers/STM32F7xx_HAL_Driver/Src/stm32f7xx_hal_gpio.c ****         /* Activate the Pull-up or Pull down resistor for the current IO */
 209:Drivers/STM32F7xx_HAL_Driver/Src/stm32f7xx_hal_gpio.c ****         temp = GPIOx->PUPDR;
 210:Drivers/STM32F7xx_HAL_Driver/Src/stm32f7xx_hal_gpio.c ****         temp &= ~(GPIO_PUPDR_PUPDR0 << (position * 2));
 211:Drivers/STM32F7xx_HAL_Driver/Src/stm32f7xx_hal_gpio.c ****         temp |= ((GPIO_Init->Pull) << (position * 2));
 212:Drivers/STM32F7xx_HAL_Driver/Src/stm32f7xx_hal_gpio.c ****         GPIOx->PUPDR = temp;
 213:Drivers/STM32F7xx_HAL_Driver/Src/stm32f7xx_hal_gpio.c ****       }
 214:Drivers/STM32F7xx_HAL_Driver/Src/stm32f7xx_hal_gpio.c **** 
 215:Drivers/STM32F7xx_HAL_Driver/Src/stm32f7xx_hal_gpio.c ****       /* In case of Alternate function mode selection */
 216:Drivers/STM32F7xx_HAL_Driver/Src/stm32f7xx_hal_gpio.c ****       if ((GPIO_Init->Mode & GPIO_MODE) == MODE_AF)
 217:Drivers/STM32F7xx_HAL_Driver/Src/stm32f7xx_hal_gpio.c ****       {
 218:Drivers/STM32F7xx_HAL_Driver/Src/stm32f7xx_hal_gpio.c ****         /* Check the Alternate function parameter */
 219:Drivers/STM32F7xx_HAL_Driver/Src/stm32f7xx_hal_gpio.c ****         assert_param(IS_GPIO_AF(GPIO_Init->Alternate));
 110              		.loc 1 219 9 is_stmt 1 view .LVU36
 220:Drivers/STM32F7xx_HAL_Driver/Src/stm32f7xx_hal_gpio.c **** 
 221:Drivers/STM32F7xx_HAL_Driver/Src/stm32f7xx_hal_gpio.c ****         /* Configure Alternate function mapped with the current IO */
 222:Drivers/STM32F7xx_HAL_Driver/Src/stm32f7xx_hal_gpio.c ****         temp = GPIOx->AFR[position >> 3];
 111              		.loc 1 222 9 view .LVU37
 112              		.loc 1 222 36 is_stmt 0 view .LVU38
 113 003c D908     		lsrs	r1, r3, #3
 114              		.loc 1 222 14 view .LVU39
 115 003e 0831     		adds	r1, r1, #8
 116 0040 50F82120 		ldr	r2, [r0, r1, lsl #2]
 117              	.LVL11:
 223:Drivers/STM32F7xx_HAL_Driver/Src/stm32f7xx_hal_gpio.c ****         temp &= ~((uint32_t)0xF << ((uint32_t)(position & (uint32_t)0x07) * 4)) ;
 118              		.loc 1 223 9 is_stmt 1 view .LVU40
 119              		.loc 1 223 37 is_stmt 0 view .LVU41
 120 0044 03F00705 		and	r5, r3, #7
ARM GAS  /tmp/cczFzV9F.s 			page 7


 121              		.loc 1 223 75 view .LVU42
 122 0048 AD00     		lsls	r5, r5, #2
 123              		.loc 1 223 33 view .LVU43
 124 004a 4FF00F0C 		mov	ip, #15
 125 004e 0CFA05FC 		lsl	ip, ip, r5
 126              		.loc 1 223 14 view .LVU44
 127 0052 22EA0C0C 		bic	ip, r2, ip
 128              	.LVL12:
 224:Drivers/STM32F7xx_HAL_Driver/Src/stm32f7xx_hal_gpio.c ****         temp |= ((uint32_t)(GPIO_Init->Alternate) << (((uint32_t)position & (uint32_t)0x07) * 4));
 129              		.loc 1 224 9 is_stmt 1 view .LVU45
 130              		.loc 1 224 38 is_stmt 0 view .LVU46
 131 0056 DEF81020 		ldr	r2, [lr, #16]
 132              		.loc 1 224 51 view .LVU47
 133 005a AA40     		lsls	r2, r2, r5
 134              		.loc 1 224 14 view .LVU48
 135 005c 42EA0C02 		orr	r2, r2, ip
 136              	.LVL13:
 225:Drivers/STM32F7xx_HAL_Driver/Src/stm32f7xx_hal_gpio.c ****         GPIOx->AFR[position >> 3] = temp;
 137              		.loc 1 225 9 is_stmt 1 view .LVU49
 138              		.loc 1 225 35 is_stmt 0 view .LVU50
 139 0060 40F82120 		str	r2, [r0, r1, lsl #2]
 140 0064 67E0     		b	.L6
 141              	.LVL14:
 142              	.L27:
 226:Drivers/STM32F7xx_HAL_Driver/Src/stm32f7xx_hal_gpio.c ****       }
 227:Drivers/STM32F7xx_HAL_Driver/Src/stm32f7xx_hal_gpio.c **** 
 228:Drivers/STM32F7xx_HAL_Driver/Src/stm32f7xx_hal_gpio.c ****       /* Configure IO Direction mode (Input, Output, Alternate or Analog) */
 229:Drivers/STM32F7xx_HAL_Driver/Src/stm32f7xx_hal_gpio.c ****       temp = GPIOx->MODER;
 230:Drivers/STM32F7xx_HAL_Driver/Src/stm32f7xx_hal_gpio.c ****       temp &= ~(GPIO_MODER_MODER0 << (position * 2));
 231:Drivers/STM32F7xx_HAL_Driver/Src/stm32f7xx_hal_gpio.c ****       temp |= ((GPIO_Init->Mode & GPIO_MODE) << (position * 2));
 232:Drivers/STM32F7xx_HAL_Driver/Src/stm32f7xx_hal_gpio.c ****       GPIOx->MODER = temp;
 233:Drivers/STM32F7xx_HAL_Driver/Src/stm32f7xx_hal_gpio.c **** 
 234:Drivers/STM32F7xx_HAL_Driver/Src/stm32f7xx_hal_gpio.c ****       /*--------------------- EXTI Mode Configuration ------------------------*/
 235:Drivers/STM32F7xx_HAL_Driver/Src/stm32f7xx_hal_gpio.c ****       /* Configure the External Interrupt or event for the current IO */
 236:Drivers/STM32F7xx_HAL_Driver/Src/stm32f7xx_hal_gpio.c ****       if ((GPIO_Init->Mode & EXTI_MODE) != 0x00u)
 237:Drivers/STM32F7xx_HAL_Driver/Src/stm32f7xx_hal_gpio.c ****       {
 238:Drivers/STM32F7xx_HAL_Driver/Src/stm32f7xx_hal_gpio.c ****         /* Enable SYSCFG Clock */
 239:Drivers/STM32F7xx_HAL_Driver/Src/stm32f7xx_hal_gpio.c ****         __HAL_RCC_SYSCFG_CLK_ENABLE();
 240:Drivers/STM32F7xx_HAL_Driver/Src/stm32f7xx_hal_gpio.c **** 
 241:Drivers/STM32F7xx_HAL_Driver/Src/stm32f7xx_hal_gpio.c ****         temp = SYSCFG->EXTICR[position >> 2];
 242:Drivers/STM32F7xx_HAL_Driver/Src/stm32f7xx_hal_gpio.c ****         temp &= ~(((uint32_t)0x0F) << (4 * (position & 0x03)));
 243:Drivers/STM32F7xx_HAL_Driver/Src/stm32f7xx_hal_gpio.c ****         temp |= ((uint32_t)(GPIO_GET_INDEX(GPIOx)) << (4 * (position & 0x03)));
 143              		.loc 1 243 18 discriminator 19 view .LVU51
 144 0066 0922     		movs	r2, #9
 145 0068 00E0     		b	.L7
 146              	.L13:
 147              		.loc 1 243 18 discriminator 2 view .LVU52
 148 006a 0022     		movs	r2, #0
 149              	.L7:
 150              		.loc 1 243 52 discriminator 21 view .LVU53
 151 006c 02FA0CF2 		lsl	r2, r2, ip
 152              		.loc 1 243 14 discriminator 21 view .LVU54
 153 0070 2A43     		orrs	r2, r2, r5
 154              	.LVL15:
 244:Drivers/STM32F7xx_HAL_Driver/Src/stm32f7xx_hal_gpio.c ****         SYSCFG->EXTICR[position >> 2] = temp;
 155              		.loc 1 244 9 is_stmt 1 view .LVU55
 156              		.loc 1 244 39 is_stmt 0 view .LVU56
ARM GAS  /tmp/cczFzV9F.s 			page 8


 157 0072 0231     		adds	r1, r1, #2
 158 0074 654D     		ldr	r5, .L28
 159 0076 45F82120 		str	r2, [r5, r1, lsl #2]
 245:Drivers/STM32F7xx_HAL_Driver/Src/stm32f7xx_hal_gpio.c **** 
 246:Drivers/STM32F7xx_HAL_Driver/Src/stm32f7xx_hal_gpio.c ****         /* Clear Rising Falling edge configuration */
 247:Drivers/STM32F7xx_HAL_Driver/Src/stm32f7xx_hal_gpio.c ****         temp = EXTI->RTSR;
 160              		.loc 1 247 9 is_stmt 1 view .LVU57
 161              		.loc 1 247 14 is_stmt 0 view .LVU58
 162 007a 654A     		ldr	r2, .L28+4
 163              	.LVL16:
 164              		.loc 1 247 14 view .LVU59
 165 007c 9168     		ldr	r1, [r2, #8]
 166              	.LVL17:
 248:Drivers/STM32F7xx_HAL_Driver/Src/stm32f7xx_hal_gpio.c ****         temp &= ~((uint32_t)iocurrent);
 167              		.loc 1 248 9 is_stmt 1 view .LVU60
 168              		.loc 1 248 17 is_stmt 0 view .LVU61
 169 007e E243     		mvns	r2, r4
 170              		.loc 1 248 14 view .LVU62
 171 0080 21EA0405 		bic	r5, r1, r4
 172              	.LVL18:
 249:Drivers/STM32F7xx_HAL_Driver/Src/stm32f7xx_hal_gpio.c ****         if ((GPIO_Init->Mode & TRIGGER_RISING) != 0x00u)
 173              		.loc 1 249 9 is_stmt 1 view .LVU63
 174              		.loc 1 249 12 is_stmt 0 view .LVU64
 175 0084 DEF80460 		ldr	r6, [lr, #4]
 176 0088 16F4801F 		tst	r6, #1048576
 177 008c 01D0     		beq	.L8
 250:Drivers/STM32F7xx_HAL_Driver/Src/stm32f7xx_hal_gpio.c ****         {
 251:Drivers/STM32F7xx_HAL_Driver/Src/stm32f7xx_hal_gpio.c ****           temp |= iocurrent;
 178              		.loc 1 251 11 is_stmt 1 view .LVU65
 179              		.loc 1 251 16 is_stmt 0 view .LVU66
 180 008e 44EA0105 		orr	r5, r4, r1
 181              	.LVL19:
 182              	.L8:
 252:Drivers/STM32F7xx_HAL_Driver/Src/stm32f7xx_hal_gpio.c ****         }
 253:Drivers/STM32F7xx_HAL_Driver/Src/stm32f7xx_hal_gpio.c ****         EXTI->RTSR = temp;
 183              		.loc 1 253 9 is_stmt 1 view .LVU67
 184              		.loc 1 253 20 is_stmt 0 view .LVU68
 185 0092 5F49     		ldr	r1, .L28+4
 186 0094 8D60     		str	r5, [r1, #8]
 254:Drivers/STM32F7xx_HAL_Driver/Src/stm32f7xx_hal_gpio.c **** 
 255:Drivers/STM32F7xx_HAL_Driver/Src/stm32f7xx_hal_gpio.c ****         temp = EXTI->FTSR;
 187              		.loc 1 255 9 is_stmt 1 view .LVU69
 188              		.loc 1 255 14 is_stmt 0 view .LVU70
 189 0096 C968     		ldr	r1, [r1, #12]
 190              	.LVL20:
 256:Drivers/STM32F7xx_HAL_Driver/Src/stm32f7xx_hal_gpio.c ****         temp &= ~((uint32_t)iocurrent);
 191              		.loc 1 256 9 is_stmt 1 view .LVU71
 192              		.loc 1 256 14 is_stmt 0 view .LVU72
 193 0098 02EA0105 		and	r5, r2, r1
 194              	.LVL21:
 257:Drivers/STM32F7xx_HAL_Driver/Src/stm32f7xx_hal_gpio.c ****         if ((GPIO_Init->Mode & TRIGGER_FALLING) != 0x00u)
 195              		.loc 1 257 9 is_stmt 1 view .LVU73
 196              		.loc 1 257 12 is_stmt 0 view .LVU74
 197 009c DEF80460 		ldr	r6, [lr, #4]
 198 00a0 16F4001F 		tst	r6, #2097152
 199 00a4 01D0     		beq	.L9
 258:Drivers/STM32F7xx_HAL_Driver/Src/stm32f7xx_hal_gpio.c ****         {
ARM GAS  /tmp/cczFzV9F.s 			page 9


 259:Drivers/STM32F7xx_HAL_Driver/Src/stm32f7xx_hal_gpio.c ****           temp |= iocurrent;
 200              		.loc 1 259 11 is_stmt 1 view .LVU75
 201              		.loc 1 259 16 is_stmt 0 view .LVU76
 202 00a6 44EA0105 		orr	r5, r4, r1
 203              	.LVL22:
 204              	.L9:
 260:Drivers/STM32F7xx_HAL_Driver/Src/stm32f7xx_hal_gpio.c ****         }
 261:Drivers/STM32F7xx_HAL_Driver/Src/stm32f7xx_hal_gpio.c ****         EXTI->FTSR = temp;
 205              		.loc 1 261 9 is_stmt 1 view .LVU77
 206              		.loc 1 261 20 is_stmt 0 view .LVU78
 207 00aa 5949     		ldr	r1, .L28+4
 208 00ac CD60     		str	r5, [r1, #12]
 262:Drivers/STM32F7xx_HAL_Driver/Src/stm32f7xx_hal_gpio.c **** 
 263:Drivers/STM32F7xx_HAL_Driver/Src/stm32f7xx_hal_gpio.c ****         temp = EXTI->EMR;
 209              		.loc 1 263 9 is_stmt 1 view .LVU79
 210              		.loc 1 263 14 is_stmt 0 view .LVU80
 211 00ae 4968     		ldr	r1, [r1, #4]
 212              	.LVL23:
 264:Drivers/STM32F7xx_HAL_Driver/Src/stm32f7xx_hal_gpio.c ****         temp &= ~((uint32_t)iocurrent);
 213              		.loc 1 264 9 is_stmt 1 view .LVU81
 214              		.loc 1 264 14 is_stmt 0 view .LVU82
 215 00b0 02EA0105 		and	r5, r2, r1
 216              	.LVL24:
 265:Drivers/STM32F7xx_HAL_Driver/Src/stm32f7xx_hal_gpio.c ****         if ((GPIO_Init->Mode & EXTI_EVT) != 0x00u)
 217              		.loc 1 265 9 is_stmt 1 view .LVU83
 218              		.loc 1 265 12 is_stmt 0 view .LVU84
 219 00b4 DEF80460 		ldr	r6, [lr, #4]
 220 00b8 16F4003F 		tst	r6, #131072
 221 00bc 01D0     		beq	.L10
 266:Drivers/STM32F7xx_HAL_Driver/Src/stm32f7xx_hal_gpio.c ****         {
 267:Drivers/STM32F7xx_HAL_Driver/Src/stm32f7xx_hal_gpio.c ****           temp |= iocurrent;
 222              		.loc 1 267 11 is_stmt 1 view .LVU85
 223              		.loc 1 267 16 is_stmt 0 view .LVU86
 224 00be 44EA0105 		orr	r5, r4, r1
 225              	.LVL25:
 226              	.L10:
 268:Drivers/STM32F7xx_HAL_Driver/Src/stm32f7xx_hal_gpio.c ****         }
 269:Drivers/STM32F7xx_HAL_Driver/Src/stm32f7xx_hal_gpio.c ****         EXTI->EMR = temp;
 227              		.loc 1 269 9 is_stmt 1 view .LVU87
 228              		.loc 1 269 19 is_stmt 0 view .LVU88
 229 00c2 5349     		ldr	r1, .L28+4
 230 00c4 4D60     		str	r5, [r1, #4]
 270:Drivers/STM32F7xx_HAL_Driver/Src/stm32f7xx_hal_gpio.c **** 
 271:Drivers/STM32F7xx_HAL_Driver/Src/stm32f7xx_hal_gpio.c ****         /* Clear EXTI line configuration */
 272:Drivers/STM32F7xx_HAL_Driver/Src/stm32f7xx_hal_gpio.c ****         temp = EXTI->IMR;
 231              		.loc 1 272 9 is_stmt 1 view .LVU89
 232              		.loc 1 272 14 is_stmt 0 view .LVU90
 233 00c6 0968     		ldr	r1, [r1]
 234              	.LVL26:
 273:Drivers/STM32F7xx_HAL_Driver/Src/stm32f7xx_hal_gpio.c ****         temp &= ~((uint32_t)iocurrent);
 235              		.loc 1 273 9 is_stmt 1 view .LVU91
 236              		.loc 1 273 14 is_stmt 0 view .LVU92
 237 00c8 0A40     		ands	r2, r2, r1
 238              	.LVL27:
 274:Drivers/STM32F7xx_HAL_Driver/Src/stm32f7xx_hal_gpio.c ****         if ((GPIO_Init->Mode & EXTI_IT) != 0x00u)
 239              		.loc 1 274 9 is_stmt 1 view .LVU93
 240              		.loc 1 274 23 is_stmt 0 view .LVU94
ARM GAS  /tmp/cczFzV9F.s 			page 10


 241 00ca DEF80450 		ldr	r5, [lr, #4]
 242              		.loc 1 274 12 view .LVU95
 243 00ce 15F4803F 		tst	r5, #65536
 244 00d2 01D0     		beq	.L11
 275:Drivers/STM32F7xx_HAL_Driver/Src/stm32f7xx_hal_gpio.c ****         {
 276:Drivers/STM32F7xx_HAL_Driver/Src/stm32f7xx_hal_gpio.c ****           temp |= iocurrent;
 245              		.loc 1 276 11 is_stmt 1 view .LVU96
 246              		.loc 1 276 16 is_stmt 0 view .LVU97
 247 00d4 44EA0102 		orr	r2, r4, r1
 248              	.LVL28:
 249              	.L11:
 277:Drivers/STM32F7xx_HAL_Driver/Src/stm32f7xx_hal_gpio.c ****         }
 278:Drivers/STM32F7xx_HAL_Driver/Src/stm32f7xx_hal_gpio.c ****         EXTI->IMR = temp;
 250              		.loc 1 278 9 is_stmt 1 view .LVU98
 251              		.loc 1 278 19 is_stmt 0 view .LVU99
 252 00d8 4D49     		ldr	r1, .L28+4
 253 00da 0A60     		str	r2, [r1]
 254              	.LVL29:
 255              	.L3:
 175:Drivers/STM32F7xx_HAL_Driver/Src/stm32f7xx_hal_gpio.c ****   {
 256              		.loc 1 175 54 is_stmt 1 discriminator 2 view .LVU100
 257 00dc 0133     		adds	r3, r3, #1
 258              	.LVL30:
 259              	.L2:
 175:Drivers/STM32F7xx_HAL_Driver/Src/stm32f7xx_hal_gpio.c ****   {
 260              		.loc 1 175 31 discriminator 1 view .LVU101
 261 00de 0F2B     		cmp	r3, #15
 262 00e0 00F29180 		bhi	.L24
 178:Drivers/STM32F7xx_HAL_Driver/Src/stm32f7xx_hal_gpio.c ****     /* Get the current IO position */
 263              		.loc 1 178 5 view .LVU102
 178:Drivers/STM32F7xx_HAL_Driver/Src/stm32f7xx_hal_gpio.c ****     /* Get the current IO position */
 264              		.loc 1 178 16 is_stmt 0 view .LVU103
 265 00e4 0122     		movs	r2, #1
 266 00e6 9A40     		lsls	r2, r2, r3
 267              	.LVL31:
 180:Drivers/STM32F7xx_HAL_Driver/Src/stm32f7xx_hal_gpio.c **** 
 268              		.loc 1 180 5 is_stmt 1 view .LVU104
 180:Drivers/STM32F7xx_HAL_Driver/Src/stm32f7xx_hal_gpio.c **** 
 269              		.loc 1 180 37 is_stmt 0 view .LVU105
 270 00e8 DEF80010 		ldr	r1, [lr]
 180:Drivers/STM32F7xx_HAL_Driver/Src/stm32f7xx_hal_gpio.c **** 
 271              		.loc 1 180 15 view .LVU106
 272 00ec 01EA0204 		and	r4, r1, r2
 273              	.LVL32:
 182:Drivers/STM32F7xx_HAL_Driver/Src/stm32f7xx_hal_gpio.c ****     {
 274              		.loc 1 182 5 is_stmt 1 view .LVU107
 182:Drivers/STM32F7xx_HAL_Driver/Src/stm32f7xx_hal_gpio.c ****     {
 275              		.loc 1 182 8 is_stmt 0 view .LVU108
 276 00f0 32EA0101 		bics	r1, r2, r1
 277 00f4 F2D1     		bne	.L3
 186:Drivers/STM32F7xx_HAL_Driver/Src/stm32f7xx_hal_gpio.c ****       {
 278              		.loc 1 186 7 is_stmt 1 view .LVU109
 186:Drivers/STM32F7xx_HAL_Driver/Src/stm32f7xx_hal_gpio.c ****       {
 279              		.loc 1 186 29 is_stmt 0 view .LVU110
 280 00f6 DEF80410 		ldr	r1, [lr, #4]
 281 00fa 01F0030C 		and	ip, r1, #3
 186:Drivers/STM32F7xx_HAL_Driver/Src/stm32f7xx_hal_gpio.c ****       {
ARM GAS  /tmp/cczFzV9F.s 			page 11


 282              		.loc 1 186 58 view .LVU111
 283 00fe 0CF1FF3C 		add	ip, ip, #-1
 186:Drivers/STM32F7xx_HAL_Driver/Src/stm32f7xx_hal_gpio.c ****       {
 284              		.loc 1 186 10 view .LVU112
 285 0102 BCF1010F 		cmp	ip, #1
 286 0106 80D9     		bls	.L25
 287              	.LVL33:
 288              	.L4:
 203:Drivers/STM32F7xx_HAL_Driver/Src/stm32f7xx_hal_gpio.c ****       {
 289              		.loc 1 203 7 is_stmt 1 view .LVU113
 203:Drivers/STM32F7xx_HAL_Driver/Src/stm32f7xx_hal_gpio.c ****       {
 290              		.loc 1 203 21 is_stmt 0 view .LVU114
 291 0108 DEF80420 		ldr	r2, [lr, #4]
 203:Drivers/STM32F7xx_HAL_Driver/Src/stm32f7xx_hal_gpio.c ****       {
 292              		.loc 1 203 28 view .LVU115
 293 010c 02F00302 		and	r2, r2, #3
 203:Drivers/STM32F7xx_HAL_Driver/Src/stm32f7xx_hal_gpio.c ****       {
 294              		.loc 1 203 10 view .LVU116
 295 0110 032A     		cmp	r2, #3
 296 0112 0AD0     		beq	.L5
 206:Drivers/STM32F7xx_HAL_Driver/Src/stm32f7xx_hal_gpio.c **** 
 297              		.loc 1 206 9 is_stmt 1 view .LVU117
 209:Drivers/STM32F7xx_HAL_Driver/Src/stm32f7xx_hal_gpio.c ****         temp &= ~(GPIO_PUPDR_PUPDR0 << (position * 2));
 298              		.loc 1 209 9 view .LVU118
 209:Drivers/STM32F7xx_HAL_Driver/Src/stm32f7xx_hal_gpio.c ****         temp &= ~(GPIO_PUPDR_PUPDR0 << (position * 2));
 299              		.loc 1 209 14 is_stmt 0 view .LVU119
 300 0114 C168     		ldr	r1, [r0, #12]
 301              	.LVL34:
 210:Drivers/STM32F7xx_HAL_Driver/Src/stm32f7xx_hal_gpio.c ****         temp |= ((GPIO_Init->Pull) << (position * 2));
 302              		.loc 1 210 9 is_stmt 1 view .LVU120
 210:Drivers/STM32F7xx_HAL_Driver/Src/stm32f7xx_hal_gpio.c ****         temp |= ((GPIO_Init->Pull) << (position * 2));
 303              		.loc 1 210 50 is_stmt 0 view .LVU121
 304 0116 5D00     		lsls	r5, r3, #1
 210:Drivers/STM32F7xx_HAL_Driver/Src/stm32f7xx_hal_gpio.c ****         temp |= ((GPIO_Init->Pull) << (position * 2));
 305              		.loc 1 210 37 view .LVU122
 306 0118 0322     		movs	r2, #3
 307 011a AA40     		lsls	r2, r2, r5
 210:Drivers/STM32F7xx_HAL_Driver/Src/stm32f7xx_hal_gpio.c ****         temp |= ((GPIO_Init->Pull) << (position * 2));
 308              		.loc 1 210 14 view .LVU123
 309 011c 21EA0201 		bic	r1, r1, r2
 310              	.LVL35:
 211:Drivers/STM32F7xx_HAL_Driver/Src/stm32f7xx_hal_gpio.c ****         GPIOx->PUPDR = temp;
 311              		.loc 1 211 9 is_stmt 1 view .LVU124
 211:Drivers/STM32F7xx_HAL_Driver/Src/stm32f7xx_hal_gpio.c ****         GPIOx->PUPDR = temp;
 312              		.loc 1 211 28 is_stmt 0 view .LVU125
 313 0120 DEF80820 		ldr	r2, [lr, #8]
 211:Drivers/STM32F7xx_HAL_Driver/Src/stm32f7xx_hal_gpio.c ****         GPIOx->PUPDR = temp;
 314              		.loc 1 211 36 view .LVU126
 315 0124 AA40     		lsls	r2, r2, r5
 211:Drivers/STM32F7xx_HAL_Driver/Src/stm32f7xx_hal_gpio.c ****         GPIOx->PUPDR = temp;
 316              		.loc 1 211 14 view .LVU127
 317 0126 0A43     		orrs	r2, r2, r1
 318              	.LVL36:
 212:Drivers/STM32F7xx_HAL_Driver/Src/stm32f7xx_hal_gpio.c ****       }
 319              		.loc 1 212 9 is_stmt 1 view .LVU128
 212:Drivers/STM32F7xx_HAL_Driver/Src/stm32f7xx_hal_gpio.c ****       }
 320              		.loc 1 212 22 is_stmt 0 view .LVU129
ARM GAS  /tmp/cczFzV9F.s 			page 12


 321 0128 C260     		str	r2, [r0, #12]
 322              	.LVL37:
 323              	.L5:
 216:Drivers/STM32F7xx_HAL_Driver/Src/stm32f7xx_hal_gpio.c ****       {
 324              		.loc 1 216 7 is_stmt 1 view .LVU130
 216:Drivers/STM32F7xx_HAL_Driver/Src/stm32f7xx_hal_gpio.c ****       {
 325              		.loc 1 216 21 is_stmt 0 view .LVU131
 326 012a DEF80420 		ldr	r2, [lr, #4]
 216:Drivers/STM32F7xx_HAL_Driver/Src/stm32f7xx_hal_gpio.c ****       {
 327              		.loc 1 216 28 view .LVU132
 328 012e 02F00302 		and	r2, r2, #3
 216:Drivers/STM32F7xx_HAL_Driver/Src/stm32f7xx_hal_gpio.c ****       {
 329              		.loc 1 216 10 view .LVU133
 330 0132 022A     		cmp	r2, #2
 331 0134 82D0     		beq	.L26
 332              	.L6:
 229:Drivers/STM32F7xx_HAL_Driver/Src/stm32f7xx_hal_gpio.c ****       temp &= ~(GPIO_MODER_MODER0 << (position * 2));
 333              		.loc 1 229 7 is_stmt 1 view .LVU134
 229:Drivers/STM32F7xx_HAL_Driver/Src/stm32f7xx_hal_gpio.c ****       temp &= ~(GPIO_MODER_MODER0 << (position * 2));
 334              		.loc 1 229 12 is_stmt 0 view .LVU135
 335 0136 0168     		ldr	r1, [r0]
 336              	.LVL38:
 230:Drivers/STM32F7xx_HAL_Driver/Src/stm32f7xx_hal_gpio.c ****       temp |= ((GPIO_Init->Mode & GPIO_MODE) << (position * 2));
 337              		.loc 1 230 7 is_stmt 1 view .LVU136
 230:Drivers/STM32F7xx_HAL_Driver/Src/stm32f7xx_hal_gpio.c ****       temp |= ((GPIO_Init->Mode & GPIO_MODE) << (position * 2));
 338              		.loc 1 230 48 is_stmt 0 view .LVU137
 339 0138 4FEA430C 		lsl	ip, r3, #1
 230:Drivers/STM32F7xx_HAL_Driver/Src/stm32f7xx_hal_gpio.c ****       temp |= ((GPIO_Init->Mode & GPIO_MODE) << (position * 2));
 340              		.loc 1 230 35 view .LVU138
 341 013c 0322     		movs	r2, #3
 342 013e 02FA0CF2 		lsl	r2, r2, ip
 230:Drivers/STM32F7xx_HAL_Driver/Src/stm32f7xx_hal_gpio.c ****       temp |= ((GPIO_Init->Mode & GPIO_MODE) << (position * 2));
 343              		.loc 1 230 12 view .LVU139
 344 0142 21EA0201 		bic	r1, r1, r2
 345              	.LVL39:
 231:Drivers/STM32F7xx_HAL_Driver/Src/stm32f7xx_hal_gpio.c ****       GPIOx->MODER = temp;
 346              		.loc 1 231 7 is_stmt 1 view .LVU140
 231:Drivers/STM32F7xx_HAL_Driver/Src/stm32f7xx_hal_gpio.c ****       GPIOx->MODER = temp;
 347              		.loc 1 231 26 is_stmt 0 view .LVU141
 348 0146 DEF80420 		ldr	r2, [lr, #4]
 231:Drivers/STM32F7xx_HAL_Driver/Src/stm32f7xx_hal_gpio.c ****       GPIOx->MODER = temp;
 349              		.loc 1 231 33 view .LVU142
 350 014a 02F00302 		and	r2, r2, #3
 231:Drivers/STM32F7xx_HAL_Driver/Src/stm32f7xx_hal_gpio.c ****       GPIOx->MODER = temp;
 351              		.loc 1 231 46 view .LVU143
 352 014e 02FA0CF2 		lsl	r2, r2, ip
 231:Drivers/STM32F7xx_HAL_Driver/Src/stm32f7xx_hal_gpio.c ****       GPIOx->MODER = temp;
 353              		.loc 1 231 12 view .LVU144
 354 0152 0A43     		orrs	r2, r2, r1
 355              	.LVL40:
 232:Drivers/STM32F7xx_HAL_Driver/Src/stm32f7xx_hal_gpio.c **** 
 356              		.loc 1 232 7 is_stmt 1 view .LVU145
 232:Drivers/STM32F7xx_HAL_Driver/Src/stm32f7xx_hal_gpio.c **** 
 357              		.loc 1 232 20 is_stmt 0 view .LVU146
 358 0154 0260     		str	r2, [r0]
 236:Drivers/STM32F7xx_HAL_Driver/Src/stm32f7xx_hal_gpio.c ****       {
 359              		.loc 1 236 7 is_stmt 1 view .LVU147
ARM GAS  /tmp/cczFzV9F.s 			page 13


 236:Drivers/STM32F7xx_HAL_Driver/Src/stm32f7xx_hal_gpio.c ****       {
 360              		.loc 1 236 21 is_stmt 0 view .LVU148
 361 0156 DEF80420 		ldr	r2, [lr, #4]
 362              	.LVL41:
 236:Drivers/STM32F7xx_HAL_Driver/Src/stm32f7xx_hal_gpio.c ****       {
 363              		.loc 1 236 10 view .LVU149
 364 015a 12F4403F 		tst	r2, #196608
 365 015e BDD0     		beq	.L3
 239:Drivers/STM32F7xx_HAL_Driver/Src/stm32f7xx_hal_gpio.c **** 
 366              		.loc 1 239 9 is_stmt 1 view .LVU150
 367              	.LBB2:
 239:Drivers/STM32F7xx_HAL_Driver/Src/stm32f7xx_hal_gpio.c **** 
 368              		.loc 1 239 9 view .LVU151
 239:Drivers/STM32F7xx_HAL_Driver/Src/stm32f7xx_hal_gpio.c **** 
 369              		.loc 1 239 9 view .LVU152
 370 0160 2C4A     		ldr	r2, .L28+8
 371 0162 516C     		ldr	r1, [r2, #68]
 372 0164 41F48041 		orr	r1, r1, #16384
 373 0168 5164     		str	r1, [r2, #68]
 374              	.LVL42:
 239:Drivers/STM32F7xx_HAL_Driver/Src/stm32f7xx_hal_gpio.c **** 
 375              		.loc 1 239 9 view .LVU153
 376 016a 526C     		ldr	r2, [r2, #68]
 377 016c 02F48042 		and	r2, r2, #16384
 378 0170 0192     		str	r2, [sp, #4]
 239:Drivers/STM32F7xx_HAL_Driver/Src/stm32f7xx_hal_gpio.c **** 
 379              		.loc 1 239 9 view .LVU154
 380 0172 019A     		ldr	r2, [sp, #4]
 381              	.LBE2:
 239:Drivers/STM32F7xx_HAL_Driver/Src/stm32f7xx_hal_gpio.c **** 
 382              		.loc 1 239 9 view .LVU155
 241:Drivers/STM32F7xx_HAL_Driver/Src/stm32f7xx_hal_gpio.c ****         temp &= ~(((uint32_t)0x0F) << (4 * (position & 0x03)));
 383              		.loc 1 241 9 view .LVU156
 241:Drivers/STM32F7xx_HAL_Driver/Src/stm32f7xx_hal_gpio.c ****         temp &= ~(((uint32_t)0x0F) << (4 * (position & 0x03)));
 384              		.loc 1 241 40 is_stmt 0 view .LVU157
 385 0174 9908     		lsrs	r1, r3, #2
 241:Drivers/STM32F7xx_HAL_Driver/Src/stm32f7xx_hal_gpio.c ****         temp &= ~(((uint32_t)0x0F) << (4 * (position & 0x03)));
 386              		.loc 1 241 14 view .LVU158
 387 0176 8D1C     		adds	r5, r1, #2
 388 0178 244A     		ldr	r2, .L28
 389 017a 52F82550 		ldr	r5, [r2, r5, lsl #2]
 390              	.LVL43:
 242:Drivers/STM32F7xx_HAL_Driver/Src/stm32f7xx_hal_gpio.c ****         temp |= ((uint32_t)(GPIO_GET_INDEX(GPIOx)) << (4 * (position & 0x03)));
 391              		.loc 1 242 9 is_stmt 1 view .LVU159
 242:Drivers/STM32F7xx_HAL_Driver/Src/stm32f7xx_hal_gpio.c ****         temp |= ((uint32_t)(GPIO_GET_INDEX(GPIOx)) << (4 * (position & 0x03)));
 392              		.loc 1 242 54 is_stmt 0 view .LVU160
 393 017e 03F0030C 		and	ip, r3, #3
 242:Drivers/STM32F7xx_HAL_Driver/Src/stm32f7xx_hal_gpio.c ****         temp |= ((uint32_t)(GPIO_GET_INDEX(GPIOx)) << (4 * (position & 0x03)));
 394              		.loc 1 242 42 view .LVU161
 395 0182 4FEA8C0C 		lsl	ip, ip, #2
 242:Drivers/STM32F7xx_HAL_Driver/Src/stm32f7xx_hal_gpio.c ****         temp |= ((uint32_t)(GPIO_GET_INDEX(GPIOx)) << (4 * (position & 0x03)));
 396              		.loc 1 242 36 view .LVU162
 397 0186 0F22     		movs	r2, #15
 398 0188 02FA0CF2 		lsl	r2, r2, ip
 242:Drivers/STM32F7xx_HAL_Driver/Src/stm32f7xx_hal_gpio.c ****         temp |= ((uint32_t)(GPIO_GET_INDEX(GPIOx)) << (4 * (position & 0x03)));
 399              		.loc 1 242 14 view .LVU163
 400 018c 25EA0205 		bic	r5, r5, r2
ARM GAS  /tmp/cczFzV9F.s 			page 14


 401              	.LVL44:
 243:Drivers/STM32F7xx_HAL_Driver/Src/stm32f7xx_hal_gpio.c ****         SYSCFG->EXTICR[position >> 2] = temp;
 402              		.loc 1 243 9 is_stmt 1 view .LVU164
 243:Drivers/STM32F7xx_HAL_Driver/Src/stm32f7xx_hal_gpio.c ****         SYSCFG->EXTICR[position >> 2] = temp;
 403              		.loc 1 243 18 is_stmt 0 view .LVU165
 404 0190 214A     		ldr	r2, .L28+12
 405 0192 9042     		cmp	r0, r2
 406 0194 3FF469AF 		beq	.L13
 243:Drivers/STM32F7xx_HAL_Driver/Src/stm32f7xx_hal_gpio.c ****         SYSCFG->EXTICR[position >> 2] = temp;
 407              		.loc 1 243 29 discriminator 1 view .LVU166
 408 0198 02F58062 		add	r2, r2, #1024
 409 019c 9042     		cmp	r0, r2
 410 019e 22D0     		beq	.L14
 243:Drivers/STM32F7xx_HAL_Driver/Src/stm32f7xx_hal_gpio.c ****         SYSCFG->EXTICR[position >> 2] = temp;
 411              		.loc 1 243 29 discriminator 3 view .LVU167
 412 01a0 02F58062 		add	r2, r2, #1024
 413 01a4 9042     		cmp	r0, r2
 414 01a6 20D0     		beq	.L15
 243:Drivers/STM32F7xx_HAL_Driver/Src/stm32f7xx_hal_gpio.c ****         SYSCFG->EXTICR[position >> 2] = temp;
 415              		.loc 1 243 29 discriminator 5 view .LVU168
 416 01a8 02F58062 		add	r2, r2, #1024
 417 01ac 9042     		cmp	r0, r2
 418 01ae 1ED0     		beq	.L16
 243:Drivers/STM32F7xx_HAL_Driver/Src/stm32f7xx_hal_gpio.c ****         SYSCFG->EXTICR[position >> 2] = temp;
 419              		.loc 1 243 29 discriminator 7 view .LVU169
 420 01b0 02F58062 		add	r2, r2, #1024
 421 01b4 9042     		cmp	r0, r2
 422 01b6 1CD0     		beq	.L17
 243:Drivers/STM32F7xx_HAL_Driver/Src/stm32f7xx_hal_gpio.c ****         SYSCFG->EXTICR[position >> 2] = temp;
 423              		.loc 1 243 29 discriminator 9 view .LVU170
 424 01b8 02F58062 		add	r2, r2, #1024
 425 01bc 9042     		cmp	r0, r2
 426 01be 1AD0     		beq	.L18
 243:Drivers/STM32F7xx_HAL_Driver/Src/stm32f7xx_hal_gpio.c ****         SYSCFG->EXTICR[position >> 2] = temp;
 427              		.loc 1 243 29 discriminator 11 view .LVU171
 428 01c0 02F58062 		add	r2, r2, #1024
 429 01c4 9042     		cmp	r0, r2
 430 01c6 18D0     		beq	.L19
 243:Drivers/STM32F7xx_HAL_Driver/Src/stm32f7xx_hal_gpio.c ****         SYSCFG->EXTICR[position >> 2] = temp;
 431              		.loc 1 243 29 discriminator 13 view .LVU172
 432 01c8 02F58062 		add	r2, r2, #1024
 433 01cc 9042     		cmp	r0, r2
 434 01ce 16D0     		beq	.L20
 243:Drivers/STM32F7xx_HAL_Driver/Src/stm32f7xx_hal_gpio.c ****         SYSCFG->EXTICR[position >> 2] = temp;
 435              		.loc 1 243 29 discriminator 15 view .LVU173
 436 01d0 02F58062 		add	r2, r2, #1024
 437 01d4 9042     		cmp	r0, r2
 438 01d6 14D0     		beq	.L21
 243:Drivers/STM32F7xx_HAL_Driver/Src/stm32f7xx_hal_gpio.c ****         SYSCFG->EXTICR[position >> 2] = temp;
 439              		.loc 1 243 29 discriminator 17 view .LVU174
 440 01d8 02F58062 		add	r2, r2, #1024
 441 01dc 9042     		cmp	r0, r2
 442 01de 3FF442AF 		beq	.L27
 243:Drivers/STM32F7xx_HAL_Driver/Src/stm32f7xx_hal_gpio.c ****         SYSCFG->EXTICR[position >> 2] = temp;
 443              		.loc 1 243 18 discriminator 20 view .LVU175
 444 01e2 0A22     		movs	r2, #10
 445 01e4 42E7     		b	.L7
ARM GAS  /tmp/cczFzV9F.s 			page 15


 446              	.L14:
 243:Drivers/STM32F7xx_HAL_Driver/Src/stm32f7xx_hal_gpio.c ****         SYSCFG->EXTICR[position >> 2] = temp;
 447              		.loc 1 243 18 discriminator 4 view .LVU176
 448 01e6 0122     		movs	r2, #1
 449              	.LVL45:
 243:Drivers/STM32F7xx_HAL_Driver/Src/stm32f7xx_hal_gpio.c ****         SYSCFG->EXTICR[position >> 2] = temp;
 450              		.loc 1 243 18 discriminator 4 view .LVU177
 451 01e8 40E7     		b	.L7
 452              	.LVL46:
 453              	.L15:
 243:Drivers/STM32F7xx_HAL_Driver/Src/stm32f7xx_hal_gpio.c ****         SYSCFG->EXTICR[position >> 2] = temp;
 454              		.loc 1 243 18 discriminator 6 view .LVU178
 455 01ea 0222     		movs	r2, #2
 456 01ec 3EE7     		b	.L7
 457              	.L16:
 243:Drivers/STM32F7xx_HAL_Driver/Src/stm32f7xx_hal_gpio.c ****         SYSCFG->EXTICR[position >> 2] = temp;
 458              		.loc 1 243 18 discriminator 8 view .LVU179
 459 01ee 0322     		movs	r2, #3
 460 01f0 3CE7     		b	.L7
 461              	.L17:
 243:Drivers/STM32F7xx_HAL_Driver/Src/stm32f7xx_hal_gpio.c ****         SYSCFG->EXTICR[position >> 2] = temp;
 462              		.loc 1 243 18 discriminator 10 view .LVU180
 463 01f2 0422     		movs	r2, #4
 464 01f4 3AE7     		b	.L7
 465              	.L18:
 243:Drivers/STM32F7xx_HAL_Driver/Src/stm32f7xx_hal_gpio.c ****         SYSCFG->EXTICR[position >> 2] = temp;
 466              		.loc 1 243 18 discriminator 12 view .LVU181
 467 01f6 0522     		movs	r2, #5
 468 01f8 38E7     		b	.L7
 469              	.L19:
 243:Drivers/STM32F7xx_HAL_Driver/Src/stm32f7xx_hal_gpio.c ****         SYSCFG->EXTICR[position >> 2] = temp;
 470              		.loc 1 243 18 discriminator 14 view .LVU182
 471 01fa 0622     		movs	r2, #6
 472 01fc 36E7     		b	.L7
 473              	.L20:
 243:Drivers/STM32F7xx_HAL_Driver/Src/stm32f7xx_hal_gpio.c ****         SYSCFG->EXTICR[position >> 2] = temp;
 474              		.loc 1 243 18 discriminator 16 view .LVU183
 475 01fe 0722     		movs	r2, #7
 476 0200 34E7     		b	.L7
 477              	.L21:
 243:Drivers/STM32F7xx_HAL_Driver/Src/stm32f7xx_hal_gpio.c ****         SYSCFG->EXTICR[position >> 2] = temp;
 478              		.loc 1 243 18 discriminator 18 view .LVU184
 479 0202 0822     		movs	r2, #8
 480 0204 32E7     		b	.L7
 481              	.LVL47:
 482              	.L24:
 279:Drivers/STM32F7xx_HAL_Driver/Src/stm32f7xx_hal_gpio.c ****       }
 280:Drivers/STM32F7xx_HAL_Driver/Src/stm32f7xx_hal_gpio.c ****     }
 281:Drivers/STM32F7xx_HAL_Driver/Src/stm32f7xx_hal_gpio.c ****   }
 282:Drivers/STM32F7xx_HAL_Driver/Src/stm32f7xx_hal_gpio.c **** }
 483              		.loc 1 282 1 view .LVU185
 484 0206 02B0     		add	sp, sp, #8
 485              	.LCFI2:
 486              		.cfi_def_cfa_offset 16
 487              		@ sp needed
 488 0208 70BD     		pop	{r4, r5, r6, pc}
 489              	.L29:
ARM GAS  /tmp/cczFzV9F.s 			page 16


 490 020a 00BF     		.align	2
 491              	.L28:
 492 020c 00380140 		.word	1073821696
 493 0210 003C0140 		.word	1073822720
 494 0214 00380240 		.word	1073887232
 495 0218 00000240 		.word	1073872896
 496              		.cfi_endproc
 497              	.LFE141:
 499              		.section	.text.HAL_GPIO_DeInit,"ax",%progbits
 500              		.align	1
 501              		.global	HAL_GPIO_DeInit
 502              		.syntax unified
 503              		.thumb
 504              		.thumb_func
 506              	HAL_GPIO_DeInit:
 507              	.LVL48:
 508              	.LFB142:
 283:Drivers/STM32F7xx_HAL_Driver/Src/stm32f7xx_hal_gpio.c **** 
 284:Drivers/STM32F7xx_HAL_Driver/Src/stm32f7xx_hal_gpio.c **** /**
 285:Drivers/STM32F7xx_HAL_Driver/Src/stm32f7xx_hal_gpio.c ****   * @brief  De-initializes the GPIOx peripheral registers to their default reset values.
 286:Drivers/STM32F7xx_HAL_Driver/Src/stm32f7xx_hal_gpio.c ****   * @param  GPIOx where x can be (A..K) to select the GPIO peripheral.
 287:Drivers/STM32F7xx_HAL_Driver/Src/stm32f7xx_hal_gpio.c ****   * @param  GPIO_Pin specifies the port bit to be written.
 288:Drivers/STM32F7xx_HAL_Driver/Src/stm32f7xx_hal_gpio.c ****   *          This parameter can be one of GPIO_PIN_x where x can be (0..15).
 289:Drivers/STM32F7xx_HAL_Driver/Src/stm32f7xx_hal_gpio.c ****   * @retval None
 290:Drivers/STM32F7xx_HAL_Driver/Src/stm32f7xx_hal_gpio.c ****   */
 291:Drivers/STM32F7xx_HAL_Driver/Src/stm32f7xx_hal_gpio.c **** void HAL_GPIO_DeInit(GPIO_TypeDef  *GPIOx, uint32_t GPIO_Pin)
 292:Drivers/STM32F7xx_HAL_Driver/Src/stm32f7xx_hal_gpio.c **** {
 509              		.loc 1 292 1 is_stmt 1 view -0
 510              		.cfi_startproc
 511              		@ args = 0, pretend = 0, frame = 0
 512              		@ frame_needed = 0, uses_anonymous_args = 0
 293:Drivers/STM32F7xx_HAL_Driver/Src/stm32f7xx_hal_gpio.c ****   uint32_t position;
 513              		.loc 1 293 3 view .LVU187
 294:Drivers/STM32F7xx_HAL_Driver/Src/stm32f7xx_hal_gpio.c ****   uint32_t ioposition = 0x00;
 514              		.loc 1 294 3 view .LVU188
 295:Drivers/STM32F7xx_HAL_Driver/Src/stm32f7xx_hal_gpio.c ****   uint32_t iocurrent = 0x00;
 515              		.loc 1 295 3 view .LVU189
 296:Drivers/STM32F7xx_HAL_Driver/Src/stm32f7xx_hal_gpio.c ****   uint32_t tmp = 0x00;
 516              		.loc 1 296 3 view .LVU190
 297:Drivers/STM32F7xx_HAL_Driver/Src/stm32f7xx_hal_gpio.c **** 
 298:Drivers/STM32F7xx_HAL_Driver/Src/stm32f7xx_hal_gpio.c ****   /* Check the parameters */
 299:Drivers/STM32F7xx_HAL_Driver/Src/stm32f7xx_hal_gpio.c ****   assert_param(IS_GPIO_ALL_INSTANCE(GPIOx));
 517              		.loc 1 299 3 view .LVU191
 300:Drivers/STM32F7xx_HAL_Driver/Src/stm32f7xx_hal_gpio.c **** 
 301:Drivers/STM32F7xx_HAL_Driver/Src/stm32f7xx_hal_gpio.c ****   /* Configure the port pins */
 302:Drivers/STM32F7xx_HAL_Driver/Src/stm32f7xx_hal_gpio.c ****   for (position = 0; position < GPIO_NUMBER; position++)
 518              		.loc 1 302 3 view .LVU192
 519              		.loc 1 302 17 is_stmt 0 view .LVU193
 520 0000 0023     		movs	r3, #0
 521              	.LVL49:
 522              		.loc 1 302 31 is_stmt 1 discriminator 1 view .LVU194
 523 0002 0F2B     		cmp	r3, #15
 524 0004 00F29B80 		bhi	.L49
 292:Drivers/STM32F7xx_HAL_Driver/Src/stm32f7xx_hal_gpio.c ****   uint32_t position;
 525              		.loc 1 292 1 is_stmt 0 view .LVU195
 526 0008 F0B5     		push	{r4, r5, r6, r7, lr}
 527              	.LCFI3:
ARM GAS  /tmp/cczFzV9F.s 			page 17


 528              		.cfi_def_cfa_offset 20
 529              		.cfi_offset 4, -20
 530              		.cfi_offset 5, -16
 531              		.cfi_offset 6, -12
 532              		.cfi_offset 7, -8
 533              		.cfi_offset 14, -4
 534 000a 2DE0     		b	.L35
 535              	.LVL50:
 536              	.L52:
 303:Drivers/STM32F7xx_HAL_Driver/Src/stm32f7xx_hal_gpio.c ****   {
 304:Drivers/STM32F7xx_HAL_Driver/Src/stm32f7xx_hal_gpio.c ****     /* Get the IO position */
 305:Drivers/STM32F7xx_HAL_Driver/Src/stm32f7xx_hal_gpio.c ****     ioposition = ((uint32_t)0x01) << position;
 306:Drivers/STM32F7xx_HAL_Driver/Src/stm32f7xx_hal_gpio.c ****     /* Get the current IO position */
 307:Drivers/STM32F7xx_HAL_Driver/Src/stm32f7xx_hal_gpio.c ****     iocurrent = (GPIO_Pin) & ioposition;
 308:Drivers/STM32F7xx_HAL_Driver/Src/stm32f7xx_hal_gpio.c **** 
 309:Drivers/STM32F7xx_HAL_Driver/Src/stm32f7xx_hal_gpio.c ****     if (iocurrent == ioposition)
 310:Drivers/STM32F7xx_HAL_Driver/Src/stm32f7xx_hal_gpio.c ****     {
 311:Drivers/STM32F7xx_HAL_Driver/Src/stm32f7xx_hal_gpio.c ****       /*------------------------- EXTI Mode Configuration --------------------*/
 312:Drivers/STM32F7xx_HAL_Driver/Src/stm32f7xx_hal_gpio.c ****       tmp = SYSCFG->EXTICR[position >> 2];
 313:Drivers/STM32F7xx_HAL_Driver/Src/stm32f7xx_hal_gpio.c ****       tmp &= (((uint32_t)0x0F) << (4 * (position & 0x03)));
 314:Drivers/STM32F7xx_HAL_Driver/Src/stm32f7xx_hal_gpio.c ****       if (tmp == ((uint32_t)(GPIO_GET_INDEX(GPIOx)) << (4 * (position & 0x03))))
 537              		.loc 1 314 19 discriminator 19 view .LVU196
 538 000c 0925     		movs	r5, #9
 539 000e 00E0     		b	.L33
 540              	.L36:
 541              		.loc 1 314 19 discriminator 2 view .LVU197
 542 0010 0025     		movs	r5, #0
 543              	.L33:
 544              		.loc 1 314 53 discriminator 21 view .LVU198
 545 0012 05FA0CF5 		lsl	r5, r5, ip
 546              		.loc 1 314 10 discriminator 21 view .LVU199
 547 0016 A542     		cmp	r5, r4
 548 0018 75D0     		beq	.L50
 549              	.LVL51:
 550              	.L34:
 315:Drivers/STM32F7xx_HAL_Driver/Src/stm32f7xx_hal_gpio.c ****       {
 316:Drivers/STM32F7xx_HAL_Driver/Src/stm32f7xx_hal_gpio.c ****         /* Clear EXTI line configuration */
 317:Drivers/STM32F7xx_HAL_Driver/Src/stm32f7xx_hal_gpio.c ****         EXTI->IMR &= ~((uint32_t)iocurrent);
 318:Drivers/STM32F7xx_HAL_Driver/Src/stm32f7xx_hal_gpio.c ****         EXTI->EMR &= ~((uint32_t)iocurrent);
 319:Drivers/STM32F7xx_HAL_Driver/Src/stm32f7xx_hal_gpio.c **** 
 320:Drivers/STM32F7xx_HAL_Driver/Src/stm32f7xx_hal_gpio.c ****         /* Clear Rising Falling edge configuration */
 321:Drivers/STM32F7xx_HAL_Driver/Src/stm32f7xx_hal_gpio.c ****         EXTI->FTSR &= ~((uint32_t)iocurrent);
 322:Drivers/STM32F7xx_HAL_Driver/Src/stm32f7xx_hal_gpio.c ****         EXTI->RTSR &= ~((uint32_t)iocurrent);
 323:Drivers/STM32F7xx_HAL_Driver/Src/stm32f7xx_hal_gpio.c **** 
 324:Drivers/STM32F7xx_HAL_Driver/Src/stm32f7xx_hal_gpio.c ****         /* Configure the External Interrupt or event for the current IO */
 325:Drivers/STM32F7xx_HAL_Driver/Src/stm32f7xx_hal_gpio.c ****         tmp = ((uint32_t)0x0F) << (4 * (position & 0x03));
 326:Drivers/STM32F7xx_HAL_Driver/Src/stm32f7xx_hal_gpio.c ****         SYSCFG->EXTICR[position >> 2] &= ~tmp;
 327:Drivers/STM32F7xx_HAL_Driver/Src/stm32f7xx_hal_gpio.c ****       }
 328:Drivers/STM32F7xx_HAL_Driver/Src/stm32f7xx_hal_gpio.c ****       /*------------------------- GPIO Mode Configuration --------------------*/
 329:Drivers/STM32F7xx_HAL_Driver/Src/stm32f7xx_hal_gpio.c ****       /* Configure IO Direction in Input Floating Mode */
 330:Drivers/STM32F7xx_HAL_Driver/Src/stm32f7xx_hal_gpio.c ****       GPIOx->MODER &= ~(GPIO_MODER_MODER0 << (position * 2));
 551              		.loc 1 330 7 is_stmt 1 view .LVU200
 552              		.loc 1 330 12 is_stmt 0 view .LVU201
 553 001a 0468     		ldr	r4, [r0]
 554              		.loc 1 330 56 view .LVU202
 555 001c 5D00     		lsls	r5, r3, #1
 556              		.loc 1 330 43 view .LVU203
ARM GAS  /tmp/cczFzV9F.s 			page 18


 557 001e 4FF0030C 		mov	ip, #3
 558 0022 0CFA05FC 		lsl	ip, ip, r5
 559              		.loc 1 330 20 view .LVU204
 560 0026 24EA0C04 		bic	r4, r4, ip
 561 002a 0460     		str	r4, [r0]
 331:Drivers/STM32F7xx_HAL_Driver/Src/stm32f7xx_hal_gpio.c **** 
 332:Drivers/STM32F7xx_HAL_Driver/Src/stm32f7xx_hal_gpio.c ****       /* Configure the default Alternate Function in current IO */
 333:Drivers/STM32F7xx_HAL_Driver/Src/stm32f7xx_hal_gpio.c ****       GPIOx->AFR[position >> 3] &= ~((uint32_t)0xF << ((uint32_t)(position & (uint32_t)0x07) * 4)) 
 562              		.loc 1 333 7 is_stmt 1 view .LVU205
 563              		.loc 1 333 17 is_stmt 0 view .LVU206
 564 002c 4FEAD30E 		lsr	lr, r3, #3
 565 0030 0EF1080E 		add	lr, lr, #8
 566 0034 50F82E40 		ldr	r4, [r0, lr, lsl #2]
 567              		.loc 1 333 56 view .LVU207
 568 0038 03F00706 		and	r6, r3, #7
 569              		.loc 1 333 94 view .LVU208
 570 003c B600     		lsls	r6, r6, #2
 571              		.loc 1 333 52 view .LVU209
 572 003e 0F25     		movs	r5, #15
 573 0040 B540     		lsls	r5, r5, r6
 574              		.loc 1 333 33 view .LVU210
 575 0042 24EA0504 		bic	r4, r4, r5
 576 0046 40F82E40 		str	r4, [r0, lr, lsl #2]
 334:Drivers/STM32F7xx_HAL_Driver/Src/stm32f7xx_hal_gpio.c **** 
 335:Drivers/STM32F7xx_HAL_Driver/Src/stm32f7xx_hal_gpio.c ****       /* Deactivate the Pull-up and Pull-down resistor for the current IO */
 336:Drivers/STM32F7xx_HAL_Driver/Src/stm32f7xx_hal_gpio.c ****       GPIOx->PUPDR &= ~(GPIO_PUPDR_PUPDR0 << (position * 2));
 577              		.loc 1 336 7 is_stmt 1 view .LVU211
 578              		.loc 1 336 12 is_stmt 0 view .LVU212
 579 004a C468     		ldr	r4, [r0, #12]
 580              		.loc 1 336 20 view .LVU213
 581 004c 24EA0C04 		bic	r4, r4, ip
 582 0050 C460     		str	r4, [r0, #12]
 337:Drivers/STM32F7xx_HAL_Driver/Src/stm32f7xx_hal_gpio.c **** 
 338:Drivers/STM32F7xx_HAL_Driver/Src/stm32f7xx_hal_gpio.c ****       /* Configure the default value IO Output Type */
 339:Drivers/STM32F7xx_HAL_Driver/Src/stm32f7xx_hal_gpio.c ****       GPIOx->OTYPER  &= ~(GPIO_OTYPER_OT_0 << position) ;
 583              		.loc 1 339 7 is_stmt 1 view .LVU214
 584              		.loc 1 339 12 is_stmt 0 view .LVU215
 585 0052 4468     		ldr	r4, [r0, #4]
 586              		.loc 1 339 22 view .LVU216
 587 0054 24EA0202 		bic	r2, r4, r2
 588              	.LVL52:
 589              		.loc 1 339 22 view .LVU217
 590 0058 4260     		str	r2, [r0, #4]
 340:Drivers/STM32F7xx_HAL_Driver/Src/stm32f7xx_hal_gpio.c **** 
 341:Drivers/STM32F7xx_HAL_Driver/Src/stm32f7xx_hal_gpio.c ****       /* Configure the default value for IO Speed */
 342:Drivers/STM32F7xx_HAL_Driver/Src/stm32f7xx_hal_gpio.c ****       GPIOx->OSPEEDR &= ~(GPIO_OSPEEDER_OSPEEDR0 << (position * 2));
 591              		.loc 1 342 7 is_stmt 1 view .LVU218
 592              		.loc 1 342 12 is_stmt 0 view .LVU219
 593 005a 8268     		ldr	r2, [r0, #8]
 594              		.loc 1 342 22 view .LVU220
 595 005c 22EA0C02 		bic	r2, r2, ip
 596 0060 8260     		str	r2, [r0, #8]
 597              	.L32:
 302:Drivers/STM32F7xx_HAL_Driver/Src/stm32f7xx_hal_gpio.c ****   {
 598              		.loc 1 302 54 is_stmt 1 discriminator 2 view .LVU221
 599 0062 0133     		adds	r3, r3, #1
 600              	.LVL53:
ARM GAS  /tmp/cczFzV9F.s 			page 19


 302:Drivers/STM32F7xx_HAL_Driver/Src/stm32f7xx_hal_gpio.c ****   {
 601              		.loc 1 302 31 discriminator 1 view .LVU222
 602 0064 0F2B     		cmp	r3, #15
 603 0066 69D8     		bhi	.L51
 604              	.LVL54:
 605              	.L35:
 305:Drivers/STM32F7xx_HAL_Driver/Src/stm32f7xx_hal_gpio.c ****     /* Get the current IO position */
 606              		.loc 1 305 5 view .LVU223
 305:Drivers/STM32F7xx_HAL_Driver/Src/stm32f7xx_hal_gpio.c ****     /* Get the current IO position */
 607              		.loc 1 305 16 is_stmt 0 view .LVU224
 608 0068 0122     		movs	r2, #1
 609 006a 9A40     		lsls	r2, r2, r3
 610              	.LVL55:
 307:Drivers/STM32F7xx_HAL_Driver/Src/stm32f7xx_hal_gpio.c **** 
 611              		.loc 1 307 5 is_stmt 1 view .LVU225
 307:Drivers/STM32F7xx_HAL_Driver/Src/stm32f7xx_hal_gpio.c **** 
 612              		.loc 1 307 15 is_stmt 0 view .LVU226
 613 006c 02EA0106 		and	r6, r2, r1
 614              	.LVL56:
 309:Drivers/STM32F7xx_HAL_Driver/Src/stm32f7xx_hal_gpio.c ****     {
 615              		.loc 1 309 5 is_stmt 1 view .LVU227
 309:Drivers/STM32F7xx_HAL_Driver/Src/stm32f7xx_hal_gpio.c ****     {
 616              		.loc 1 309 8 is_stmt 0 view .LVU228
 617 0070 32EA0104 		bics	r4, r2, r1
 618 0074 F5D1     		bne	.L32
 312:Drivers/STM32F7xx_HAL_Driver/Src/stm32f7xx_hal_gpio.c ****       tmp &= (((uint32_t)0x0F) << (4 * (position & 0x03)));
 619              		.loc 1 312 7 is_stmt 1 view .LVU229
 312:Drivers/STM32F7xx_HAL_Driver/Src/stm32f7xx_hal_gpio.c ****       tmp &= (((uint32_t)0x0F) << (4 * (position & 0x03)));
 620              		.loc 1 312 37 is_stmt 0 view .LVU230
 621 0076 4FEA930E 		lsr	lr, r3, #2
 312:Drivers/STM32F7xx_HAL_Driver/Src/stm32f7xx_hal_gpio.c ****       tmp &= (((uint32_t)0x0F) << (4 * (position & 0x03)));
 622              		.loc 1 312 11 view .LVU231
 623 007a 0EF10205 		add	r5, lr, #2
 624 007e 304C     		ldr	r4, .L53
 625 0080 54F82540 		ldr	r4, [r4, r5, lsl #2]
 626              	.LVL57:
 313:Drivers/STM32F7xx_HAL_Driver/Src/stm32f7xx_hal_gpio.c ****       if (tmp == ((uint32_t)(GPIO_GET_INDEX(GPIOx)) << (4 * (position & 0x03))))
 627              		.loc 1 313 7 is_stmt 1 view .LVU232
 313:Drivers/STM32F7xx_HAL_Driver/Src/stm32f7xx_hal_gpio.c ****       if (tmp == ((uint32_t)(GPIO_GET_INDEX(GPIOx)) << (4 * (position & 0x03))))
 628              		.loc 1 313 50 is_stmt 0 view .LVU233
 629 0084 03F0030C 		and	ip, r3, #3
 313:Drivers/STM32F7xx_HAL_Driver/Src/stm32f7xx_hal_gpio.c ****       if (tmp == ((uint32_t)(GPIO_GET_INDEX(GPIOx)) << (4 * (position & 0x03))))
 630              		.loc 1 313 38 view .LVU234
 631 0088 4FEA8C0C 		lsl	ip, ip, #2
 313:Drivers/STM32F7xx_HAL_Driver/Src/stm32f7xx_hal_gpio.c ****       if (tmp == ((uint32_t)(GPIO_GET_INDEX(GPIOx)) << (4 * (position & 0x03))))
 632              		.loc 1 313 32 view .LVU235
 633 008c 0F25     		movs	r5, #15
 634 008e 05FA0CF7 		lsl	r7, r5, ip
 313:Drivers/STM32F7xx_HAL_Driver/Src/stm32f7xx_hal_gpio.c ****       if (tmp == ((uint32_t)(GPIO_GET_INDEX(GPIOx)) << (4 * (position & 0x03))))
 635              		.loc 1 313 11 view .LVU236
 636 0092 3C40     		ands	r4, r4, r7
 637              	.LVL58:
 314:Drivers/STM32F7xx_HAL_Driver/Src/stm32f7xx_hal_gpio.c ****       {
 638              		.loc 1 314 7 is_stmt 1 view .LVU237
 314:Drivers/STM32F7xx_HAL_Driver/Src/stm32f7xx_hal_gpio.c ****       {
 639              		.loc 1 314 19 is_stmt 0 view .LVU238
 640 0094 2B4D     		ldr	r5, .L53+4
ARM GAS  /tmp/cczFzV9F.s 			page 20


 641 0096 A842     		cmp	r0, r5
 642 0098 BAD0     		beq	.L36
 314:Drivers/STM32F7xx_HAL_Driver/Src/stm32f7xx_hal_gpio.c ****       {
 643              		.loc 1 314 30 discriminator 1 view .LVU239
 644 009a 05F58065 		add	r5, r5, #1024
 645 009e A842     		cmp	r0, r5
 646 00a0 21D0     		beq	.L37
 314:Drivers/STM32F7xx_HAL_Driver/Src/stm32f7xx_hal_gpio.c ****       {
 647              		.loc 1 314 30 discriminator 3 view .LVU240
 648 00a2 05F58065 		add	r5, r5, #1024
 649 00a6 A842     		cmp	r0, r5
 650 00a8 1FD0     		beq	.L38
 314:Drivers/STM32F7xx_HAL_Driver/Src/stm32f7xx_hal_gpio.c ****       {
 651              		.loc 1 314 30 discriminator 5 view .LVU241
 652 00aa 05F58065 		add	r5, r5, #1024
 653 00ae A842     		cmp	r0, r5
 654 00b0 1DD0     		beq	.L39
 314:Drivers/STM32F7xx_HAL_Driver/Src/stm32f7xx_hal_gpio.c ****       {
 655              		.loc 1 314 30 discriminator 7 view .LVU242
 656 00b2 05F58065 		add	r5, r5, #1024
 657 00b6 A842     		cmp	r0, r5
 658 00b8 1BD0     		beq	.L40
 314:Drivers/STM32F7xx_HAL_Driver/Src/stm32f7xx_hal_gpio.c ****       {
 659              		.loc 1 314 30 discriminator 9 view .LVU243
 660 00ba 05F58065 		add	r5, r5, #1024
 661 00be A842     		cmp	r0, r5
 662 00c0 19D0     		beq	.L41
 314:Drivers/STM32F7xx_HAL_Driver/Src/stm32f7xx_hal_gpio.c ****       {
 663              		.loc 1 314 30 discriminator 11 view .LVU244
 664 00c2 05F58065 		add	r5, r5, #1024
 665 00c6 A842     		cmp	r0, r5
 666 00c8 17D0     		beq	.L42
 314:Drivers/STM32F7xx_HAL_Driver/Src/stm32f7xx_hal_gpio.c ****       {
 667              		.loc 1 314 30 discriminator 13 view .LVU245
 668 00ca 05F58065 		add	r5, r5, #1024
 669 00ce A842     		cmp	r0, r5
 670 00d0 15D0     		beq	.L43
 314:Drivers/STM32F7xx_HAL_Driver/Src/stm32f7xx_hal_gpio.c ****       {
 671              		.loc 1 314 30 discriminator 15 view .LVU246
 672 00d2 05F58065 		add	r5, r5, #1024
 673 00d6 A842     		cmp	r0, r5
 674 00d8 13D0     		beq	.L44
 314:Drivers/STM32F7xx_HAL_Driver/Src/stm32f7xx_hal_gpio.c ****       {
 675              		.loc 1 314 30 discriminator 17 view .LVU247
 676 00da 05F58065 		add	r5, r5, #1024
 677 00de A842     		cmp	r0, r5
 678 00e0 94D0     		beq	.L52
 314:Drivers/STM32F7xx_HAL_Driver/Src/stm32f7xx_hal_gpio.c ****       {
 679              		.loc 1 314 19 discriminator 20 view .LVU248
 680 00e2 0A25     		movs	r5, #10
 681 00e4 95E7     		b	.L33
 682              	.L37:
 314:Drivers/STM32F7xx_HAL_Driver/Src/stm32f7xx_hal_gpio.c ****       {
 683              		.loc 1 314 19 discriminator 4 view .LVU249
 684 00e6 0125     		movs	r5, #1
 685 00e8 93E7     		b	.L33
 686              	.L38:
ARM GAS  /tmp/cczFzV9F.s 			page 21


 314:Drivers/STM32F7xx_HAL_Driver/Src/stm32f7xx_hal_gpio.c ****       {
 687              		.loc 1 314 19 discriminator 6 view .LVU250
 688 00ea 0225     		movs	r5, #2
 689 00ec 91E7     		b	.L33
 690              	.L39:
 314:Drivers/STM32F7xx_HAL_Driver/Src/stm32f7xx_hal_gpio.c ****       {
 691              		.loc 1 314 19 discriminator 8 view .LVU251
 692 00ee 0325     		movs	r5, #3
 693 00f0 8FE7     		b	.L33
 694              	.L40:
 314:Drivers/STM32F7xx_HAL_Driver/Src/stm32f7xx_hal_gpio.c ****       {
 695              		.loc 1 314 19 discriminator 10 view .LVU252
 696 00f2 0425     		movs	r5, #4
 697 00f4 8DE7     		b	.L33
 698              	.L41:
 314:Drivers/STM32F7xx_HAL_Driver/Src/stm32f7xx_hal_gpio.c ****       {
 699              		.loc 1 314 19 discriminator 12 view .LVU253
 700 00f6 0525     		movs	r5, #5
 701 00f8 8BE7     		b	.L33
 702              	.L42:
 314:Drivers/STM32F7xx_HAL_Driver/Src/stm32f7xx_hal_gpio.c ****       {
 703              		.loc 1 314 19 discriminator 14 view .LVU254
 704 00fa 0625     		movs	r5, #6
 705 00fc 89E7     		b	.L33
 706              	.L43:
 314:Drivers/STM32F7xx_HAL_Driver/Src/stm32f7xx_hal_gpio.c ****       {
 707              		.loc 1 314 19 discriminator 16 view .LVU255
 708 00fe 0725     		movs	r5, #7
 709 0100 87E7     		b	.L33
 710              	.L44:
 314:Drivers/STM32F7xx_HAL_Driver/Src/stm32f7xx_hal_gpio.c ****       {
 711              		.loc 1 314 19 discriminator 18 view .LVU256
 712 0102 0825     		movs	r5, #8
 713 0104 85E7     		b	.L33
 714              	.L50:
 317:Drivers/STM32F7xx_HAL_Driver/Src/stm32f7xx_hal_gpio.c ****         EXTI->EMR &= ~((uint32_t)iocurrent);
 715              		.loc 1 317 9 is_stmt 1 view .LVU257
 317:Drivers/STM32F7xx_HAL_Driver/Src/stm32f7xx_hal_gpio.c ****         EXTI->EMR &= ~((uint32_t)iocurrent);
 716              		.loc 1 317 13 is_stmt 0 view .LVU258
 717 0106 104C     		ldr	r4, .L53+8
 718              	.LVL59:
 317:Drivers/STM32F7xx_HAL_Driver/Src/stm32f7xx_hal_gpio.c ****         EXTI->EMR &= ~((uint32_t)iocurrent);
 719              		.loc 1 317 13 view .LVU259
 720 0108 2568     		ldr	r5, [r4]
 317:Drivers/STM32F7xx_HAL_Driver/Src/stm32f7xx_hal_gpio.c ****         EXTI->EMR &= ~((uint32_t)iocurrent);
 721              		.loc 1 317 19 view .LVU260
 722 010a 25EA0605 		bic	r5, r5, r6
 723 010e 2560     		str	r5, [r4]
 318:Drivers/STM32F7xx_HAL_Driver/Src/stm32f7xx_hal_gpio.c **** 
 724              		.loc 1 318 9 is_stmt 1 view .LVU261
 318:Drivers/STM32F7xx_HAL_Driver/Src/stm32f7xx_hal_gpio.c **** 
 725              		.loc 1 318 13 is_stmt 0 view .LVU262
 726 0110 6568     		ldr	r5, [r4, #4]
 318:Drivers/STM32F7xx_HAL_Driver/Src/stm32f7xx_hal_gpio.c **** 
 727              		.loc 1 318 19 view .LVU263
 728 0112 25EA0605 		bic	r5, r5, r6
 729 0116 6560     		str	r5, [r4, #4]
ARM GAS  /tmp/cczFzV9F.s 			page 22


 321:Drivers/STM32F7xx_HAL_Driver/Src/stm32f7xx_hal_gpio.c ****         EXTI->RTSR &= ~((uint32_t)iocurrent);
 730              		.loc 1 321 9 is_stmt 1 view .LVU264
 321:Drivers/STM32F7xx_HAL_Driver/Src/stm32f7xx_hal_gpio.c ****         EXTI->RTSR &= ~((uint32_t)iocurrent);
 731              		.loc 1 321 13 is_stmt 0 view .LVU265
 732 0118 E568     		ldr	r5, [r4, #12]
 321:Drivers/STM32F7xx_HAL_Driver/Src/stm32f7xx_hal_gpio.c ****         EXTI->RTSR &= ~((uint32_t)iocurrent);
 733              		.loc 1 321 20 view .LVU266
 734 011a 25EA0605 		bic	r5, r5, r6
 735 011e E560     		str	r5, [r4, #12]
 322:Drivers/STM32F7xx_HAL_Driver/Src/stm32f7xx_hal_gpio.c **** 
 736              		.loc 1 322 9 is_stmt 1 view .LVU267
 322:Drivers/STM32F7xx_HAL_Driver/Src/stm32f7xx_hal_gpio.c **** 
 737              		.loc 1 322 13 is_stmt 0 view .LVU268
 738 0120 A568     		ldr	r5, [r4, #8]
 322:Drivers/STM32F7xx_HAL_Driver/Src/stm32f7xx_hal_gpio.c **** 
 739              		.loc 1 322 20 view .LVU269
 740 0122 25EA0605 		bic	r5, r5, r6
 741 0126 A560     		str	r5, [r4, #8]
 325:Drivers/STM32F7xx_HAL_Driver/Src/stm32f7xx_hal_gpio.c ****         SYSCFG->EXTICR[position >> 2] &= ~tmp;
 742              		.loc 1 325 9 is_stmt 1 view .LVU270
 743              	.LVL60:
 326:Drivers/STM32F7xx_HAL_Driver/Src/stm32f7xx_hal_gpio.c ****       }
 744              		.loc 1 326 9 view .LVU271
 326:Drivers/STM32F7xx_HAL_Driver/Src/stm32f7xx_hal_gpio.c ****       }
 745              		.loc 1 326 23 is_stmt 0 view .LVU272
 746 0128 054E     		ldr	r6, .L53
 747              	.LVL61:
 326:Drivers/STM32F7xx_HAL_Driver/Src/stm32f7xx_hal_gpio.c ****       }
 748              		.loc 1 326 23 view .LVU273
 749 012a 0EF10204 		add	r4, lr, #2
 750 012e 56F82450 		ldr	r5, [r6, r4, lsl #2]
 326:Drivers/STM32F7xx_HAL_Driver/Src/stm32f7xx_hal_gpio.c ****       }
 751              		.loc 1 326 39 view .LVU274
 752 0132 25EA0705 		bic	r5, r5, r7
 753 0136 46F82450 		str	r5, [r6, r4, lsl #2]
 754 013a 6EE7     		b	.L34
 755              	.LVL62:
 756              	.L51:
 343:Drivers/STM32F7xx_HAL_Driver/Src/stm32f7xx_hal_gpio.c ****     }
 344:Drivers/STM32F7xx_HAL_Driver/Src/stm32f7xx_hal_gpio.c ****   }
 345:Drivers/STM32F7xx_HAL_Driver/Src/stm32f7xx_hal_gpio.c **** }
 757              		.loc 1 345 1 view .LVU275
 758 013c F0BD     		pop	{r4, r5, r6, r7, pc}
 759              	.LVL63:
 760              	.L49:
 761              	.LCFI4:
 762              		.cfi_def_cfa_offset 0
 763              		.cfi_restore 4
 764              		.cfi_restore 5
 765              		.cfi_restore 6
 766              		.cfi_restore 7
 767              		.cfi_restore 14
 768              		.loc 1 345 1 view .LVU276
 769 013e 7047     		bx	lr
 770              	.L54:
 771              		.align	2
 772              	.L53:
ARM GAS  /tmp/cczFzV9F.s 			page 23


 773 0140 00380140 		.word	1073821696
 774 0144 00000240 		.word	1073872896
 775 0148 003C0140 		.word	1073822720
 776              		.cfi_endproc
 777              	.LFE142:
 779              		.section	.text.HAL_GPIO_ReadPin,"ax",%progbits
 780              		.align	1
 781              		.global	HAL_GPIO_ReadPin
 782              		.syntax unified
 783              		.thumb
 784              		.thumb_func
 786              	HAL_GPIO_ReadPin:
 787              	.LVL64:
 788              	.LFB143:
 346:Drivers/STM32F7xx_HAL_Driver/Src/stm32f7xx_hal_gpio.c **** 
 347:Drivers/STM32F7xx_HAL_Driver/Src/stm32f7xx_hal_gpio.c **** /**
 348:Drivers/STM32F7xx_HAL_Driver/Src/stm32f7xx_hal_gpio.c ****   * @}
 349:Drivers/STM32F7xx_HAL_Driver/Src/stm32f7xx_hal_gpio.c ****   */
 350:Drivers/STM32F7xx_HAL_Driver/Src/stm32f7xx_hal_gpio.c **** 
 351:Drivers/STM32F7xx_HAL_Driver/Src/stm32f7xx_hal_gpio.c **** /** @defgroup GPIO_Exported_Functions_Group2 IO operation functions
 352:Drivers/STM32F7xx_HAL_Driver/Src/stm32f7xx_hal_gpio.c ****  *  @brief   GPIO Read and Write
 353:Drivers/STM32F7xx_HAL_Driver/Src/stm32f7xx_hal_gpio.c ****  *
 354:Drivers/STM32F7xx_HAL_Driver/Src/stm32f7xx_hal_gpio.c **** @verbatim
 355:Drivers/STM32F7xx_HAL_Driver/Src/stm32f7xx_hal_gpio.c ****  ===============================================================================
 356:Drivers/STM32F7xx_HAL_Driver/Src/stm32f7xx_hal_gpio.c ****                        ##### IO operation functions #####
 357:Drivers/STM32F7xx_HAL_Driver/Src/stm32f7xx_hal_gpio.c ****  ===============================================================================
 358:Drivers/STM32F7xx_HAL_Driver/Src/stm32f7xx_hal_gpio.c **** 
 359:Drivers/STM32F7xx_HAL_Driver/Src/stm32f7xx_hal_gpio.c **** @endverbatim
 360:Drivers/STM32F7xx_HAL_Driver/Src/stm32f7xx_hal_gpio.c ****   * @{
 361:Drivers/STM32F7xx_HAL_Driver/Src/stm32f7xx_hal_gpio.c ****   */
 362:Drivers/STM32F7xx_HAL_Driver/Src/stm32f7xx_hal_gpio.c **** 
 363:Drivers/STM32F7xx_HAL_Driver/Src/stm32f7xx_hal_gpio.c **** /**
 364:Drivers/STM32F7xx_HAL_Driver/Src/stm32f7xx_hal_gpio.c ****   * @brief  Reads the specified input port pin.
 365:Drivers/STM32F7xx_HAL_Driver/Src/stm32f7xx_hal_gpio.c ****   * @param  GPIOx where x can be (A..K) to select the GPIO peripheral.
 366:Drivers/STM32F7xx_HAL_Driver/Src/stm32f7xx_hal_gpio.c ****   * @param  GPIO_Pin specifies the port bit to read.
 367:Drivers/STM32F7xx_HAL_Driver/Src/stm32f7xx_hal_gpio.c ****   *         This parameter can be any combination of GPIO_PIN_x where x can be (0..15).
 368:Drivers/STM32F7xx_HAL_Driver/Src/stm32f7xx_hal_gpio.c ****   * @retval The input port pin value.
 369:Drivers/STM32F7xx_HAL_Driver/Src/stm32f7xx_hal_gpio.c ****   */
 370:Drivers/STM32F7xx_HAL_Driver/Src/stm32f7xx_hal_gpio.c **** GPIO_PinState HAL_GPIO_ReadPin(GPIO_TypeDef *GPIOx, uint16_t GPIO_Pin)
 371:Drivers/STM32F7xx_HAL_Driver/Src/stm32f7xx_hal_gpio.c **** {
 789              		.loc 1 371 1 is_stmt 1 view -0
 790              		.cfi_startproc
 791              		@ args = 0, pretend = 0, frame = 0
 792              		@ frame_needed = 0, uses_anonymous_args = 0
 793              		@ link register save eliminated.
 372:Drivers/STM32F7xx_HAL_Driver/Src/stm32f7xx_hal_gpio.c ****   GPIO_PinState bitstatus;
 794              		.loc 1 372 3 view .LVU278
 373:Drivers/STM32F7xx_HAL_Driver/Src/stm32f7xx_hal_gpio.c **** 
 374:Drivers/STM32F7xx_HAL_Driver/Src/stm32f7xx_hal_gpio.c ****   /* Check the parameters */
 375:Drivers/STM32F7xx_HAL_Driver/Src/stm32f7xx_hal_gpio.c ****   assert_param(IS_GPIO_PIN(GPIO_Pin));
 795              		.loc 1 375 3 view .LVU279
 376:Drivers/STM32F7xx_HAL_Driver/Src/stm32f7xx_hal_gpio.c **** 
 377:Drivers/STM32F7xx_HAL_Driver/Src/stm32f7xx_hal_gpio.c ****   if ((GPIOx->IDR & GPIO_Pin) != (uint32_t)GPIO_PIN_RESET)
 796              		.loc 1 377 3 view .LVU280
 797              		.loc 1 377 13 is_stmt 0 view .LVU281
 798 0000 0369     		ldr	r3, [r0, #16]
 799              		.loc 1 377 6 view .LVU282
ARM GAS  /tmp/cczFzV9F.s 			page 24


 800 0002 1942     		tst	r1, r3
 801 0004 01D0     		beq	.L57
 378:Drivers/STM32F7xx_HAL_Driver/Src/stm32f7xx_hal_gpio.c ****   {
 379:Drivers/STM32F7xx_HAL_Driver/Src/stm32f7xx_hal_gpio.c ****     bitstatus = GPIO_PIN_SET;
 802              		.loc 1 379 15 view .LVU283
 803 0006 0120     		movs	r0, #1
 804              	.LVL65:
 805              		.loc 1 379 15 view .LVU284
 806 0008 7047     		bx	lr
 807              	.LVL66:
 808              	.L57:
 380:Drivers/STM32F7xx_HAL_Driver/Src/stm32f7xx_hal_gpio.c ****   }
 381:Drivers/STM32F7xx_HAL_Driver/Src/stm32f7xx_hal_gpio.c ****   else
 382:Drivers/STM32F7xx_HAL_Driver/Src/stm32f7xx_hal_gpio.c ****   {
 383:Drivers/STM32F7xx_HAL_Driver/Src/stm32f7xx_hal_gpio.c ****     bitstatus = GPIO_PIN_RESET;
 809              		.loc 1 383 15 view .LVU285
 810 000a 0020     		movs	r0, #0
 811              	.LVL67:
 384:Drivers/STM32F7xx_HAL_Driver/Src/stm32f7xx_hal_gpio.c ****   }
 385:Drivers/STM32F7xx_HAL_Driver/Src/stm32f7xx_hal_gpio.c ****   return bitstatus;
 812              		.loc 1 385 3 is_stmt 1 view .LVU286
 386:Drivers/STM32F7xx_HAL_Driver/Src/stm32f7xx_hal_gpio.c **** }
 813              		.loc 1 386 1 is_stmt 0 view .LVU287
 814 000c 7047     		bx	lr
 815              		.cfi_endproc
 816              	.LFE143:
 818              		.section	.text.HAL_GPIO_WritePin,"ax",%progbits
 819              		.align	1
 820              		.global	HAL_GPIO_WritePin
 821              		.syntax unified
 822              		.thumb
 823              		.thumb_func
 825              	HAL_GPIO_WritePin:
 826              	.LVL68:
 827              	.LFB144:
 387:Drivers/STM32F7xx_HAL_Driver/Src/stm32f7xx_hal_gpio.c **** 
 388:Drivers/STM32F7xx_HAL_Driver/Src/stm32f7xx_hal_gpio.c **** /**
 389:Drivers/STM32F7xx_HAL_Driver/Src/stm32f7xx_hal_gpio.c ****   * @brief  Sets or clears the selected data port bit.
 390:Drivers/STM32F7xx_HAL_Driver/Src/stm32f7xx_hal_gpio.c ****   *
 391:Drivers/STM32F7xx_HAL_Driver/Src/stm32f7xx_hal_gpio.c ****   * @note   This function uses GPIOx_BSRR register to allow atomic read/modify
 392:Drivers/STM32F7xx_HAL_Driver/Src/stm32f7xx_hal_gpio.c ****   *         accesses. In this way, there is no risk of an IRQ occurring between
 393:Drivers/STM32F7xx_HAL_Driver/Src/stm32f7xx_hal_gpio.c ****   *         the read and the modify access.
 394:Drivers/STM32F7xx_HAL_Driver/Src/stm32f7xx_hal_gpio.c ****   *
 395:Drivers/STM32F7xx_HAL_Driver/Src/stm32f7xx_hal_gpio.c ****   * @param  GPIOx where x can be (A..K) to select the GPIO peripheral.
 396:Drivers/STM32F7xx_HAL_Driver/Src/stm32f7xx_hal_gpio.c ****   * @param  GPIO_Pin specifies the port bit to be written.
 397:Drivers/STM32F7xx_HAL_Driver/Src/stm32f7xx_hal_gpio.c ****   *         This parameter can be any combination of GPIO_PIN_x where x can be (0..15).
 398:Drivers/STM32F7xx_HAL_Driver/Src/stm32f7xx_hal_gpio.c ****   * @param  PinState specifies the value to be written to the selected bit.
 399:Drivers/STM32F7xx_HAL_Driver/Src/stm32f7xx_hal_gpio.c ****   *          This parameter can be one of the GPIO_PinState enum values:
 400:Drivers/STM32F7xx_HAL_Driver/Src/stm32f7xx_hal_gpio.c ****   *            @arg GPIO_PIN_RESET: to clear the port pin
 401:Drivers/STM32F7xx_HAL_Driver/Src/stm32f7xx_hal_gpio.c ****   *            @arg GPIO_PIN_SET: to set the port pin
 402:Drivers/STM32F7xx_HAL_Driver/Src/stm32f7xx_hal_gpio.c ****   * @retval None
 403:Drivers/STM32F7xx_HAL_Driver/Src/stm32f7xx_hal_gpio.c ****   */
 404:Drivers/STM32F7xx_HAL_Driver/Src/stm32f7xx_hal_gpio.c **** void HAL_GPIO_WritePin(GPIO_TypeDef *GPIOx, uint16_t GPIO_Pin, GPIO_PinState PinState)
 405:Drivers/STM32F7xx_HAL_Driver/Src/stm32f7xx_hal_gpio.c **** {
 828              		.loc 1 405 1 is_stmt 1 view -0
 829              		.cfi_startproc
 830              		@ args = 0, pretend = 0, frame = 0
ARM GAS  /tmp/cczFzV9F.s 			page 25


 831              		@ frame_needed = 0, uses_anonymous_args = 0
 832              		@ link register save eliminated.
 406:Drivers/STM32F7xx_HAL_Driver/Src/stm32f7xx_hal_gpio.c ****   /* Check the parameters */
 407:Drivers/STM32F7xx_HAL_Driver/Src/stm32f7xx_hal_gpio.c ****   assert_param(IS_GPIO_PIN(GPIO_Pin));
 833              		.loc 1 407 3 view .LVU289
 408:Drivers/STM32F7xx_HAL_Driver/Src/stm32f7xx_hal_gpio.c ****   assert_param(IS_GPIO_PIN_ACTION(PinState));
 834              		.loc 1 408 3 view .LVU290
 409:Drivers/STM32F7xx_HAL_Driver/Src/stm32f7xx_hal_gpio.c **** 
 410:Drivers/STM32F7xx_HAL_Driver/Src/stm32f7xx_hal_gpio.c ****   if (PinState != GPIO_PIN_RESET)
 835              		.loc 1 410 3 view .LVU291
 836              		.loc 1 410 6 is_stmt 0 view .LVU292
 837 0000 0AB1     		cbz	r2, .L59
 411:Drivers/STM32F7xx_HAL_Driver/Src/stm32f7xx_hal_gpio.c ****   {
 412:Drivers/STM32F7xx_HAL_Driver/Src/stm32f7xx_hal_gpio.c ****     GPIOx->BSRR = GPIO_Pin;
 838              		.loc 1 412 5 is_stmt 1 view .LVU293
 839              		.loc 1 412 17 is_stmt 0 view .LVU294
 840 0002 8161     		str	r1, [r0, #24]
 841 0004 7047     		bx	lr
 842              	.L59:
 413:Drivers/STM32F7xx_HAL_Driver/Src/stm32f7xx_hal_gpio.c ****   }
 414:Drivers/STM32F7xx_HAL_Driver/Src/stm32f7xx_hal_gpio.c ****   else
 415:Drivers/STM32F7xx_HAL_Driver/Src/stm32f7xx_hal_gpio.c ****   {
 416:Drivers/STM32F7xx_HAL_Driver/Src/stm32f7xx_hal_gpio.c ****     GPIOx->BSRR = (uint32_t)GPIO_Pin << 16;
 843              		.loc 1 416 5 is_stmt 1 view .LVU295
 844              		.loc 1 416 38 is_stmt 0 view .LVU296
 845 0006 0904     		lsls	r1, r1, #16
 846              	.LVL69:
 847              		.loc 1 416 17 view .LVU297
 848 0008 8161     		str	r1, [r0, #24]
 417:Drivers/STM32F7xx_HAL_Driver/Src/stm32f7xx_hal_gpio.c ****   }
 418:Drivers/STM32F7xx_HAL_Driver/Src/stm32f7xx_hal_gpio.c **** }
 849              		.loc 1 418 1 view .LVU298
 850 000a 7047     		bx	lr
 851              		.cfi_endproc
 852              	.LFE144:
 854              		.section	.text.HAL_GPIO_TogglePin,"ax",%progbits
 855              		.align	1
 856              		.global	HAL_GPIO_TogglePin
 857              		.syntax unified
 858              		.thumb
 859              		.thumb_func
 861              	HAL_GPIO_TogglePin:
 862              	.LVL70:
 863              	.LFB145:
 419:Drivers/STM32F7xx_HAL_Driver/Src/stm32f7xx_hal_gpio.c **** 
 420:Drivers/STM32F7xx_HAL_Driver/Src/stm32f7xx_hal_gpio.c **** /**
 421:Drivers/STM32F7xx_HAL_Driver/Src/stm32f7xx_hal_gpio.c ****   * @brief  Toggles the specified GPIO pins.
 422:Drivers/STM32F7xx_HAL_Driver/Src/stm32f7xx_hal_gpio.c ****   * @param  GPIOx Where x can be (A..I) to select the GPIO peripheral.
 423:Drivers/STM32F7xx_HAL_Driver/Src/stm32f7xx_hal_gpio.c ****   * @param  GPIO_Pin Specifies the pins to be toggled.
 424:Drivers/STM32F7xx_HAL_Driver/Src/stm32f7xx_hal_gpio.c ****   *         This parameter can be any combination of GPIO_PIN_x where x can be (0..15).
 425:Drivers/STM32F7xx_HAL_Driver/Src/stm32f7xx_hal_gpio.c ****   * @retval None
 426:Drivers/STM32F7xx_HAL_Driver/Src/stm32f7xx_hal_gpio.c ****   */
 427:Drivers/STM32F7xx_HAL_Driver/Src/stm32f7xx_hal_gpio.c **** void HAL_GPIO_TogglePin(GPIO_TypeDef *GPIOx, uint16_t GPIO_Pin)
 428:Drivers/STM32F7xx_HAL_Driver/Src/stm32f7xx_hal_gpio.c **** {
 864              		.loc 1 428 1 is_stmt 1 view -0
 865              		.cfi_startproc
 866              		@ args = 0, pretend = 0, frame = 0
ARM GAS  /tmp/cczFzV9F.s 			page 26


 867              		@ frame_needed = 0, uses_anonymous_args = 0
 868              		@ link register save eliminated.
 429:Drivers/STM32F7xx_HAL_Driver/Src/stm32f7xx_hal_gpio.c ****   uint32_t odr;
 869              		.loc 1 429 3 view .LVU300
 430:Drivers/STM32F7xx_HAL_Driver/Src/stm32f7xx_hal_gpio.c **** 
 431:Drivers/STM32F7xx_HAL_Driver/Src/stm32f7xx_hal_gpio.c ****   /* Check the parameters */
 432:Drivers/STM32F7xx_HAL_Driver/Src/stm32f7xx_hal_gpio.c ****   assert_param(IS_GPIO_PIN(GPIO_Pin));
 870              		.loc 1 432 3 view .LVU301
 433:Drivers/STM32F7xx_HAL_Driver/Src/stm32f7xx_hal_gpio.c **** 
 434:Drivers/STM32F7xx_HAL_Driver/Src/stm32f7xx_hal_gpio.c ****   /* get current Output Data Register value */
 435:Drivers/STM32F7xx_HAL_Driver/Src/stm32f7xx_hal_gpio.c ****   odr = GPIOx->ODR;
 871              		.loc 1 435 3 view .LVU302
 872              		.loc 1 435 7 is_stmt 0 view .LVU303
 873 0000 4369     		ldr	r3, [r0, #20]
 874              	.LVL71:
 436:Drivers/STM32F7xx_HAL_Driver/Src/stm32f7xx_hal_gpio.c **** 
 437:Drivers/STM32F7xx_HAL_Driver/Src/stm32f7xx_hal_gpio.c ****   /* Set selected pins that were at low level, and reset ones that were high */
 438:Drivers/STM32F7xx_HAL_Driver/Src/stm32f7xx_hal_gpio.c ****   GPIOx->BSRR = ((odr & GPIO_Pin) << GPIO_NUMBER) | (~odr & GPIO_Pin);
 875              		.loc 1 438 3 is_stmt 1 view .LVU304
 876              		.loc 1 438 23 is_stmt 0 view .LVU305
 877 0002 01EA0302 		and	r2, r1, r3
 878              		.loc 1 438 59 view .LVU306
 879 0006 21EA0301 		bic	r1, r1, r3
 880              	.LVL72:
 881              		.loc 1 438 51 view .LVU307
 882 000a 41EA0241 		orr	r1, r1, r2, lsl #16
 883              		.loc 1 438 15 view .LVU308
 884 000e 8161     		str	r1, [r0, #24]
 439:Drivers/STM32F7xx_HAL_Driver/Src/stm32f7xx_hal_gpio.c **** }
 885              		.loc 1 439 1 view .LVU309
 886 0010 7047     		bx	lr
 887              		.cfi_endproc
 888              	.LFE145:
 890              		.section	.text.HAL_GPIO_LockPin,"ax",%progbits
 891              		.align	1
 892              		.global	HAL_GPIO_LockPin
 893              		.syntax unified
 894              		.thumb
 895              		.thumb_func
 897              	HAL_GPIO_LockPin:
 898              	.LVL73:
 899              	.LFB146:
 440:Drivers/STM32F7xx_HAL_Driver/Src/stm32f7xx_hal_gpio.c **** 
 441:Drivers/STM32F7xx_HAL_Driver/Src/stm32f7xx_hal_gpio.c **** /**
 442:Drivers/STM32F7xx_HAL_Driver/Src/stm32f7xx_hal_gpio.c ****   * @brief  Locks GPIO Pins configuration registers.
 443:Drivers/STM32F7xx_HAL_Driver/Src/stm32f7xx_hal_gpio.c ****   * @note   The locked registers are GPIOx_MODER, GPIOx_OTYPER, GPIOx_OSPEEDR,
 444:Drivers/STM32F7xx_HAL_Driver/Src/stm32f7xx_hal_gpio.c ****   *         GPIOx_PUPDR, GPIOx_AFRL and GPIOx_AFRH.
 445:Drivers/STM32F7xx_HAL_Driver/Src/stm32f7xx_hal_gpio.c ****   * @note   The configuration of the locked GPIO pins can no longer be modified
 446:Drivers/STM32F7xx_HAL_Driver/Src/stm32f7xx_hal_gpio.c ****   *         until the next reset.
 447:Drivers/STM32F7xx_HAL_Driver/Src/stm32f7xx_hal_gpio.c ****   * @param  GPIOx where x can be (A..F) to select the GPIO peripheral for STM32F7 family
 448:Drivers/STM32F7xx_HAL_Driver/Src/stm32f7xx_hal_gpio.c ****   * @param  GPIO_Pin specifies the port bit to be locked.
 449:Drivers/STM32F7xx_HAL_Driver/Src/stm32f7xx_hal_gpio.c ****   *         This parameter can be any combination of GPIO_PIN_x where x can be (0..15).
 450:Drivers/STM32F7xx_HAL_Driver/Src/stm32f7xx_hal_gpio.c ****   * @retval None
 451:Drivers/STM32F7xx_HAL_Driver/Src/stm32f7xx_hal_gpio.c ****   */
 452:Drivers/STM32F7xx_HAL_Driver/Src/stm32f7xx_hal_gpio.c **** HAL_StatusTypeDef HAL_GPIO_LockPin(GPIO_TypeDef *GPIOx, uint16_t GPIO_Pin)
 453:Drivers/STM32F7xx_HAL_Driver/Src/stm32f7xx_hal_gpio.c **** {
 900              		.loc 1 453 1 is_stmt 1 view -0
ARM GAS  /tmp/cczFzV9F.s 			page 27


 901              		.cfi_startproc
 902              		@ args = 0, pretend = 0, frame = 8
 903              		@ frame_needed = 0, uses_anonymous_args = 0
 904              		@ link register save eliminated.
 905              		.loc 1 453 1 is_stmt 0 view .LVU311
 906 0000 82B0     		sub	sp, sp, #8
 907              	.LCFI5:
 908              		.cfi_def_cfa_offset 8
 454:Drivers/STM32F7xx_HAL_Driver/Src/stm32f7xx_hal_gpio.c ****   __IO uint32_t tmp = GPIO_LCKR_LCKK;
 909              		.loc 1 454 3 is_stmt 1 view .LVU312
 910              		.loc 1 454 17 is_stmt 0 view .LVU313
 911 0002 4FF48033 		mov	r3, #65536
 912 0006 0193     		str	r3, [sp, #4]
 455:Drivers/STM32F7xx_HAL_Driver/Src/stm32f7xx_hal_gpio.c **** 
 456:Drivers/STM32F7xx_HAL_Driver/Src/stm32f7xx_hal_gpio.c ****   /* Check the parameters */
 457:Drivers/STM32F7xx_HAL_Driver/Src/stm32f7xx_hal_gpio.c ****   assert_param(IS_GPIO_PIN(GPIO_Pin));
 913              		.loc 1 457 3 is_stmt 1 view .LVU314
 458:Drivers/STM32F7xx_HAL_Driver/Src/stm32f7xx_hal_gpio.c **** 
 459:Drivers/STM32F7xx_HAL_Driver/Src/stm32f7xx_hal_gpio.c ****   /* Apply lock key write sequence */
 460:Drivers/STM32F7xx_HAL_Driver/Src/stm32f7xx_hal_gpio.c ****   tmp |= GPIO_Pin;
 914              		.loc 1 460 3 view .LVU315
 915              		.loc 1 460 7 is_stmt 0 view .LVU316
 916 0008 019B     		ldr	r3, [sp, #4]
 917 000a 0B43     		orrs	r3, r3, r1
 918 000c 0193     		str	r3, [sp, #4]
 461:Drivers/STM32F7xx_HAL_Driver/Src/stm32f7xx_hal_gpio.c ****   /* Set LCKx bit(s): LCKK='1' + LCK[15-0] */
 462:Drivers/STM32F7xx_HAL_Driver/Src/stm32f7xx_hal_gpio.c ****   GPIOx->LCKR = tmp;
 919              		.loc 1 462 3 is_stmt 1 view .LVU317
 920              		.loc 1 462 15 is_stmt 0 view .LVU318
 921 000e 019B     		ldr	r3, [sp, #4]
 922 0010 C361     		str	r3, [r0, #28]
 463:Drivers/STM32F7xx_HAL_Driver/Src/stm32f7xx_hal_gpio.c ****   /* Reset LCKx bit(s): LCKK='0' + LCK[15-0] */
 464:Drivers/STM32F7xx_HAL_Driver/Src/stm32f7xx_hal_gpio.c ****   GPIOx->LCKR = GPIO_Pin;
 923              		.loc 1 464 3 is_stmt 1 view .LVU319
 924              		.loc 1 464 15 is_stmt 0 view .LVU320
 925 0012 C161     		str	r1, [r0, #28]
 465:Drivers/STM32F7xx_HAL_Driver/Src/stm32f7xx_hal_gpio.c ****   /* Set LCKx bit(s): LCKK='1' + LCK[15-0] */
 466:Drivers/STM32F7xx_HAL_Driver/Src/stm32f7xx_hal_gpio.c ****   GPIOx->LCKR = tmp;
 926              		.loc 1 466 3 is_stmt 1 view .LVU321
 927              		.loc 1 466 15 is_stmt 0 view .LVU322
 928 0014 019B     		ldr	r3, [sp, #4]
 929 0016 C361     		str	r3, [r0, #28]
 467:Drivers/STM32F7xx_HAL_Driver/Src/stm32f7xx_hal_gpio.c ****   /* Read LCKR register. This read is mandatory to complete key lock sequence */
 468:Drivers/STM32F7xx_HAL_Driver/Src/stm32f7xx_hal_gpio.c ****   tmp = GPIOx->LCKR;
 930              		.loc 1 468 3 is_stmt 1 view .LVU323
 931              		.loc 1 468 14 is_stmt 0 view .LVU324
 932 0018 C369     		ldr	r3, [r0, #28]
 933              		.loc 1 468 7 view .LVU325
 934 001a 0193     		str	r3, [sp, #4]
 469:Drivers/STM32F7xx_HAL_Driver/Src/stm32f7xx_hal_gpio.c **** 
 470:Drivers/STM32F7xx_HAL_Driver/Src/stm32f7xx_hal_gpio.c ****   /* Read again in order to confirm lock is active */
 471:Drivers/STM32F7xx_HAL_Driver/Src/stm32f7xx_hal_gpio.c ****   if ((GPIOx->LCKR & GPIO_LCKR_LCKK) != RESET)
 935              		.loc 1 471 3 is_stmt 1 view .LVU326
 936              		.loc 1 471 13 is_stmt 0 view .LVU327
 937 001c C369     		ldr	r3, [r0, #28]
 938              		.loc 1 471 6 view .LVU328
 939 001e 13F4803F 		tst	r3, #65536
ARM GAS  /tmp/cczFzV9F.s 			page 28


 940 0022 02D0     		beq	.L64
 472:Drivers/STM32F7xx_HAL_Driver/Src/stm32f7xx_hal_gpio.c ****   {
 473:Drivers/STM32F7xx_HAL_Driver/Src/stm32f7xx_hal_gpio.c ****     return HAL_OK;
 941              		.loc 1 473 12 view .LVU329
 942 0024 0020     		movs	r0, #0
 943              	.LVL74:
 944              	.L63:
 474:Drivers/STM32F7xx_HAL_Driver/Src/stm32f7xx_hal_gpio.c ****   }
 475:Drivers/STM32F7xx_HAL_Driver/Src/stm32f7xx_hal_gpio.c ****   else
 476:Drivers/STM32F7xx_HAL_Driver/Src/stm32f7xx_hal_gpio.c ****   {
 477:Drivers/STM32F7xx_HAL_Driver/Src/stm32f7xx_hal_gpio.c ****     return HAL_ERROR;
 478:Drivers/STM32F7xx_HAL_Driver/Src/stm32f7xx_hal_gpio.c ****   }
 479:Drivers/STM32F7xx_HAL_Driver/Src/stm32f7xx_hal_gpio.c **** }
 945              		.loc 1 479 1 view .LVU330
 946 0026 02B0     		add	sp, sp, #8
 947              	.LCFI6:
 948              		.cfi_remember_state
 949              		.cfi_def_cfa_offset 0
 950              		@ sp needed
 951 0028 7047     		bx	lr
 952              	.LVL75:
 953              	.L64:
 954              	.LCFI7:
 955              		.cfi_restore_state
 477:Drivers/STM32F7xx_HAL_Driver/Src/stm32f7xx_hal_gpio.c ****   }
 956              		.loc 1 477 12 view .LVU331
 957 002a 0120     		movs	r0, #1
 958              	.LVL76:
 477:Drivers/STM32F7xx_HAL_Driver/Src/stm32f7xx_hal_gpio.c ****   }
 959              		.loc 1 477 12 view .LVU332
 960 002c FBE7     		b	.L63
 961              		.cfi_endproc
 962              	.LFE146:
 964              		.section	.text.HAL_GPIO_EXTI_Callback,"ax",%progbits
 965              		.align	1
 966              		.weak	HAL_GPIO_EXTI_Callback
 967              		.syntax unified
 968              		.thumb
 969              		.thumb_func
 971              	HAL_GPIO_EXTI_Callback:
 972              	.LVL77:
 973              	.LFB148:
 480:Drivers/STM32F7xx_HAL_Driver/Src/stm32f7xx_hal_gpio.c **** 
 481:Drivers/STM32F7xx_HAL_Driver/Src/stm32f7xx_hal_gpio.c **** /**
 482:Drivers/STM32F7xx_HAL_Driver/Src/stm32f7xx_hal_gpio.c ****   * @brief  This function handles EXTI interrupt request.
 483:Drivers/STM32F7xx_HAL_Driver/Src/stm32f7xx_hal_gpio.c ****   * @param  GPIO_Pin Specifies the pins connected EXTI line
 484:Drivers/STM32F7xx_HAL_Driver/Src/stm32f7xx_hal_gpio.c ****   * @retval None
 485:Drivers/STM32F7xx_HAL_Driver/Src/stm32f7xx_hal_gpio.c ****   */
 486:Drivers/STM32F7xx_HAL_Driver/Src/stm32f7xx_hal_gpio.c **** void HAL_GPIO_EXTI_IRQHandler(uint16_t GPIO_Pin)
 487:Drivers/STM32F7xx_HAL_Driver/Src/stm32f7xx_hal_gpio.c **** {
 488:Drivers/STM32F7xx_HAL_Driver/Src/stm32f7xx_hal_gpio.c ****   /* EXTI line interrupt detected */
 489:Drivers/STM32F7xx_HAL_Driver/Src/stm32f7xx_hal_gpio.c ****   if (__HAL_GPIO_EXTI_GET_IT(GPIO_Pin) != RESET)
 490:Drivers/STM32F7xx_HAL_Driver/Src/stm32f7xx_hal_gpio.c ****   {
 491:Drivers/STM32F7xx_HAL_Driver/Src/stm32f7xx_hal_gpio.c ****     __HAL_GPIO_EXTI_CLEAR_IT(GPIO_Pin);
 492:Drivers/STM32F7xx_HAL_Driver/Src/stm32f7xx_hal_gpio.c ****     HAL_GPIO_EXTI_Callback(GPIO_Pin);
 493:Drivers/STM32F7xx_HAL_Driver/Src/stm32f7xx_hal_gpio.c ****   }
 494:Drivers/STM32F7xx_HAL_Driver/Src/stm32f7xx_hal_gpio.c **** }
ARM GAS  /tmp/cczFzV9F.s 			page 29


 495:Drivers/STM32F7xx_HAL_Driver/Src/stm32f7xx_hal_gpio.c **** 
 496:Drivers/STM32F7xx_HAL_Driver/Src/stm32f7xx_hal_gpio.c **** /**
 497:Drivers/STM32F7xx_HAL_Driver/Src/stm32f7xx_hal_gpio.c ****   * @brief  EXTI line detection callbacks.
 498:Drivers/STM32F7xx_HAL_Driver/Src/stm32f7xx_hal_gpio.c ****   * @param  GPIO_Pin Specifies the pins connected EXTI line
 499:Drivers/STM32F7xx_HAL_Driver/Src/stm32f7xx_hal_gpio.c ****   * @retval None
 500:Drivers/STM32F7xx_HAL_Driver/Src/stm32f7xx_hal_gpio.c ****   */
 501:Drivers/STM32F7xx_HAL_Driver/Src/stm32f7xx_hal_gpio.c **** __weak void HAL_GPIO_EXTI_Callback(uint16_t GPIO_Pin)
 502:Drivers/STM32F7xx_HAL_Driver/Src/stm32f7xx_hal_gpio.c **** {
 974              		.loc 1 502 1 is_stmt 1 view -0
 975              		.cfi_startproc
 976              		@ args = 0, pretend = 0, frame = 0
 977              		@ frame_needed = 0, uses_anonymous_args = 0
 978              		@ link register save eliminated.
 503:Drivers/STM32F7xx_HAL_Driver/Src/stm32f7xx_hal_gpio.c ****   /* Prevent unused argument(s) compilation warning */
 504:Drivers/STM32F7xx_HAL_Driver/Src/stm32f7xx_hal_gpio.c ****   UNUSED(GPIO_Pin);
 979              		.loc 1 504 3 view .LVU334
 505:Drivers/STM32F7xx_HAL_Driver/Src/stm32f7xx_hal_gpio.c **** 
 506:Drivers/STM32F7xx_HAL_Driver/Src/stm32f7xx_hal_gpio.c ****   /* NOTE: This function Should not be modified, when the callback is needed,
 507:Drivers/STM32F7xx_HAL_Driver/Src/stm32f7xx_hal_gpio.c ****            the HAL_GPIO_EXTI_Callback could be implemented in the user file
 508:Drivers/STM32F7xx_HAL_Driver/Src/stm32f7xx_hal_gpio.c ****    */
 509:Drivers/STM32F7xx_HAL_Driver/Src/stm32f7xx_hal_gpio.c **** }
 980              		.loc 1 509 1 is_stmt 0 view .LVU335
 981 0000 7047     		bx	lr
 982              		.cfi_endproc
 983              	.LFE148:
 985              		.section	.text.HAL_GPIO_EXTI_IRQHandler,"ax",%progbits
 986              		.align	1
 987              		.global	HAL_GPIO_EXTI_IRQHandler
 988              		.syntax unified
 989              		.thumb
 990              		.thumb_func
 992              	HAL_GPIO_EXTI_IRQHandler:
 993              	.LVL78:
 994              	.LFB147:
 487:Drivers/STM32F7xx_HAL_Driver/Src/stm32f7xx_hal_gpio.c ****   /* EXTI line interrupt detected */
 995              		.loc 1 487 1 is_stmt 1 view -0
 996              		.cfi_startproc
 997              		@ args = 0, pretend = 0, frame = 0
 998              		@ frame_needed = 0, uses_anonymous_args = 0
 487:Drivers/STM32F7xx_HAL_Driver/Src/stm32f7xx_hal_gpio.c ****   /* EXTI line interrupt detected */
 999              		.loc 1 487 1 is_stmt 0 view .LVU337
 1000 0000 08B5     		push	{r3, lr}
 1001              	.LCFI8:
 1002              		.cfi_def_cfa_offset 8
 1003              		.cfi_offset 3, -8
 1004              		.cfi_offset 14, -4
 489:Drivers/STM32F7xx_HAL_Driver/Src/stm32f7xx_hal_gpio.c ****   {
 1005              		.loc 1 489 3 is_stmt 1 view .LVU338
 489:Drivers/STM32F7xx_HAL_Driver/Src/stm32f7xx_hal_gpio.c ****   {
 1006              		.loc 1 489 7 is_stmt 0 view .LVU339
 1007 0002 054B     		ldr	r3, .L71
 1008 0004 5B69     		ldr	r3, [r3, #20]
 489:Drivers/STM32F7xx_HAL_Driver/Src/stm32f7xx_hal_gpio.c ****   {
 1009              		.loc 1 489 6 view .LVU340
 1010 0006 0342     		tst	r3, r0
 1011 0008 00D1     		bne	.L70
 1012              	.LVL79:
ARM GAS  /tmp/cczFzV9F.s 			page 30


 1013              	.L67:
 494:Drivers/STM32F7xx_HAL_Driver/Src/stm32f7xx_hal_gpio.c **** 
 1014              		.loc 1 494 1 view .LVU341
 1015 000a 08BD     		pop	{r3, pc}
 1016              	.LVL80:
 1017              	.L70:
 491:Drivers/STM32F7xx_HAL_Driver/Src/stm32f7xx_hal_gpio.c ****     HAL_GPIO_EXTI_Callback(GPIO_Pin);
 1018              		.loc 1 491 5 is_stmt 1 view .LVU342
 1019 000c 024B     		ldr	r3, .L71
 1020 000e 5861     		str	r0, [r3, #20]
 492:Drivers/STM32F7xx_HAL_Driver/Src/stm32f7xx_hal_gpio.c ****   }
 1021              		.loc 1 492 5 view .LVU343
 1022 0010 FFF7FEFF 		bl	HAL_GPIO_EXTI_Callback
 1023              	.LVL81:
 494:Drivers/STM32F7xx_HAL_Driver/Src/stm32f7xx_hal_gpio.c **** 
 1024              		.loc 1 494 1 is_stmt 0 view .LVU344
 1025 0014 F9E7     		b	.L67
 1026              	.L72:
 1027 0016 00BF     		.align	2
 1028              	.L71:
 1029 0018 003C0140 		.word	1073822720
 1030              		.cfi_endproc
 1031              	.LFE147:
 1033              		.text
 1034              	.Letext0:
 1035              		.file 2 "/usr/arm-none-eabi/include/machine/_default_types.h"
 1036              		.file 3 "/usr/arm-none-eabi/include/sys/_stdint.h"
 1037              		.file 4 "Drivers/CMSIS/Device/ST/STM32F7xx/Include/stm32f767xx.h"
 1038              		.file 5 "Drivers/CMSIS/Device/ST/STM32F7xx/Include/stm32f7xx.h"
 1039              		.file 6 "Drivers/STM32F7xx_HAL_Driver/Inc/stm32f7xx_hal_def.h"
 1040              		.file 7 "Drivers/STM32F7xx_HAL_Driver/Inc/stm32f7xx_hal_gpio.h"
ARM GAS  /tmp/cczFzV9F.s 			page 31

