ARM GAS  C:\Users\frees\AppData\Local\Temp\ccr3Z05i.s 			page 1


   1              		.cpu cortex-m7
   2              		.arch armv7e-m
   3              		.fpu fpv5-d16
   4              		.eabi_attribute 28, 1
   5              		.eabi_attribute 20, 1
   6              		.eabi_attribute 21, 1
   7              		.eabi_attribute 23, 3
   8              		.eabi_attribute 24, 1
   9              		.eabi_attribute 25, 1
  10              		.eabi_attribute 26, 1
  11              		.eabi_attribute 30, 1
  12              		.eabi_attribute 34, 1
  13              		.eabi_attribute 18, 4
  14              		.file	"stm32f7xx_hal_dma_ex.c"
  15              		.text
  16              	.Ltext0:
  17              		.cfi_sections	.debug_frame
  18              		.file 1 "Drivers/STM32F7xx_HAL_Driver/Src/stm32f7xx_hal_dma_ex.c"
  19              		.section	.text.DMA_MultiBufferSetConfig,"ax",%progbits
  20              		.align	1
  21              		.syntax unified
  22              		.thumb
  23              		.thumb_func
  25              	DMA_MultiBufferSetConfig:
  26              	.LVL0:
  27              	.LFB144:
   1:Drivers/STM32F7xx_HAL_Driver/Src/stm32f7xx_hal_dma_ex.c **** /**
   2:Drivers/STM32F7xx_HAL_Driver/Src/stm32f7xx_hal_dma_ex.c ****   ******************************************************************************
   3:Drivers/STM32F7xx_HAL_Driver/Src/stm32f7xx_hal_dma_ex.c ****   * @file    stm32f7xx_hal_dma_ex.c
   4:Drivers/STM32F7xx_HAL_Driver/Src/stm32f7xx_hal_dma_ex.c ****   * @author  MCD Application Team
   5:Drivers/STM32F7xx_HAL_Driver/Src/stm32f7xx_hal_dma_ex.c ****   * @brief   DMA Extension HAL module driver
   6:Drivers/STM32F7xx_HAL_Driver/Src/stm32f7xx_hal_dma_ex.c ****   *         This file provides firmware functions to manage the following 
   7:Drivers/STM32F7xx_HAL_Driver/Src/stm32f7xx_hal_dma_ex.c ****   *         functionalities of the DMA Extension peripheral:
   8:Drivers/STM32F7xx_HAL_Driver/Src/stm32f7xx_hal_dma_ex.c ****   *           + Extended features functions
   9:Drivers/STM32F7xx_HAL_Driver/Src/stm32f7xx_hal_dma_ex.c ****   *
  10:Drivers/STM32F7xx_HAL_Driver/Src/stm32f7xx_hal_dma_ex.c ****   @verbatim
  11:Drivers/STM32F7xx_HAL_Driver/Src/stm32f7xx_hal_dma_ex.c ****   ==============================================================================
  12:Drivers/STM32F7xx_HAL_Driver/Src/stm32f7xx_hal_dma_ex.c ****                         ##### How to use this driver #####
  13:Drivers/STM32F7xx_HAL_Driver/Src/stm32f7xx_hal_dma_ex.c ****   ==============================================================================
  14:Drivers/STM32F7xx_HAL_Driver/Src/stm32f7xx_hal_dma_ex.c ****   [..]
  15:Drivers/STM32F7xx_HAL_Driver/Src/stm32f7xx_hal_dma_ex.c ****   The DMA Extension HAL driver can be used as follows:
  16:Drivers/STM32F7xx_HAL_Driver/Src/stm32f7xx_hal_dma_ex.c ****    (+) Start a multi buffer transfer using the HAL_DMA_MultiBufferStart() function
  17:Drivers/STM32F7xx_HAL_Driver/Src/stm32f7xx_hal_dma_ex.c ****        for polling mode or HAL_DMA_MultiBufferStart_IT() for interrupt mode.
  18:Drivers/STM32F7xx_HAL_Driver/Src/stm32f7xx_hal_dma_ex.c **** 
  19:Drivers/STM32F7xx_HAL_Driver/Src/stm32f7xx_hal_dma_ex.c ****      -@-  In Memory-to-Memory transfer mode, Multi (Double) Buffer mode is not allowed.
  20:Drivers/STM32F7xx_HAL_Driver/Src/stm32f7xx_hal_dma_ex.c ****      -@-  When Multi (Double) Buffer mode is enabled, the transfer is circular by default.
  21:Drivers/STM32F7xx_HAL_Driver/Src/stm32f7xx_hal_dma_ex.c ****      -@-  In Multi (Double) buffer mode, it is possible to update the base address for 
  22:Drivers/STM32F7xx_HAL_Driver/Src/stm32f7xx_hal_dma_ex.c ****           the AHB memory port on the fly (DMA_SxM0AR or DMA_SxM1AR) when the stream is enabled.
  23:Drivers/STM32F7xx_HAL_Driver/Src/stm32f7xx_hal_dma_ex.c ****   
  24:Drivers/STM32F7xx_HAL_Driver/Src/stm32f7xx_hal_dma_ex.c ****   @endverbatim
  25:Drivers/STM32F7xx_HAL_Driver/Src/stm32f7xx_hal_dma_ex.c ****   ******************************************************************************
  26:Drivers/STM32F7xx_HAL_Driver/Src/stm32f7xx_hal_dma_ex.c ****   * @attention
  27:Drivers/STM32F7xx_HAL_Driver/Src/stm32f7xx_hal_dma_ex.c ****   *
  28:Drivers/STM32F7xx_HAL_Driver/Src/stm32f7xx_hal_dma_ex.c ****   * Copyright (c) 2017 STMicroelectronics.
  29:Drivers/STM32F7xx_HAL_Driver/Src/stm32f7xx_hal_dma_ex.c ****   * All rights reserved.
  30:Drivers/STM32F7xx_HAL_Driver/Src/stm32f7xx_hal_dma_ex.c ****   *
  31:Drivers/STM32F7xx_HAL_Driver/Src/stm32f7xx_hal_dma_ex.c ****   * This software is licensed under terms that can be found in the LICENSE file in
ARM GAS  C:\Users\frees\AppData\Local\Temp\ccr3Z05i.s 			page 2


  32:Drivers/STM32F7xx_HAL_Driver/Src/stm32f7xx_hal_dma_ex.c ****   * the root directory of this software component.
  33:Drivers/STM32F7xx_HAL_Driver/Src/stm32f7xx_hal_dma_ex.c ****   * If no LICENSE file comes with this software, it is provided AS-IS.
  34:Drivers/STM32F7xx_HAL_Driver/Src/stm32f7xx_hal_dma_ex.c ****   *
  35:Drivers/STM32F7xx_HAL_Driver/Src/stm32f7xx_hal_dma_ex.c ****   ******************************************************************************
  36:Drivers/STM32F7xx_HAL_Driver/Src/stm32f7xx_hal_dma_ex.c ****   */
  37:Drivers/STM32F7xx_HAL_Driver/Src/stm32f7xx_hal_dma_ex.c **** 
  38:Drivers/STM32F7xx_HAL_Driver/Src/stm32f7xx_hal_dma_ex.c **** /* Includes ------------------------------------------------------------------*/
  39:Drivers/STM32F7xx_HAL_Driver/Src/stm32f7xx_hal_dma_ex.c **** #include "stm32f7xx_hal.h"
  40:Drivers/STM32F7xx_HAL_Driver/Src/stm32f7xx_hal_dma_ex.c **** 
  41:Drivers/STM32F7xx_HAL_Driver/Src/stm32f7xx_hal_dma_ex.c **** /** @addtogroup STM32F7xx_HAL_Driver
  42:Drivers/STM32F7xx_HAL_Driver/Src/stm32f7xx_hal_dma_ex.c ****   * @{
  43:Drivers/STM32F7xx_HAL_Driver/Src/stm32f7xx_hal_dma_ex.c ****   */
  44:Drivers/STM32F7xx_HAL_Driver/Src/stm32f7xx_hal_dma_ex.c **** 
  45:Drivers/STM32F7xx_HAL_Driver/Src/stm32f7xx_hal_dma_ex.c **** /** @defgroup DMAEx DMAEx
  46:Drivers/STM32F7xx_HAL_Driver/Src/stm32f7xx_hal_dma_ex.c ****   * @brief DMA Extended HAL module driver
  47:Drivers/STM32F7xx_HAL_Driver/Src/stm32f7xx_hal_dma_ex.c ****   * @{
  48:Drivers/STM32F7xx_HAL_Driver/Src/stm32f7xx_hal_dma_ex.c ****   */
  49:Drivers/STM32F7xx_HAL_Driver/Src/stm32f7xx_hal_dma_ex.c **** 
  50:Drivers/STM32F7xx_HAL_Driver/Src/stm32f7xx_hal_dma_ex.c **** #ifdef HAL_DMA_MODULE_ENABLED
  51:Drivers/STM32F7xx_HAL_Driver/Src/stm32f7xx_hal_dma_ex.c **** 
  52:Drivers/STM32F7xx_HAL_Driver/Src/stm32f7xx_hal_dma_ex.c **** /* Private types -------------------------------------------------------------*/
  53:Drivers/STM32F7xx_HAL_Driver/Src/stm32f7xx_hal_dma_ex.c **** /* Private variables ---------------------------------------------------------*/
  54:Drivers/STM32F7xx_HAL_Driver/Src/stm32f7xx_hal_dma_ex.c **** /* Private Constants ---------------------------------------------------------*/
  55:Drivers/STM32F7xx_HAL_Driver/Src/stm32f7xx_hal_dma_ex.c **** /* Private macros ------------------------------------------------------------*/
  56:Drivers/STM32F7xx_HAL_Driver/Src/stm32f7xx_hal_dma_ex.c **** /* Private functions ---------------------------------------------------------*/
  57:Drivers/STM32F7xx_HAL_Driver/Src/stm32f7xx_hal_dma_ex.c **** /** @addtogroup DMAEx_Private_Functions
  58:Drivers/STM32F7xx_HAL_Driver/Src/stm32f7xx_hal_dma_ex.c ****   * @{
  59:Drivers/STM32F7xx_HAL_Driver/Src/stm32f7xx_hal_dma_ex.c ****   */
  60:Drivers/STM32F7xx_HAL_Driver/Src/stm32f7xx_hal_dma_ex.c **** 
  61:Drivers/STM32F7xx_HAL_Driver/Src/stm32f7xx_hal_dma_ex.c **** static void DMA_MultiBufferSetConfig(DMA_HandleTypeDef *hdma, uint32_t SrcAddress, uint32_t DstAddr
  62:Drivers/STM32F7xx_HAL_Driver/Src/stm32f7xx_hal_dma_ex.c **** 
  63:Drivers/STM32F7xx_HAL_Driver/Src/stm32f7xx_hal_dma_ex.c **** /**
  64:Drivers/STM32F7xx_HAL_Driver/Src/stm32f7xx_hal_dma_ex.c ****   * @}
  65:Drivers/STM32F7xx_HAL_Driver/Src/stm32f7xx_hal_dma_ex.c ****   */
  66:Drivers/STM32F7xx_HAL_Driver/Src/stm32f7xx_hal_dma_ex.c **** 
  67:Drivers/STM32F7xx_HAL_Driver/Src/stm32f7xx_hal_dma_ex.c **** /* Exported functions ---------------------------------------------------------*/
  68:Drivers/STM32F7xx_HAL_Driver/Src/stm32f7xx_hal_dma_ex.c **** 
  69:Drivers/STM32F7xx_HAL_Driver/Src/stm32f7xx_hal_dma_ex.c **** /** @addtogroup DMAEx_Exported_Functions
  70:Drivers/STM32F7xx_HAL_Driver/Src/stm32f7xx_hal_dma_ex.c ****   * @{
  71:Drivers/STM32F7xx_HAL_Driver/Src/stm32f7xx_hal_dma_ex.c ****   */
  72:Drivers/STM32F7xx_HAL_Driver/Src/stm32f7xx_hal_dma_ex.c **** 
  73:Drivers/STM32F7xx_HAL_Driver/Src/stm32f7xx_hal_dma_ex.c **** 
  74:Drivers/STM32F7xx_HAL_Driver/Src/stm32f7xx_hal_dma_ex.c **** /** @addtogroup DMAEx_Exported_Functions_Group1
  75:Drivers/STM32F7xx_HAL_Driver/Src/stm32f7xx_hal_dma_ex.c ****   *
  76:Drivers/STM32F7xx_HAL_Driver/Src/stm32f7xx_hal_dma_ex.c **** @verbatim
  77:Drivers/STM32F7xx_HAL_Driver/Src/stm32f7xx_hal_dma_ex.c ****  ===============================================================================
  78:Drivers/STM32F7xx_HAL_Driver/Src/stm32f7xx_hal_dma_ex.c ****                 #####  Extended features functions  #####
  79:Drivers/STM32F7xx_HAL_Driver/Src/stm32f7xx_hal_dma_ex.c ****  ===============================================================================  
  80:Drivers/STM32F7xx_HAL_Driver/Src/stm32f7xx_hal_dma_ex.c ****     [..]  This section provides functions allowing to:
  81:Drivers/STM32F7xx_HAL_Driver/Src/stm32f7xx_hal_dma_ex.c ****       (+) Configure the source, destination address and data length and 
  82:Drivers/STM32F7xx_HAL_Driver/Src/stm32f7xx_hal_dma_ex.c ****           Start MultiBuffer DMA transfer
  83:Drivers/STM32F7xx_HAL_Driver/Src/stm32f7xx_hal_dma_ex.c ****       (+) Configure the source, destination address and data length and 
  84:Drivers/STM32F7xx_HAL_Driver/Src/stm32f7xx_hal_dma_ex.c ****           Start MultiBuffer DMA transfer with interrupt
  85:Drivers/STM32F7xx_HAL_Driver/Src/stm32f7xx_hal_dma_ex.c ****       (+) Change on the fly the memory0 or memory1 address.
  86:Drivers/STM32F7xx_HAL_Driver/Src/stm32f7xx_hal_dma_ex.c ****       
  87:Drivers/STM32F7xx_HAL_Driver/Src/stm32f7xx_hal_dma_ex.c **** @endverbatim
  88:Drivers/STM32F7xx_HAL_Driver/Src/stm32f7xx_hal_dma_ex.c ****   * @{
ARM GAS  C:\Users\frees\AppData\Local\Temp\ccr3Z05i.s 			page 3


  89:Drivers/STM32F7xx_HAL_Driver/Src/stm32f7xx_hal_dma_ex.c ****   */
  90:Drivers/STM32F7xx_HAL_Driver/Src/stm32f7xx_hal_dma_ex.c **** 
  91:Drivers/STM32F7xx_HAL_Driver/Src/stm32f7xx_hal_dma_ex.c **** 
  92:Drivers/STM32F7xx_HAL_Driver/Src/stm32f7xx_hal_dma_ex.c **** /**
  93:Drivers/STM32F7xx_HAL_Driver/Src/stm32f7xx_hal_dma_ex.c ****   * @brief  Starts the multi_buffer DMA Transfer.
  94:Drivers/STM32F7xx_HAL_Driver/Src/stm32f7xx_hal_dma_ex.c ****   * @param  hdma       pointer to a DMA_HandleTypeDef structure that contains
  95:Drivers/STM32F7xx_HAL_Driver/Src/stm32f7xx_hal_dma_ex.c ****   *                     the configuration information for the specified DMA Stream.  
  96:Drivers/STM32F7xx_HAL_Driver/Src/stm32f7xx_hal_dma_ex.c ****   * @param  SrcAddress The source memory Buffer address
  97:Drivers/STM32F7xx_HAL_Driver/Src/stm32f7xx_hal_dma_ex.c ****   * @param  DstAddress The destination memory Buffer address
  98:Drivers/STM32F7xx_HAL_Driver/Src/stm32f7xx_hal_dma_ex.c ****   * @param  SecondMemAddress The second memory Buffer address in case of multi buffer Transfer  
  99:Drivers/STM32F7xx_HAL_Driver/Src/stm32f7xx_hal_dma_ex.c ****   * @param  DataLength The length of data to be transferred from source to destination
 100:Drivers/STM32F7xx_HAL_Driver/Src/stm32f7xx_hal_dma_ex.c ****   * @retval HAL status
 101:Drivers/STM32F7xx_HAL_Driver/Src/stm32f7xx_hal_dma_ex.c ****   */
 102:Drivers/STM32F7xx_HAL_Driver/Src/stm32f7xx_hal_dma_ex.c **** HAL_StatusTypeDef HAL_DMAEx_MultiBufferStart(DMA_HandleTypeDef *hdma, uint32_t SrcAddress, uint32_t
 103:Drivers/STM32F7xx_HAL_Driver/Src/stm32f7xx_hal_dma_ex.c **** {
 104:Drivers/STM32F7xx_HAL_Driver/Src/stm32f7xx_hal_dma_ex.c ****   HAL_StatusTypeDef status = HAL_OK;
 105:Drivers/STM32F7xx_HAL_Driver/Src/stm32f7xx_hal_dma_ex.c ****   
 106:Drivers/STM32F7xx_HAL_Driver/Src/stm32f7xx_hal_dma_ex.c ****   /* Check the parameters */
 107:Drivers/STM32F7xx_HAL_Driver/Src/stm32f7xx_hal_dma_ex.c ****   assert_param(IS_DMA_BUFFER_SIZE(DataLength));
 108:Drivers/STM32F7xx_HAL_Driver/Src/stm32f7xx_hal_dma_ex.c ****   
 109:Drivers/STM32F7xx_HAL_Driver/Src/stm32f7xx_hal_dma_ex.c ****   /* Memory-to-memory transfer not supported in double buffering mode */
 110:Drivers/STM32F7xx_HAL_Driver/Src/stm32f7xx_hal_dma_ex.c ****   if (hdma->Init.Direction == DMA_MEMORY_TO_MEMORY)
 111:Drivers/STM32F7xx_HAL_Driver/Src/stm32f7xx_hal_dma_ex.c ****   {
 112:Drivers/STM32F7xx_HAL_Driver/Src/stm32f7xx_hal_dma_ex.c ****     hdma->ErrorCode = HAL_DMA_ERROR_NOT_SUPPORTED;
 113:Drivers/STM32F7xx_HAL_Driver/Src/stm32f7xx_hal_dma_ex.c ****     status = HAL_ERROR;
 114:Drivers/STM32F7xx_HAL_Driver/Src/stm32f7xx_hal_dma_ex.c ****   }
 115:Drivers/STM32F7xx_HAL_Driver/Src/stm32f7xx_hal_dma_ex.c ****   else
 116:Drivers/STM32F7xx_HAL_Driver/Src/stm32f7xx_hal_dma_ex.c ****   {
 117:Drivers/STM32F7xx_HAL_Driver/Src/stm32f7xx_hal_dma_ex.c ****     /* Process Locked */
 118:Drivers/STM32F7xx_HAL_Driver/Src/stm32f7xx_hal_dma_ex.c ****     __HAL_LOCK(hdma);
 119:Drivers/STM32F7xx_HAL_Driver/Src/stm32f7xx_hal_dma_ex.c ****     
 120:Drivers/STM32F7xx_HAL_Driver/Src/stm32f7xx_hal_dma_ex.c ****     if(HAL_DMA_STATE_READY == hdma->State)
 121:Drivers/STM32F7xx_HAL_Driver/Src/stm32f7xx_hal_dma_ex.c ****     {
 122:Drivers/STM32F7xx_HAL_Driver/Src/stm32f7xx_hal_dma_ex.c ****       /* Change DMA peripheral state */
 123:Drivers/STM32F7xx_HAL_Driver/Src/stm32f7xx_hal_dma_ex.c ****       hdma->State = HAL_DMA_STATE_BUSY; 
 124:Drivers/STM32F7xx_HAL_Driver/Src/stm32f7xx_hal_dma_ex.c ****       
 125:Drivers/STM32F7xx_HAL_Driver/Src/stm32f7xx_hal_dma_ex.c ****       /* Enable the double buffer mode */
 126:Drivers/STM32F7xx_HAL_Driver/Src/stm32f7xx_hal_dma_ex.c ****       hdma->Instance->CR |= (uint32_t)DMA_SxCR_DBM;
 127:Drivers/STM32F7xx_HAL_Driver/Src/stm32f7xx_hal_dma_ex.c ****       
 128:Drivers/STM32F7xx_HAL_Driver/Src/stm32f7xx_hal_dma_ex.c ****       /* Configure DMA Stream destination address */
 129:Drivers/STM32F7xx_HAL_Driver/Src/stm32f7xx_hal_dma_ex.c ****       hdma->Instance->M1AR = SecondMemAddress;
 130:Drivers/STM32F7xx_HAL_Driver/Src/stm32f7xx_hal_dma_ex.c ****       
 131:Drivers/STM32F7xx_HAL_Driver/Src/stm32f7xx_hal_dma_ex.c ****       /* Configure the source, destination address and the data length */
 132:Drivers/STM32F7xx_HAL_Driver/Src/stm32f7xx_hal_dma_ex.c ****       DMA_MultiBufferSetConfig(hdma, SrcAddress, DstAddress, DataLength);
 133:Drivers/STM32F7xx_HAL_Driver/Src/stm32f7xx_hal_dma_ex.c ****       
 134:Drivers/STM32F7xx_HAL_Driver/Src/stm32f7xx_hal_dma_ex.c ****       /* Enable the peripheral */
 135:Drivers/STM32F7xx_HAL_Driver/Src/stm32f7xx_hal_dma_ex.c ****       __HAL_DMA_ENABLE(hdma);
 136:Drivers/STM32F7xx_HAL_Driver/Src/stm32f7xx_hal_dma_ex.c ****     }
 137:Drivers/STM32F7xx_HAL_Driver/Src/stm32f7xx_hal_dma_ex.c ****     else
 138:Drivers/STM32F7xx_HAL_Driver/Src/stm32f7xx_hal_dma_ex.c ****     {
 139:Drivers/STM32F7xx_HAL_Driver/Src/stm32f7xx_hal_dma_ex.c ****       /* Return error status */
 140:Drivers/STM32F7xx_HAL_Driver/Src/stm32f7xx_hal_dma_ex.c ****       status = HAL_BUSY;
 141:Drivers/STM32F7xx_HAL_Driver/Src/stm32f7xx_hal_dma_ex.c ****     }
 142:Drivers/STM32F7xx_HAL_Driver/Src/stm32f7xx_hal_dma_ex.c ****   }
 143:Drivers/STM32F7xx_HAL_Driver/Src/stm32f7xx_hal_dma_ex.c ****   return status;
 144:Drivers/STM32F7xx_HAL_Driver/Src/stm32f7xx_hal_dma_ex.c **** }
 145:Drivers/STM32F7xx_HAL_Driver/Src/stm32f7xx_hal_dma_ex.c **** 
ARM GAS  C:\Users\frees\AppData\Local\Temp\ccr3Z05i.s 			page 4


 146:Drivers/STM32F7xx_HAL_Driver/Src/stm32f7xx_hal_dma_ex.c **** /**
 147:Drivers/STM32F7xx_HAL_Driver/Src/stm32f7xx_hal_dma_ex.c ****   * @brief  Starts the multi_buffer DMA Transfer with interrupt enabled.
 148:Drivers/STM32F7xx_HAL_Driver/Src/stm32f7xx_hal_dma_ex.c ****   * @param  hdma       pointer to a DMA_HandleTypeDef structure that contains
 149:Drivers/STM32F7xx_HAL_Driver/Src/stm32f7xx_hal_dma_ex.c ****   *                     the configuration information for the specified DMA Stream.  
 150:Drivers/STM32F7xx_HAL_Driver/Src/stm32f7xx_hal_dma_ex.c ****   * @param  SrcAddress The source memory Buffer address
 151:Drivers/STM32F7xx_HAL_Driver/Src/stm32f7xx_hal_dma_ex.c ****   * @param  DstAddress The destination memory Buffer address
 152:Drivers/STM32F7xx_HAL_Driver/Src/stm32f7xx_hal_dma_ex.c ****   * @param  SecondMemAddress The second memory Buffer address in case of multi buffer Transfer  
 153:Drivers/STM32F7xx_HAL_Driver/Src/stm32f7xx_hal_dma_ex.c ****   * @param  DataLength The length of data to be transferred from source to destination
 154:Drivers/STM32F7xx_HAL_Driver/Src/stm32f7xx_hal_dma_ex.c ****   * @retval HAL status
 155:Drivers/STM32F7xx_HAL_Driver/Src/stm32f7xx_hal_dma_ex.c ****   */
 156:Drivers/STM32F7xx_HAL_Driver/Src/stm32f7xx_hal_dma_ex.c **** HAL_StatusTypeDef HAL_DMAEx_MultiBufferStart_IT(DMA_HandleTypeDef *hdma, uint32_t SrcAddress, uint3
 157:Drivers/STM32F7xx_HAL_Driver/Src/stm32f7xx_hal_dma_ex.c **** {
 158:Drivers/STM32F7xx_HAL_Driver/Src/stm32f7xx_hal_dma_ex.c ****   HAL_StatusTypeDef status = HAL_OK;
 159:Drivers/STM32F7xx_HAL_Driver/Src/stm32f7xx_hal_dma_ex.c ****   
 160:Drivers/STM32F7xx_HAL_Driver/Src/stm32f7xx_hal_dma_ex.c ****   /* Check the parameters */
 161:Drivers/STM32F7xx_HAL_Driver/Src/stm32f7xx_hal_dma_ex.c ****   assert_param(IS_DMA_BUFFER_SIZE(DataLength));
 162:Drivers/STM32F7xx_HAL_Driver/Src/stm32f7xx_hal_dma_ex.c ****   
 163:Drivers/STM32F7xx_HAL_Driver/Src/stm32f7xx_hal_dma_ex.c ****   /* Memory-to-memory transfer not supported in double buffering mode */
 164:Drivers/STM32F7xx_HAL_Driver/Src/stm32f7xx_hal_dma_ex.c ****   if (hdma->Init.Direction == DMA_MEMORY_TO_MEMORY)
 165:Drivers/STM32F7xx_HAL_Driver/Src/stm32f7xx_hal_dma_ex.c ****   {
 166:Drivers/STM32F7xx_HAL_Driver/Src/stm32f7xx_hal_dma_ex.c ****     hdma->ErrorCode = HAL_DMA_ERROR_NOT_SUPPORTED;
 167:Drivers/STM32F7xx_HAL_Driver/Src/stm32f7xx_hal_dma_ex.c ****     return HAL_ERROR;
 168:Drivers/STM32F7xx_HAL_Driver/Src/stm32f7xx_hal_dma_ex.c ****   }
 169:Drivers/STM32F7xx_HAL_Driver/Src/stm32f7xx_hal_dma_ex.c ****   
 170:Drivers/STM32F7xx_HAL_Driver/Src/stm32f7xx_hal_dma_ex.c ****   /* Process locked */
 171:Drivers/STM32F7xx_HAL_Driver/Src/stm32f7xx_hal_dma_ex.c ****   __HAL_LOCK(hdma);
 172:Drivers/STM32F7xx_HAL_Driver/Src/stm32f7xx_hal_dma_ex.c ****   
 173:Drivers/STM32F7xx_HAL_Driver/Src/stm32f7xx_hal_dma_ex.c ****   if(HAL_DMA_STATE_READY == hdma->State)
 174:Drivers/STM32F7xx_HAL_Driver/Src/stm32f7xx_hal_dma_ex.c ****   {
 175:Drivers/STM32F7xx_HAL_Driver/Src/stm32f7xx_hal_dma_ex.c ****     /* Change DMA peripheral state */
 176:Drivers/STM32F7xx_HAL_Driver/Src/stm32f7xx_hal_dma_ex.c ****     hdma->State = HAL_DMA_STATE_BUSY;
 177:Drivers/STM32F7xx_HAL_Driver/Src/stm32f7xx_hal_dma_ex.c ****     
 178:Drivers/STM32F7xx_HAL_Driver/Src/stm32f7xx_hal_dma_ex.c ****     /* Initialize the error code */
 179:Drivers/STM32F7xx_HAL_Driver/Src/stm32f7xx_hal_dma_ex.c ****     hdma->ErrorCode = HAL_DMA_ERROR_NONE;
 180:Drivers/STM32F7xx_HAL_Driver/Src/stm32f7xx_hal_dma_ex.c ****     
 181:Drivers/STM32F7xx_HAL_Driver/Src/stm32f7xx_hal_dma_ex.c ****     /* Enable the Double buffer mode */
 182:Drivers/STM32F7xx_HAL_Driver/Src/stm32f7xx_hal_dma_ex.c ****     hdma->Instance->CR |= (uint32_t)DMA_SxCR_DBM;
 183:Drivers/STM32F7xx_HAL_Driver/Src/stm32f7xx_hal_dma_ex.c ****     
 184:Drivers/STM32F7xx_HAL_Driver/Src/stm32f7xx_hal_dma_ex.c ****     /* Configure DMA Stream destination address */
 185:Drivers/STM32F7xx_HAL_Driver/Src/stm32f7xx_hal_dma_ex.c ****     hdma->Instance->M1AR = SecondMemAddress;
 186:Drivers/STM32F7xx_HAL_Driver/Src/stm32f7xx_hal_dma_ex.c ****     
 187:Drivers/STM32F7xx_HAL_Driver/Src/stm32f7xx_hal_dma_ex.c ****     /* Configure the source, destination address and the data length */
 188:Drivers/STM32F7xx_HAL_Driver/Src/stm32f7xx_hal_dma_ex.c ****     DMA_MultiBufferSetConfig(hdma, SrcAddress, DstAddress, DataLength); 
 189:Drivers/STM32F7xx_HAL_Driver/Src/stm32f7xx_hal_dma_ex.c ****     
 190:Drivers/STM32F7xx_HAL_Driver/Src/stm32f7xx_hal_dma_ex.c ****     /* Clear all flags */
 191:Drivers/STM32F7xx_HAL_Driver/Src/stm32f7xx_hal_dma_ex.c ****     __HAL_DMA_CLEAR_FLAG (hdma, __HAL_DMA_GET_TC_FLAG_INDEX(hdma));
 192:Drivers/STM32F7xx_HAL_Driver/Src/stm32f7xx_hal_dma_ex.c ****     __HAL_DMA_CLEAR_FLAG (hdma, __HAL_DMA_GET_HT_FLAG_INDEX(hdma));
 193:Drivers/STM32F7xx_HAL_Driver/Src/stm32f7xx_hal_dma_ex.c ****     __HAL_DMA_CLEAR_FLAG (hdma, __HAL_DMA_GET_TE_FLAG_INDEX(hdma));
 194:Drivers/STM32F7xx_HAL_Driver/Src/stm32f7xx_hal_dma_ex.c ****     __HAL_DMA_CLEAR_FLAG (hdma, __HAL_DMA_GET_DME_FLAG_INDEX(hdma));
 195:Drivers/STM32F7xx_HAL_Driver/Src/stm32f7xx_hal_dma_ex.c ****     __HAL_DMA_CLEAR_FLAG (hdma, __HAL_DMA_GET_FE_FLAG_INDEX(hdma));
 196:Drivers/STM32F7xx_HAL_Driver/Src/stm32f7xx_hal_dma_ex.c ****     
 197:Drivers/STM32F7xx_HAL_Driver/Src/stm32f7xx_hal_dma_ex.c ****     /* Enable Common interrupts*/
 198:Drivers/STM32F7xx_HAL_Driver/Src/stm32f7xx_hal_dma_ex.c ****     hdma->Instance->CR  |= DMA_IT_TC | DMA_IT_TE | DMA_IT_DME;
 199:Drivers/STM32F7xx_HAL_Driver/Src/stm32f7xx_hal_dma_ex.c ****     hdma->Instance->FCR |= DMA_IT_FE;
 200:Drivers/STM32F7xx_HAL_Driver/Src/stm32f7xx_hal_dma_ex.c ****     
 201:Drivers/STM32F7xx_HAL_Driver/Src/stm32f7xx_hal_dma_ex.c ****     if((hdma->XferHalfCpltCallback != NULL) || (hdma->XferM1HalfCpltCallback != NULL))
 202:Drivers/STM32F7xx_HAL_Driver/Src/stm32f7xx_hal_dma_ex.c ****     {
ARM GAS  C:\Users\frees\AppData\Local\Temp\ccr3Z05i.s 			page 5


 203:Drivers/STM32F7xx_HAL_Driver/Src/stm32f7xx_hal_dma_ex.c ****       hdma->Instance->CR  |= DMA_IT_HT;
 204:Drivers/STM32F7xx_HAL_Driver/Src/stm32f7xx_hal_dma_ex.c ****     }
 205:Drivers/STM32F7xx_HAL_Driver/Src/stm32f7xx_hal_dma_ex.c ****     
 206:Drivers/STM32F7xx_HAL_Driver/Src/stm32f7xx_hal_dma_ex.c ****     /* Enable the peripheral */
 207:Drivers/STM32F7xx_HAL_Driver/Src/stm32f7xx_hal_dma_ex.c ****     __HAL_DMA_ENABLE(hdma); 
 208:Drivers/STM32F7xx_HAL_Driver/Src/stm32f7xx_hal_dma_ex.c ****   }
 209:Drivers/STM32F7xx_HAL_Driver/Src/stm32f7xx_hal_dma_ex.c ****   else
 210:Drivers/STM32F7xx_HAL_Driver/Src/stm32f7xx_hal_dma_ex.c ****   {     
 211:Drivers/STM32F7xx_HAL_Driver/Src/stm32f7xx_hal_dma_ex.c ****     /* Process unlocked */
 212:Drivers/STM32F7xx_HAL_Driver/Src/stm32f7xx_hal_dma_ex.c ****     __HAL_UNLOCK(hdma);	  
 213:Drivers/STM32F7xx_HAL_Driver/Src/stm32f7xx_hal_dma_ex.c ****     
 214:Drivers/STM32F7xx_HAL_Driver/Src/stm32f7xx_hal_dma_ex.c ****     /* Return error status */
 215:Drivers/STM32F7xx_HAL_Driver/Src/stm32f7xx_hal_dma_ex.c ****     status = HAL_BUSY;
 216:Drivers/STM32F7xx_HAL_Driver/Src/stm32f7xx_hal_dma_ex.c ****   }  
 217:Drivers/STM32F7xx_HAL_Driver/Src/stm32f7xx_hal_dma_ex.c ****   return status; 
 218:Drivers/STM32F7xx_HAL_Driver/Src/stm32f7xx_hal_dma_ex.c **** }
 219:Drivers/STM32F7xx_HAL_Driver/Src/stm32f7xx_hal_dma_ex.c **** 
 220:Drivers/STM32F7xx_HAL_Driver/Src/stm32f7xx_hal_dma_ex.c **** /**
 221:Drivers/STM32F7xx_HAL_Driver/Src/stm32f7xx_hal_dma_ex.c ****   * @brief  Change the memory0 or memory1 address on the fly.
 222:Drivers/STM32F7xx_HAL_Driver/Src/stm32f7xx_hal_dma_ex.c ****   * @param  hdma       pointer to a DMA_HandleTypeDef structure that contains
 223:Drivers/STM32F7xx_HAL_Driver/Src/stm32f7xx_hal_dma_ex.c ****   *                     the configuration information for the specified DMA Stream.  
 224:Drivers/STM32F7xx_HAL_Driver/Src/stm32f7xx_hal_dma_ex.c ****   * @param  Address    The new address
 225:Drivers/STM32F7xx_HAL_Driver/Src/stm32f7xx_hal_dma_ex.c ****   * @param  memory     the memory to be changed, This parameter can be one of 
 226:Drivers/STM32F7xx_HAL_Driver/Src/stm32f7xx_hal_dma_ex.c ****   *                     the following values:
 227:Drivers/STM32F7xx_HAL_Driver/Src/stm32f7xx_hal_dma_ex.c ****   *                      MEMORY0 /
 228:Drivers/STM32F7xx_HAL_Driver/Src/stm32f7xx_hal_dma_ex.c ****   *                      MEMORY1
 229:Drivers/STM32F7xx_HAL_Driver/Src/stm32f7xx_hal_dma_ex.c ****   * @note   The MEMORY0 address can be changed only when the current transfer use
 230:Drivers/STM32F7xx_HAL_Driver/Src/stm32f7xx_hal_dma_ex.c ****   *         MEMORY1 and the MEMORY1 address can be changed only when the current 
 231:Drivers/STM32F7xx_HAL_Driver/Src/stm32f7xx_hal_dma_ex.c ****   *         transfer use MEMORY0.
 232:Drivers/STM32F7xx_HAL_Driver/Src/stm32f7xx_hal_dma_ex.c ****   * @retval HAL status
 233:Drivers/STM32F7xx_HAL_Driver/Src/stm32f7xx_hal_dma_ex.c ****   */
 234:Drivers/STM32F7xx_HAL_Driver/Src/stm32f7xx_hal_dma_ex.c **** HAL_StatusTypeDef HAL_DMAEx_ChangeMemory(DMA_HandleTypeDef *hdma, uint32_t Address, HAL_DMA_MemoryT
 235:Drivers/STM32F7xx_HAL_Driver/Src/stm32f7xx_hal_dma_ex.c **** {
 236:Drivers/STM32F7xx_HAL_Driver/Src/stm32f7xx_hal_dma_ex.c ****   if(memory == MEMORY0)
 237:Drivers/STM32F7xx_HAL_Driver/Src/stm32f7xx_hal_dma_ex.c ****   {
 238:Drivers/STM32F7xx_HAL_Driver/Src/stm32f7xx_hal_dma_ex.c ****     /* change the memory0 address */
 239:Drivers/STM32F7xx_HAL_Driver/Src/stm32f7xx_hal_dma_ex.c ****     hdma->Instance->M0AR = Address;
 240:Drivers/STM32F7xx_HAL_Driver/Src/stm32f7xx_hal_dma_ex.c ****   }
 241:Drivers/STM32F7xx_HAL_Driver/Src/stm32f7xx_hal_dma_ex.c ****   else
 242:Drivers/STM32F7xx_HAL_Driver/Src/stm32f7xx_hal_dma_ex.c ****   {
 243:Drivers/STM32F7xx_HAL_Driver/Src/stm32f7xx_hal_dma_ex.c ****     /* change the memory1 address */
 244:Drivers/STM32F7xx_HAL_Driver/Src/stm32f7xx_hal_dma_ex.c ****     hdma->Instance->M1AR = Address;
 245:Drivers/STM32F7xx_HAL_Driver/Src/stm32f7xx_hal_dma_ex.c ****   }
 246:Drivers/STM32F7xx_HAL_Driver/Src/stm32f7xx_hal_dma_ex.c ****   
 247:Drivers/STM32F7xx_HAL_Driver/Src/stm32f7xx_hal_dma_ex.c ****   return HAL_OK;
 248:Drivers/STM32F7xx_HAL_Driver/Src/stm32f7xx_hal_dma_ex.c **** }
 249:Drivers/STM32F7xx_HAL_Driver/Src/stm32f7xx_hal_dma_ex.c **** 
 250:Drivers/STM32F7xx_HAL_Driver/Src/stm32f7xx_hal_dma_ex.c **** /**
 251:Drivers/STM32F7xx_HAL_Driver/Src/stm32f7xx_hal_dma_ex.c ****   * @}
 252:Drivers/STM32F7xx_HAL_Driver/Src/stm32f7xx_hal_dma_ex.c ****   */
 253:Drivers/STM32F7xx_HAL_Driver/Src/stm32f7xx_hal_dma_ex.c **** 
 254:Drivers/STM32F7xx_HAL_Driver/Src/stm32f7xx_hal_dma_ex.c **** /**
 255:Drivers/STM32F7xx_HAL_Driver/Src/stm32f7xx_hal_dma_ex.c ****   * @}
 256:Drivers/STM32F7xx_HAL_Driver/Src/stm32f7xx_hal_dma_ex.c ****   */
 257:Drivers/STM32F7xx_HAL_Driver/Src/stm32f7xx_hal_dma_ex.c **** 
 258:Drivers/STM32F7xx_HAL_Driver/Src/stm32f7xx_hal_dma_ex.c **** /** @addtogroup DMAEx_Private_Functions
 259:Drivers/STM32F7xx_HAL_Driver/Src/stm32f7xx_hal_dma_ex.c ****   * @{
ARM GAS  C:\Users\frees\AppData\Local\Temp\ccr3Z05i.s 			page 6


 260:Drivers/STM32F7xx_HAL_Driver/Src/stm32f7xx_hal_dma_ex.c ****   */
 261:Drivers/STM32F7xx_HAL_Driver/Src/stm32f7xx_hal_dma_ex.c **** 
 262:Drivers/STM32F7xx_HAL_Driver/Src/stm32f7xx_hal_dma_ex.c **** /**
 263:Drivers/STM32F7xx_HAL_Driver/Src/stm32f7xx_hal_dma_ex.c ****   * @brief  Set the DMA Transfer parameter.
 264:Drivers/STM32F7xx_HAL_Driver/Src/stm32f7xx_hal_dma_ex.c ****   * @param  hdma       pointer to a DMA_HandleTypeDef structure that contains
 265:Drivers/STM32F7xx_HAL_Driver/Src/stm32f7xx_hal_dma_ex.c ****   *                     the configuration information for the specified DMA Stream.  
 266:Drivers/STM32F7xx_HAL_Driver/Src/stm32f7xx_hal_dma_ex.c ****   * @param  SrcAddress The source memory Buffer address
 267:Drivers/STM32F7xx_HAL_Driver/Src/stm32f7xx_hal_dma_ex.c ****   * @param  DstAddress The destination memory Buffer address
 268:Drivers/STM32F7xx_HAL_Driver/Src/stm32f7xx_hal_dma_ex.c ****   * @param  DataLength The length of data to be transferred from source to destination
 269:Drivers/STM32F7xx_HAL_Driver/Src/stm32f7xx_hal_dma_ex.c ****   * @retval HAL status
 270:Drivers/STM32F7xx_HAL_Driver/Src/stm32f7xx_hal_dma_ex.c ****   */
 271:Drivers/STM32F7xx_HAL_Driver/Src/stm32f7xx_hal_dma_ex.c **** static void DMA_MultiBufferSetConfig(DMA_HandleTypeDef *hdma, uint32_t SrcAddress, uint32_t DstAddr
 272:Drivers/STM32F7xx_HAL_Driver/Src/stm32f7xx_hal_dma_ex.c **** {
  28              		.loc 1 272 1 view -0
  29              		.cfi_startproc
  30              		@ args = 0, pretend = 0, frame = 0
  31              		@ frame_needed = 0, uses_anonymous_args = 0
  32              		@ link register save eliminated.
  33              		.loc 1 272 1 is_stmt 0 view .LVU1
  34 0000 10B4     		push	{r4}
  35              	.LCFI0:
  36              		.cfi_def_cfa_offset 4
  37              		.cfi_offset 4, -4
 273:Drivers/STM32F7xx_HAL_Driver/Src/stm32f7xx_hal_dma_ex.c ****   /* Configure DMA Stream data length */
 274:Drivers/STM32F7xx_HAL_Driver/Src/stm32f7xx_hal_dma_ex.c ****   hdma->Instance->NDTR = DataLength;
  38              		.loc 1 274 3 is_stmt 1 view .LVU2
  39              		.loc 1 274 24 is_stmt 0 view .LVU3
  40 0002 0468     		ldr	r4, [r0]
  41 0004 6360     		str	r3, [r4, #4]
 275:Drivers/STM32F7xx_HAL_Driver/Src/stm32f7xx_hal_dma_ex.c ****   
 276:Drivers/STM32F7xx_HAL_Driver/Src/stm32f7xx_hal_dma_ex.c ****   /* Peripheral to Memory */
 277:Drivers/STM32F7xx_HAL_Driver/Src/stm32f7xx_hal_dma_ex.c ****   if((hdma->Init.Direction) == DMA_MEMORY_TO_PERIPH)
  42              		.loc 1 277 3 is_stmt 1 view .LVU4
  43              		.loc 1 277 17 is_stmt 0 view .LVU5
  44 0006 8368     		ldr	r3, [r0, #8]
  45              	.LVL1:
  46              		.loc 1 277 5 view .LVU6
  47 0008 402B     		cmp	r3, #64
  48 000a 06D0     		beq	.L5
 278:Drivers/STM32F7xx_HAL_Driver/Src/stm32f7xx_hal_dma_ex.c ****   {
 279:Drivers/STM32F7xx_HAL_Driver/Src/stm32f7xx_hal_dma_ex.c ****     /* Configure DMA Stream destination address */
 280:Drivers/STM32F7xx_HAL_Driver/Src/stm32f7xx_hal_dma_ex.c ****     hdma->Instance->PAR = DstAddress;
 281:Drivers/STM32F7xx_HAL_Driver/Src/stm32f7xx_hal_dma_ex.c ****     
 282:Drivers/STM32F7xx_HAL_Driver/Src/stm32f7xx_hal_dma_ex.c ****     /* Configure DMA Stream source address */
 283:Drivers/STM32F7xx_HAL_Driver/Src/stm32f7xx_hal_dma_ex.c ****     hdma->Instance->M0AR = SrcAddress;
 284:Drivers/STM32F7xx_HAL_Driver/Src/stm32f7xx_hal_dma_ex.c ****   }
 285:Drivers/STM32F7xx_HAL_Driver/Src/stm32f7xx_hal_dma_ex.c ****   /* Memory to Peripheral */
 286:Drivers/STM32F7xx_HAL_Driver/Src/stm32f7xx_hal_dma_ex.c ****   else
 287:Drivers/STM32F7xx_HAL_Driver/Src/stm32f7xx_hal_dma_ex.c ****   {
 288:Drivers/STM32F7xx_HAL_Driver/Src/stm32f7xx_hal_dma_ex.c ****     /* Configure DMA Stream source address */
 289:Drivers/STM32F7xx_HAL_Driver/Src/stm32f7xx_hal_dma_ex.c ****     hdma->Instance->PAR = SrcAddress;
  49              		.loc 1 289 5 is_stmt 1 view .LVU7
  50              		.loc 1 289 9 is_stmt 0 view .LVU8
  51 000c 0368     		ldr	r3, [r0]
  52              		.loc 1 289 25 view .LVU9
  53 000e 9960     		str	r1, [r3, #8]
  54              	.LVL2:
ARM GAS  C:\Users\frees\AppData\Local\Temp\ccr3Z05i.s 			page 7


 290:Drivers/STM32F7xx_HAL_Driver/Src/stm32f7xx_hal_dma_ex.c ****     
 291:Drivers/STM32F7xx_HAL_Driver/Src/stm32f7xx_hal_dma_ex.c ****     /* Configure DMA Stream destination address */
 292:Drivers/STM32F7xx_HAL_Driver/Src/stm32f7xx_hal_dma_ex.c ****     hdma->Instance->M0AR = DstAddress;
  55              		.loc 1 292 5 is_stmt 1 view .LVU10
  56              		.loc 1 292 9 is_stmt 0 view .LVU11
  57 0010 0368     		ldr	r3, [r0]
  58              		.loc 1 292 26 view .LVU12
  59 0012 DA60     		str	r2, [r3, #12]
  60              	.L1:
 293:Drivers/STM32F7xx_HAL_Driver/Src/stm32f7xx_hal_dma_ex.c ****   }
 294:Drivers/STM32F7xx_HAL_Driver/Src/stm32f7xx_hal_dma_ex.c **** }
  61              		.loc 1 294 1 view .LVU13
  62 0014 5DF8044B 		ldr	r4, [sp], #4
  63              	.LCFI1:
  64              		.cfi_remember_state
  65              		.cfi_restore 4
  66              		.cfi_def_cfa_offset 0
  67 0018 7047     		bx	lr
  68              	.LVL3:
  69              	.L5:
  70              	.LCFI2:
  71              		.cfi_restore_state
 280:Drivers/STM32F7xx_HAL_Driver/Src/stm32f7xx_hal_dma_ex.c ****     
  72              		.loc 1 280 5 is_stmt 1 view .LVU14
 280:Drivers/STM32F7xx_HAL_Driver/Src/stm32f7xx_hal_dma_ex.c ****     
  73              		.loc 1 280 9 is_stmt 0 view .LVU15
  74 001a 0368     		ldr	r3, [r0]
 280:Drivers/STM32F7xx_HAL_Driver/Src/stm32f7xx_hal_dma_ex.c ****     
  75              		.loc 1 280 25 view .LVU16
  76 001c 9A60     		str	r2, [r3, #8]
  77              	.LVL4:
 283:Drivers/STM32F7xx_HAL_Driver/Src/stm32f7xx_hal_dma_ex.c ****   }
  78              		.loc 1 283 5 is_stmt 1 view .LVU17
 283:Drivers/STM32F7xx_HAL_Driver/Src/stm32f7xx_hal_dma_ex.c ****   }
  79              		.loc 1 283 9 is_stmt 0 view .LVU18
  80 001e 0368     		ldr	r3, [r0]
 283:Drivers/STM32F7xx_HAL_Driver/Src/stm32f7xx_hal_dma_ex.c ****   }
  81              		.loc 1 283 26 view .LVU19
  82 0020 D960     		str	r1, [r3, #12]
  83 0022 F7E7     		b	.L1
  84              		.cfi_endproc
  85              	.LFE144:
  87              		.section	.text.HAL_DMAEx_MultiBufferStart,"ax",%progbits
  88              		.align	1
  89              		.global	HAL_DMAEx_MultiBufferStart
  90              		.syntax unified
  91              		.thumb
  92              		.thumb_func
  94              	HAL_DMAEx_MultiBufferStart:
  95              	.LVL5:
  96              	.LFB141:
 103:Drivers/STM32F7xx_HAL_Driver/Src/stm32f7xx_hal_dma_ex.c ****   HAL_StatusTypeDef status = HAL_OK;
  97              		.loc 1 103 1 is_stmt 1 view -0
  98              		.cfi_startproc
  99              		@ args = 4, pretend = 0, frame = 0
 100              		@ frame_needed = 0, uses_anonymous_args = 0
 103:Drivers/STM32F7xx_HAL_Driver/Src/stm32f7xx_hal_dma_ex.c ****   HAL_StatusTypeDef status = HAL_OK;
ARM GAS  C:\Users\frees\AppData\Local\Temp\ccr3Z05i.s 			page 8


 101              		.loc 1 103 1 is_stmt 0 view .LVU21
 102 0000 38B5     		push	{r3, r4, r5, lr}
 103              	.LCFI3:
 104              		.cfi_def_cfa_offset 16
 105              		.cfi_offset 3, -16
 106              		.cfi_offset 4, -12
 107              		.cfi_offset 5, -8
 108              		.cfi_offset 14, -4
 109 0002 0446     		mov	r4, r0
 104:Drivers/STM32F7xx_HAL_Driver/Src/stm32f7xx_hal_dma_ex.c ****   
 110              		.loc 1 104 3 is_stmt 1 view .LVU22
 111              	.LVL6:
 107:Drivers/STM32F7xx_HAL_Driver/Src/stm32f7xx_hal_dma_ex.c ****   
 112              		.loc 1 107 3 view .LVU23
 110:Drivers/STM32F7xx_HAL_Driver/Src/stm32f7xx_hal_dma_ex.c ****   {
 113              		.loc 1 110 3 view .LVU24
 110:Drivers/STM32F7xx_HAL_Driver/Src/stm32f7xx_hal_dma_ex.c ****   {
 114              		.loc 1 110 17 is_stmt 0 view .LVU25
 115 0004 8068     		ldr	r0, [r0, #8]
 116              	.LVL7:
 110:Drivers/STM32F7xx_HAL_Driver/Src/stm32f7xx_hal_dma_ex.c ****   {
 117              		.loc 1 110 6 view .LVU26
 118 0006 8028     		cmp	r0, #128
 119 0008 0DD0     		beq	.L12
 118:Drivers/STM32F7xx_HAL_Driver/Src/stm32f7xx_hal_dma_ex.c ****     
 120              		.loc 1 118 5 is_stmt 1 view .LVU27
 118:Drivers/STM32F7xx_HAL_Driver/Src/stm32f7xx_hal_dma_ex.c ****     
 121              		.loc 1 118 5 view .LVU28
 122 000a 94F83400 		ldrb	r0, [r4, #52]	@ zero_extendqisi2
 123 000e 0128     		cmp	r0, #1
 124 0010 23D0     		beq	.L9
 118:Drivers/STM32F7xx_HAL_Driver/Src/stm32f7xx_hal_dma_ex.c ****     
 125              		.loc 1 118 5 discriminator 2 view .LVU29
 126 0012 0120     		movs	r0, #1
 127 0014 84F83400 		strb	r0, [r4, #52]
 118:Drivers/STM32F7xx_HAL_Driver/Src/stm32f7xx_hal_dma_ex.c ****     
 128              		.loc 1 118 5 discriminator 2 view .LVU30
 120:Drivers/STM32F7xx_HAL_Driver/Src/stm32f7xx_hal_dma_ex.c ****     {
 129              		.loc 1 120 5 view .LVU31
 120:Drivers/STM32F7xx_HAL_Driver/Src/stm32f7xx_hal_dma_ex.c ****     {
 130              		.loc 1 120 35 is_stmt 0 view .LVU32
 131 0018 94F83500 		ldrb	r0, [r4, #53]	@ zero_extendqisi2
 132 001c C0B2     		uxtb	r0, r0
 120:Drivers/STM32F7xx_HAL_Driver/Src/stm32f7xx_hal_dma_ex.c ****     {
 133              		.loc 1 120 7 view .LVU33
 134 001e 0128     		cmp	r0, #1
 135 0020 06D0     		beq	.L13
 140:Drivers/STM32F7xx_HAL_Driver/Src/stm32f7xx_hal_dma_ex.c ****     }
 136              		.loc 1 140 14 view .LVU34
 137 0022 0220     		movs	r0, #2
 138              	.LVL8:
 139              	.L8:
 144:Drivers/STM32F7xx_HAL_Driver/Src/stm32f7xx_hal_dma_ex.c **** 
 140              		.loc 1 144 1 view .LVU35
 141 0024 38BD     		pop	{r3, r4, r5, pc}
 142              	.LVL9:
 143              	.L12:
ARM GAS  C:\Users\frees\AppData\Local\Temp\ccr3Z05i.s 			page 9


 112:Drivers/STM32F7xx_HAL_Driver/Src/stm32f7xx_hal_dma_ex.c ****     status = HAL_ERROR;
 144              		.loc 1 112 5 is_stmt 1 view .LVU36
 112:Drivers/STM32F7xx_HAL_Driver/Src/stm32f7xx_hal_dma_ex.c ****     status = HAL_ERROR;
 145              		.loc 1 112 21 is_stmt 0 view .LVU37
 146 0026 4FF48073 		mov	r3, #256
 147              	.LVL10:
 112:Drivers/STM32F7xx_HAL_Driver/Src/stm32f7xx_hal_dma_ex.c ****     status = HAL_ERROR;
 148              		.loc 1 112 21 view .LVU38
 149 002a 6365     		str	r3, [r4, #84]
 113:Drivers/STM32F7xx_HAL_Driver/Src/stm32f7xx_hal_dma_ex.c ****   }
 150              		.loc 1 113 5 is_stmt 1 view .LVU39
 151              	.LVL11:
 113:Drivers/STM32F7xx_HAL_Driver/Src/stm32f7xx_hal_dma_ex.c ****   }
 152              		.loc 1 113 12 is_stmt 0 view .LVU40
 153 002c 0120     		movs	r0, #1
 154 002e F9E7     		b	.L8
 155              	.LVL12:
 156              	.L13:
 123:Drivers/STM32F7xx_HAL_Driver/Src/stm32f7xx_hal_dma_ex.c ****       
 157              		.loc 1 123 7 is_stmt 1 view .LVU41
 123:Drivers/STM32F7xx_HAL_Driver/Src/stm32f7xx_hal_dma_ex.c ****       
 158              		.loc 1 123 19 is_stmt 0 view .LVU42
 159 0030 0220     		movs	r0, #2
 160 0032 84F83500 		strb	r0, [r4, #53]
 126:Drivers/STM32F7xx_HAL_Driver/Src/stm32f7xx_hal_dma_ex.c ****       
 161              		.loc 1 126 7 is_stmt 1 view .LVU43
 126:Drivers/STM32F7xx_HAL_Driver/Src/stm32f7xx_hal_dma_ex.c ****       
 162              		.loc 1 126 11 is_stmt 0 view .LVU44
 163 0036 2568     		ldr	r5, [r4]
 126:Drivers/STM32F7xx_HAL_Driver/Src/stm32f7xx_hal_dma_ex.c ****       
 164              		.loc 1 126 21 view .LVU45
 165 0038 2868     		ldr	r0, [r5]
 126:Drivers/STM32F7xx_HAL_Driver/Src/stm32f7xx_hal_dma_ex.c ****       
 166              		.loc 1 126 26 view .LVU46
 167 003a 40F48020 		orr	r0, r0, #262144
 168 003e 2860     		str	r0, [r5]
 129:Drivers/STM32F7xx_HAL_Driver/Src/stm32f7xx_hal_dma_ex.c ****       
 169              		.loc 1 129 7 is_stmt 1 view .LVU47
 129:Drivers/STM32F7xx_HAL_Driver/Src/stm32f7xx_hal_dma_ex.c ****       
 170              		.loc 1 129 11 is_stmt 0 view .LVU48
 171 0040 2068     		ldr	r0, [r4]
 129:Drivers/STM32F7xx_HAL_Driver/Src/stm32f7xx_hal_dma_ex.c ****       
 172              		.loc 1 129 28 view .LVU49
 173 0042 0361     		str	r3, [r0, #16]
 132:Drivers/STM32F7xx_HAL_Driver/Src/stm32f7xx_hal_dma_ex.c ****       
 174              		.loc 1 132 7 is_stmt 1 view .LVU50
 175 0044 049B     		ldr	r3, [sp, #16]
 176              	.LVL13:
 132:Drivers/STM32F7xx_HAL_Driver/Src/stm32f7xx_hal_dma_ex.c ****       
 177              		.loc 1 132 7 is_stmt 0 view .LVU51
 178 0046 2046     		mov	r0, r4
 179              	.LVL14:
 132:Drivers/STM32F7xx_HAL_Driver/Src/stm32f7xx_hal_dma_ex.c ****       
 180              		.loc 1 132 7 view .LVU52
 181 0048 FFF7FEFF 		bl	DMA_MultiBufferSetConfig
 182              	.LVL15:
 135:Drivers/STM32F7xx_HAL_Driver/Src/stm32f7xx_hal_dma_ex.c ****     }
ARM GAS  C:\Users\frees\AppData\Local\Temp\ccr3Z05i.s 			page 10


 183              		.loc 1 135 7 is_stmt 1 view .LVU53
 184 004c 2268     		ldr	r2, [r4]
 185 004e 1368     		ldr	r3, [r2]
 186 0050 43F00103 		orr	r3, r3, #1
 187 0054 1360     		str	r3, [r2]
 104:Drivers/STM32F7xx_HAL_Driver/Src/stm32f7xx_hal_dma_ex.c ****   
 188              		.loc 1 104 21 is_stmt 0 view .LVU54
 189 0056 0020     		movs	r0, #0
 190 0058 E4E7     		b	.L8
 191              	.LVL16:
 192              	.L9:
 118:Drivers/STM32F7xx_HAL_Driver/Src/stm32f7xx_hal_dma_ex.c ****     
 193              		.loc 1 118 5 discriminator 1 view .LVU55
 194 005a 0220     		movs	r0, #2
 195 005c E2E7     		b	.L8
 196              		.cfi_endproc
 197              	.LFE141:
 199              		.section	.text.HAL_DMAEx_MultiBufferStart_IT,"ax",%progbits
 200              		.align	1
 201              		.global	HAL_DMAEx_MultiBufferStart_IT
 202              		.syntax unified
 203              		.thumb
 204              		.thumb_func
 206              	HAL_DMAEx_MultiBufferStart_IT:
 207              	.LVL17:
 208              	.LFB142:
 157:Drivers/STM32F7xx_HAL_Driver/Src/stm32f7xx_hal_dma_ex.c ****   HAL_StatusTypeDef status = HAL_OK;
 209              		.loc 1 157 1 is_stmt 1 view -0
 210              		.cfi_startproc
 211              		@ args = 4, pretend = 0, frame = 0
 212              		@ frame_needed = 0, uses_anonymous_args = 0
 157:Drivers/STM32F7xx_HAL_Driver/Src/stm32f7xx_hal_dma_ex.c ****   HAL_StatusTypeDef status = HAL_OK;
 213              		.loc 1 157 1 is_stmt 0 view .LVU57
 214 0000 38B5     		push	{r3, r4, r5, lr}
 215              	.LCFI4:
 216              		.cfi_def_cfa_offset 16
 217              		.cfi_offset 3, -16
 218              		.cfi_offset 4, -12
 219              		.cfi_offset 5, -8
 220              		.cfi_offset 14, -4
 221 0002 0446     		mov	r4, r0
 158:Drivers/STM32F7xx_HAL_Driver/Src/stm32f7xx_hal_dma_ex.c ****   
 222              		.loc 1 158 3 is_stmt 1 view .LVU58
 223              	.LVL18:
 161:Drivers/STM32F7xx_HAL_Driver/Src/stm32f7xx_hal_dma_ex.c ****   
 224              		.loc 1 161 3 view .LVU59
 164:Drivers/STM32F7xx_HAL_Driver/Src/stm32f7xx_hal_dma_ex.c ****   {
 225              		.loc 1 164 3 view .LVU60
 164:Drivers/STM32F7xx_HAL_Driver/Src/stm32f7xx_hal_dma_ex.c ****   {
 226              		.loc 1 164 17 is_stmt 0 view .LVU61
 227 0004 8068     		ldr	r0, [r0, #8]
 228              	.LVL19:
 164:Drivers/STM32F7xx_HAL_Driver/Src/stm32f7xx_hal_dma_ex.c ****   {
 229              		.loc 1 164 6 view .LVU62
 230 0006 8028     		cmp	r0, #128
 231 0008 11D0     		beq	.L302
 171:Drivers/STM32F7xx_HAL_Driver/Src/stm32f7xx_hal_dma_ex.c ****   
ARM GAS  C:\Users\frees\AppData\Local\Temp\ccr3Z05i.s 			page 11


 232              		.loc 1 171 3 is_stmt 1 view .LVU63
 171:Drivers/STM32F7xx_HAL_Driver/Src/stm32f7xx_hal_dma_ex.c ****   
 233              		.loc 1 171 3 view .LVU64
 234 000a 94F83400 		ldrb	r0, [r4, #52]	@ zero_extendqisi2
 235 000e 0128     		cmp	r0, #1
 236 0010 00F06587 		beq	.L60
 171:Drivers/STM32F7xx_HAL_Driver/Src/stm32f7xx_hal_dma_ex.c ****   
 237              		.loc 1 171 3 discriminator 2 view .LVU65
 238 0014 0120     		movs	r0, #1
 239 0016 84F83400 		strb	r0, [r4, #52]
 171:Drivers/STM32F7xx_HAL_Driver/Src/stm32f7xx_hal_dma_ex.c ****   
 240              		.loc 1 171 3 discriminator 2 view .LVU66
 173:Drivers/STM32F7xx_HAL_Driver/Src/stm32f7xx_hal_dma_ex.c ****   {
 241              		.loc 1 173 3 view .LVU67
 173:Drivers/STM32F7xx_HAL_Driver/Src/stm32f7xx_hal_dma_ex.c ****   {
 242              		.loc 1 173 33 is_stmt 0 view .LVU68
 243 001a 94F83500 		ldrb	r0, [r4, #53]	@ zero_extendqisi2
 244 001e C0B2     		uxtb	r0, r0
 173:Drivers/STM32F7xx_HAL_Driver/Src/stm32f7xx_hal_dma_ex.c ****   {
 245              		.loc 1 173 5 view .LVU69
 246 0020 0128     		cmp	r0, #1
 247 0022 09D0     		beq	.L303
 212:Drivers/STM32F7xx_HAL_Driver/Src/stm32f7xx_hal_dma_ex.c ****     
 248              		.loc 1 212 5 is_stmt 1 view .LVU70
 212:Drivers/STM32F7xx_HAL_Driver/Src/stm32f7xx_hal_dma_ex.c ****     
 249              		.loc 1 212 5 view .LVU71
 250 0024 0023     		movs	r3, #0
 251              	.LVL20:
 212:Drivers/STM32F7xx_HAL_Driver/Src/stm32f7xx_hal_dma_ex.c ****     
 252              		.loc 1 212 5 is_stmt 0 view .LVU72
 253 0026 84F83430 		strb	r3, [r4, #52]
 212:Drivers/STM32F7xx_HAL_Driver/Src/stm32f7xx_hal_dma_ex.c ****     
 254              		.loc 1 212 5 is_stmt 1 view .LVU73
 215:Drivers/STM32F7xx_HAL_Driver/Src/stm32f7xx_hal_dma_ex.c ****   }  
 255              		.loc 1 215 5 view .LVU74
 256              	.LVL21:
 215:Drivers/STM32F7xx_HAL_Driver/Src/stm32f7xx_hal_dma_ex.c ****   }  
 257              		.loc 1 215 12 is_stmt 0 view .LVU75
 258 002a 0220     		movs	r0, #2
 259              	.LVL22:
 260              	.L16:
 218:Drivers/STM32F7xx_HAL_Driver/Src/stm32f7xx_hal_dma_ex.c **** 
 261              		.loc 1 218 1 view .LVU76
 262 002c 38BD     		pop	{r3, r4, r5, pc}
 263              	.LVL23:
 264              	.L302:
 166:Drivers/STM32F7xx_HAL_Driver/Src/stm32f7xx_hal_dma_ex.c ****     return HAL_ERROR;
 265              		.loc 1 166 5 is_stmt 1 view .LVU77
 166:Drivers/STM32F7xx_HAL_Driver/Src/stm32f7xx_hal_dma_ex.c ****     return HAL_ERROR;
 266              		.loc 1 166 21 is_stmt 0 view .LVU78
 267 002e 4FF48073 		mov	r3, #256
 268              	.LVL24:
 166:Drivers/STM32F7xx_HAL_Driver/Src/stm32f7xx_hal_dma_ex.c ****     return HAL_ERROR;
 269              		.loc 1 166 21 view .LVU79
 270 0032 6365     		str	r3, [r4, #84]
 167:Drivers/STM32F7xx_HAL_Driver/Src/stm32f7xx_hal_dma_ex.c ****   }
 271              		.loc 1 167 5 is_stmt 1 view .LVU80
ARM GAS  C:\Users\frees\AppData\Local\Temp\ccr3Z05i.s 			page 12


 167:Drivers/STM32F7xx_HAL_Driver/Src/stm32f7xx_hal_dma_ex.c ****   }
 272              		.loc 1 167 12 is_stmt 0 view .LVU81
 273 0034 0120     		movs	r0, #1
 274 0036 F9E7     		b	.L16
 275              	.LVL25:
 276              	.L303:
 176:Drivers/STM32F7xx_HAL_Driver/Src/stm32f7xx_hal_dma_ex.c ****     
 277              		.loc 1 176 5 is_stmt 1 view .LVU82
 176:Drivers/STM32F7xx_HAL_Driver/Src/stm32f7xx_hal_dma_ex.c ****     
 278              		.loc 1 176 17 is_stmt 0 view .LVU83
 279 0038 0220     		movs	r0, #2
 280 003a 84F83500 		strb	r0, [r4, #53]
 179:Drivers/STM32F7xx_HAL_Driver/Src/stm32f7xx_hal_dma_ex.c ****     
 281              		.loc 1 179 5 is_stmt 1 view .LVU84
 179:Drivers/STM32F7xx_HAL_Driver/Src/stm32f7xx_hal_dma_ex.c ****     
 282              		.loc 1 179 21 is_stmt 0 view .LVU85
 283 003e 0020     		movs	r0, #0
 284 0040 6065     		str	r0, [r4, #84]
 182:Drivers/STM32F7xx_HAL_Driver/Src/stm32f7xx_hal_dma_ex.c ****     
 285              		.loc 1 182 5 is_stmt 1 view .LVU86
 182:Drivers/STM32F7xx_HAL_Driver/Src/stm32f7xx_hal_dma_ex.c ****     
 286              		.loc 1 182 9 is_stmt 0 view .LVU87
 287 0042 2568     		ldr	r5, [r4]
 182:Drivers/STM32F7xx_HAL_Driver/Src/stm32f7xx_hal_dma_ex.c ****     
 288              		.loc 1 182 19 view .LVU88
 289 0044 2868     		ldr	r0, [r5]
 182:Drivers/STM32F7xx_HAL_Driver/Src/stm32f7xx_hal_dma_ex.c ****     
 290              		.loc 1 182 24 view .LVU89
 291 0046 40F48020 		orr	r0, r0, #262144
 292 004a 2860     		str	r0, [r5]
 185:Drivers/STM32F7xx_HAL_Driver/Src/stm32f7xx_hal_dma_ex.c ****     
 293              		.loc 1 185 5 is_stmt 1 view .LVU90
 185:Drivers/STM32F7xx_HAL_Driver/Src/stm32f7xx_hal_dma_ex.c ****     
 294              		.loc 1 185 9 is_stmt 0 view .LVU91
 295 004c 2068     		ldr	r0, [r4]
 185:Drivers/STM32F7xx_HAL_Driver/Src/stm32f7xx_hal_dma_ex.c ****     
 296              		.loc 1 185 26 view .LVU92
 297 004e 0361     		str	r3, [r0, #16]
 188:Drivers/STM32F7xx_HAL_Driver/Src/stm32f7xx_hal_dma_ex.c ****     
 298              		.loc 1 188 5 is_stmt 1 view .LVU93
 299 0050 049B     		ldr	r3, [sp, #16]
 300              	.LVL26:
 188:Drivers/STM32F7xx_HAL_Driver/Src/stm32f7xx_hal_dma_ex.c ****     
 301              		.loc 1 188 5 is_stmt 0 view .LVU94
 302 0052 2046     		mov	r0, r4
 303              	.LVL27:
 188:Drivers/STM32F7xx_HAL_Driver/Src/stm32f7xx_hal_dma_ex.c ****     
 304              		.loc 1 188 5 view .LVU95
 305 0054 FFF7FEFF 		bl	DMA_MultiBufferSetConfig
 306              	.LVL28:
 191:Drivers/STM32F7xx_HAL_Driver/Src/stm32f7xx_hal_dma_ex.c ****     __HAL_DMA_CLEAR_FLAG (hdma, __HAL_DMA_GET_HT_FLAG_INDEX(hdma));
 307              		.loc 1 191 5 is_stmt 1 view .LVU96
 308 0058 2368     		ldr	r3, [r4]
 309 005a A54A     		ldr	r2, .L325
 310 005c 9342     		cmp	r3, r2
 311 005e 40F29880 		bls	.L18
 191:Drivers/STM32F7xx_HAL_Driver/Src/stm32f7xx_hal_dma_ex.c ****     __HAL_DMA_CLEAR_FLAG (hdma, __HAL_DMA_GET_HT_FLAG_INDEX(hdma));
ARM GAS  C:\Users\frees\AppData\Local\Temp\ccr3Z05i.s 			page 13


 312              		.loc 1 191 5 is_stmt 0 discriminator 1 view .LVU97
 313 0062 A2F58962 		sub	r2, r2, #1096
 314 0066 9342     		cmp	r3, r2
 315 0068 31D0     		beq	.L61
 191:Drivers/STM32F7xx_HAL_Driver/Src/stm32f7xx_hal_dma_ex.c ****     __HAL_DMA_CLEAR_FLAG (hdma, __HAL_DMA_GET_HT_FLAG_INDEX(hdma));
 316              		.loc 1 191 5 discriminator 3 view .LVU98
 317 006a 02F58062 		add	r2, r2, #1024
 318 006e 9342     		cmp	r3, r2
 319 0070 74D0     		beq	.L62
 191:Drivers/STM32F7xx_HAL_Driver/Src/stm32f7xx_hal_dma_ex.c ****     __HAL_DMA_CLEAR_FLAG (hdma, __HAL_DMA_GET_HT_FLAG_INDEX(hdma));
 320              		.loc 1 191 5 discriminator 5 view .LVU99
 321 0072 A2F56872 		sub	r2, r2, #928
 322 0076 9342     		cmp	r3, r2
 323 0078 72D0     		beq	.L63
 191:Drivers/STM32F7xx_HAL_Driver/Src/stm32f7xx_hal_dma_ex.c ****     __HAL_DMA_CLEAR_FLAG (hdma, __HAL_DMA_GET_HT_FLAG_INDEX(hdma));
 324              		.loc 1 191 5 discriminator 7 view .LVU100
 325 007a 02F58062 		add	r2, r2, #1024
 326 007e 9342     		cmp	r3, r2
 327 0080 70D0     		beq	.L64
 191:Drivers/STM32F7xx_HAL_Driver/Src/stm32f7xx_hal_dma_ex.c ****     __HAL_DMA_CLEAR_FLAG (hdma, __HAL_DMA_GET_HT_FLAG_INDEX(hdma));
 328              		.loc 1 191 5 discriminator 9 view .LVU101
 329 0082 A2F58962 		sub	r2, r2, #1096
 330 0086 9342     		cmp	r3, r2
 331 0088 6ED0     		beq	.L65
 191:Drivers/STM32F7xx_HAL_Driver/Src/stm32f7xx_hal_dma_ex.c ****     __HAL_DMA_CLEAR_FLAG (hdma, __HAL_DMA_GET_HT_FLAG_INDEX(hdma));
 332              		.loc 1 191 5 discriminator 11 view .LVU102
 333 008a 02F58062 		add	r2, r2, #1024
 334 008e 9342     		cmp	r3, r2
 335 0090 6DD0     		beq	.L66
 191:Drivers/STM32F7xx_HAL_Driver/Src/stm32f7xx_hal_dma_ex.c ****     __HAL_DMA_CLEAR_FLAG (hdma, __HAL_DMA_GET_HT_FLAG_INDEX(hdma));
 336              		.loc 1 191 5 discriminator 13 view .LVU103
 337 0092 A2F56872 		sub	r2, r2, #928
 338 0096 9342     		cmp	r3, r2
 339 0098 6CD0     		beq	.L67
 191:Drivers/STM32F7xx_HAL_Driver/Src/stm32f7xx_hal_dma_ex.c ****     __HAL_DMA_CLEAR_FLAG (hdma, __HAL_DMA_GET_HT_FLAG_INDEX(hdma));
 340              		.loc 1 191 5 discriminator 15 view .LVU104
 341 009a 02F58062 		add	r2, r2, #1024
 342 009e 9342     		cmp	r3, r2
 343 00a0 6BD0     		beq	.L68
 191:Drivers/STM32F7xx_HAL_Driver/Src/stm32f7xx_hal_dma_ex.c ****     __HAL_DMA_CLEAR_FLAG (hdma, __HAL_DMA_GET_HT_FLAG_INDEX(hdma));
 344              		.loc 1 191 5 discriminator 17 view .LVU105
 345 00a2 A2F58962 		sub	r2, r2, #1096
 346 00a6 9342     		cmp	r3, r2
 347 00a8 6AD0     		beq	.L69
 191:Drivers/STM32F7xx_HAL_Driver/Src/stm32f7xx_hal_dma_ex.c ****     __HAL_DMA_CLEAR_FLAG (hdma, __HAL_DMA_GET_HT_FLAG_INDEX(hdma));
 348              		.loc 1 191 5 discriminator 19 view .LVU106
 349 00aa 02F58062 		add	r2, r2, #1024
 350 00ae 9342     		cmp	r3, r2
 351 00b0 69D0     		beq	.L70
 191:Drivers/STM32F7xx_HAL_Driver/Src/stm32f7xx_hal_dma_ex.c ****     __HAL_DMA_CLEAR_FLAG (hdma, __HAL_DMA_GET_HT_FLAG_INDEX(hdma));
 352              		.loc 1 191 5 discriminator 21 view .LVU107
 353 00b2 A2F56872 		sub	r2, r2, #928
 354 00b6 9342     		cmp	r3, r2
 355 00b8 68D0     		beq	.L71
 191:Drivers/STM32F7xx_HAL_Driver/Src/stm32f7xx_hal_dma_ex.c ****     __HAL_DMA_CLEAR_FLAG (hdma, __HAL_DMA_GET_HT_FLAG_INDEX(hdma));
 356              		.loc 1 191 5 discriminator 23 view .LVU108
 357 00ba 02F58062 		add	r2, r2, #1024
ARM GAS  C:\Users\frees\AppData\Local\Temp\ccr3Z05i.s 			page 14


 358 00be 9342     		cmp	r3, r2
 359 00c0 02D0     		beq	.L304
 191:Drivers/STM32F7xx_HAL_Driver/Src/stm32f7xx_hal_dma_ex.c ****     __HAL_DMA_CLEAR_FLAG (hdma, __HAL_DMA_GET_HT_FLAG_INDEX(hdma));
 360              		.loc 1 191 5 discriminator 26 view .LVU109
 361 00c2 4FF00062 		mov	r2, #134217728
 362 00c6 03E0     		b	.L19
 363              	.L304:
 191:Drivers/STM32F7xx_HAL_Driver/Src/stm32f7xx_hal_dma_ex.c ****     __HAL_DMA_CLEAR_FLAG (hdma, __HAL_DMA_GET_HT_FLAG_INDEX(hdma));
 364              		.loc 1 191 5 discriminator 25 view .LVU110
 365 00c8 4FF40012 		mov	r2, #2097152
 366 00cc 00E0     		b	.L19
 367              	.L61:
 191:Drivers/STM32F7xx_HAL_Driver/Src/stm32f7xx_hal_dma_ex.c ****     __HAL_DMA_CLEAR_FLAG (hdma, __HAL_DMA_GET_HT_FLAG_INDEX(hdma));
 368              		.loc 1 191 5 discriminator 4 view .LVU111
 369 00ce 2022     		movs	r2, #32
 370              	.L19:
 191:Drivers/STM32F7xx_HAL_Driver/Src/stm32f7xx_hal_dma_ex.c ****     __HAL_DMA_CLEAR_FLAG (hdma, __HAL_DMA_GET_HT_FLAG_INDEX(hdma));
 371              		.loc 1 191 5 discriminator 50 view .LVU112
 372 00d0 884B     		ldr	r3, .L325+4
 373 00d2 DA60     		str	r2, [r3, #12]
 374              	.LVL29:
 375              	.L20:
 192:Drivers/STM32F7xx_HAL_Driver/Src/stm32f7xx_hal_dma_ex.c ****     __HAL_DMA_CLEAR_FLAG (hdma, __HAL_DMA_GET_TE_FLAG_INDEX(hdma));
 376              		.loc 1 192 5 is_stmt 1 view .LVU113
 377 00d4 2368     		ldr	r3, [r4]
 378 00d6 864A     		ldr	r2, .L325
 379 00d8 9342     		cmp	r3, r2
 380 00da 40F2CC81 		bls	.L26
 192:Drivers/STM32F7xx_HAL_Driver/Src/stm32f7xx_hal_dma_ex.c ****     __HAL_DMA_CLEAR_FLAG (hdma, __HAL_DMA_GET_TE_FLAG_INDEX(hdma));
 381              		.loc 1 192 5 is_stmt 0 discriminator 1 view .LVU114
 382 00de A2F58962 		sub	r2, r2, #1096
 383 00e2 9342     		cmp	r3, r2
 384 00e4 00F06581 		beq	.L109
 192:Drivers/STM32F7xx_HAL_Driver/Src/stm32f7xx_hal_dma_ex.c ****     __HAL_DMA_CLEAR_FLAG (hdma, __HAL_DMA_GET_TE_FLAG_INDEX(hdma));
 385              		.loc 1 192 5 discriminator 3 view .LVU115
 386 00e8 02F58062 		add	r2, r2, #1024
 387 00ec 9342     		cmp	r3, r2
 388 00ee 00F0A781 		beq	.L110
 192:Drivers/STM32F7xx_HAL_Driver/Src/stm32f7xx_hal_dma_ex.c ****     __HAL_DMA_CLEAR_FLAG (hdma, __HAL_DMA_GET_TE_FLAG_INDEX(hdma));
 389              		.loc 1 192 5 discriminator 5 view .LVU116
 390 00f2 A2F56872 		sub	r2, r2, #928
 391 00f6 9342     		cmp	r3, r2
 392 00f8 00F0A481 		beq	.L111
 192:Drivers/STM32F7xx_HAL_Driver/Src/stm32f7xx_hal_dma_ex.c ****     __HAL_DMA_CLEAR_FLAG (hdma, __HAL_DMA_GET_TE_FLAG_INDEX(hdma));
 393              		.loc 1 192 5 discriminator 7 view .LVU117
 394 00fc 02F58062 		add	r2, r2, #1024
 395 0100 9342     		cmp	r3, r2
 396 0102 00F0A181 		beq	.L112
 192:Drivers/STM32F7xx_HAL_Driver/Src/stm32f7xx_hal_dma_ex.c ****     __HAL_DMA_CLEAR_FLAG (hdma, __HAL_DMA_GET_TE_FLAG_INDEX(hdma));
 397              		.loc 1 192 5 discriminator 9 view .LVU118
 398 0106 A2F58962 		sub	r2, r2, #1096
 399 010a 9342     		cmp	r3, r2
 400 010c 00F09E81 		beq	.L113
 192:Drivers/STM32F7xx_HAL_Driver/Src/stm32f7xx_hal_dma_ex.c ****     __HAL_DMA_CLEAR_FLAG (hdma, __HAL_DMA_GET_TE_FLAG_INDEX(hdma));
 401              		.loc 1 192 5 discriminator 11 view .LVU119
 402 0110 02F58062 		add	r2, r2, #1024
 403 0114 9342     		cmp	r3, r2
ARM GAS  C:\Users\frees\AppData\Local\Temp\ccr3Z05i.s 			page 15


 404 0116 00F09C81 		beq	.L114
 192:Drivers/STM32F7xx_HAL_Driver/Src/stm32f7xx_hal_dma_ex.c ****     __HAL_DMA_CLEAR_FLAG (hdma, __HAL_DMA_GET_TE_FLAG_INDEX(hdma));
 405              		.loc 1 192 5 discriminator 13 view .LVU120
 406 011a A2F56872 		sub	r2, r2, #928
 407 011e 9342     		cmp	r3, r2
 408 0120 00F09A81 		beq	.L115
 192:Drivers/STM32F7xx_HAL_Driver/Src/stm32f7xx_hal_dma_ex.c ****     __HAL_DMA_CLEAR_FLAG (hdma, __HAL_DMA_GET_TE_FLAG_INDEX(hdma));
 409              		.loc 1 192 5 discriminator 15 view .LVU121
 410 0124 02F58062 		add	r2, r2, #1024
 411 0128 9342     		cmp	r3, r2
 412 012a 00F09881 		beq	.L116
 192:Drivers/STM32F7xx_HAL_Driver/Src/stm32f7xx_hal_dma_ex.c ****     __HAL_DMA_CLEAR_FLAG (hdma, __HAL_DMA_GET_TE_FLAG_INDEX(hdma));
 413              		.loc 1 192 5 discriminator 17 view .LVU122
 414 012e A2F58962 		sub	r2, r2, #1096
 415 0132 9342     		cmp	r3, r2
 416 0134 00F09681 		beq	.L117
 192:Drivers/STM32F7xx_HAL_Driver/Src/stm32f7xx_hal_dma_ex.c ****     __HAL_DMA_CLEAR_FLAG (hdma, __HAL_DMA_GET_TE_FLAG_INDEX(hdma));
 417              		.loc 1 192 5 discriminator 19 view .LVU123
 418 0138 02F58062 		add	r2, r2, #1024
 419 013c 9342     		cmp	r3, r2
 420 013e 00F09481 		beq	.L118
 192:Drivers/STM32F7xx_HAL_Driver/Src/stm32f7xx_hal_dma_ex.c ****     __HAL_DMA_CLEAR_FLAG (hdma, __HAL_DMA_GET_TE_FLAG_INDEX(hdma));
 421              		.loc 1 192 5 discriminator 21 view .LVU124
 422 0142 A2F56872 		sub	r2, r2, #928
 423 0146 9342     		cmp	r3, r2
 424 0148 00F09281 		beq	.L119
 192:Drivers/STM32F7xx_HAL_Driver/Src/stm32f7xx_hal_dma_ex.c ****     __HAL_DMA_CLEAR_FLAG (hdma, __HAL_DMA_GET_TE_FLAG_INDEX(hdma));
 425              		.loc 1 192 5 discriminator 23 view .LVU125
 426 014c 02F58062 		add	r2, r2, #1024
 427 0150 9342     		cmp	r3, r2
 428 0152 00F02B81 		beq	.L305
 192:Drivers/STM32F7xx_HAL_Driver/Src/stm32f7xx_hal_dma_ex.c ****     __HAL_DMA_CLEAR_FLAG (hdma, __HAL_DMA_GET_TE_FLAG_INDEX(hdma));
 429              		.loc 1 192 5 discriminator 26 view .LVU126
 430 0156 4FF08062 		mov	r2, #67108864
 431 015a 2BE1     		b	.L27
 432              	.LVL30:
 433              	.L62:
 191:Drivers/STM32F7xx_HAL_Driver/Src/stm32f7xx_hal_dma_ex.c ****     __HAL_DMA_CLEAR_FLAG (hdma, __HAL_DMA_GET_HT_FLAG_INDEX(hdma));
 434              		.loc 1 191 5 discriminator 6 view .LVU127
 435 015c 2022     		movs	r2, #32
 436 015e B7E7     		b	.L19
 437              	.L63:
 191:Drivers/STM32F7xx_HAL_Driver/Src/stm32f7xx_hal_dma_ex.c ****     __HAL_DMA_CLEAR_FLAG (hdma, __HAL_DMA_GET_HT_FLAG_INDEX(hdma));
 438              		.loc 1 191 5 discriminator 8 view .LVU128
 439 0160 2022     		movs	r2, #32
 440 0162 B5E7     		b	.L19
 441              	.L64:
 191:Drivers/STM32F7xx_HAL_Driver/Src/stm32f7xx_hal_dma_ex.c ****     __HAL_DMA_CLEAR_FLAG (hdma, __HAL_DMA_GET_HT_FLAG_INDEX(hdma));
 442              		.loc 1 191 5 discriminator 10 view .LVU129
 443 0164 2022     		movs	r2, #32
 444 0166 B3E7     		b	.L19
 445              	.L65:
 191:Drivers/STM32F7xx_HAL_Driver/Src/stm32f7xx_hal_dma_ex.c ****     __HAL_DMA_CLEAR_FLAG (hdma, __HAL_DMA_GET_HT_FLAG_INDEX(hdma));
 446              		.loc 1 191 5 discriminator 12 view .LVU130
 447 0168 4FF40062 		mov	r2, #2048
 448 016c B0E7     		b	.L19
 449              	.L66:
ARM GAS  C:\Users\frees\AppData\Local\Temp\ccr3Z05i.s 			page 16


 191:Drivers/STM32F7xx_HAL_Driver/Src/stm32f7xx_hal_dma_ex.c ****     __HAL_DMA_CLEAR_FLAG (hdma, __HAL_DMA_GET_HT_FLAG_INDEX(hdma));
 450              		.loc 1 191 5 discriminator 14 view .LVU131
 451 016e 4FF40062 		mov	r2, #2048
 452 0172 ADE7     		b	.L19
 453              	.L67:
 191:Drivers/STM32F7xx_HAL_Driver/Src/stm32f7xx_hal_dma_ex.c ****     __HAL_DMA_CLEAR_FLAG (hdma, __HAL_DMA_GET_HT_FLAG_INDEX(hdma));
 454              		.loc 1 191 5 discriminator 16 view .LVU132
 455 0174 4FF40062 		mov	r2, #2048
 456 0178 AAE7     		b	.L19
 457              	.L68:
 191:Drivers/STM32F7xx_HAL_Driver/Src/stm32f7xx_hal_dma_ex.c ****     __HAL_DMA_CLEAR_FLAG (hdma, __HAL_DMA_GET_HT_FLAG_INDEX(hdma));
 458              		.loc 1 191 5 discriminator 18 view .LVU133
 459 017a 4FF40062 		mov	r2, #2048
 460 017e A7E7     		b	.L19
 461              	.L69:
 191:Drivers/STM32F7xx_HAL_Driver/Src/stm32f7xx_hal_dma_ex.c ****     __HAL_DMA_CLEAR_FLAG (hdma, __HAL_DMA_GET_HT_FLAG_INDEX(hdma));
 462              		.loc 1 191 5 discriminator 20 view .LVU134
 463 0180 4FF40012 		mov	r2, #2097152
 464 0184 A4E7     		b	.L19
 465              	.L70:
 191:Drivers/STM32F7xx_HAL_Driver/Src/stm32f7xx_hal_dma_ex.c ****     __HAL_DMA_CLEAR_FLAG (hdma, __HAL_DMA_GET_HT_FLAG_INDEX(hdma));
 466              		.loc 1 191 5 discriminator 22 view .LVU135
 467 0186 4FF40012 		mov	r2, #2097152
 468 018a A1E7     		b	.L19
 469              	.L71:
 191:Drivers/STM32F7xx_HAL_Driver/Src/stm32f7xx_hal_dma_ex.c ****     __HAL_DMA_CLEAR_FLAG (hdma, __HAL_DMA_GET_HT_FLAG_INDEX(hdma));
 470              		.loc 1 191 5 discriminator 24 view .LVU136
 471 018c 4FF40012 		mov	r2, #2097152
 472 0190 9EE7     		b	.L19
 473              	.L18:
 191:Drivers/STM32F7xx_HAL_Driver/Src/stm32f7xx_hal_dma_ex.c ****     __HAL_DMA_CLEAR_FLAG (hdma, __HAL_DMA_GET_HT_FLAG_INDEX(hdma));
 474              		.loc 1 191 5 discriminator 2 view .LVU137
 475 0192 594A     		ldr	r2, .L325+8
 476 0194 9342     		cmp	r3, r2
 477 0196 53D9     		bls	.L21
 191:Drivers/STM32F7xx_HAL_Driver/Src/stm32f7xx_hal_dma_ex.c ****     __HAL_DMA_CLEAR_FLAG (hdma, __HAL_DMA_GET_HT_FLAG_INDEX(hdma));
 478              		.loc 1 191 5 discriminator 51 view .LVU138
 479 0198 A83A     		subs	r2, r2, #168
 480 019a 9342     		cmp	r3, r2
 481 019c 31D0     		beq	.L73
 191:Drivers/STM32F7xx_HAL_Driver/Src/stm32f7xx_hal_dma_ex.c ****     __HAL_DMA_CLEAR_FLAG (hdma, __HAL_DMA_GET_HT_FLAG_INDEX(hdma));
 482              		.loc 1 191 5 discriminator 53 view .LVU139
 483 019e 02F58062 		add	r2, r2, #1024
 484 01a2 9342     		cmp	r3, r2
 485 01a4 31D0     		beq	.L74
 191:Drivers/STM32F7xx_HAL_Driver/Src/stm32f7xx_hal_dma_ex.c ****     __HAL_DMA_CLEAR_FLAG (hdma, __HAL_DMA_GET_HT_FLAG_INDEX(hdma));
 486              		.loc 1 191 5 discriminator 55 view .LVU140
 487 01a6 A2F56872 		sub	r2, r2, #928
 488 01aa 9342     		cmp	r3, r2
 489 01ac 2FD0     		beq	.L75
 191:Drivers/STM32F7xx_HAL_Driver/Src/stm32f7xx_hal_dma_ex.c ****     __HAL_DMA_CLEAR_FLAG (hdma, __HAL_DMA_GET_HT_FLAG_INDEX(hdma));
 490              		.loc 1 191 5 discriminator 57 view .LVU141
 491 01ae 02F58062 		add	r2, r2, #1024
 492 01b2 9342     		cmp	r3, r2
 493 01b4 2DD0     		beq	.L76
 191:Drivers/STM32F7xx_HAL_Driver/Src/stm32f7xx_hal_dma_ex.c ****     __HAL_DMA_CLEAR_FLAG (hdma, __HAL_DMA_GET_HT_FLAG_INDEX(hdma));
 494              		.loc 1 191 5 discriminator 59 view .LVU142
ARM GAS  C:\Users\frees\AppData\Local\Temp\ccr3Z05i.s 			page 17


 495 01b6 A2F58962 		sub	r2, r2, #1096
 496 01ba 9342     		cmp	r3, r2
 497 01bc 2BD0     		beq	.L77
 191:Drivers/STM32F7xx_HAL_Driver/Src/stm32f7xx_hal_dma_ex.c ****     __HAL_DMA_CLEAR_FLAG (hdma, __HAL_DMA_GET_HT_FLAG_INDEX(hdma));
 498              		.loc 1 191 5 discriminator 61 view .LVU143
 499 01be 02F58062 		add	r2, r2, #1024
 500 01c2 9342     		cmp	r3, r2
 501 01c4 2AD0     		beq	.L78
 191:Drivers/STM32F7xx_HAL_Driver/Src/stm32f7xx_hal_dma_ex.c ****     __HAL_DMA_CLEAR_FLAG (hdma, __HAL_DMA_GET_HT_FLAG_INDEX(hdma));
 502              		.loc 1 191 5 discriminator 63 view .LVU144
 503 01c6 A2F56872 		sub	r2, r2, #928
 504 01ca 9342     		cmp	r3, r2
 505 01cc 29D0     		beq	.L79
 191:Drivers/STM32F7xx_HAL_Driver/Src/stm32f7xx_hal_dma_ex.c ****     __HAL_DMA_CLEAR_FLAG (hdma, __HAL_DMA_GET_HT_FLAG_INDEX(hdma));
 506              		.loc 1 191 5 discriminator 65 view .LVU145
 507 01ce 02F58062 		add	r2, r2, #1024
 508 01d2 9342     		cmp	r3, r2
 509 01d4 28D0     		beq	.L80
 191:Drivers/STM32F7xx_HAL_Driver/Src/stm32f7xx_hal_dma_ex.c ****     __HAL_DMA_CLEAR_FLAG (hdma, __HAL_DMA_GET_HT_FLAG_INDEX(hdma));
 510              		.loc 1 191 5 discriminator 67 view .LVU146
 511 01d6 A2F58962 		sub	r2, r2, #1096
 512 01da 9342     		cmp	r3, r2
 513 01dc 27D0     		beq	.L81
 191:Drivers/STM32F7xx_HAL_Driver/Src/stm32f7xx_hal_dma_ex.c ****     __HAL_DMA_CLEAR_FLAG (hdma, __HAL_DMA_GET_HT_FLAG_INDEX(hdma));
 514              		.loc 1 191 5 discriminator 69 view .LVU147
 515 01de 02F58062 		add	r2, r2, #1024
 516 01e2 9342     		cmp	r3, r2
 517 01e4 26D0     		beq	.L82
 191:Drivers/STM32F7xx_HAL_Driver/Src/stm32f7xx_hal_dma_ex.c ****     __HAL_DMA_CLEAR_FLAG (hdma, __HAL_DMA_GET_HT_FLAG_INDEX(hdma));
 518              		.loc 1 191 5 discriminator 71 view .LVU148
 519 01e6 A2F56872 		sub	r2, r2, #928
 520 01ea 9342     		cmp	r3, r2
 521 01ec 25D0     		beq	.L83
 191:Drivers/STM32F7xx_HAL_Driver/Src/stm32f7xx_hal_dma_ex.c ****     __HAL_DMA_CLEAR_FLAG (hdma, __HAL_DMA_GET_HT_FLAG_INDEX(hdma));
 522              		.loc 1 191 5 discriminator 73 view .LVU149
 523 01ee 02F58062 		add	r2, r2, #1024
 524 01f2 9342     		cmp	r3, r2
 525 01f4 02D0     		beq	.L306
 191:Drivers/STM32F7xx_HAL_Driver/Src/stm32f7xx_hal_dma_ex.c ****     __HAL_DMA_CLEAR_FLAG (hdma, __HAL_DMA_GET_HT_FLAG_INDEX(hdma));
 526              		.loc 1 191 5 discriminator 76 view .LVU150
 527 01f6 4FF00062 		mov	r2, #134217728
 528 01fa 03E0     		b	.L22
 529              	.L306:
 191:Drivers/STM32F7xx_HAL_Driver/Src/stm32f7xx_hal_dma_ex.c ****     __HAL_DMA_CLEAR_FLAG (hdma, __HAL_DMA_GET_HT_FLAG_INDEX(hdma));
 530              		.loc 1 191 5 discriminator 75 view .LVU151
 531 01fc 4FF40012 		mov	r2, #2097152
 532 0200 00E0     		b	.L22
 533              	.L73:
 191:Drivers/STM32F7xx_HAL_Driver/Src/stm32f7xx_hal_dma_ex.c ****     __HAL_DMA_CLEAR_FLAG (hdma, __HAL_DMA_GET_HT_FLAG_INDEX(hdma));
 534              		.loc 1 191 5 discriminator 54 view .LVU152
 535 0202 2022     		movs	r2, #32
 536              	.L22:
 191:Drivers/STM32F7xx_HAL_Driver/Src/stm32f7xx_hal_dma_ex.c ****     __HAL_DMA_CLEAR_FLAG (hdma, __HAL_DMA_GET_HT_FLAG_INDEX(hdma));
 537              		.loc 1 191 5 discriminator 100 view .LVU153
 538 0204 3B4B     		ldr	r3, .L325+4
 539 0206 9A60     		str	r2, [r3, #8]
 540              	.LVL31:
ARM GAS  C:\Users\frees\AppData\Local\Temp\ccr3Z05i.s 			page 18


 191:Drivers/STM32F7xx_HAL_Driver/Src/stm32f7xx_hal_dma_ex.c ****     __HAL_DMA_CLEAR_FLAG (hdma, __HAL_DMA_GET_HT_FLAG_INDEX(hdma));
 541              		.loc 1 191 5 discriminator 100 view .LVU154
 542 0208 64E7     		b	.L20
 543              	.LVL32:
 544              	.L74:
 191:Drivers/STM32F7xx_HAL_Driver/Src/stm32f7xx_hal_dma_ex.c ****     __HAL_DMA_CLEAR_FLAG (hdma, __HAL_DMA_GET_HT_FLAG_INDEX(hdma));
 545              		.loc 1 191 5 discriminator 56 view .LVU155
 546 020a 2022     		movs	r2, #32
 547 020c FAE7     		b	.L22
 548              	.L75:
 191:Drivers/STM32F7xx_HAL_Driver/Src/stm32f7xx_hal_dma_ex.c ****     __HAL_DMA_CLEAR_FLAG (hdma, __HAL_DMA_GET_HT_FLAG_INDEX(hdma));
 549              		.loc 1 191 5 discriminator 58 view .LVU156
 550 020e 2022     		movs	r2, #32
 551 0210 F8E7     		b	.L22
 552              	.L76:
 191:Drivers/STM32F7xx_HAL_Driver/Src/stm32f7xx_hal_dma_ex.c ****     __HAL_DMA_CLEAR_FLAG (hdma, __HAL_DMA_GET_HT_FLAG_INDEX(hdma));
 553              		.loc 1 191 5 discriminator 60 view .LVU157
 554 0212 2022     		movs	r2, #32
 555 0214 F6E7     		b	.L22
 556              	.L77:
 191:Drivers/STM32F7xx_HAL_Driver/Src/stm32f7xx_hal_dma_ex.c ****     __HAL_DMA_CLEAR_FLAG (hdma, __HAL_DMA_GET_HT_FLAG_INDEX(hdma));
 557              		.loc 1 191 5 discriminator 62 view .LVU158
 558 0216 4FF40062 		mov	r2, #2048
 559 021a F3E7     		b	.L22
 560              	.L78:
 191:Drivers/STM32F7xx_HAL_Driver/Src/stm32f7xx_hal_dma_ex.c ****     __HAL_DMA_CLEAR_FLAG (hdma, __HAL_DMA_GET_HT_FLAG_INDEX(hdma));
 561              		.loc 1 191 5 discriminator 64 view .LVU159
 562 021c 4FF40062 		mov	r2, #2048
 563 0220 F0E7     		b	.L22
 564              	.L79:
 191:Drivers/STM32F7xx_HAL_Driver/Src/stm32f7xx_hal_dma_ex.c ****     __HAL_DMA_CLEAR_FLAG (hdma, __HAL_DMA_GET_HT_FLAG_INDEX(hdma));
 565              		.loc 1 191 5 discriminator 66 view .LVU160
 566 0222 4FF40062 		mov	r2, #2048
 567 0226 EDE7     		b	.L22
 568              	.L80:
 191:Drivers/STM32F7xx_HAL_Driver/Src/stm32f7xx_hal_dma_ex.c ****     __HAL_DMA_CLEAR_FLAG (hdma, __HAL_DMA_GET_HT_FLAG_INDEX(hdma));
 569              		.loc 1 191 5 discriminator 68 view .LVU161
 570 0228 4FF40062 		mov	r2, #2048
 571 022c EAE7     		b	.L22
 572              	.L81:
 191:Drivers/STM32F7xx_HAL_Driver/Src/stm32f7xx_hal_dma_ex.c ****     __HAL_DMA_CLEAR_FLAG (hdma, __HAL_DMA_GET_HT_FLAG_INDEX(hdma));
 573              		.loc 1 191 5 discriminator 70 view .LVU162
 574 022e 4FF40012 		mov	r2, #2097152
 575 0232 E7E7     		b	.L22
 576              	.L82:
 191:Drivers/STM32F7xx_HAL_Driver/Src/stm32f7xx_hal_dma_ex.c ****     __HAL_DMA_CLEAR_FLAG (hdma, __HAL_DMA_GET_HT_FLAG_INDEX(hdma));
 577              		.loc 1 191 5 discriminator 72 view .LVU163
 578 0234 4FF40012 		mov	r2, #2097152
 579 0238 E4E7     		b	.L22
 580              	.L83:
 191:Drivers/STM32F7xx_HAL_Driver/Src/stm32f7xx_hal_dma_ex.c ****     __HAL_DMA_CLEAR_FLAG (hdma, __HAL_DMA_GET_HT_FLAG_INDEX(hdma));
 581              		.loc 1 191 5 discriminator 74 view .LVU164
 582 023a 4FF40012 		mov	r2, #2097152
 583 023e E1E7     		b	.L22
 584              	.L21:
 191:Drivers/STM32F7xx_HAL_Driver/Src/stm32f7xx_hal_dma_ex.c ****     __HAL_DMA_CLEAR_FLAG (hdma, __HAL_DMA_GET_HT_FLAG_INDEX(hdma));
 585              		.loc 1 191 5 discriminator 52 view .LVU165
ARM GAS  C:\Users\frees\AppData\Local\Temp\ccr3Z05i.s 			page 19


 586 0240 2E4A     		ldr	r2, .L325+12
 587 0242 9342     		cmp	r3, r2
 588 0244 5ED9     		bls	.L23
 191:Drivers/STM32F7xx_HAL_Driver/Src/stm32f7xx_hal_dma_ex.c ****     __HAL_DMA_CLEAR_FLAG (hdma, __HAL_DMA_GET_HT_FLAG_INDEX(hdma));
 589              		.loc 1 191 5 discriminator 102 view .LVU166
 590 0246 483A     		subs	r2, r2, #72
 591 0248 9342     		cmp	r3, r2
 592 024a 31D0     		beq	.L85
 191:Drivers/STM32F7xx_HAL_Driver/Src/stm32f7xx_hal_dma_ex.c ****     __HAL_DMA_CLEAR_FLAG (hdma, __HAL_DMA_GET_HT_FLAG_INDEX(hdma));
 593              		.loc 1 191 5 discriminator 104 view .LVU167
 594 024c 02F58062 		add	r2, r2, #1024
 595 0250 9342     		cmp	r3, r2
 596 0252 31D0     		beq	.L86
 191:Drivers/STM32F7xx_HAL_Driver/Src/stm32f7xx_hal_dma_ex.c ****     __HAL_DMA_CLEAR_FLAG (hdma, __HAL_DMA_GET_HT_FLAG_INDEX(hdma));
 597              		.loc 1 191 5 discriminator 106 view .LVU168
 598 0254 A2F56872 		sub	r2, r2, #928
 599 0258 9342     		cmp	r3, r2
 600 025a 2FD0     		beq	.L87
 191:Drivers/STM32F7xx_HAL_Driver/Src/stm32f7xx_hal_dma_ex.c ****     __HAL_DMA_CLEAR_FLAG (hdma, __HAL_DMA_GET_HT_FLAG_INDEX(hdma));
 601              		.loc 1 191 5 discriminator 108 view .LVU169
 602 025c 02F58062 		add	r2, r2, #1024
 603 0260 9342     		cmp	r3, r2
 604 0262 2DD0     		beq	.L88
 191:Drivers/STM32F7xx_HAL_Driver/Src/stm32f7xx_hal_dma_ex.c ****     __HAL_DMA_CLEAR_FLAG (hdma, __HAL_DMA_GET_HT_FLAG_INDEX(hdma));
 605              		.loc 1 191 5 discriminator 110 view .LVU170
 606 0264 A2F58962 		sub	r2, r2, #1096
 607 0268 9342     		cmp	r3, r2
 608 026a 2BD0     		beq	.L89
 191:Drivers/STM32F7xx_HAL_Driver/Src/stm32f7xx_hal_dma_ex.c ****     __HAL_DMA_CLEAR_FLAG (hdma, __HAL_DMA_GET_HT_FLAG_INDEX(hdma));
 609              		.loc 1 191 5 discriminator 112 view .LVU171
 610 026c 02F58062 		add	r2, r2, #1024
 611 0270 9342     		cmp	r3, r2
 612 0272 2AD0     		beq	.L90
 191:Drivers/STM32F7xx_HAL_Driver/Src/stm32f7xx_hal_dma_ex.c ****     __HAL_DMA_CLEAR_FLAG (hdma, __HAL_DMA_GET_HT_FLAG_INDEX(hdma));
 613              		.loc 1 191 5 discriminator 114 view .LVU172
 614 0274 A2F56872 		sub	r2, r2, #928
 615 0278 9342     		cmp	r3, r2
 616 027a 29D0     		beq	.L91
 191:Drivers/STM32F7xx_HAL_Driver/Src/stm32f7xx_hal_dma_ex.c ****     __HAL_DMA_CLEAR_FLAG (hdma, __HAL_DMA_GET_HT_FLAG_INDEX(hdma));
 617              		.loc 1 191 5 discriminator 116 view .LVU173
 618 027c 02F58062 		add	r2, r2, #1024
 619 0280 9342     		cmp	r3, r2
 620 0282 28D0     		beq	.L92
 191:Drivers/STM32F7xx_HAL_Driver/Src/stm32f7xx_hal_dma_ex.c ****     __HAL_DMA_CLEAR_FLAG (hdma, __HAL_DMA_GET_HT_FLAG_INDEX(hdma));
 621              		.loc 1 191 5 discriminator 118 view .LVU174
 622 0284 A2F58962 		sub	r2, r2, #1096
 623 0288 9342     		cmp	r3, r2
 624 028a 27D0     		beq	.L93
 191:Drivers/STM32F7xx_HAL_Driver/Src/stm32f7xx_hal_dma_ex.c ****     __HAL_DMA_CLEAR_FLAG (hdma, __HAL_DMA_GET_HT_FLAG_INDEX(hdma));
 625              		.loc 1 191 5 discriminator 120 view .LVU175
 626 028c 02F58062 		add	r2, r2, #1024
 627 0290 9342     		cmp	r3, r2
 628 0292 26D0     		beq	.L94
 191:Drivers/STM32F7xx_HAL_Driver/Src/stm32f7xx_hal_dma_ex.c ****     __HAL_DMA_CLEAR_FLAG (hdma, __HAL_DMA_GET_HT_FLAG_INDEX(hdma));
 629              		.loc 1 191 5 discriminator 122 view .LVU176
 630 0294 A2F56872 		sub	r2, r2, #928
 631 0298 9342     		cmp	r3, r2
ARM GAS  C:\Users\frees\AppData\Local\Temp\ccr3Z05i.s 			page 20


 632 029a 25D0     		beq	.L95
 191:Drivers/STM32F7xx_HAL_Driver/Src/stm32f7xx_hal_dma_ex.c ****     __HAL_DMA_CLEAR_FLAG (hdma, __HAL_DMA_GET_HT_FLAG_INDEX(hdma));
 633              		.loc 1 191 5 discriminator 124 view .LVU177
 634 029c 02F58062 		add	r2, r2, #1024
 635 02a0 9342     		cmp	r3, r2
 636 02a2 02D0     		beq	.L307
 191:Drivers/STM32F7xx_HAL_Driver/Src/stm32f7xx_hal_dma_ex.c ****     __HAL_DMA_CLEAR_FLAG (hdma, __HAL_DMA_GET_HT_FLAG_INDEX(hdma));
 637              		.loc 1 191 5 discriminator 127 view .LVU178
 638 02a4 4FF00063 		mov	r3, #134217728
 639 02a8 03E0     		b	.L24
 640              	.L307:
 191:Drivers/STM32F7xx_HAL_Driver/Src/stm32f7xx_hal_dma_ex.c ****     __HAL_DMA_CLEAR_FLAG (hdma, __HAL_DMA_GET_HT_FLAG_INDEX(hdma));
 641              		.loc 1 191 5 discriminator 126 view .LVU179
 642 02aa 4FF40013 		mov	r3, #2097152
 643 02ae 00E0     		b	.L24
 644              	.L85:
 191:Drivers/STM32F7xx_HAL_Driver/Src/stm32f7xx_hal_dma_ex.c ****     __HAL_DMA_CLEAR_FLAG (hdma, __HAL_DMA_GET_HT_FLAG_INDEX(hdma));
 645              		.loc 1 191 5 discriminator 105 view .LVU180
 646 02b0 2023     		movs	r3, #32
 647              	.L24:
 191:Drivers/STM32F7xx_HAL_Driver/Src/stm32f7xx_hal_dma_ex.c ****     __HAL_DMA_CLEAR_FLAG (hdma, __HAL_DMA_GET_HT_FLAG_INDEX(hdma));
 648              		.loc 1 191 5 discriminator 151 view .LVU181
 649 02b2 134A     		ldr	r2, .L325+16
 650 02b4 D360     		str	r3, [r2, #12]
 651              	.LVL33:
 191:Drivers/STM32F7xx_HAL_Driver/Src/stm32f7xx_hal_dma_ex.c ****     __HAL_DMA_CLEAR_FLAG (hdma, __HAL_DMA_GET_HT_FLAG_INDEX(hdma));
 652              		.loc 1 191 5 discriminator 151 view .LVU182
 653 02b6 0DE7     		b	.L20
 654              	.LVL34:
 655              	.L86:
 191:Drivers/STM32F7xx_HAL_Driver/Src/stm32f7xx_hal_dma_ex.c ****     __HAL_DMA_CLEAR_FLAG (hdma, __HAL_DMA_GET_HT_FLAG_INDEX(hdma));
 656              		.loc 1 191 5 discriminator 107 view .LVU183
 657 02b8 2023     		movs	r3, #32
 658 02ba FAE7     		b	.L24
 659              	.L87:
 191:Drivers/STM32F7xx_HAL_Driver/Src/stm32f7xx_hal_dma_ex.c ****     __HAL_DMA_CLEAR_FLAG (hdma, __HAL_DMA_GET_HT_FLAG_INDEX(hdma));
 660              		.loc 1 191 5 discriminator 109 view .LVU184
 661 02bc 2023     		movs	r3, #32
 662 02be F8E7     		b	.L24
 663              	.L88:
 191:Drivers/STM32F7xx_HAL_Driver/Src/stm32f7xx_hal_dma_ex.c ****     __HAL_DMA_CLEAR_FLAG (hdma, __HAL_DMA_GET_HT_FLAG_INDEX(hdma));
 664              		.loc 1 191 5 discriminator 111 view .LVU185
 665 02c0 2023     		movs	r3, #32
 666 02c2 F6E7     		b	.L24
 667              	.L89:
 191:Drivers/STM32F7xx_HAL_Driver/Src/stm32f7xx_hal_dma_ex.c ****     __HAL_DMA_CLEAR_FLAG (hdma, __HAL_DMA_GET_HT_FLAG_INDEX(hdma));
 668              		.loc 1 191 5 discriminator 113 view .LVU186
 669 02c4 4FF40063 		mov	r3, #2048
 670 02c8 F3E7     		b	.L24
 671              	.L90:
 191:Drivers/STM32F7xx_HAL_Driver/Src/stm32f7xx_hal_dma_ex.c ****     __HAL_DMA_CLEAR_FLAG (hdma, __HAL_DMA_GET_HT_FLAG_INDEX(hdma));
 672              		.loc 1 191 5 discriminator 115 view .LVU187
 673 02ca 4FF40063 		mov	r3, #2048
 674 02ce F0E7     		b	.L24
 675              	.L91:
 191:Drivers/STM32F7xx_HAL_Driver/Src/stm32f7xx_hal_dma_ex.c ****     __HAL_DMA_CLEAR_FLAG (hdma, __HAL_DMA_GET_HT_FLAG_INDEX(hdma));
 676              		.loc 1 191 5 discriminator 117 view .LVU188
ARM GAS  C:\Users\frees\AppData\Local\Temp\ccr3Z05i.s 			page 21


 677 02d0 4FF40063 		mov	r3, #2048
 678 02d4 EDE7     		b	.L24
 679              	.L92:
 191:Drivers/STM32F7xx_HAL_Driver/Src/stm32f7xx_hal_dma_ex.c ****     __HAL_DMA_CLEAR_FLAG (hdma, __HAL_DMA_GET_HT_FLAG_INDEX(hdma));
 680              		.loc 1 191 5 discriminator 119 view .LVU189
 681 02d6 4FF40063 		mov	r3, #2048
 682 02da EAE7     		b	.L24
 683              	.L93:
 191:Drivers/STM32F7xx_HAL_Driver/Src/stm32f7xx_hal_dma_ex.c ****     __HAL_DMA_CLEAR_FLAG (hdma, __HAL_DMA_GET_HT_FLAG_INDEX(hdma));
 684              		.loc 1 191 5 discriminator 121 view .LVU190
 685 02dc 4FF40013 		mov	r3, #2097152
 686 02e0 E7E7     		b	.L24
 687              	.L94:
 191:Drivers/STM32F7xx_HAL_Driver/Src/stm32f7xx_hal_dma_ex.c ****     __HAL_DMA_CLEAR_FLAG (hdma, __HAL_DMA_GET_HT_FLAG_INDEX(hdma));
 688              		.loc 1 191 5 discriminator 123 view .LVU191
 689 02e2 4FF40013 		mov	r3, #2097152
 690 02e6 E4E7     		b	.L24
 691              	.L95:
 191:Drivers/STM32F7xx_HAL_Driver/Src/stm32f7xx_hal_dma_ex.c ****     __HAL_DMA_CLEAR_FLAG (hdma, __HAL_DMA_GET_HT_FLAG_INDEX(hdma));
 692              		.loc 1 191 5 discriminator 125 view .LVU192
 693 02e8 4FF40013 		mov	r3, #2097152
 694 02ec E1E7     		b	.L24
 695              	.L326:
 696 02ee 00BF     		.align	2
 697              	.L325:
 698 02f0 58640240 		.word	1073898584
 699 02f4 00640240 		.word	1073898496
 700 02f8 B8600240 		.word	1073897656
 701 02fc 58600240 		.word	1073897560
 702 0300 00600240 		.word	1073897472
 703              	.L23:
 191:Drivers/STM32F7xx_HAL_Driver/Src/stm32f7xx_hal_dma_ex.c ****     __HAL_DMA_CLEAR_FLAG (hdma, __HAL_DMA_GET_HT_FLAG_INDEX(hdma));
 704              		.loc 1 191 5 discriminator 103 view .LVU193
 705 0304 B14A     		ldr	r2, .L327
 706 0306 9342     		cmp	r3, r2
 707 0308 31D0     		beq	.L97
 191:Drivers/STM32F7xx_HAL_Driver/Src/stm32f7xx_hal_dma_ex.c ****     __HAL_DMA_CLEAR_FLAG (hdma, __HAL_DMA_GET_HT_FLAG_INDEX(hdma));
 708              		.loc 1 191 5 discriminator 153 view .LVU194
 709 030a 02F58062 		add	r2, r2, #1024
 710 030e 9342     		cmp	r3, r2
 711 0310 31D0     		beq	.L98
 191:Drivers/STM32F7xx_HAL_Driver/Src/stm32f7xx_hal_dma_ex.c ****     __HAL_DMA_CLEAR_FLAG (hdma, __HAL_DMA_GET_HT_FLAG_INDEX(hdma));
 712              		.loc 1 191 5 discriminator 155 view .LVU195
 713 0312 A2F56872 		sub	r2, r2, #928
 714 0316 9342     		cmp	r3, r2
 715 0318 2FD0     		beq	.L99
 191:Drivers/STM32F7xx_HAL_Driver/Src/stm32f7xx_hal_dma_ex.c ****     __HAL_DMA_CLEAR_FLAG (hdma, __HAL_DMA_GET_HT_FLAG_INDEX(hdma));
 716              		.loc 1 191 5 discriminator 157 view .LVU196
 717 031a 02F58062 		add	r2, r2, #1024
 718 031e 9342     		cmp	r3, r2
 719 0320 2DD0     		beq	.L100
 191:Drivers/STM32F7xx_HAL_Driver/Src/stm32f7xx_hal_dma_ex.c ****     __HAL_DMA_CLEAR_FLAG (hdma, __HAL_DMA_GET_HT_FLAG_INDEX(hdma));
 720              		.loc 1 191 5 discriminator 159 view .LVU197
 721 0322 A2F58962 		sub	r2, r2, #1096
 722 0326 9342     		cmp	r3, r2
 723 0328 2BD0     		beq	.L101
 191:Drivers/STM32F7xx_HAL_Driver/Src/stm32f7xx_hal_dma_ex.c ****     __HAL_DMA_CLEAR_FLAG (hdma, __HAL_DMA_GET_HT_FLAG_INDEX(hdma));
ARM GAS  C:\Users\frees\AppData\Local\Temp\ccr3Z05i.s 			page 22


 724              		.loc 1 191 5 discriminator 161 view .LVU198
 725 032a 02F58062 		add	r2, r2, #1024
 726 032e 9342     		cmp	r3, r2
 727 0330 2AD0     		beq	.L102
 191:Drivers/STM32F7xx_HAL_Driver/Src/stm32f7xx_hal_dma_ex.c ****     __HAL_DMA_CLEAR_FLAG (hdma, __HAL_DMA_GET_HT_FLAG_INDEX(hdma));
 728              		.loc 1 191 5 discriminator 163 view .LVU199
 729 0332 A2F56872 		sub	r2, r2, #928
 730 0336 9342     		cmp	r3, r2
 731 0338 29D0     		beq	.L103
 191:Drivers/STM32F7xx_HAL_Driver/Src/stm32f7xx_hal_dma_ex.c ****     __HAL_DMA_CLEAR_FLAG (hdma, __HAL_DMA_GET_HT_FLAG_INDEX(hdma));
 732              		.loc 1 191 5 discriminator 165 view .LVU200
 733 033a 02F58062 		add	r2, r2, #1024
 734 033e 9342     		cmp	r3, r2
 735 0340 28D0     		beq	.L104
 191:Drivers/STM32F7xx_HAL_Driver/Src/stm32f7xx_hal_dma_ex.c ****     __HAL_DMA_CLEAR_FLAG (hdma, __HAL_DMA_GET_HT_FLAG_INDEX(hdma));
 736              		.loc 1 191 5 discriminator 167 view .LVU201
 737 0342 A2F58962 		sub	r2, r2, #1096
 738 0346 9342     		cmp	r3, r2
 739 0348 27D0     		beq	.L105
 191:Drivers/STM32F7xx_HAL_Driver/Src/stm32f7xx_hal_dma_ex.c ****     __HAL_DMA_CLEAR_FLAG (hdma, __HAL_DMA_GET_HT_FLAG_INDEX(hdma));
 740              		.loc 1 191 5 discriminator 169 view .LVU202
 741 034a 02F58062 		add	r2, r2, #1024
 742 034e 9342     		cmp	r3, r2
 743 0350 26D0     		beq	.L106
 191:Drivers/STM32F7xx_HAL_Driver/Src/stm32f7xx_hal_dma_ex.c ****     __HAL_DMA_CLEAR_FLAG (hdma, __HAL_DMA_GET_HT_FLAG_INDEX(hdma));
 744              		.loc 1 191 5 discriminator 171 view .LVU203
 745 0352 A2F56872 		sub	r2, r2, #928
 746 0356 9342     		cmp	r3, r2
 747 0358 25D0     		beq	.L107
 191:Drivers/STM32F7xx_HAL_Driver/Src/stm32f7xx_hal_dma_ex.c ****     __HAL_DMA_CLEAR_FLAG (hdma, __HAL_DMA_GET_HT_FLAG_INDEX(hdma));
 748              		.loc 1 191 5 discriminator 173 view .LVU204
 749 035a 02F58062 		add	r2, r2, #1024
 750 035e 9342     		cmp	r3, r2
 751 0360 02D0     		beq	.L308
 191:Drivers/STM32F7xx_HAL_Driver/Src/stm32f7xx_hal_dma_ex.c ****     __HAL_DMA_CLEAR_FLAG (hdma, __HAL_DMA_GET_HT_FLAG_INDEX(hdma));
 752              		.loc 1 191 5 discriminator 176 view .LVU205
 753 0362 4FF00063 		mov	r3, #134217728
 754 0366 03E0     		b	.L25
 755              	.L308:
 191:Drivers/STM32F7xx_HAL_Driver/Src/stm32f7xx_hal_dma_ex.c ****     __HAL_DMA_CLEAR_FLAG (hdma, __HAL_DMA_GET_HT_FLAG_INDEX(hdma));
 756              		.loc 1 191 5 discriminator 175 view .LVU206
 757 0368 4FF40013 		mov	r3, #2097152
 758 036c 00E0     		b	.L25
 759              	.L97:
 191:Drivers/STM32F7xx_HAL_Driver/Src/stm32f7xx_hal_dma_ex.c ****     __HAL_DMA_CLEAR_FLAG (hdma, __HAL_DMA_GET_HT_FLAG_INDEX(hdma));
 760              		.loc 1 191 5 discriminator 154 view .LVU207
 761 036e 2023     		movs	r3, #32
 762              	.L25:
 191:Drivers/STM32F7xx_HAL_Driver/Src/stm32f7xx_hal_dma_ex.c ****     __HAL_DMA_CLEAR_FLAG (hdma, __HAL_DMA_GET_HT_FLAG_INDEX(hdma));
 763              		.loc 1 191 5 discriminator 200 view .LVU208
 764 0370 974A     		ldr	r2, .L327+4
 765 0372 9360     		str	r3, [r2, #8]
 766              	.LVL35:
 191:Drivers/STM32F7xx_HAL_Driver/Src/stm32f7xx_hal_dma_ex.c ****     __HAL_DMA_CLEAR_FLAG (hdma, __HAL_DMA_GET_HT_FLAG_INDEX(hdma));
 767              		.loc 1 191 5 discriminator 200 view .LVU209
 768 0374 AEE6     		b	.L20
 769              	.LVL36:
ARM GAS  C:\Users\frees\AppData\Local\Temp\ccr3Z05i.s 			page 23


 770              	.L98:
 191:Drivers/STM32F7xx_HAL_Driver/Src/stm32f7xx_hal_dma_ex.c ****     __HAL_DMA_CLEAR_FLAG (hdma, __HAL_DMA_GET_HT_FLAG_INDEX(hdma));
 771              		.loc 1 191 5 discriminator 156 view .LVU210
 772 0376 2023     		movs	r3, #32
 773 0378 FAE7     		b	.L25
 774              	.L99:
 191:Drivers/STM32F7xx_HAL_Driver/Src/stm32f7xx_hal_dma_ex.c ****     __HAL_DMA_CLEAR_FLAG (hdma, __HAL_DMA_GET_HT_FLAG_INDEX(hdma));
 775              		.loc 1 191 5 discriminator 158 view .LVU211
 776 037a 2023     		movs	r3, #32
 777 037c F8E7     		b	.L25
 778              	.L100:
 191:Drivers/STM32F7xx_HAL_Driver/Src/stm32f7xx_hal_dma_ex.c ****     __HAL_DMA_CLEAR_FLAG (hdma, __HAL_DMA_GET_HT_FLAG_INDEX(hdma));
 779              		.loc 1 191 5 discriminator 160 view .LVU212
 780 037e 2023     		movs	r3, #32
 781 0380 F6E7     		b	.L25
 782              	.L101:
 191:Drivers/STM32F7xx_HAL_Driver/Src/stm32f7xx_hal_dma_ex.c ****     __HAL_DMA_CLEAR_FLAG (hdma, __HAL_DMA_GET_HT_FLAG_INDEX(hdma));
 783              		.loc 1 191 5 discriminator 162 view .LVU213
 784 0382 4FF40063 		mov	r3, #2048
 785 0386 F3E7     		b	.L25
 786              	.L102:
 191:Drivers/STM32F7xx_HAL_Driver/Src/stm32f7xx_hal_dma_ex.c ****     __HAL_DMA_CLEAR_FLAG (hdma, __HAL_DMA_GET_HT_FLAG_INDEX(hdma));
 787              		.loc 1 191 5 discriminator 164 view .LVU214
 788 0388 4FF40063 		mov	r3, #2048
 789 038c F0E7     		b	.L25
 790              	.L103:
 191:Drivers/STM32F7xx_HAL_Driver/Src/stm32f7xx_hal_dma_ex.c ****     __HAL_DMA_CLEAR_FLAG (hdma, __HAL_DMA_GET_HT_FLAG_INDEX(hdma));
 791              		.loc 1 191 5 discriminator 166 view .LVU215
 792 038e 4FF40063 		mov	r3, #2048
 793 0392 EDE7     		b	.L25
 794              	.L104:
 191:Drivers/STM32F7xx_HAL_Driver/Src/stm32f7xx_hal_dma_ex.c ****     __HAL_DMA_CLEAR_FLAG (hdma, __HAL_DMA_GET_HT_FLAG_INDEX(hdma));
 795              		.loc 1 191 5 discriminator 168 view .LVU216
 796 0394 4FF40063 		mov	r3, #2048
 797 0398 EAE7     		b	.L25
 798              	.L105:
 191:Drivers/STM32F7xx_HAL_Driver/Src/stm32f7xx_hal_dma_ex.c ****     __HAL_DMA_CLEAR_FLAG (hdma, __HAL_DMA_GET_HT_FLAG_INDEX(hdma));
 799              		.loc 1 191 5 discriminator 170 view .LVU217
 800 039a 4FF40013 		mov	r3, #2097152
 801 039e E7E7     		b	.L25
 802              	.L106:
 191:Drivers/STM32F7xx_HAL_Driver/Src/stm32f7xx_hal_dma_ex.c ****     __HAL_DMA_CLEAR_FLAG (hdma, __HAL_DMA_GET_HT_FLAG_INDEX(hdma));
 803              		.loc 1 191 5 discriminator 172 view .LVU218
 804 03a0 4FF40013 		mov	r3, #2097152
 805 03a4 E4E7     		b	.L25
 806              	.L107:
 191:Drivers/STM32F7xx_HAL_Driver/Src/stm32f7xx_hal_dma_ex.c ****     __HAL_DMA_CLEAR_FLAG (hdma, __HAL_DMA_GET_HT_FLAG_INDEX(hdma));
 807              		.loc 1 191 5 discriminator 174 view .LVU219
 808 03a6 4FF40013 		mov	r3, #2097152
 809 03aa E1E7     		b	.L25
 810              	.LVL37:
 811              	.L305:
 192:Drivers/STM32F7xx_HAL_Driver/Src/stm32f7xx_hal_dma_ex.c ****     __HAL_DMA_CLEAR_FLAG (hdma, __HAL_DMA_GET_TE_FLAG_INDEX(hdma));
 812              		.loc 1 192 5 discriminator 25 view .LVU220
 813 03ac 4FF48012 		mov	r2, #1048576
 814 03b0 00E0     		b	.L27
 815              	.L109:
ARM GAS  C:\Users\frees\AppData\Local\Temp\ccr3Z05i.s 			page 24


 192:Drivers/STM32F7xx_HAL_Driver/Src/stm32f7xx_hal_dma_ex.c ****     __HAL_DMA_CLEAR_FLAG (hdma, __HAL_DMA_GET_TE_FLAG_INDEX(hdma));
 816              		.loc 1 192 5 discriminator 4 view .LVU221
 817 03b2 1022     		movs	r2, #16
 818              	.L27:
 192:Drivers/STM32F7xx_HAL_Driver/Src/stm32f7xx_hal_dma_ex.c ****     __HAL_DMA_CLEAR_FLAG (hdma, __HAL_DMA_GET_TE_FLAG_INDEX(hdma));
 819              		.loc 1 192 5 discriminator 50 view .LVU222
 820 03b4 874B     		ldr	r3, .L327+8
 821 03b6 DA60     		str	r2, [r3, #12]
 822              	.L28:
 193:Drivers/STM32F7xx_HAL_Driver/Src/stm32f7xx_hal_dma_ex.c ****     __HAL_DMA_CLEAR_FLAG (hdma, __HAL_DMA_GET_DME_FLAG_INDEX(hdma));
 823              		.loc 1 193 5 is_stmt 1 view .LVU223
 824 03b8 2368     		ldr	r3, [r4]
 825 03ba 874A     		ldr	r2, .L327+12
 826 03bc 9342     		cmp	r3, r2
 827 03be 40F2CD81 		bls	.L34
 193:Drivers/STM32F7xx_HAL_Driver/Src/stm32f7xx_hal_dma_ex.c ****     __HAL_DMA_CLEAR_FLAG (hdma, __HAL_DMA_GET_DME_FLAG_INDEX(hdma));
 828              		.loc 1 193 5 is_stmt 0 discriminator 1 view .LVU224
 829 03c2 A2F58962 		sub	r2, r2, #1096
 830 03c6 9342     		cmp	r3, r2
 831 03c8 00F06681 		beq	.L157
 193:Drivers/STM32F7xx_HAL_Driver/Src/stm32f7xx_hal_dma_ex.c ****     __HAL_DMA_CLEAR_FLAG (hdma, __HAL_DMA_GET_DME_FLAG_INDEX(hdma));
 832              		.loc 1 193 5 discriminator 3 view .LVU225
 833 03cc 02F58062 		add	r2, r2, #1024
 834 03d0 9342     		cmp	r3, r2
 835 03d2 00F0A881 		beq	.L158
 193:Drivers/STM32F7xx_HAL_Driver/Src/stm32f7xx_hal_dma_ex.c ****     __HAL_DMA_CLEAR_FLAG (hdma, __HAL_DMA_GET_DME_FLAG_INDEX(hdma));
 836              		.loc 1 193 5 discriminator 5 view .LVU226
 837 03d6 A2F56872 		sub	r2, r2, #928
 838 03da 9342     		cmp	r3, r2
 839 03dc 00F0A581 		beq	.L159
 193:Drivers/STM32F7xx_HAL_Driver/Src/stm32f7xx_hal_dma_ex.c ****     __HAL_DMA_CLEAR_FLAG (hdma, __HAL_DMA_GET_DME_FLAG_INDEX(hdma));
 840              		.loc 1 193 5 discriminator 7 view .LVU227
 841 03e0 02F58062 		add	r2, r2, #1024
 842 03e4 9342     		cmp	r3, r2
 843 03e6 00F0A281 		beq	.L160
 193:Drivers/STM32F7xx_HAL_Driver/Src/stm32f7xx_hal_dma_ex.c ****     __HAL_DMA_CLEAR_FLAG (hdma, __HAL_DMA_GET_DME_FLAG_INDEX(hdma));
 844              		.loc 1 193 5 discriminator 9 view .LVU228
 845 03ea A2F58962 		sub	r2, r2, #1096
 846 03ee 9342     		cmp	r3, r2
 847 03f0 00F09F81 		beq	.L161
 193:Drivers/STM32F7xx_HAL_Driver/Src/stm32f7xx_hal_dma_ex.c ****     __HAL_DMA_CLEAR_FLAG (hdma, __HAL_DMA_GET_DME_FLAG_INDEX(hdma));
 848              		.loc 1 193 5 discriminator 11 view .LVU229
 849 03f4 02F58062 		add	r2, r2, #1024
 850 03f8 9342     		cmp	r3, r2
 851 03fa 00F09D81 		beq	.L162
 193:Drivers/STM32F7xx_HAL_Driver/Src/stm32f7xx_hal_dma_ex.c ****     __HAL_DMA_CLEAR_FLAG (hdma, __HAL_DMA_GET_DME_FLAG_INDEX(hdma));
 852              		.loc 1 193 5 discriminator 13 view .LVU230
 853 03fe A2F56872 		sub	r2, r2, #928
 854 0402 9342     		cmp	r3, r2
 855 0404 00F09B81 		beq	.L163
 193:Drivers/STM32F7xx_HAL_Driver/Src/stm32f7xx_hal_dma_ex.c ****     __HAL_DMA_CLEAR_FLAG (hdma, __HAL_DMA_GET_DME_FLAG_INDEX(hdma));
 856              		.loc 1 193 5 discriminator 15 view .LVU231
 857 0408 02F58062 		add	r2, r2, #1024
 858 040c 9342     		cmp	r3, r2
 859 040e 00F09981 		beq	.L164
 193:Drivers/STM32F7xx_HAL_Driver/Src/stm32f7xx_hal_dma_ex.c ****     __HAL_DMA_CLEAR_FLAG (hdma, __HAL_DMA_GET_DME_FLAG_INDEX(hdma));
 860              		.loc 1 193 5 discriminator 17 view .LVU232
ARM GAS  C:\Users\frees\AppData\Local\Temp\ccr3Z05i.s 			page 25


 861 0412 A2F58962 		sub	r2, r2, #1096
 862 0416 9342     		cmp	r3, r2
 863 0418 00F09781 		beq	.L165
 193:Drivers/STM32F7xx_HAL_Driver/Src/stm32f7xx_hal_dma_ex.c ****     __HAL_DMA_CLEAR_FLAG (hdma, __HAL_DMA_GET_DME_FLAG_INDEX(hdma));
 864              		.loc 1 193 5 discriminator 19 view .LVU233
 865 041c 02F58062 		add	r2, r2, #1024
 866 0420 9342     		cmp	r3, r2
 867 0422 00F09581 		beq	.L166
 193:Drivers/STM32F7xx_HAL_Driver/Src/stm32f7xx_hal_dma_ex.c ****     __HAL_DMA_CLEAR_FLAG (hdma, __HAL_DMA_GET_DME_FLAG_INDEX(hdma));
 868              		.loc 1 193 5 discriminator 21 view .LVU234
 869 0426 A2F56872 		sub	r2, r2, #928
 870 042a 9342     		cmp	r3, r2
 871 042c 00F09381 		beq	.L167
 193:Drivers/STM32F7xx_HAL_Driver/Src/stm32f7xx_hal_dma_ex.c ****     __HAL_DMA_CLEAR_FLAG (hdma, __HAL_DMA_GET_DME_FLAG_INDEX(hdma));
 872              		.loc 1 193 5 discriminator 23 view .LVU235
 873 0430 02F58062 		add	r2, r2, #1024
 874 0434 9342     		cmp	r3, r2
 875 0436 00F02C81 		beq	.L309
 193:Drivers/STM32F7xx_HAL_Driver/Src/stm32f7xx_hal_dma_ex.c ****     __HAL_DMA_CLEAR_FLAG (hdma, __HAL_DMA_GET_DME_FLAG_INDEX(hdma));
 876              		.loc 1 193 5 discriminator 26 view .LVU236
 877 043a 4FF00072 		mov	r2, #33554432
 878 043e 2CE1     		b	.L35
 879              	.L110:
 192:Drivers/STM32F7xx_HAL_Driver/Src/stm32f7xx_hal_dma_ex.c ****     __HAL_DMA_CLEAR_FLAG (hdma, __HAL_DMA_GET_TE_FLAG_INDEX(hdma));
 880              		.loc 1 192 5 discriminator 6 view .LVU237
 881 0440 1022     		movs	r2, #16
 882 0442 B7E7     		b	.L27
 883              	.L111:
 192:Drivers/STM32F7xx_HAL_Driver/Src/stm32f7xx_hal_dma_ex.c ****     __HAL_DMA_CLEAR_FLAG (hdma, __HAL_DMA_GET_TE_FLAG_INDEX(hdma));
 884              		.loc 1 192 5 discriminator 8 view .LVU238
 885 0444 1022     		movs	r2, #16
 886 0446 B5E7     		b	.L27
 887              	.L112:
 192:Drivers/STM32F7xx_HAL_Driver/Src/stm32f7xx_hal_dma_ex.c ****     __HAL_DMA_CLEAR_FLAG (hdma, __HAL_DMA_GET_TE_FLAG_INDEX(hdma));
 888              		.loc 1 192 5 discriminator 10 view .LVU239
 889 0448 1022     		movs	r2, #16
 890 044a B3E7     		b	.L27
 891              	.L113:
 192:Drivers/STM32F7xx_HAL_Driver/Src/stm32f7xx_hal_dma_ex.c ****     __HAL_DMA_CLEAR_FLAG (hdma, __HAL_DMA_GET_TE_FLAG_INDEX(hdma));
 892              		.loc 1 192 5 discriminator 12 view .LVU240
 893 044c 4FF48062 		mov	r2, #1024
 894 0450 B0E7     		b	.L27
 895              	.L114:
 192:Drivers/STM32F7xx_HAL_Driver/Src/stm32f7xx_hal_dma_ex.c ****     __HAL_DMA_CLEAR_FLAG (hdma, __HAL_DMA_GET_TE_FLAG_INDEX(hdma));
 896              		.loc 1 192 5 discriminator 14 view .LVU241
 897 0452 4FF48062 		mov	r2, #1024
 898 0456 ADE7     		b	.L27
 899              	.L115:
 192:Drivers/STM32F7xx_HAL_Driver/Src/stm32f7xx_hal_dma_ex.c ****     __HAL_DMA_CLEAR_FLAG (hdma, __HAL_DMA_GET_TE_FLAG_INDEX(hdma));
 900              		.loc 1 192 5 discriminator 16 view .LVU242
 901 0458 4FF48062 		mov	r2, #1024
 902 045c AAE7     		b	.L27
 903              	.L116:
 192:Drivers/STM32F7xx_HAL_Driver/Src/stm32f7xx_hal_dma_ex.c ****     __HAL_DMA_CLEAR_FLAG (hdma, __HAL_DMA_GET_TE_FLAG_INDEX(hdma));
 904              		.loc 1 192 5 discriminator 18 view .LVU243
 905 045e 4FF48062 		mov	r2, #1024
 906 0462 A7E7     		b	.L27
ARM GAS  C:\Users\frees\AppData\Local\Temp\ccr3Z05i.s 			page 26


 907              	.L117:
 192:Drivers/STM32F7xx_HAL_Driver/Src/stm32f7xx_hal_dma_ex.c ****     __HAL_DMA_CLEAR_FLAG (hdma, __HAL_DMA_GET_TE_FLAG_INDEX(hdma));
 908              		.loc 1 192 5 discriminator 20 view .LVU244
 909 0464 4FF48012 		mov	r2, #1048576
 910 0468 A4E7     		b	.L27
 911              	.L118:
 192:Drivers/STM32F7xx_HAL_Driver/Src/stm32f7xx_hal_dma_ex.c ****     __HAL_DMA_CLEAR_FLAG (hdma, __HAL_DMA_GET_TE_FLAG_INDEX(hdma));
 912              		.loc 1 192 5 discriminator 22 view .LVU245
 913 046a 4FF48012 		mov	r2, #1048576
 914 046e A1E7     		b	.L27
 915              	.L119:
 192:Drivers/STM32F7xx_HAL_Driver/Src/stm32f7xx_hal_dma_ex.c ****     __HAL_DMA_CLEAR_FLAG (hdma, __HAL_DMA_GET_TE_FLAG_INDEX(hdma));
 916              		.loc 1 192 5 discriminator 24 view .LVU246
 917 0470 4FF48012 		mov	r2, #1048576
 918 0474 9EE7     		b	.L27
 919              	.L26:
 192:Drivers/STM32F7xx_HAL_Driver/Src/stm32f7xx_hal_dma_ex.c ****     __HAL_DMA_CLEAR_FLAG (hdma, __HAL_DMA_GET_TE_FLAG_INDEX(hdma));
 920              		.loc 1 192 5 discriminator 2 view .LVU247
 921 0476 594A     		ldr	r2, .L327+16
 922 0478 9342     		cmp	r3, r2
 923 047a 53D9     		bls	.L29
 192:Drivers/STM32F7xx_HAL_Driver/Src/stm32f7xx_hal_dma_ex.c ****     __HAL_DMA_CLEAR_FLAG (hdma, __HAL_DMA_GET_TE_FLAG_INDEX(hdma));
 924              		.loc 1 192 5 discriminator 51 view .LVU248
 925 047c A83A     		subs	r2, r2, #168
 926 047e 9342     		cmp	r3, r2
 927 0480 31D0     		beq	.L121
 192:Drivers/STM32F7xx_HAL_Driver/Src/stm32f7xx_hal_dma_ex.c ****     __HAL_DMA_CLEAR_FLAG (hdma, __HAL_DMA_GET_TE_FLAG_INDEX(hdma));
 928              		.loc 1 192 5 discriminator 53 view .LVU249
 929 0482 02F58062 		add	r2, r2, #1024
 930 0486 9342     		cmp	r3, r2
 931 0488 31D0     		beq	.L122
 192:Drivers/STM32F7xx_HAL_Driver/Src/stm32f7xx_hal_dma_ex.c ****     __HAL_DMA_CLEAR_FLAG (hdma, __HAL_DMA_GET_TE_FLAG_INDEX(hdma));
 932              		.loc 1 192 5 discriminator 55 view .LVU250
 933 048a A2F56872 		sub	r2, r2, #928
 934 048e 9342     		cmp	r3, r2
 935 0490 2FD0     		beq	.L123
 192:Drivers/STM32F7xx_HAL_Driver/Src/stm32f7xx_hal_dma_ex.c ****     __HAL_DMA_CLEAR_FLAG (hdma, __HAL_DMA_GET_TE_FLAG_INDEX(hdma));
 936              		.loc 1 192 5 discriminator 57 view .LVU251
 937 0492 02F58062 		add	r2, r2, #1024
 938 0496 9342     		cmp	r3, r2
 939 0498 2DD0     		beq	.L124
 192:Drivers/STM32F7xx_HAL_Driver/Src/stm32f7xx_hal_dma_ex.c ****     __HAL_DMA_CLEAR_FLAG (hdma, __HAL_DMA_GET_TE_FLAG_INDEX(hdma));
 940              		.loc 1 192 5 discriminator 59 view .LVU252
 941 049a A2F58962 		sub	r2, r2, #1096
 942 049e 9342     		cmp	r3, r2
 943 04a0 2BD0     		beq	.L125
 192:Drivers/STM32F7xx_HAL_Driver/Src/stm32f7xx_hal_dma_ex.c ****     __HAL_DMA_CLEAR_FLAG (hdma, __HAL_DMA_GET_TE_FLAG_INDEX(hdma));
 944              		.loc 1 192 5 discriminator 61 view .LVU253
 945 04a2 02F58062 		add	r2, r2, #1024
 946 04a6 9342     		cmp	r3, r2
 947 04a8 2AD0     		beq	.L126
 192:Drivers/STM32F7xx_HAL_Driver/Src/stm32f7xx_hal_dma_ex.c ****     __HAL_DMA_CLEAR_FLAG (hdma, __HAL_DMA_GET_TE_FLAG_INDEX(hdma));
 948              		.loc 1 192 5 discriminator 63 view .LVU254
 949 04aa A2F56872 		sub	r2, r2, #928
 950 04ae 9342     		cmp	r3, r2
 951 04b0 29D0     		beq	.L127
 192:Drivers/STM32F7xx_HAL_Driver/Src/stm32f7xx_hal_dma_ex.c ****     __HAL_DMA_CLEAR_FLAG (hdma, __HAL_DMA_GET_TE_FLAG_INDEX(hdma));
ARM GAS  C:\Users\frees\AppData\Local\Temp\ccr3Z05i.s 			page 27


 952              		.loc 1 192 5 discriminator 65 view .LVU255
 953 04b2 02F58062 		add	r2, r2, #1024
 954 04b6 9342     		cmp	r3, r2
 955 04b8 28D0     		beq	.L128
 192:Drivers/STM32F7xx_HAL_Driver/Src/stm32f7xx_hal_dma_ex.c ****     __HAL_DMA_CLEAR_FLAG (hdma, __HAL_DMA_GET_TE_FLAG_INDEX(hdma));
 956              		.loc 1 192 5 discriminator 67 view .LVU256
 957 04ba A2F58962 		sub	r2, r2, #1096
 958 04be 9342     		cmp	r3, r2
 959 04c0 27D0     		beq	.L129
 192:Drivers/STM32F7xx_HAL_Driver/Src/stm32f7xx_hal_dma_ex.c ****     __HAL_DMA_CLEAR_FLAG (hdma, __HAL_DMA_GET_TE_FLAG_INDEX(hdma));
 960              		.loc 1 192 5 discriminator 69 view .LVU257
 961 04c2 02F58062 		add	r2, r2, #1024
 962 04c6 9342     		cmp	r3, r2
 963 04c8 26D0     		beq	.L130
 192:Drivers/STM32F7xx_HAL_Driver/Src/stm32f7xx_hal_dma_ex.c ****     __HAL_DMA_CLEAR_FLAG (hdma, __HAL_DMA_GET_TE_FLAG_INDEX(hdma));
 964              		.loc 1 192 5 discriminator 71 view .LVU258
 965 04ca A2F56872 		sub	r2, r2, #928
 966 04ce 9342     		cmp	r3, r2
 967 04d0 25D0     		beq	.L131
 192:Drivers/STM32F7xx_HAL_Driver/Src/stm32f7xx_hal_dma_ex.c ****     __HAL_DMA_CLEAR_FLAG (hdma, __HAL_DMA_GET_TE_FLAG_INDEX(hdma));
 968              		.loc 1 192 5 discriminator 73 view .LVU259
 969 04d2 02F58062 		add	r2, r2, #1024
 970 04d6 9342     		cmp	r3, r2
 971 04d8 02D0     		beq	.L310
 192:Drivers/STM32F7xx_HAL_Driver/Src/stm32f7xx_hal_dma_ex.c ****     __HAL_DMA_CLEAR_FLAG (hdma, __HAL_DMA_GET_TE_FLAG_INDEX(hdma));
 972              		.loc 1 192 5 discriminator 76 view .LVU260
 973 04da 4FF08062 		mov	r2, #67108864
 974 04de 03E0     		b	.L30
 975              	.L310:
 192:Drivers/STM32F7xx_HAL_Driver/Src/stm32f7xx_hal_dma_ex.c ****     __HAL_DMA_CLEAR_FLAG (hdma, __HAL_DMA_GET_TE_FLAG_INDEX(hdma));
 976              		.loc 1 192 5 discriminator 75 view .LVU261
 977 04e0 4FF48012 		mov	r2, #1048576
 978 04e4 00E0     		b	.L30
 979              	.L121:
 192:Drivers/STM32F7xx_HAL_Driver/Src/stm32f7xx_hal_dma_ex.c ****     __HAL_DMA_CLEAR_FLAG (hdma, __HAL_DMA_GET_TE_FLAG_INDEX(hdma));
 980              		.loc 1 192 5 discriminator 54 view .LVU262
 981 04e6 1022     		movs	r2, #16
 982              	.L30:
 192:Drivers/STM32F7xx_HAL_Driver/Src/stm32f7xx_hal_dma_ex.c ****     __HAL_DMA_CLEAR_FLAG (hdma, __HAL_DMA_GET_TE_FLAG_INDEX(hdma));
 983              		.loc 1 192 5 discriminator 100 view .LVU263
 984 04e8 3A4B     		ldr	r3, .L327+8
 985 04ea 9A60     		str	r2, [r3, #8]
 986 04ec 64E7     		b	.L28
 987              	.L122:
 192:Drivers/STM32F7xx_HAL_Driver/Src/stm32f7xx_hal_dma_ex.c ****     __HAL_DMA_CLEAR_FLAG (hdma, __HAL_DMA_GET_TE_FLAG_INDEX(hdma));
 988              		.loc 1 192 5 discriminator 56 view .LVU264
 989 04ee 1022     		movs	r2, #16
 990 04f0 FAE7     		b	.L30
 991              	.L123:
 192:Drivers/STM32F7xx_HAL_Driver/Src/stm32f7xx_hal_dma_ex.c ****     __HAL_DMA_CLEAR_FLAG (hdma, __HAL_DMA_GET_TE_FLAG_INDEX(hdma));
 992              		.loc 1 192 5 discriminator 58 view .LVU265
 993 04f2 1022     		movs	r2, #16
 994 04f4 F8E7     		b	.L30
 995              	.L124:
 192:Drivers/STM32F7xx_HAL_Driver/Src/stm32f7xx_hal_dma_ex.c ****     __HAL_DMA_CLEAR_FLAG (hdma, __HAL_DMA_GET_TE_FLAG_INDEX(hdma));
 996              		.loc 1 192 5 discriminator 60 view .LVU266
 997 04f6 1022     		movs	r2, #16
ARM GAS  C:\Users\frees\AppData\Local\Temp\ccr3Z05i.s 			page 28


 998 04f8 F6E7     		b	.L30
 999              	.L125:
 192:Drivers/STM32F7xx_HAL_Driver/Src/stm32f7xx_hal_dma_ex.c ****     __HAL_DMA_CLEAR_FLAG (hdma, __HAL_DMA_GET_TE_FLAG_INDEX(hdma));
 1000              		.loc 1 192 5 discriminator 62 view .LVU267
 1001 04fa 4FF48062 		mov	r2, #1024
 1002 04fe F3E7     		b	.L30
 1003              	.L126:
 192:Drivers/STM32F7xx_HAL_Driver/Src/stm32f7xx_hal_dma_ex.c ****     __HAL_DMA_CLEAR_FLAG (hdma, __HAL_DMA_GET_TE_FLAG_INDEX(hdma));
 1004              		.loc 1 192 5 discriminator 64 view .LVU268
 1005 0500 4FF48062 		mov	r2, #1024
 1006 0504 F0E7     		b	.L30
 1007              	.L127:
 192:Drivers/STM32F7xx_HAL_Driver/Src/stm32f7xx_hal_dma_ex.c ****     __HAL_DMA_CLEAR_FLAG (hdma, __HAL_DMA_GET_TE_FLAG_INDEX(hdma));
 1008              		.loc 1 192 5 discriminator 66 view .LVU269
 1009 0506 4FF48062 		mov	r2, #1024
 1010 050a EDE7     		b	.L30
 1011              	.L128:
 192:Drivers/STM32F7xx_HAL_Driver/Src/stm32f7xx_hal_dma_ex.c ****     __HAL_DMA_CLEAR_FLAG (hdma, __HAL_DMA_GET_TE_FLAG_INDEX(hdma));
 1012              		.loc 1 192 5 discriminator 68 view .LVU270
 1013 050c 4FF48062 		mov	r2, #1024
 1014 0510 EAE7     		b	.L30
 1015              	.L129:
 192:Drivers/STM32F7xx_HAL_Driver/Src/stm32f7xx_hal_dma_ex.c ****     __HAL_DMA_CLEAR_FLAG (hdma, __HAL_DMA_GET_TE_FLAG_INDEX(hdma));
 1016              		.loc 1 192 5 discriminator 70 view .LVU271
 1017 0512 4FF48012 		mov	r2, #1048576
 1018 0516 E7E7     		b	.L30
 1019              	.L130:
 192:Drivers/STM32F7xx_HAL_Driver/Src/stm32f7xx_hal_dma_ex.c ****     __HAL_DMA_CLEAR_FLAG (hdma, __HAL_DMA_GET_TE_FLAG_INDEX(hdma));
 1020              		.loc 1 192 5 discriminator 72 view .LVU272
 1021 0518 4FF48012 		mov	r2, #1048576
 1022 051c E4E7     		b	.L30
 1023              	.L131:
 192:Drivers/STM32F7xx_HAL_Driver/Src/stm32f7xx_hal_dma_ex.c ****     __HAL_DMA_CLEAR_FLAG (hdma, __HAL_DMA_GET_TE_FLAG_INDEX(hdma));
 1024              		.loc 1 192 5 discriminator 74 view .LVU273
 1025 051e 4FF48012 		mov	r2, #1048576
 1026 0522 E1E7     		b	.L30
 1027              	.L29:
 192:Drivers/STM32F7xx_HAL_Driver/Src/stm32f7xx_hal_dma_ex.c ****     __HAL_DMA_CLEAR_FLAG (hdma, __HAL_DMA_GET_TE_FLAG_INDEX(hdma));
 1028              		.loc 1 192 5 discriminator 52 view .LVU274
 1029 0524 2E4A     		ldr	r2, .L327+20
 1030 0526 9342     		cmp	r3, r2
 1031 0528 5FD9     		bls	.L31
 192:Drivers/STM32F7xx_HAL_Driver/Src/stm32f7xx_hal_dma_ex.c ****     __HAL_DMA_CLEAR_FLAG (hdma, __HAL_DMA_GET_TE_FLAG_INDEX(hdma));
 1032              		.loc 1 192 5 discriminator 102 view .LVU275
 1033 052a 483A     		subs	r2, r2, #72
 1034 052c 9342     		cmp	r3, r2
 1035 052e 31D0     		beq	.L133
 192:Drivers/STM32F7xx_HAL_Driver/Src/stm32f7xx_hal_dma_ex.c ****     __HAL_DMA_CLEAR_FLAG (hdma, __HAL_DMA_GET_TE_FLAG_INDEX(hdma));
 1036              		.loc 1 192 5 discriminator 104 view .LVU276
 1037 0530 02F58062 		add	r2, r2, #1024
 1038 0534 9342     		cmp	r3, r2
 1039 0536 31D0     		beq	.L134
 192:Drivers/STM32F7xx_HAL_Driver/Src/stm32f7xx_hal_dma_ex.c ****     __HAL_DMA_CLEAR_FLAG (hdma, __HAL_DMA_GET_TE_FLAG_INDEX(hdma));
 1040              		.loc 1 192 5 discriminator 106 view .LVU277
 1041 0538 A2F56872 		sub	r2, r2, #928
 1042 053c 9342     		cmp	r3, r2
 1043 053e 2FD0     		beq	.L135
ARM GAS  C:\Users\frees\AppData\Local\Temp\ccr3Z05i.s 			page 29


 192:Drivers/STM32F7xx_HAL_Driver/Src/stm32f7xx_hal_dma_ex.c ****     __HAL_DMA_CLEAR_FLAG (hdma, __HAL_DMA_GET_TE_FLAG_INDEX(hdma));
 1044              		.loc 1 192 5 discriminator 108 view .LVU278
 1045 0540 02F58062 		add	r2, r2, #1024
 1046 0544 9342     		cmp	r3, r2
 1047 0546 2DD0     		beq	.L136
 192:Drivers/STM32F7xx_HAL_Driver/Src/stm32f7xx_hal_dma_ex.c ****     __HAL_DMA_CLEAR_FLAG (hdma, __HAL_DMA_GET_TE_FLAG_INDEX(hdma));
 1048              		.loc 1 192 5 discriminator 110 view .LVU279
 1049 0548 A2F58962 		sub	r2, r2, #1096
 1050 054c 9342     		cmp	r3, r2
 1051 054e 2BD0     		beq	.L137
 192:Drivers/STM32F7xx_HAL_Driver/Src/stm32f7xx_hal_dma_ex.c ****     __HAL_DMA_CLEAR_FLAG (hdma, __HAL_DMA_GET_TE_FLAG_INDEX(hdma));
 1052              		.loc 1 192 5 discriminator 112 view .LVU280
 1053 0550 02F58062 		add	r2, r2, #1024
 1054 0554 9342     		cmp	r3, r2
 1055 0556 2AD0     		beq	.L138
 192:Drivers/STM32F7xx_HAL_Driver/Src/stm32f7xx_hal_dma_ex.c ****     __HAL_DMA_CLEAR_FLAG (hdma, __HAL_DMA_GET_TE_FLAG_INDEX(hdma));
 1056              		.loc 1 192 5 discriminator 114 view .LVU281
 1057 0558 A2F56872 		sub	r2, r2, #928
 1058 055c 9342     		cmp	r3, r2
 1059 055e 29D0     		beq	.L139
 192:Drivers/STM32F7xx_HAL_Driver/Src/stm32f7xx_hal_dma_ex.c ****     __HAL_DMA_CLEAR_FLAG (hdma, __HAL_DMA_GET_TE_FLAG_INDEX(hdma));
 1060              		.loc 1 192 5 discriminator 116 view .LVU282
 1061 0560 02F58062 		add	r2, r2, #1024
 1062 0564 9342     		cmp	r3, r2
 1063 0566 28D0     		beq	.L140
 192:Drivers/STM32F7xx_HAL_Driver/Src/stm32f7xx_hal_dma_ex.c ****     __HAL_DMA_CLEAR_FLAG (hdma, __HAL_DMA_GET_TE_FLAG_INDEX(hdma));
 1064              		.loc 1 192 5 discriminator 118 view .LVU283
 1065 0568 A2F58962 		sub	r2, r2, #1096
 1066 056c 9342     		cmp	r3, r2
 1067 056e 27D0     		beq	.L141
 192:Drivers/STM32F7xx_HAL_Driver/Src/stm32f7xx_hal_dma_ex.c ****     __HAL_DMA_CLEAR_FLAG (hdma, __HAL_DMA_GET_TE_FLAG_INDEX(hdma));
 1068              		.loc 1 192 5 discriminator 120 view .LVU284
 1069 0570 02F58062 		add	r2, r2, #1024
 1070 0574 9342     		cmp	r3, r2
 1071 0576 26D0     		beq	.L142
 192:Drivers/STM32F7xx_HAL_Driver/Src/stm32f7xx_hal_dma_ex.c ****     __HAL_DMA_CLEAR_FLAG (hdma, __HAL_DMA_GET_TE_FLAG_INDEX(hdma));
 1072              		.loc 1 192 5 discriminator 122 view .LVU285
 1073 0578 A2F56872 		sub	r2, r2, #928
 1074 057c 9342     		cmp	r3, r2
 1075 057e 31D0     		beq	.L143
 192:Drivers/STM32F7xx_HAL_Driver/Src/stm32f7xx_hal_dma_ex.c ****     __HAL_DMA_CLEAR_FLAG (hdma, __HAL_DMA_GET_TE_FLAG_INDEX(hdma));
 1076              		.loc 1 192 5 discriminator 124 view .LVU286
 1077 0580 02F58062 		add	r2, r2, #1024
 1078 0584 9342     		cmp	r3, r2
 1079 0586 02D0     		beq	.L311
 192:Drivers/STM32F7xx_HAL_Driver/Src/stm32f7xx_hal_dma_ex.c ****     __HAL_DMA_CLEAR_FLAG (hdma, __HAL_DMA_GET_TE_FLAG_INDEX(hdma));
 1080              		.loc 1 192 5 discriminator 127 view .LVU287
 1081 0588 4FF08063 		mov	r3, #67108864
 1082 058c 03E0     		b	.L32
 1083              	.L311:
 192:Drivers/STM32F7xx_HAL_Driver/Src/stm32f7xx_hal_dma_ex.c ****     __HAL_DMA_CLEAR_FLAG (hdma, __HAL_DMA_GET_TE_FLAG_INDEX(hdma));
 1084              		.loc 1 192 5 discriminator 126 view .LVU288
 1085 058e 4FF48013 		mov	r3, #1048576
 1086 0592 00E0     		b	.L32
 1087              	.L133:
 192:Drivers/STM32F7xx_HAL_Driver/Src/stm32f7xx_hal_dma_ex.c ****     __HAL_DMA_CLEAR_FLAG (hdma, __HAL_DMA_GET_TE_FLAG_INDEX(hdma));
 1088              		.loc 1 192 5 discriminator 105 view .LVU289
ARM GAS  C:\Users\frees\AppData\Local\Temp\ccr3Z05i.s 			page 30


 1089 0594 1023     		movs	r3, #16
 1090              	.L32:
 192:Drivers/STM32F7xx_HAL_Driver/Src/stm32f7xx_hal_dma_ex.c ****     __HAL_DMA_CLEAR_FLAG (hdma, __HAL_DMA_GET_TE_FLAG_INDEX(hdma));
 1091              		.loc 1 192 5 discriminator 151 view .LVU290
 1092 0596 0E4A     		ldr	r2, .L327+4
 1093 0598 D360     		str	r3, [r2, #12]
 1094 059a 0DE7     		b	.L28
 1095              	.L134:
 192:Drivers/STM32F7xx_HAL_Driver/Src/stm32f7xx_hal_dma_ex.c ****     __HAL_DMA_CLEAR_FLAG (hdma, __HAL_DMA_GET_TE_FLAG_INDEX(hdma));
 1096              		.loc 1 192 5 discriminator 107 view .LVU291
 1097 059c 1023     		movs	r3, #16
 1098 059e FAE7     		b	.L32
 1099              	.L135:
 192:Drivers/STM32F7xx_HAL_Driver/Src/stm32f7xx_hal_dma_ex.c ****     __HAL_DMA_CLEAR_FLAG (hdma, __HAL_DMA_GET_TE_FLAG_INDEX(hdma));
 1100              		.loc 1 192 5 discriminator 109 view .LVU292
 1101 05a0 1023     		movs	r3, #16
 1102 05a2 F8E7     		b	.L32
 1103              	.L136:
 192:Drivers/STM32F7xx_HAL_Driver/Src/stm32f7xx_hal_dma_ex.c ****     __HAL_DMA_CLEAR_FLAG (hdma, __HAL_DMA_GET_TE_FLAG_INDEX(hdma));
 1104              		.loc 1 192 5 discriminator 111 view .LVU293
 1105 05a4 1023     		movs	r3, #16
 1106 05a6 F6E7     		b	.L32
 1107              	.L137:
 192:Drivers/STM32F7xx_HAL_Driver/Src/stm32f7xx_hal_dma_ex.c ****     __HAL_DMA_CLEAR_FLAG (hdma, __HAL_DMA_GET_TE_FLAG_INDEX(hdma));
 1108              		.loc 1 192 5 discriminator 113 view .LVU294
 1109 05a8 4FF48063 		mov	r3, #1024
 1110 05ac F3E7     		b	.L32
 1111              	.L138:
 192:Drivers/STM32F7xx_HAL_Driver/Src/stm32f7xx_hal_dma_ex.c ****     __HAL_DMA_CLEAR_FLAG (hdma, __HAL_DMA_GET_TE_FLAG_INDEX(hdma));
 1112              		.loc 1 192 5 discriminator 115 view .LVU295
 1113 05ae 4FF48063 		mov	r3, #1024
 1114 05b2 F0E7     		b	.L32
 1115              	.L139:
 192:Drivers/STM32F7xx_HAL_Driver/Src/stm32f7xx_hal_dma_ex.c ****     __HAL_DMA_CLEAR_FLAG (hdma, __HAL_DMA_GET_TE_FLAG_INDEX(hdma));
 1116              		.loc 1 192 5 discriminator 117 view .LVU296
 1117 05b4 4FF48063 		mov	r3, #1024
 1118 05b8 EDE7     		b	.L32
 1119              	.L140:
 192:Drivers/STM32F7xx_HAL_Driver/Src/stm32f7xx_hal_dma_ex.c ****     __HAL_DMA_CLEAR_FLAG (hdma, __HAL_DMA_GET_TE_FLAG_INDEX(hdma));
 1120              		.loc 1 192 5 discriminator 119 view .LVU297
 1121 05ba 4FF48063 		mov	r3, #1024
 1122 05be EAE7     		b	.L32
 1123              	.L141:
 192:Drivers/STM32F7xx_HAL_Driver/Src/stm32f7xx_hal_dma_ex.c ****     __HAL_DMA_CLEAR_FLAG (hdma, __HAL_DMA_GET_TE_FLAG_INDEX(hdma));
 1124              		.loc 1 192 5 discriminator 121 view .LVU298
 1125 05c0 4FF48013 		mov	r3, #1048576
 1126 05c4 E7E7     		b	.L32
 1127              	.L142:
 192:Drivers/STM32F7xx_HAL_Driver/Src/stm32f7xx_hal_dma_ex.c ****     __HAL_DMA_CLEAR_FLAG (hdma, __HAL_DMA_GET_TE_FLAG_INDEX(hdma));
 1128              		.loc 1 192 5 discriminator 123 view .LVU299
 1129 05c6 4FF48013 		mov	r3, #1048576
 1130 05ca E4E7     		b	.L32
 1131              	.L328:
 1132              		.align	2
 1133              	.L327:
 1134 05cc 10600240 		.word	1073897488
 1135 05d0 00600240 		.word	1073897472
ARM GAS  C:\Users\frees\AppData\Local\Temp\ccr3Z05i.s 			page 31


 1136 05d4 00640240 		.word	1073898496
 1137 05d8 58640240 		.word	1073898584
 1138 05dc B8600240 		.word	1073897656
 1139 05e0 58600240 		.word	1073897560
 1140              	.L143:
 192:Drivers/STM32F7xx_HAL_Driver/Src/stm32f7xx_hal_dma_ex.c ****     __HAL_DMA_CLEAR_FLAG (hdma, __HAL_DMA_GET_TE_FLAG_INDEX(hdma));
 1141              		.loc 1 192 5 discriminator 125 view .LVU300
 1142 05e4 4FF48013 		mov	r3, #1048576
 1143 05e8 D5E7     		b	.L32
 1144              	.L31:
 192:Drivers/STM32F7xx_HAL_Driver/Src/stm32f7xx_hal_dma_ex.c ****     __HAL_DMA_CLEAR_FLAG (hdma, __HAL_DMA_GET_TE_FLAG_INDEX(hdma));
 1145              		.loc 1 192 5 discriminator 103 view .LVU301
 1146 05ea B24A     		ldr	r2, .L329
 1147 05ec 9342     		cmp	r3, r2
 1148 05ee 31D0     		beq	.L145
 192:Drivers/STM32F7xx_HAL_Driver/Src/stm32f7xx_hal_dma_ex.c ****     __HAL_DMA_CLEAR_FLAG (hdma, __HAL_DMA_GET_TE_FLAG_INDEX(hdma));
 1149              		.loc 1 192 5 discriminator 153 view .LVU302
 1150 05f0 02F58062 		add	r2, r2, #1024
 1151 05f4 9342     		cmp	r3, r2
 1152 05f6 31D0     		beq	.L146
 192:Drivers/STM32F7xx_HAL_Driver/Src/stm32f7xx_hal_dma_ex.c ****     __HAL_DMA_CLEAR_FLAG (hdma, __HAL_DMA_GET_TE_FLAG_INDEX(hdma));
 1153              		.loc 1 192 5 discriminator 155 view .LVU303
 1154 05f8 A2F56872 		sub	r2, r2, #928
 1155 05fc 9342     		cmp	r3, r2
 1156 05fe 2FD0     		beq	.L147
 192:Drivers/STM32F7xx_HAL_Driver/Src/stm32f7xx_hal_dma_ex.c ****     __HAL_DMA_CLEAR_FLAG (hdma, __HAL_DMA_GET_TE_FLAG_INDEX(hdma));
 1157              		.loc 1 192 5 discriminator 157 view .LVU304
 1158 0600 02F58062 		add	r2, r2, #1024
 1159 0604 9342     		cmp	r3, r2
 1160 0606 2DD0     		beq	.L148
 192:Drivers/STM32F7xx_HAL_Driver/Src/stm32f7xx_hal_dma_ex.c ****     __HAL_DMA_CLEAR_FLAG (hdma, __HAL_DMA_GET_TE_FLAG_INDEX(hdma));
 1161              		.loc 1 192 5 discriminator 159 view .LVU305
 1162 0608 A2F58962 		sub	r2, r2, #1096
 1163 060c 9342     		cmp	r3, r2
 1164 060e 2BD0     		beq	.L149
 192:Drivers/STM32F7xx_HAL_Driver/Src/stm32f7xx_hal_dma_ex.c ****     __HAL_DMA_CLEAR_FLAG (hdma, __HAL_DMA_GET_TE_FLAG_INDEX(hdma));
 1165              		.loc 1 192 5 discriminator 161 view .LVU306
 1166 0610 02F58062 		add	r2, r2, #1024
 1167 0614 9342     		cmp	r3, r2
 1168 0616 2AD0     		beq	.L150
 192:Drivers/STM32F7xx_HAL_Driver/Src/stm32f7xx_hal_dma_ex.c ****     __HAL_DMA_CLEAR_FLAG (hdma, __HAL_DMA_GET_TE_FLAG_INDEX(hdma));
 1169              		.loc 1 192 5 discriminator 163 view .LVU307
 1170 0618 A2F56872 		sub	r2, r2, #928
 1171 061c 9342     		cmp	r3, r2
 1172 061e 29D0     		beq	.L151
 192:Drivers/STM32F7xx_HAL_Driver/Src/stm32f7xx_hal_dma_ex.c ****     __HAL_DMA_CLEAR_FLAG (hdma, __HAL_DMA_GET_TE_FLAG_INDEX(hdma));
 1173              		.loc 1 192 5 discriminator 165 view .LVU308
 1174 0620 02F58062 		add	r2, r2, #1024
 1175 0624 9342     		cmp	r3, r2
 1176 0626 28D0     		beq	.L152
 192:Drivers/STM32F7xx_HAL_Driver/Src/stm32f7xx_hal_dma_ex.c ****     __HAL_DMA_CLEAR_FLAG (hdma, __HAL_DMA_GET_TE_FLAG_INDEX(hdma));
 1177              		.loc 1 192 5 discriminator 167 view .LVU309
 1178 0628 A2F58962 		sub	r2, r2, #1096
 1179 062c 9342     		cmp	r3, r2
 1180 062e 27D0     		beq	.L153
 192:Drivers/STM32F7xx_HAL_Driver/Src/stm32f7xx_hal_dma_ex.c ****     __HAL_DMA_CLEAR_FLAG (hdma, __HAL_DMA_GET_TE_FLAG_INDEX(hdma));
 1181              		.loc 1 192 5 discriminator 169 view .LVU310
ARM GAS  C:\Users\frees\AppData\Local\Temp\ccr3Z05i.s 			page 32


 1182 0630 02F58062 		add	r2, r2, #1024
 1183 0634 9342     		cmp	r3, r2
 1184 0636 26D0     		beq	.L154
 192:Drivers/STM32F7xx_HAL_Driver/Src/stm32f7xx_hal_dma_ex.c ****     __HAL_DMA_CLEAR_FLAG (hdma, __HAL_DMA_GET_TE_FLAG_INDEX(hdma));
 1185              		.loc 1 192 5 discriminator 171 view .LVU311
 1186 0638 A2F56872 		sub	r2, r2, #928
 1187 063c 9342     		cmp	r3, r2
 1188 063e 25D0     		beq	.L155
 192:Drivers/STM32F7xx_HAL_Driver/Src/stm32f7xx_hal_dma_ex.c ****     __HAL_DMA_CLEAR_FLAG (hdma, __HAL_DMA_GET_TE_FLAG_INDEX(hdma));
 1189              		.loc 1 192 5 discriminator 173 view .LVU312
 1190 0640 02F58062 		add	r2, r2, #1024
 1191 0644 9342     		cmp	r3, r2
 1192 0646 02D0     		beq	.L312
 192:Drivers/STM32F7xx_HAL_Driver/Src/stm32f7xx_hal_dma_ex.c ****     __HAL_DMA_CLEAR_FLAG (hdma, __HAL_DMA_GET_TE_FLAG_INDEX(hdma));
 1193              		.loc 1 192 5 discriminator 176 view .LVU313
 1194 0648 4FF08063 		mov	r3, #67108864
 1195 064c 03E0     		b	.L33
 1196              	.L312:
 192:Drivers/STM32F7xx_HAL_Driver/Src/stm32f7xx_hal_dma_ex.c ****     __HAL_DMA_CLEAR_FLAG (hdma, __HAL_DMA_GET_TE_FLAG_INDEX(hdma));
 1197              		.loc 1 192 5 discriminator 175 view .LVU314
 1198 064e 4FF48013 		mov	r3, #1048576
 1199 0652 00E0     		b	.L33
 1200              	.L145:
 192:Drivers/STM32F7xx_HAL_Driver/Src/stm32f7xx_hal_dma_ex.c ****     __HAL_DMA_CLEAR_FLAG (hdma, __HAL_DMA_GET_TE_FLAG_INDEX(hdma));
 1201              		.loc 1 192 5 discriminator 154 view .LVU315
 1202 0654 1023     		movs	r3, #16
 1203              	.L33:
 192:Drivers/STM32F7xx_HAL_Driver/Src/stm32f7xx_hal_dma_ex.c ****     __HAL_DMA_CLEAR_FLAG (hdma, __HAL_DMA_GET_TE_FLAG_INDEX(hdma));
 1204              		.loc 1 192 5 discriminator 200 view .LVU316
 1205 0656 984A     		ldr	r2, .L329+4
 1206 0658 9360     		str	r3, [r2, #8]
 1207 065a ADE6     		b	.L28
 1208              	.L146:
 192:Drivers/STM32F7xx_HAL_Driver/Src/stm32f7xx_hal_dma_ex.c ****     __HAL_DMA_CLEAR_FLAG (hdma, __HAL_DMA_GET_TE_FLAG_INDEX(hdma));
 1209              		.loc 1 192 5 discriminator 156 view .LVU317
 1210 065c 1023     		movs	r3, #16
 1211 065e FAE7     		b	.L33
 1212              	.L147:
 192:Drivers/STM32F7xx_HAL_Driver/Src/stm32f7xx_hal_dma_ex.c ****     __HAL_DMA_CLEAR_FLAG (hdma, __HAL_DMA_GET_TE_FLAG_INDEX(hdma));
 1213              		.loc 1 192 5 discriminator 158 view .LVU318
 1214 0660 1023     		movs	r3, #16
 1215 0662 F8E7     		b	.L33
 1216              	.L148:
 192:Drivers/STM32F7xx_HAL_Driver/Src/stm32f7xx_hal_dma_ex.c ****     __HAL_DMA_CLEAR_FLAG (hdma, __HAL_DMA_GET_TE_FLAG_INDEX(hdma));
 1217              		.loc 1 192 5 discriminator 160 view .LVU319
 1218 0664 1023     		movs	r3, #16
 1219 0666 F6E7     		b	.L33
 1220              	.L149:
 192:Drivers/STM32F7xx_HAL_Driver/Src/stm32f7xx_hal_dma_ex.c ****     __HAL_DMA_CLEAR_FLAG (hdma, __HAL_DMA_GET_TE_FLAG_INDEX(hdma));
 1221              		.loc 1 192 5 discriminator 162 view .LVU320
 1222 0668 4FF48063 		mov	r3, #1024
 1223 066c F3E7     		b	.L33
 1224              	.L150:
 192:Drivers/STM32F7xx_HAL_Driver/Src/stm32f7xx_hal_dma_ex.c ****     __HAL_DMA_CLEAR_FLAG (hdma, __HAL_DMA_GET_TE_FLAG_INDEX(hdma));
 1225              		.loc 1 192 5 discriminator 164 view .LVU321
 1226 066e 4FF48063 		mov	r3, #1024
 1227 0672 F0E7     		b	.L33
ARM GAS  C:\Users\frees\AppData\Local\Temp\ccr3Z05i.s 			page 33


 1228              	.L151:
 192:Drivers/STM32F7xx_HAL_Driver/Src/stm32f7xx_hal_dma_ex.c ****     __HAL_DMA_CLEAR_FLAG (hdma, __HAL_DMA_GET_TE_FLAG_INDEX(hdma));
 1229              		.loc 1 192 5 discriminator 166 view .LVU322
 1230 0674 4FF48063 		mov	r3, #1024
 1231 0678 EDE7     		b	.L33
 1232              	.L152:
 192:Drivers/STM32F7xx_HAL_Driver/Src/stm32f7xx_hal_dma_ex.c ****     __HAL_DMA_CLEAR_FLAG (hdma, __HAL_DMA_GET_TE_FLAG_INDEX(hdma));
 1233              		.loc 1 192 5 discriminator 168 view .LVU323
 1234 067a 4FF48063 		mov	r3, #1024
 1235 067e EAE7     		b	.L33
 1236              	.L153:
 192:Drivers/STM32F7xx_HAL_Driver/Src/stm32f7xx_hal_dma_ex.c ****     __HAL_DMA_CLEAR_FLAG (hdma, __HAL_DMA_GET_TE_FLAG_INDEX(hdma));
 1237              		.loc 1 192 5 discriminator 170 view .LVU324
 1238 0680 4FF48013 		mov	r3, #1048576
 1239 0684 E7E7     		b	.L33
 1240              	.L154:
 192:Drivers/STM32F7xx_HAL_Driver/Src/stm32f7xx_hal_dma_ex.c ****     __HAL_DMA_CLEAR_FLAG (hdma, __HAL_DMA_GET_TE_FLAG_INDEX(hdma));
 1241              		.loc 1 192 5 discriminator 172 view .LVU325
 1242 0686 4FF48013 		mov	r3, #1048576
 1243 068a E4E7     		b	.L33
 1244              	.L155:
 192:Drivers/STM32F7xx_HAL_Driver/Src/stm32f7xx_hal_dma_ex.c ****     __HAL_DMA_CLEAR_FLAG (hdma, __HAL_DMA_GET_TE_FLAG_INDEX(hdma));
 1245              		.loc 1 192 5 discriminator 174 view .LVU326
 1246 068c 4FF48013 		mov	r3, #1048576
 1247 0690 E1E7     		b	.L33
 1248              	.L309:
 193:Drivers/STM32F7xx_HAL_Driver/Src/stm32f7xx_hal_dma_ex.c ****     __HAL_DMA_CLEAR_FLAG (hdma, __HAL_DMA_GET_DME_FLAG_INDEX(hdma));
 1249              		.loc 1 193 5 discriminator 25 view .LVU327
 1250 0692 4FF40022 		mov	r2, #524288
 1251 0696 00E0     		b	.L35
 1252              	.L157:
 193:Drivers/STM32F7xx_HAL_Driver/Src/stm32f7xx_hal_dma_ex.c ****     __HAL_DMA_CLEAR_FLAG (hdma, __HAL_DMA_GET_DME_FLAG_INDEX(hdma));
 1253              		.loc 1 193 5 discriminator 4 view .LVU328
 1254 0698 0822     		movs	r2, #8
 1255              	.L35:
 193:Drivers/STM32F7xx_HAL_Driver/Src/stm32f7xx_hal_dma_ex.c ****     __HAL_DMA_CLEAR_FLAG (hdma, __HAL_DMA_GET_DME_FLAG_INDEX(hdma));
 1256              		.loc 1 193 5 discriminator 50 view .LVU329
 1257 069a 884B     		ldr	r3, .L329+8
 1258 069c DA60     		str	r2, [r3, #12]
 1259              	.L36:
 194:Drivers/STM32F7xx_HAL_Driver/Src/stm32f7xx_hal_dma_ex.c ****     __HAL_DMA_CLEAR_FLAG (hdma, __HAL_DMA_GET_FE_FLAG_INDEX(hdma));
 1260              		.loc 1 194 5 is_stmt 1 view .LVU330
 1261 069e 2368     		ldr	r3, [r4]
 1262 06a0 874A     		ldr	r2, .L329+12
 1263 06a2 9342     		cmp	r3, r2
 1264 06a4 40F2CE81 		bls	.L42
 194:Drivers/STM32F7xx_HAL_Driver/Src/stm32f7xx_hal_dma_ex.c ****     __HAL_DMA_CLEAR_FLAG (hdma, __HAL_DMA_GET_FE_FLAG_INDEX(hdma));
 1265              		.loc 1 194 5 is_stmt 0 discriminator 1 view .LVU331
 1266 06a8 A2F58962 		sub	r2, r2, #1096
 1267 06ac 9342     		cmp	r3, r2
 1268 06ae 00F06781 		beq	.L205
 194:Drivers/STM32F7xx_HAL_Driver/Src/stm32f7xx_hal_dma_ex.c ****     __HAL_DMA_CLEAR_FLAG (hdma, __HAL_DMA_GET_FE_FLAG_INDEX(hdma));
 1269              		.loc 1 194 5 discriminator 3 view .LVU332
 1270 06b2 02F58062 		add	r2, r2, #1024
 1271 06b6 9342     		cmp	r3, r2
 1272 06b8 00F0A981 		beq	.L206
 194:Drivers/STM32F7xx_HAL_Driver/Src/stm32f7xx_hal_dma_ex.c ****     __HAL_DMA_CLEAR_FLAG (hdma, __HAL_DMA_GET_FE_FLAG_INDEX(hdma));
ARM GAS  C:\Users\frees\AppData\Local\Temp\ccr3Z05i.s 			page 34


 1273              		.loc 1 194 5 discriminator 5 view .LVU333
 1274 06bc A2F56872 		sub	r2, r2, #928
 1275 06c0 9342     		cmp	r3, r2
 1276 06c2 00F0A681 		beq	.L207
 194:Drivers/STM32F7xx_HAL_Driver/Src/stm32f7xx_hal_dma_ex.c ****     __HAL_DMA_CLEAR_FLAG (hdma, __HAL_DMA_GET_FE_FLAG_INDEX(hdma));
 1277              		.loc 1 194 5 discriminator 7 view .LVU334
 1278 06c6 02F58062 		add	r2, r2, #1024
 1279 06ca 9342     		cmp	r3, r2
 1280 06cc 00F0A381 		beq	.L208
 194:Drivers/STM32F7xx_HAL_Driver/Src/stm32f7xx_hal_dma_ex.c ****     __HAL_DMA_CLEAR_FLAG (hdma, __HAL_DMA_GET_FE_FLAG_INDEX(hdma));
 1281              		.loc 1 194 5 discriminator 9 view .LVU335
 1282 06d0 A2F58962 		sub	r2, r2, #1096
 1283 06d4 9342     		cmp	r3, r2
 1284 06d6 00F0A081 		beq	.L209
 194:Drivers/STM32F7xx_HAL_Driver/Src/stm32f7xx_hal_dma_ex.c ****     __HAL_DMA_CLEAR_FLAG (hdma, __HAL_DMA_GET_FE_FLAG_INDEX(hdma));
 1285              		.loc 1 194 5 discriminator 11 view .LVU336
 1286 06da 02F58062 		add	r2, r2, #1024
 1287 06de 9342     		cmp	r3, r2
 1288 06e0 00F09E81 		beq	.L210
 194:Drivers/STM32F7xx_HAL_Driver/Src/stm32f7xx_hal_dma_ex.c ****     __HAL_DMA_CLEAR_FLAG (hdma, __HAL_DMA_GET_FE_FLAG_INDEX(hdma));
 1289              		.loc 1 194 5 discriminator 13 view .LVU337
 1290 06e4 A2F56872 		sub	r2, r2, #928
 1291 06e8 9342     		cmp	r3, r2
 1292 06ea 00F09C81 		beq	.L211
 194:Drivers/STM32F7xx_HAL_Driver/Src/stm32f7xx_hal_dma_ex.c ****     __HAL_DMA_CLEAR_FLAG (hdma, __HAL_DMA_GET_FE_FLAG_INDEX(hdma));
 1293              		.loc 1 194 5 discriminator 15 view .LVU338
 1294 06ee 02F58062 		add	r2, r2, #1024
 1295 06f2 9342     		cmp	r3, r2
 1296 06f4 00F09A81 		beq	.L212
 194:Drivers/STM32F7xx_HAL_Driver/Src/stm32f7xx_hal_dma_ex.c ****     __HAL_DMA_CLEAR_FLAG (hdma, __HAL_DMA_GET_FE_FLAG_INDEX(hdma));
 1297              		.loc 1 194 5 discriminator 17 view .LVU339
 1298 06f8 A2F58962 		sub	r2, r2, #1096
 1299 06fc 9342     		cmp	r3, r2
 1300 06fe 00F09881 		beq	.L213
 194:Drivers/STM32F7xx_HAL_Driver/Src/stm32f7xx_hal_dma_ex.c ****     __HAL_DMA_CLEAR_FLAG (hdma, __HAL_DMA_GET_FE_FLAG_INDEX(hdma));
 1301              		.loc 1 194 5 discriminator 19 view .LVU340
 1302 0702 02F58062 		add	r2, r2, #1024
 1303 0706 9342     		cmp	r3, r2
 1304 0708 00F09681 		beq	.L214
 194:Drivers/STM32F7xx_HAL_Driver/Src/stm32f7xx_hal_dma_ex.c ****     __HAL_DMA_CLEAR_FLAG (hdma, __HAL_DMA_GET_FE_FLAG_INDEX(hdma));
 1305              		.loc 1 194 5 discriminator 21 view .LVU341
 1306 070c A2F56872 		sub	r2, r2, #928
 1307 0710 9342     		cmp	r3, r2
 1308 0712 00F09481 		beq	.L215
 194:Drivers/STM32F7xx_HAL_Driver/Src/stm32f7xx_hal_dma_ex.c ****     __HAL_DMA_CLEAR_FLAG (hdma, __HAL_DMA_GET_FE_FLAG_INDEX(hdma));
 1309              		.loc 1 194 5 discriminator 23 view .LVU342
 1310 0716 02F58062 		add	r2, r2, #1024
 1311 071a 9342     		cmp	r3, r2
 1312 071c 00F02D81 		beq	.L313
 194:Drivers/STM32F7xx_HAL_Driver/Src/stm32f7xx_hal_dma_ex.c ****     __HAL_DMA_CLEAR_FLAG (hdma, __HAL_DMA_GET_FE_FLAG_INDEX(hdma));
 1313              		.loc 1 194 5 discriminator 26 view .LVU343
 1314 0720 4FF08072 		mov	r2, #16777216
 1315 0724 2DE1     		b	.L43
 1316              	.L158:
 193:Drivers/STM32F7xx_HAL_Driver/Src/stm32f7xx_hal_dma_ex.c ****     __HAL_DMA_CLEAR_FLAG (hdma, __HAL_DMA_GET_DME_FLAG_INDEX(hdma));
 1317              		.loc 1 193 5 discriminator 6 view .LVU344
 1318 0726 0822     		movs	r2, #8
ARM GAS  C:\Users\frees\AppData\Local\Temp\ccr3Z05i.s 			page 35


 1319 0728 B7E7     		b	.L35
 1320              	.L159:
 193:Drivers/STM32F7xx_HAL_Driver/Src/stm32f7xx_hal_dma_ex.c ****     __HAL_DMA_CLEAR_FLAG (hdma, __HAL_DMA_GET_DME_FLAG_INDEX(hdma));
 1321              		.loc 1 193 5 discriminator 8 view .LVU345
 1322 072a 0822     		movs	r2, #8
 1323 072c B5E7     		b	.L35
 1324              	.L160:
 193:Drivers/STM32F7xx_HAL_Driver/Src/stm32f7xx_hal_dma_ex.c ****     __HAL_DMA_CLEAR_FLAG (hdma, __HAL_DMA_GET_DME_FLAG_INDEX(hdma));
 1325              		.loc 1 193 5 discriminator 10 view .LVU346
 1326 072e 0822     		movs	r2, #8
 1327 0730 B3E7     		b	.L35
 1328              	.L161:
 193:Drivers/STM32F7xx_HAL_Driver/Src/stm32f7xx_hal_dma_ex.c ****     __HAL_DMA_CLEAR_FLAG (hdma, __HAL_DMA_GET_DME_FLAG_INDEX(hdma));
 1329              		.loc 1 193 5 discriminator 12 view .LVU347
 1330 0732 4FF40072 		mov	r2, #512
 1331 0736 B0E7     		b	.L35
 1332              	.L162:
 193:Drivers/STM32F7xx_HAL_Driver/Src/stm32f7xx_hal_dma_ex.c ****     __HAL_DMA_CLEAR_FLAG (hdma, __HAL_DMA_GET_DME_FLAG_INDEX(hdma));
 1333              		.loc 1 193 5 discriminator 14 view .LVU348
 1334 0738 4FF40072 		mov	r2, #512
 1335 073c ADE7     		b	.L35
 1336              	.L163:
 193:Drivers/STM32F7xx_HAL_Driver/Src/stm32f7xx_hal_dma_ex.c ****     __HAL_DMA_CLEAR_FLAG (hdma, __HAL_DMA_GET_DME_FLAG_INDEX(hdma));
 1337              		.loc 1 193 5 discriminator 16 view .LVU349
 1338 073e 4FF40072 		mov	r2, #512
 1339 0742 AAE7     		b	.L35
 1340              	.L164:
 193:Drivers/STM32F7xx_HAL_Driver/Src/stm32f7xx_hal_dma_ex.c ****     __HAL_DMA_CLEAR_FLAG (hdma, __HAL_DMA_GET_DME_FLAG_INDEX(hdma));
 1341              		.loc 1 193 5 discriminator 18 view .LVU350
 1342 0744 4FF40072 		mov	r2, #512
 1343 0748 A7E7     		b	.L35
 1344              	.L165:
 193:Drivers/STM32F7xx_HAL_Driver/Src/stm32f7xx_hal_dma_ex.c ****     __HAL_DMA_CLEAR_FLAG (hdma, __HAL_DMA_GET_DME_FLAG_INDEX(hdma));
 1345              		.loc 1 193 5 discriminator 20 view .LVU351
 1346 074a 4FF40022 		mov	r2, #524288
 1347 074e A4E7     		b	.L35
 1348              	.L166:
 193:Drivers/STM32F7xx_HAL_Driver/Src/stm32f7xx_hal_dma_ex.c ****     __HAL_DMA_CLEAR_FLAG (hdma, __HAL_DMA_GET_DME_FLAG_INDEX(hdma));
 1349              		.loc 1 193 5 discriminator 22 view .LVU352
 1350 0750 4FF40022 		mov	r2, #524288
 1351 0754 A1E7     		b	.L35
 1352              	.L167:
 193:Drivers/STM32F7xx_HAL_Driver/Src/stm32f7xx_hal_dma_ex.c ****     __HAL_DMA_CLEAR_FLAG (hdma, __HAL_DMA_GET_DME_FLAG_INDEX(hdma));
 1353              		.loc 1 193 5 discriminator 24 view .LVU353
 1354 0756 4FF40022 		mov	r2, #524288
 1355 075a 9EE7     		b	.L35
 1356              	.L34:
 193:Drivers/STM32F7xx_HAL_Driver/Src/stm32f7xx_hal_dma_ex.c ****     __HAL_DMA_CLEAR_FLAG (hdma, __HAL_DMA_GET_DME_FLAG_INDEX(hdma));
 1357              		.loc 1 193 5 discriminator 2 view .LVU354
 1358 075c 594A     		ldr	r2, .L329+16
 1359 075e 9342     		cmp	r3, r2
 1360 0760 53D9     		bls	.L37
 193:Drivers/STM32F7xx_HAL_Driver/Src/stm32f7xx_hal_dma_ex.c ****     __HAL_DMA_CLEAR_FLAG (hdma, __HAL_DMA_GET_DME_FLAG_INDEX(hdma));
 1361              		.loc 1 193 5 discriminator 51 view .LVU355
 1362 0762 A83A     		subs	r2, r2, #168
 1363 0764 9342     		cmp	r3, r2
 1364 0766 31D0     		beq	.L169
ARM GAS  C:\Users\frees\AppData\Local\Temp\ccr3Z05i.s 			page 36


 193:Drivers/STM32F7xx_HAL_Driver/Src/stm32f7xx_hal_dma_ex.c ****     __HAL_DMA_CLEAR_FLAG (hdma, __HAL_DMA_GET_DME_FLAG_INDEX(hdma));
 1365              		.loc 1 193 5 discriminator 53 view .LVU356
 1366 0768 02F58062 		add	r2, r2, #1024
 1367 076c 9342     		cmp	r3, r2
 1368 076e 31D0     		beq	.L170
 193:Drivers/STM32F7xx_HAL_Driver/Src/stm32f7xx_hal_dma_ex.c ****     __HAL_DMA_CLEAR_FLAG (hdma, __HAL_DMA_GET_DME_FLAG_INDEX(hdma));
 1369              		.loc 1 193 5 discriminator 55 view .LVU357
 1370 0770 A2F56872 		sub	r2, r2, #928
 1371 0774 9342     		cmp	r3, r2
 1372 0776 2FD0     		beq	.L171
 193:Drivers/STM32F7xx_HAL_Driver/Src/stm32f7xx_hal_dma_ex.c ****     __HAL_DMA_CLEAR_FLAG (hdma, __HAL_DMA_GET_DME_FLAG_INDEX(hdma));
 1373              		.loc 1 193 5 discriminator 57 view .LVU358
 1374 0778 02F58062 		add	r2, r2, #1024
 1375 077c 9342     		cmp	r3, r2
 1376 077e 2DD0     		beq	.L172
 193:Drivers/STM32F7xx_HAL_Driver/Src/stm32f7xx_hal_dma_ex.c ****     __HAL_DMA_CLEAR_FLAG (hdma, __HAL_DMA_GET_DME_FLAG_INDEX(hdma));
 1377              		.loc 1 193 5 discriminator 59 view .LVU359
 1378 0780 A2F58962 		sub	r2, r2, #1096
 1379 0784 9342     		cmp	r3, r2
 1380 0786 2BD0     		beq	.L173
 193:Drivers/STM32F7xx_HAL_Driver/Src/stm32f7xx_hal_dma_ex.c ****     __HAL_DMA_CLEAR_FLAG (hdma, __HAL_DMA_GET_DME_FLAG_INDEX(hdma));
 1381              		.loc 1 193 5 discriminator 61 view .LVU360
 1382 0788 02F58062 		add	r2, r2, #1024
 1383 078c 9342     		cmp	r3, r2
 1384 078e 2AD0     		beq	.L174
 193:Drivers/STM32F7xx_HAL_Driver/Src/stm32f7xx_hal_dma_ex.c ****     __HAL_DMA_CLEAR_FLAG (hdma, __HAL_DMA_GET_DME_FLAG_INDEX(hdma));
 1385              		.loc 1 193 5 discriminator 63 view .LVU361
 1386 0790 A2F56872 		sub	r2, r2, #928
 1387 0794 9342     		cmp	r3, r2
 1388 0796 29D0     		beq	.L175
 193:Drivers/STM32F7xx_HAL_Driver/Src/stm32f7xx_hal_dma_ex.c ****     __HAL_DMA_CLEAR_FLAG (hdma, __HAL_DMA_GET_DME_FLAG_INDEX(hdma));
 1389              		.loc 1 193 5 discriminator 65 view .LVU362
 1390 0798 02F58062 		add	r2, r2, #1024
 1391 079c 9342     		cmp	r3, r2
 1392 079e 28D0     		beq	.L176
 193:Drivers/STM32F7xx_HAL_Driver/Src/stm32f7xx_hal_dma_ex.c ****     __HAL_DMA_CLEAR_FLAG (hdma, __HAL_DMA_GET_DME_FLAG_INDEX(hdma));
 1393              		.loc 1 193 5 discriminator 67 view .LVU363
 1394 07a0 A2F58962 		sub	r2, r2, #1096
 1395 07a4 9342     		cmp	r3, r2
 1396 07a6 27D0     		beq	.L177
 193:Drivers/STM32F7xx_HAL_Driver/Src/stm32f7xx_hal_dma_ex.c ****     __HAL_DMA_CLEAR_FLAG (hdma, __HAL_DMA_GET_DME_FLAG_INDEX(hdma));
 1397              		.loc 1 193 5 discriminator 69 view .LVU364
 1398 07a8 02F58062 		add	r2, r2, #1024
 1399 07ac 9342     		cmp	r3, r2
 1400 07ae 26D0     		beq	.L178
 193:Drivers/STM32F7xx_HAL_Driver/Src/stm32f7xx_hal_dma_ex.c ****     __HAL_DMA_CLEAR_FLAG (hdma, __HAL_DMA_GET_DME_FLAG_INDEX(hdma));
 1401              		.loc 1 193 5 discriminator 71 view .LVU365
 1402 07b0 A2F56872 		sub	r2, r2, #928
 1403 07b4 9342     		cmp	r3, r2
 1404 07b6 25D0     		beq	.L179
 193:Drivers/STM32F7xx_HAL_Driver/Src/stm32f7xx_hal_dma_ex.c ****     __HAL_DMA_CLEAR_FLAG (hdma, __HAL_DMA_GET_DME_FLAG_INDEX(hdma));
 1405              		.loc 1 193 5 discriminator 73 view .LVU366
 1406 07b8 02F58062 		add	r2, r2, #1024
 1407 07bc 9342     		cmp	r3, r2
 1408 07be 02D0     		beq	.L314
 193:Drivers/STM32F7xx_HAL_Driver/Src/stm32f7xx_hal_dma_ex.c ****     __HAL_DMA_CLEAR_FLAG (hdma, __HAL_DMA_GET_DME_FLAG_INDEX(hdma));
 1409              		.loc 1 193 5 discriminator 76 view .LVU367
ARM GAS  C:\Users\frees\AppData\Local\Temp\ccr3Z05i.s 			page 37


 1410 07c0 4FF00072 		mov	r2, #33554432
 1411 07c4 03E0     		b	.L38
 1412              	.L314:
 193:Drivers/STM32F7xx_HAL_Driver/Src/stm32f7xx_hal_dma_ex.c ****     __HAL_DMA_CLEAR_FLAG (hdma, __HAL_DMA_GET_DME_FLAG_INDEX(hdma));
 1413              		.loc 1 193 5 discriminator 75 view .LVU368
 1414 07c6 4FF40022 		mov	r2, #524288
 1415 07ca 00E0     		b	.L38
 1416              	.L169:
 193:Drivers/STM32F7xx_HAL_Driver/Src/stm32f7xx_hal_dma_ex.c ****     __HAL_DMA_CLEAR_FLAG (hdma, __HAL_DMA_GET_DME_FLAG_INDEX(hdma));
 1417              		.loc 1 193 5 discriminator 54 view .LVU369
 1418 07cc 0822     		movs	r2, #8
 1419              	.L38:
 193:Drivers/STM32F7xx_HAL_Driver/Src/stm32f7xx_hal_dma_ex.c ****     __HAL_DMA_CLEAR_FLAG (hdma, __HAL_DMA_GET_DME_FLAG_INDEX(hdma));
 1420              		.loc 1 193 5 discriminator 100 view .LVU370
 1421 07ce 3B4B     		ldr	r3, .L329+8
 1422 07d0 9A60     		str	r2, [r3, #8]
 1423 07d2 64E7     		b	.L36
 1424              	.L170:
 193:Drivers/STM32F7xx_HAL_Driver/Src/stm32f7xx_hal_dma_ex.c ****     __HAL_DMA_CLEAR_FLAG (hdma, __HAL_DMA_GET_DME_FLAG_INDEX(hdma));
 1425              		.loc 1 193 5 discriminator 56 view .LVU371
 1426 07d4 0822     		movs	r2, #8
 1427 07d6 FAE7     		b	.L38
 1428              	.L171:
 193:Drivers/STM32F7xx_HAL_Driver/Src/stm32f7xx_hal_dma_ex.c ****     __HAL_DMA_CLEAR_FLAG (hdma, __HAL_DMA_GET_DME_FLAG_INDEX(hdma));
 1429              		.loc 1 193 5 discriminator 58 view .LVU372
 1430 07d8 0822     		movs	r2, #8
 1431 07da F8E7     		b	.L38
 1432              	.L172:
 193:Drivers/STM32F7xx_HAL_Driver/Src/stm32f7xx_hal_dma_ex.c ****     __HAL_DMA_CLEAR_FLAG (hdma, __HAL_DMA_GET_DME_FLAG_INDEX(hdma));
 1433              		.loc 1 193 5 discriminator 60 view .LVU373
 1434 07dc 0822     		movs	r2, #8
 1435 07de F6E7     		b	.L38
 1436              	.L173:
 193:Drivers/STM32F7xx_HAL_Driver/Src/stm32f7xx_hal_dma_ex.c ****     __HAL_DMA_CLEAR_FLAG (hdma, __HAL_DMA_GET_DME_FLAG_INDEX(hdma));
 1437              		.loc 1 193 5 discriminator 62 view .LVU374
 1438 07e0 4FF40072 		mov	r2, #512
 1439 07e4 F3E7     		b	.L38
 1440              	.L174:
 193:Drivers/STM32F7xx_HAL_Driver/Src/stm32f7xx_hal_dma_ex.c ****     __HAL_DMA_CLEAR_FLAG (hdma, __HAL_DMA_GET_DME_FLAG_INDEX(hdma));
 1441              		.loc 1 193 5 discriminator 64 view .LVU375
 1442 07e6 4FF40072 		mov	r2, #512
 1443 07ea F0E7     		b	.L38
 1444              	.L175:
 193:Drivers/STM32F7xx_HAL_Driver/Src/stm32f7xx_hal_dma_ex.c ****     __HAL_DMA_CLEAR_FLAG (hdma, __HAL_DMA_GET_DME_FLAG_INDEX(hdma));
 1445              		.loc 1 193 5 discriminator 66 view .LVU376
 1446 07ec 4FF40072 		mov	r2, #512
 1447 07f0 EDE7     		b	.L38
 1448              	.L176:
 193:Drivers/STM32F7xx_HAL_Driver/Src/stm32f7xx_hal_dma_ex.c ****     __HAL_DMA_CLEAR_FLAG (hdma, __HAL_DMA_GET_DME_FLAG_INDEX(hdma));
 1449              		.loc 1 193 5 discriminator 68 view .LVU377
 1450 07f2 4FF40072 		mov	r2, #512
 1451 07f6 EAE7     		b	.L38
 1452              	.L177:
 193:Drivers/STM32F7xx_HAL_Driver/Src/stm32f7xx_hal_dma_ex.c ****     __HAL_DMA_CLEAR_FLAG (hdma, __HAL_DMA_GET_DME_FLAG_INDEX(hdma));
 1453              		.loc 1 193 5 discriminator 70 view .LVU378
 1454 07f8 4FF40022 		mov	r2, #524288
 1455 07fc E7E7     		b	.L38
ARM GAS  C:\Users\frees\AppData\Local\Temp\ccr3Z05i.s 			page 38


 1456              	.L178:
 193:Drivers/STM32F7xx_HAL_Driver/Src/stm32f7xx_hal_dma_ex.c ****     __HAL_DMA_CLEAR_FLAG (hdma, __HAL_DMA_GET_DME_FLAG_INDEX(hdma));
 1457              		.loc 1 193 5 discriminator 72 view .LVU379
 1458 07fe 4FF40022 		mov	r2, #524288
 1459 0802 E4E7     		b	.L38
 1460              	.L179:
 193:Drivers/STM32F7xx_HAL_Driver/Src/stm32f7xx_hal_dma_ex.c ****     __HAL_DMA_CLEAR_FLAG (hdma, __HAL_DMA_GET_DME_FLAG_INDEX(hdma));
 1461              		.loc 1 193 5 discriminator 74 view .LVU380
 1462 0804 4FF40022 		mov	r2, #524288
 1463 0808 E1E7     		b	.L38
 1464              	.L37:
 193:Drivers/STM32F7xx_HAL_Driver/Src/stm32f7xx_hal_dma_ex.c ****     __HAL_DMA_CLEAR_FLAG (hdma, __HAL_DMA_GET_DME_FLAG_INDEX(hdma));
 1465              		.loc 1 193 5 discriminator 52 view .LVU381
 1466 080a 2F4A     		ldr	r2, .L329+20
 1467 080c 9342     		cmp	r3, r2
 1468 080e 60D9     		bls	.L39
 193:Drivers/STM32F7xx_HAL_Driver/Src/stm32f7xx_hal_dma_ex.c ****     __HAL_DMA_CLEAR_FLAG (hdma, __HAL_DMA_GET_DME_FLAG_INDEX(hdma));
 1469              		.loc 1 193 5 discriminator 102 view .LVU382
 1470 0810 483A     		subs	r2, r2, #72
 1471 0812 9342     		cmp	r3, r2
 1472 0814 31D0     		beq	.L181
 193:Drivers/STM32F7xx_HAL_Driver/Src/stm32f7xx_hal_dma_ex.c ****     __HAL_DMA_CLEAR_FLAG (hdma, __HAL_DMA_GET_DME_FLAG_INDEX(hdma));
 1473              		.loc 1 193 5 discriminator 104 view .LVU383
 1474 0816 02F58062 		add	r2, r2, #1024
 1475 081a 9342     		cmp	r3, r2
 1476 081c 31D0     		beq	.L182
 193:Drivers/STM32F7xx_HAL_Driver/Src/stm32f7xx_hal_dma_ex.c ****     __HAL_DMA_CLEAR_FLAG (hdma, __HAL_DMA_GET_DME_FLAG_INDEX(hdma));
 1477              		.loc 1 193 5 discriminator 106 view .LVU384
 1478 081e A2F56872 		sub	r2, r2, #928
 1479 0822 9342     		cmp	r3, r2
 1480 0824 2FD0     		beq	.L183
 193:Drivers/STM32F7xx_HAL_Driver/Src/stm32f7xx_hal_dma_ex.c ****     __HAL_DMA_CLEAR_FLAG (hdma, __HAL_DMA_GET_DME_FLAG_INDEX(hdma));
 1481              		.loc 1 193 5 discriminator 108 view .LVU385
 1482 0826 02F58062 		add	r2, r2, #1024
 1483 082a 9342     		cmp	r3, r2
 1484 082c 2DD0     		beq	.L184
 193:Drivers/STM32F7xx_HAL_Driver/Src/stm32f7xx_hal_dma_ex.c ****     __HAL_DMA_CLEAR_FLAG (hdma, __HAL_DMA_GET_DME_FLAG_INDEX(hdma));
 1485              		.loc 1 193 5 discriminator 110 view .LVU386
 1486 082e A2F58962 		sub	r2, r2, #1096
 1487 0832 9342     		cmp	r3, r2
 1488 0834 2BD0     		beq	.L185
 193:Drivers/STM32F7xx_HAL_Driver/Src/stm32f7xx_hal_dma_ex.c ****     __HAL_DMA_CLEAR_FLAG (hdma, __HAL_DMA_GET_DME_FLAG_INDEX(hdma));
 1489              		.loc 1 193 5 discriminator 112 view .LVU387
 1490 0836 02F58062 		add	r2, r2, #1024
 1491 083a 9342     		cmp	r3, r2
 1492 083c 2AD0     		beq	.L186
 193:Drivers/STM32F7xx_HAL_Driver/Src/stm32f7xx_hal_dma_ex.c ****     __HAL_DMA_CLEAR_FLAG (hdma, __HAL_DMA_GET_DME_FLAG_INDEX(hdma));
 1493              		.loc 1 193 5 discriminator 114 view .LVU388
 1494 083e A2F56872 		sub	r2, r2, #928
 1495 0842 9342     		cmp	r3, r2
 1496 0844 29D0     		beq	.L187
 193:Drivers/STM32F7xx_HAL_Driver/Src/stm32f7xx_hal_dma_ex.c ****     __HAL_DMA_CLEAR_FLAG (hdma, __HAL_DMA_GET_DME_FLAG_INDEX(hdma));
 1497              		.loc 1 193 5 discriminator 116 view .LVU389
 1498 0846 02F58062 		add	r2, r2, #1024
 1499 084a 9342     		cmp	r3, r2
 1500 084c 28D0     		beq	.L188
 193:Drivers/STM32F7xx_HAL_Driver/Src/stm32f7xx_hal_dma_ex.c ****     __HAL_DMA_CLEAR_FLAG (hdma, __HAL_DMA_GET_DME_FLAG_INDEX(hdma));
ARM GAS  C:\Users\frees\AppData\Local\Temp\ccr3Z05i.s 			page 39


 1501              		.loc 1 193 5 discriminator 118 view .LVU390
 1502 084e A2F58962 		sub	r2, r2, #1096
 1503 0852 9342     		cmp	r3, r2
 1504 0854 27D0     		beq	.L189
 193:Drivers/STM32F7xx_HAL_Driver/Src/stm32f7xx_hal_dma_ex.c ****     __HAL_DMA_CLEAR_FLAG (hdma, __HAL_DMA_GET_DME_FLAG_INDEX(hdma));
 1505              		.loc 1 193 5 discriminator 120 view .LVU391
 1506 0856 02F58062 		add	r2, r2, #1024
 1507 085a 9342     		cmp	r3, r2
 1508 085c 26D0     		beq	.L190
 193:Drivers/STM32F7xx_HAL_Driver/Src/stm32f7xx_hal_dma_ex.c ****     __HAL_DMA_CLEAR_FLAG (hdma, __HAL_DMA_GET_DME_FLAG_INDEX(hdma));
 1509              		.loc 1 193 5 discriminator 122 view .LVU392
 1510 085e A2F56872 		sub	r2, r2, #928
 1511 0862 9342     		cmp	r3, r2
 1512 0864 32D0     		beq	.L191
 193:Drivers/STM32F7xx_HAL_Driver/Src/stm32f7xx_hal_dma_ex.c ****     __HAL_DMA_CLEAR_FLAG (hdma, __HAL_DMA_GET_DME_FLAG_INDEX(hdma));
 1513              		.loc 1 193 5 discriminator 124 view .LVU393
 1514 0866 02F58062 		add	r2, r2, #1024
 1515 086a 9342     		cmp	r3, r2
 1516 086c 02D0     		beq	.L315
 193:Drivers/STM32F7xx_HAL_Driver/Src/stm32f7xx_hal_dma_ex.c ****     __HAL_DMA_CLEAR_FLAG (hdma, __HAL_DMA_GET_DME_FLAG_INDEX(hdma));
 1517              		.loc 1 193 5 discriminator 127 view .LVU394
 1518 086e 4FF00073 		mov	r3, #33554432
 1519 0872 03E0     		b	.L40
 1520              	.L315:
 193:Drivers/STM32F7xx_HAL_Driver/Src/stm32f7xx_hal_dma_ex.c ****     __HAL_DMA_CLEAR_FLAG (hdma, __HAL_DMA_GET_DME_FLAG_INDEX(hdma));
 1521              		.loc 1 193 5 discriminator 126 view .LVU395
 1522 0874 4FF40023 		mov	r3, #524288
 1523 0878 00E0     		b	.L40
 1524              	.L181:
 193:Drivers/STM32F7xx_HAL_Driver/Src/stm32f7xx_hal_dma_ex.c ****     __HAL_DMA_CLEAR_FLAG (hdma, __HAL_DMA_GET_DME_FLAG_INDEX(hdma));
 1525              		.loc 1 193 5 discriminator 105 view .LVU396
 1526 087a 0823     		movs	r3, #8
 1527              	.L40:
 193:Drivers/STM32F7xx_HAL_Driver/Src/stm32f7xx_hal_dma_ex.c ****     __HAL_DMA_CLEAR_FLAG (hdma, __HAL_DMA_GET_DME_FLAG_INDEX(hdma));
 1528              		.loc 1 193 5 discriminator 151 view .LVU397
 1529 087c 0E4A     		ldr	r2, .L329+4
 1530 087e D360     		str	r3, [r2, #12]
 1531 0880 0DE7     		b	.L36
 1532              	.L182:
 193:Drivers/STM32F7xx_HAL_Driver/Src/stm32f7xx_hal_dma_ex.c ****     __HAL_DMA_CLEAR_FLAG (hdma, __HAL_DMA_GET_DME_FLAG_INDEX(hdma));
 1533              		.loc 1 193 5 discriminator 107 view .LVU398
 1534 0882 0823     		movs	r3, #8
 1535 0884 FAE7     		b	.L40
 1536              	.L183:
 193:Drivers/STM32F7xx_HAL_Driver/Src/stm32f7xx_hal_dma_ex.c ****     __HAL_DMA_CLEAR_FLAG (hdma, __HAL_DMA_GET_DME_FLAG_INDEX(hdma));
 1537              		.loc 1 193 5 discriminator 109 view .LVU399
 1538 0886 0823     		movs	r3, #8
 1539 0888 F8E7     		b	.L40
 1540              	.L184:
 193:Drivers/STM32F7xx_HAL_Driver/Src/stm32f7xx_hal_dma_ex.c ****     __HAL_DMA_CLEAR_FLAG (hdma, __HAL_DMA_GET_DME_FLAG_INDEX(hdma));
 1541              		.loc 1 193 5 discriminator 111 view .LVU400
 1542 088a 0823     		movs	r3, #8
 1543 088c F6E7     		b	.L40
 1544              	.L185:
 193:Drivers/STM32F7xx_HAL_Driver/Src/stm32f7xx_hal_dma_ex.c ****     __HAL_DMA_CLEAR_FLAG (hdma, __HAL_DMA_GET_DME_FLAG_INDEX(hdma));
 1545              		.loc 1 193 5 discriminator 113 view .LVU401
 1546 088e 4FF40073 		mov	r3, #512
ARM GAS  C:\Users\frees\AppData\Local\Temp\ccr3Z05i.s 			page 40


 1547 0892 F3E7     		b	.L40
 1548              	.L186:
 193:Drivers/STM32F7xx_HAL_Driver/Src/stm32f7xx_hal_dma_ex.c ****     __HAL_DMA_CLEAR_FLAG (hdma, __HAL_DMA_GET_DME_FLAG_INDEX(hdma));
 1549              		.loc 1 193 5 discriminator 115 view .LVU402
 1550 0894 4FF40073 		mov	r3, #512
 1551 0898 F0E7     		b	.L40
 1552              	.L187:
 193:Drivers/STM32F7xx_HAL_Driver/Src/stm32f7xx_hal_dma_ex.c ****     __HAL_DMA_CLEAR_FLAG (hdma, __HAL_DMA_GET_DME_FLAG_INDEX(hdma));
 1553              		.loc 1 193 5 discriminator 117 view .LVU403
 1554 089a 4FF40073 		mov	r3, #512
 1555 089e EDE7     		b	.L40
 1556              	.L188:
 193:Drivers/STM32F7xx_HAL_Driver/Src/stm32f7xx_hal_dma_ex.c ****     __HAL_DMA_CLEAR_FLAG (hdma, __HAL_DMA_GET_DME_FLAG_INDEX(hdma));
 1557              		.loc 1 193 5 discriminator 119 view .LVU404
 1558 08a0 4FF40073 		mov	r3, #512
 1559 08a4 EAE7     		b	.L40
 1560              	.L189:
 193:Drivers/STM32F7xx_HAL_Driver/Src/stm32f7xx_hal_dma_ex.c ****     __HAL_DMA_CLEAR_FLAG (hdma, __HAL_DMA_GET_DME_FLAG_INDEX(hdma));
 1561              		.loc 1 193 5 discriminator 121 view .LVU405
 1562 08a6 4FF40023 		mov	r3, #524288
 1563 08aa E7E7     		b	.L40
 1564              	.L190:
 193:Drivers/STM32F7xx_HAL_Driver/Src/stm32f7xx_hal_dma_ex.c ****     __HAL_DMA_CLEAR_FLAG (hdma, __HAL_DMA_GET_DME_FLAG_INDEX(hdma));
 1565              		.loc 1 193 5 discriminator 123 view .LVU406
 1566 08ac 4FF40023 		mov	r3, #524288
 1567 08b0 E4E7     		b	.L40
 1568              	.L330:
 1569 08b2 00BF     		.align	2
 1570              	.L329:
 1571 08b4 10600240 		.word	1073897488
 1572 08b8 00600240 		.word	1073897472
 1573 08bc 00640240 		.word	1073898496
 1574 08c0 58640240 		.word	1073898584
 1575 08c4 B8600240 		.word	1073897656
 1576 08c8 58600240 		.word	1073897560
 1577              	.L191:
 193:Drivers/STM32F7xx_HAL_Driver/Src/stm32f7xx_hal_dma_ex.c ****     __HAL_DMA_CLEAR_FLAG (hdma, __HAL_DMA_GET_DME_FLAG_INDEX(hdma));
 1578              		.loc 1 193 5 discriminator 125 view .LVU407
 1579 08cc 4FF40023 		mov	r3, #524288
 1580 08d0 D4E7     		b	.L40
 1581              	.L39:
 193:Drivers/STM32F7xx_HAL_Driver/Src/stm32f7xx_hal_dma_ex.c ****     __HAL_DMA_CLEAR_FLAG (hdma, __HAL_DMA_GET_DME_FLAG_INDEX(hdma));
 1582              		.loc 1 193 5 discriminator 103 view .LVU408
 1583 08d2 B24A     		ldr	r2, .L331
 1584 08d4 9342     		cmp	r3, r2
 1585 08d6 31D0     		beq	.L193
 193:Drivers/STM32F7xx_HAL_Driver/Src/stm32f7xx_hal_dma_ex.c ****     __HAL_DMA_CLEAR_FLAG (hdma, __HAL_DMA_GET_DME_FLAG_INDEX(hdma));
 1586              		.loc 1 193 5 discriminator 153 view .LVU409
 1587 08d8 02F58062 		add	r2, r2, #1024
 1588 08dc 9342     		cmp	r3, r2
 1589 08de 31D0     		beq	.L194
 193:Drivers/STM32F7xx_HAL_Driver/Src/stm32f7xx_hal_dma_ex.c ****     __HAL_DMA_CLEAR_FLAG (hdma, __HAL_DMA_GET_DME_FLAG_INDEX(hdma));
 1590              		.loc 1 193 5 discriminator 155 view .LVU410
 1591 08e0 A2F56872 		sub	r2, r2, #928
 1592 08e4 9342     		cmp	r3, r2
 1593 08e6 2FD0     		beq	.L195
 193:Drivers/STM32F7xx_HAL_Driver/Src/stm32f7xx_hal_dma_ex.c ****     __HAL_DMA_CLEAR_FLAG (hdma, __HAL_DMA_GET_DME_FLAG_INDEX(hdma));
ARM GAS  C:\Users\frees\AppData\Local\Temp\ccr3Z05i.s 			page 41


 1594              		.loc 1 193 5 discriminator 157 view .LVU411
 1595 08e8 02F58062 		add	r2, r2, #1024
 1596 08ec 9342     		cmp	r3, r2
 1597 08ee 2DD0     		beq	.L196
 193:Drivers/STM32F7xx_HAL_Driver/Src/stm32f7xx_hal_dma_ex.c ****     __HAL_DMA_CLEAR_FLAG (hdma, __HAL_DMA_GET_DME_FLAG_INDEX(hdma));
 1598              		.loc 1 193 5 discriminator 159 view .LVU412
 1599 08f0 A2F58962 		sub	r2, r2, #1096
 1600 08f4 9342     		cmp	r3, r2
 1601 08f6 2BD0     		beq	.L197
 193:Drivers/STM32F7xx_HAL_Driver/Src/stm32f7xx_hal_dma_ex.c ****     __HAL_DMA_CLEAR_FLAG (hdma, __HAL_DMA_GET_DME_FLAG_INDEX(hdma));
 1602              		.loc 1 193 5 discriminator 161 view .LVU413
 1603 08f8 02F58062 		add	r2, r2, #1024
 1604 08fc 9342     		cmp	r3, r2
 1605 08fe 2AD0     		beq	.L198
 193:Drivers/STM32F7xx_HAL_Driver/Src/stm32f7xx_hal_dma_ex.c ****     __HAL_DMA_CLEAR_FLAG (hdma, __HAL_DMA_GET_DME_FLAG_INDEX(hdma));
 1606              		.loc 1 193 5 discriminator 163 view .LVU414
 1607 0900 A2F56872 		sub	r2, r2, #928
 1608 0904 9342     		cmp	r3, r2
 1609 0906 29D0     		beq	.L199
 193:Drivers/STM32F7xx_HAL_Driver/Src/stm32f7xx_hal_dma_ex.c ****     __HAL_DMA_CLEAR_FLAG (hdma, __HAL_DMA_GET_DME_FLAG_INDEX(hdma));
 1610              		.loc 1 193 5 discriminator 165 view .LVU415
 1611 0908 02F58062 		add	r2, r2, #1024
 1612 090c 9342     		cmp	r3, r2
 1613 090e 28D0     		beq	.L200
 193:Drivers/STM32F7xx_HAL_Driver/Src/stm32f7xx_hal_dma_ex.c ****     __HAL_DMA_CLEAR_FLAG (hdma, __HAL_DMA_GET_DME_FLAG_INDEX(hdma));
 1614              		.loc 1 193 5 discriminator 167 view .LVU416
 1615 0910 A2F58962 		sub	r2, r2, #1096
 1616 0914 9342     		cmp	r3, r2
 1617 0916 27D0     		beq	.L201
 193:Drivers/STM32F7xx_HAL_Driver/Src/stm32f7xx_hal_dma_ex.c ****     __HAL_DMA_CLEAR_FLAG (hdma, __HAL_DMA_GET_DME_FLAG_INDEX(hdma));
 1618              		.loc 1 193 5 discriminator 169 view .LVU417
 1619 0918 02F58062 		add	r2, r2, #1024
 1620 091c 9342     		cmp	r3, r2
 1621 091e 26D0     		beq	.L202
 193:Drivers/STM32F7xx_HAL_Driver/Src/stm32f7xx_hal_dma_ex.c ****     __HAL_DMA_CLEAR_FLAG (hdma, __HAL_DMA_GET_DME_FLAG_INDEX(hdma));
 1622              		.loc 1 193 5 discriminator 171 view .LVU418
 1623 0920 A2F56872 		sub	r2, r2, #928
 1624 0924 9342     		cmp	r3, r2
 1625 0926 25D0     		beq	.L203
 193:Drivers/STM32F7xx_HAL_Driver/Src/stm32f7xx_hal_dma_ex.c ****     __HAL_DMA_CLEAR_FLAG (hdma, __HAL_DMA_GET_DME_FLAG_INDEX(hdma));
 1626              		.loc 1 193 5 discriminator 173 view .LVU419
 1627 0928 02F58062 		add	r2, r2, #1024
 1628 092c 9342     		cmp	r3, r2
 1629 092e 02D0     		beq	.L316
 193:Drivers/STM32F7xx_HAL_Driver/Src/stm32f7xx_hal_dma_ex.c ****     __HAL_DMA_CLEAR_FLAG (hdma, __HAL_DMA_GET_DME_FLAG_INDEX(hdma));
 1630              		.loc 1 193 5 discriminator 176 view .LVU420
 1631 0930 4FF00073 		mov	r3, #33554432
 1632 0934 03E0     		b	.L41
 1633              	.L316:
 193:Drivers/STM32F7xx_HAL_Driver/Src/stm32f7xx_hal_dma_ex.c ****     __HAL_DMA_CLEAR_FLAG (hdma, __HAL_DMA_GET_DME_FLAG_INDEX(hdma));
 1634              		.loc 1 193 5 discriminator 175 view .LVU421
 1635 0936 4FF40023 		mov	r3, #524288
 1636 093a 00E0     		b	.L41
 1637              	.L193:
 193:Drivers/STM32F7xx_HAL_Driver/Src/stm32f7xx_hal_dma_ex.c ****     __HAL_DMA_CLEAR_FLAG (hdma, __HAL_DMA_GET_DME_FLAG_INDEX(hdma));
 1638              		.loc 1 193 5 discriminator 154 view .LVU422
 1639 093c 0823     		movs	r3, #8
ARM GAS  C:\Users\frees\AppData\Local\Temp\ccr3Z05i.s 			page 42


 1640              	.L41:
 193:Drivers/STM32F7xx_HAL_Driver/Src/stm32f7xx_hal_dma_ex.c ****     __HAL_DMA_CLEAR_FLAG (hdma, __HAL_DMA_GET_DME_FLAG_INDEX(hdma));
 1641              		.loc 1 193 5 discriminator 200 view .LVU423
 1642 093e 984A     		ldr	r2, .L331+4
 1643 0940 9360     		str	r3, [r2, #8]
 1644 0942 ACE6     		b	.L36
 1645              	.L194:
 193:Drivers/STM32F7xx_HAL_Driver/Src/stm32f7xx_hal_dma_ex.c ****     __HAL_DMA_CLEAR_FLAG (hdma, __HAL_DMA_GET_DME_FLAG_INDEX(hdma));
 1646              		.loc 1 193 5 discriminator 156 view .LVU424
 1647 0944 0823     		movs	r3, #8
 1648 0946 FAE7     		b	.L41
 1649              	.L195:
 193:Drivers/STM32F7xx_HAL_Driver/Src/stm32f7xx_hal_dma_ex.c ****     __HAL_DMA_CLEAR_FLAG (hdma, __HAL_DMA_GET_DME_FLAG_INDEX(hdma));
 1650              		.loc 1 193 5 discriminator 158 view .LVU425
 1651 0948 0823     		movs	r3, #8
 1652 094a F8E7     		b	.L41
 1653              	.L196:
 193:Drivers/STM32F7xx_HAL_Driver/Src/stm32f7xx_hal_dma_ex.c ****     __HAL_DMA_CLEAR_FLAG (hdma, __HAL_DMA_GET_DME_FLAG_INDEX(hdma));
 1654              		.loc 1 193 5 discriminator 160 view .LVU426
 1655 094c 0823     		movs	r3, #8
 1656 094e F6E7     		b	.L41
 1657              	.L197:
 193:Drivers/STM32F7xx_HAL_Driver/Src/stm32f7xx_hal_dma_ex.c ****     __HAL_DMA_CLEAR_FLAG (hdma, __HAL_DMA_GET_DME_FLAG_INDEX(hdma));
 1658              		.loc 1 193 5 discriminator 162 view .LVU427
 1659 0950 4FF40073 		mov	r3, #512
 1660 0954 F3E7     		b	.L41
 1661              	.L198:
 193:Drivers/STM32F7xx_HAL_Driver/Src/stm32f7xx_hal_dma_ex.c ****     __HAL_DMA_CLEAR_FLAG (hdma, __HAL_DMA_GET_DME_FLAG_INDEX(hdma));
 1662              		.loc 1 193 5 discriminator 164 view .LVU428
 1663 0956 4FF40073 		mov	r3, #512
 1664 095a F0E7     		b	.L41
 1665              	.L199:
 193:Drivers/STM32F7xx_HAL_Driver/Src/stm32f7xx_hal_dma_ex.c ****     __HAL_DMA_CLEAR_FLAG (hdma, __HAL_DMA_GET_DME_FLAG_INDEX(hdma));
 1666              		.loc 1 193 5 discriminator 166 view .LVU429
 1667 095c 4FF40073 		mov	r3, #512
 1668 0960 EDE7     		b	.L41
 1669              	.L200:
 193:Drivers/STM32F7xx_HAL_Driver/Src/stm32f7xx_hal_dma_ex.c ****     __HAL_DMA_CLEAR_FLAG (hdma, __HAL_DMA_GET_DME_FLAG_INDEX(hdma));
 1670              		.loc 1 193 5 discriminator 168 view .LVU430
 1671 0962 4FF40073 		mov	r3, #512
 1672 0966 EAE7     		b	.L41
 1673              	.L201:
 193:Drivers/STM32F7xx_HAL_Driver/Src/stm32f7xx_hal_dma_ex.c ****     __HAL_DMA_CLEAR_FLAG (hdma, __HAL_DMA_GET_DME_FLAG_INDEX(hdma));
 1674              		.loc 1 193 5 discriminator 170 view .LVU431
 1675 0968 4FF40023 		mov	r3, #524288
 1676 096c E7E7     		b	.L41
 1677              	.L202:
 193:Drivers/STM32F7xx_HAL_Driver/Src/stm32f7xx_hal_dma_ex.c ****     __HAL_DMA_CLEAR_FLAG (hdma, __HAL_DMA_GET_DME_FLAG_INDEX(hdma));
 1678              		.loc 1 193 5 discriminator 172 view .LVU432
 1679 096e 4FF40023 		mov	r3, #524288
 1680 0972 E4E7     		b	.L41
 1681              	.L203:
 193:Drivers/STM32F7xx_HAL_Driver/Src/stm32f7xx_hal_dma_ex.c ****     __HAL_DMA_CLEAR_FLAG (hdma, __HAL_DMA_GET_DME_FLAG_INDEX(hdma));
 1682              		.loc 1 193 5 discriminator 174 view .LVU433
 1683 0974 4FF40023 		mov	r3, #524288
 1684 0978 E1E7     		b	.L41
 1685              	.L313:
ARM GAS  C:\Users\frees\AppData\Local\Temp\ccr3Z05i.s 			page 43


 194:Drivers/STM32F7xx_HAL_Driver/Src/stm32f7xx_hal_dma_ex.c ****     __HAL_DMA_CLEAR_FLAG (hdma, __HAL_DMA_GET_FE_FLAG_INDEX(hdma));
 1686              		.loc 1 194 5 discriminator 25 view .LVU434
 1687 097a 4FF48022 		mov	r2, #262144
 1688 097e 00E0     		b	.L43
 1689              	.L205:
 194:Drivers/STM32F7xx_HAL_Driver/Src/stm32f7xx_hal_dma_ex.c ****     __HAL_DMA_CLEAR_FLAG (hdma, __HAL_DMA_GET_FE_FLAG_INDEX(hdma));
 1690              		.loc 1 194 5 discriminator 4 view .LVU435
 1691 0980 0422     		movs	r2, #4
 1692              	.L43:
 194:Drivers/STM32F7xx_HAL_Driver/Src/stm32f7xx_hal_dma_ex.c ****     __HAL_DMA_CLEAR_FLAG (hdma, __HAL_DMA_GET_FE_FLAG_INDEX(hdma));
 1693              		.loc 1 194 5 discriminator 50 view .LVU436
 1694 0982 884B     		ldr	r3, .L331+8
 1695 0984 DA60     		str	r2, [r3, #12]
 1696              	.L44:
 195:Drivers/STM32F7xx_HAL_Driver/Src/stm32f7xx_hal_dma_ex.c ****     
 1697              		.loc 1 195 5 is_stmt 1 view .LVU437
 1698 0986 2368     		ldr	r3, [r4]
 1699 0988 874A     		ldr	r2, .L331+12
 1700 098a 9342     		cmp	r3, r2
 1701 098c 40F2A181 		bls	.L50
 195:Drivers/STM32F7xx_HAL_Driver/Src/stm32f7xx_hal_dma_ex.c ****     
 1702              		.loc 1 195 5 is_stmt 0 discriminator 1 view .LVU438
 1703 0990 A2F58962 		sub	r2, r2, #1096
 1704 0994 9342     		cmp	r3, r2
 1705 0996 00F06781 		beq	.L253
 195:Drivers/STM32F7xx_HAL_Driver/Src/stm32f7xx_hal_dma_ex.c ****     
 1706              		.loc 1 195 5 discriminator 3 view .LVU439
 1707 099a 02F58062 		add	r2, r2, #1024
 1708 099e 9342     		cmp	r3, r2
 1709 09a0 00F08081 		beq	.L254
 195:Drivers/STM32F7xx_HAL_Driver/Src/stm32f7xx_hal_dma_ex.c ****     
 1710              		.loc 1 195 5 discriminator 5 view .LVU440
 1711 09a4 A2F56872 		sub	r2, r2, #928
 1712 09a8 9342     		cmp	r3, r2
 1713 09aa 00F07D81 		beq	.L255
 195:Drivers/STM32F7xx_HAL_Driver/Src/stm32f7xx_hal_dma_ex.c ****     
 1714              		.loc 1 195 5 discriminator 7 view .LVU441
 1715 09ae 02F58062 		add	r2, r2, #1024
 1716 09b2 9342     		cmp	r3, r2
 1717 09b4 00F07A81 		beq	.L256
 195:Drivers/STM32F7xx_HAL_Driver/Src/stm32f7xx_hal_dma_ex.c ****     
 1718              		.loc 1 195 5 discriminator 9 view .LVU442
 1719 09b8 A2F58962 		sub	r2, r2, #1096
 1720 09bc 9342     		cmp	r3, r2
 1721 09be 00F07781 		beq	.L257
 195:Drivers/STM32F7xx_HAL_Driver/Src/stm32f7xx_hal_dma_ex.c ****     
 1722              		.loc 1 195 5 discriminator 11 view .LVU443
 1723 09c2 02F58062 		add	r2, r2, #1024
 1724 09c6 9342     		cmp	r3, r2
 1725 09c8 00F07481 		beq	.L258
 195:Drivers/STM32F7xx_HAL_Driver/Src/stm32f7xx_hal_dma_ex.c ****     
 1726              		.loc 1 195 5 discriminator 13 view .LVU444
 1727 09cc A2F56872 		sub	r2, r2, #928
 1728 09d0 9342     		cmp	r3, r2
 1729 09d2 00F07181 		beq	.L259
 195:Drivers/STM32F7xx_HAL_Driver/Src/stm32f7xx_hal_dma_ex.c ****     
 1730              		.loc 1 195 5 discriminator 15 view .LVU445
ARM GAS  C:\Users\frees\AppData\Local\Temp\ccr3Z05i.s 			page 44


 1731 09d6 02F58062 		add	r2, r2, #1024
 1732 09da 9342     		cmp	r3, r2
 1733 09dc 00F06E81 		beq	.L260
 195:Drivers/STM32F7xx_HAL_Driver/Src/stm32f7xx_hal_dma_ex.c ****     
 1734              		.loc 1 195 5 discriminator 17 view .LVU446
 1735 09e0 A2F58962 		sub	r2, r2, #1096
 1736 09e4 9342     		cmp	r3, r2
 1737 09e6 00F06B81 		beq	.L261
 195:Drivers/STM32F7xx_HAL_Driver/Src/stm32f7xx_hal_dma_ex.c ****     
 1738              		.loc 1 195 5 discriminator 19 view .LVU447
 1739 09ea 02F58062 		add	r2, r2, #1024
 1740 09ee 9342     		cmp	r3, r2
 1741 09f0 00F06981 		beq	.L262
 195:Drivers/STM32F7xx_HAL_Driver/Src/stm32f7xx_hal_dma_ex.c ****     
 1742              		.loc 1 195 5 discriminator 21 view .LVU448
 1743 09f4 A2F56872 		sub	r2, r2, #928
 1744 09f8 9342     		cmp	r3, r2
 1745 09fa 00F06781 		beq	.L263
 195:Drivers/STM32F7xx_HAL_Driver/Src/stm32f7xx_hal_dma_ex.c ****     
 1746              		.loc 1 195 5 discriminator 23 view .LVU449
 1747 09fe 02F58062 		add	r2, r2, #1024
 1748 0a02 9342     		cmp	r3, r2
 1749 0a04 00F02D81 		beq	.L317
 195:Drivers/STM32F7xx_HAL_Driver/Src/stm32f7xx_hal_dma_ex.c ****     
 1750              		.loc 1 195 5 discriminator 26 view .LVU450
 1751 0a08 4FF48002 		mov	r2, #4194304
 1752 0a0c 2DE1     		b	.L51
 1753              	.L206:
 194:Drivers/STM32F7xx_HAL_Driver/Src/stm32f7xx_hal_dma_ex.c ****     __HAL_DMA_CLEAR_FLAG (hdma, __HAL_DMA_GET_FE_FLAG_INDEX(hdma));
 1754              		.loc 1 194 5 discriminator 6 view .LVU451
 1755 0a0e 0422     		movs	r2, #4
 1756 0a10 B7E7     		b	.L43
 1757              	.L207:
 194:Drivers/STM32F7xx_HAL_Driver/Src/stm32f7xx_hal_dma_ex.c ****     __HAL_DMA_CLEAR_FLAG (hdma, __HAL_DMA_GET_FE_FLAG_INDEX(hdma));
 1758              		.loc 1 194 5 discriminator 8 view .LVU452
 1759 0a12 0422     		movs	r2, #4
 1760 0a14 B5E7     		b	.L43
 1761              	.L208:
 194:Drivers/STM32F7xx_HAL_Driver/Src/stm32f7xx_hal_dma_ex.c ****     __HAL_DMA_CLEAR_FLAG (hdma, __HAL_DMA_GET_FE_FLAG_INDEX(hdma));
 1762              		.loc 1 194 5 discriminator 10 view .LVU453
 1763 0a16 0422     		movs	r2, #4
 1764 0a18 B3E7     		b	.L43
 1765              	.L209:
 194:Drivers/STM32F7xx_HAL_Driver/Src/stm32f7xx_hal_dma_ex.c ****     __HAL_DMA_CLEAR_FLAG (hdma, __HAL_DMA_GET_FE_FLAG_INDEX(hdma));
 1766              		.loc 1 194 5 discriminator 12 view .LVU454
 1767 0a1a 4FF48072 		mov	r2, #256
 1768 0a1e B0E7     		b	.L43
 1769              	.L210:
 194:Drivers/STM32F7xx_HAL_Driver/Src/stm32f7xx_hal_dma_ex.c ****     __HAL_DMA_CLEAR_FLAG (hdma, __HAL_DMA_GET_FE_FLAG_INDEX(hdma));
 1770              		.loc 1 194 5 discriminator 14 view .LVU455
 1771 0a20 4FF48072 		mov	r2, #256
 1772 0a24 ADE7     		b	.L43
 1773              	.L211:
 194:Drivers/STM32F7xx_HAL_Driver/Src/stm32f7xx_hal_dma_ex.c ****     __HAL_DMA_CLEAR_FLAG (hdma, __HAL_DMA_GET_FE_FLAG_INDEX(hdma));
 1774              		.loc 1 194 5 discriminator 16 view .LVU456
 1775 0a26 4FF48072 		mov	r2, #256
 1776 0a2a AAE7     		b	.L43
ARM GAS  C:\Users\frees\AppData\Local\Temp\ccr3Z05i.s 			page 45


 1777              	.L212:
 194:Drivers/STM32F7xx_HAL_Driver/Src/stm32f7xx_hal_dma_ex.c ****     __HAL_DMA_CLEAR_FLAG (hdma, __HAL_DMA_GET_FE_FLAG_INDEX(hdma));
 1778              		.loc 1 194 5 discriminator 18 view .LVU457
 1779 0a2c 4FF48072 		mov	r2, #256
 1780 0a30 A7E7     		b	.L43
 1781              	.L213:
 194:Drivers/STM32F7xx_HAL_Driver/Src/stm32f7xx_hal_dma_ex.c ****     __HAL_DMA_CLEAR_FLAG (hdma, __HAL_DMA_GET_FE_FLAG_INDEX(hdma));
 1782              		.loc 1 194 5 discriminator 20 view .LVU458
 1783 0a32 4FF48022 		mov	r2, #262144
 1784 0a36 A4E7     		b	.L43
 1785              	.L214:
 194:Drivers/STM32F7xx_HAL_Driver/Src/stm32f7xx_hal_dma_ex.c ****     __HAL_DMA_CLEAR_FLAG (hdma, __HAL_DMA_GET_FE_FLAG_INDEX(hdma));
 1786              		.loc 1 194 5 discriminator 22 view .LVU459
 1787 0a38 4FF48022 		mov	r2, #262144
 1788 0a3c A1E7     		b	.L43
 1789              	.L215:
 194:Drivers/STM32F7xx_HAL_Driver/Src/stm32f7xx_hal_dma_ex.c ****     __HAL_DMA_CLEAR_FLAG (hdma, __HAL_DMA_GET_FE_FLAG_INDEX(hdma));
 1790              		.loc 1 194 5 discriminator 24 view .LVU460
 1791 0a3e 4FF48022 		mov	r2, #262144
 1792 0a42 9EE7     		b	.L43
 1793              	.L42:
 194:Drivers/STM32F7xx_HAL_Driver/Src/stm32f7xx_hal_dma_ex.c ****     __HAL_DMA_CLEAR_FLAG (hdma, __HAL_DMA_GET_FE_FLAG_INDEX(hdma));
 1794              		.loc 1 194 5 discriminator 2 view .LVU461
 1795 0a44 594A     		ldr	r2, .L331+16
 1796 0a46 9342     		cmp	r3, r2
 1797 0a48 53D9     		bls	.L45
 194:Drivers/STM32F7xx_HAL_Driver/Src/stm32f7xx_hal_dma_ex.c ****     __HAL_DMA_CLEAR_FLAG (hdma, __HAL_DMA_GET_FE_FLAG_INDEX(hdma));
 1798              		.loc 1 194 5 discriminator 51 view .LVU462
 1799 0a4a A83A     		subs	r2, r2, #168
 1800 0a4c 9342     		cmp	r3, r2
 1801 0a4e 31D0     		beq	.L217
 194:Drivers/STM32F7xx_HAL_Driver/Src/stm32f7xx_hal_dma_ex.c ****     __HAL_DMA_CLEAR_FLAG (hdma, __HAL_DMA_GET_FE_FLAG_INDEX(hdma));
 1802              		.loc 1 194 5 discriminator 53 view .LVU463
 1803 0a50 02F58062 		add	r2, r2, #1024
 1804 0a54 9342     		cmp	r3, r2
 1805 0a56 31D0     		beq	.L218
 194:Drivers/STM32F7xx_HAL_Driver/Src/stm32f7xx_hal_dma_ex.c ****     __HAL_DMA_CLEAR_FLAG (hdma, __HAL_DMA_GET_FE_FLAG_INDEX(hdma));
 1806              		.loc 1 194 5 discriminator 55 view .LVU464
 1807 0a58 A2F56872 		sub	r2, r2, #928
 1808 0a5c 9342     		cmp	r3, r2
 1809 0a5e 2FD0     		beq	.L219
 194:Drivers/STM32F7xx_HAL_Driver/Src/stm32f7xx_hal_dma_ex.c ****     __HAL_DMA_CLEAR_FLAG (hdma, __HAL_DMA_GET_FE_FLAG_INDEX(hdma));
 1810              		.loc 1 194 5 discriminator 57 view .LVU465
 1811 0a60 02F58062 		add	r2, r2, #1024
 1812 0a64 9342     		cmp	r3, r2
 1813 0a66 2DD0     		beq	.L220
 194:Drivers/STM32F7xx_HAL_Driver/Src/stm32f7xx_hal_dma_ex.c ****     __HAL_DMA_CLEAR_FLAG (hdma, __HAL_DMA_GET_FE_FLAG_INDEX(hdma));
 1814              		.loc 1 194 5 discriminator 59 view .LVU466
 1815 0a68 A2F58962 		sub	r2, r2, #1096
 1816 0a6c 9342     		cmp	r3, r2
 1817 0a6e 2BD0     		beq	.L221
 194:Drivers/STM32F7xx_HAL_Driver/Src/stm32f7xx_hal_dma_ex.c ****     __HAL_DMA_CLEAR_FLAG (hdma, __HAL_DMA_GET_FE_FLAG_INDEX(hdma));
 1818              		.loc 1 194 5 discriminator 61 view .LVU467
 1819 0a70 02F58062 		add	r2, r2, #1024
 1820 0a74 9342     		cmp	r3, r2
 1821 0a76 2AD0     		beq	.L222
 194:Drivers/STM32F7xx_HAL_Driver/Src/stm32f7xx_hal_dma_ex.c ****     __HAL_DMA_CLEAR_FLAG (hdma, __HAL_DMA_GET_FE_FLAG_INDEX(hdma));
ARM GAS  C:\Users\frees\AppData\Local\Temp\ccr3Z05i.s 			page 46


 1822              		.loc 1 194 5 discriminator 63 view .LVU468
 1823 0a78 A2F56872 		sub	r2, r2, #928
 1824 0a7c 9342     		cmp	r3, r2
 1825 0a7e 29D0     		beq	.L223
 194:Drivers/STM32F7xx_HAL_Driver/Src/stm32f7xx_hal_dma_ex.c ****     __HAL_DMA_CLEAR_FLAG (hdma, __HAL_DMA_GET_FE_FLAG_INDEX(hdma));
 1826              		.loc 1 194 5 discriminator 65 view .LVU469
 1827 0a80 02F58062 		add	r2, r2, #1024
 1828 0a84 9342     		cmp	r3, r2
 1829 0a86 28D0     		beq	.L224
 194:Drivers/STM32F7xx_HAL_Driver/Src/stm32f7xx_hal_dma_ex.c ****     __HAL_DMA_CLEAR_FLAG (hdma, __HAL_DMA_GET_FE_FLAG_INDEX(hdma));
 1830              		.loc 1 194 5 discriminator 67 view .LVU470
 1831 0a88 A2F58962 		sub	r2, r2, #1096
 1832 0a8c 9342     		cmp	r3, r2
 1833 0a8e 27D0     		beq	.L225
 194:Drivers/STM32F7xx_HAL_Driver/Src/stm32f7xx_hal_dma_ex.c ****     __HAL_DMA_CLEAR_FLAG (hdma, __HAL_DMA_GET_FE_FLAG_INDEX(hdma));
 1834              		.loc 1 194 5 discriminator 69 view .LVU471
 1835 0a90 02F58062 		add	r2, r2, #1024
 1836 0a94 9342     		cmp	r3, r2
 1837 0a96 26D0     		beq	.L226
 194:Drivers/STM32F7xx_HAL_Driver/Src/stm32f7xx_hal_dma_ex.c ****     __HAL_DMA_CLEAR_FLAG (hdma, __HAL_DMA_GET_FE_FLAG_INDEX(hdma));
 1838              		.loc 1 194 5 discriminator 71 view .LVU472
 1839 0a98 A2F56872 		sub	r2, r2, #928
 1840 0a9c 9342     		cmp	r3, r2
 1841 0a9e 25D0     		beq	.L227
 194:Drivers/STM32F7xx_HAL_Driver/Src/stm32f7xx_hal_dma_ex.c ****     __HAL_DMA_CLEAR_FLAG (hdma, __HAL_DMA_GET_FE_FLAG_INDEX(hdma));
 1842              		.loc 1 194 5 discriminator 73 view .LVU473
 1843 0aa0 02F58062 		add	r2, r2, #1024
 1844 0aa4 9342     		cmp	r3, r2
 1845 0aa6 02D0     		beq	.L318
 194:Drivers/STM32F7xx_HAL_Driver/Src/stm32f7xx_hal_dma_ex.c ****     __HAL_DMA_CLEAR_FLAG (hdma, __HAL_DMA_GET_FE_FLAG_INDEX(hdma));
 1846              		.loc 1 194 5 discriminator 76 view .LVU474
 1847 0aa8 4FF08072 		mov	r2, #16777216
 1848 0aac 03E0     		b	.L46
 1849              	.L318:
 194:Drivers/STM32F7xx_HAL_Driver/Src/stm32f7xx_hal_dma_ex.c ****     __HAL_DMA_CLEAR_FLAG (hdma, __HAL_DMA_GET_FE_FLAG_INDEX(hdma));
 1850              		.loc 1 194 5 discriminator 75 view .LVU475
 1851 0aae 4FF48022 		mov	r2, #262144
 1852 0ab2 00E0     		b	.L46
 1853              	.L217:
 194:Drivers/STM32F7xx_HAL_Driver/Src/stm32f7xx_hal_dma_ex.c ****     __HAL_DMA_CLEAR_FLAG (hdma, __HAL_DMA_GET_FE_FLAG_INDEX(hdma));
 1854              		.loc 1 194 5 discriminator 54 view .LVU476
 1855 0ab4 0422     		movs	r2, #4
 1856              	.L46:
 194:Drivers/STM32F7xx_HAL_Driver/Src/stm32f7xx_hal_dma_ex.c ****     __HAL_DMA_CLEAR_FLAG (hdma, __HAL_DMA_GET_FE_FLAG_INDEX(hdma));
 1857              		.loc 1 194 5 discriminator 100 view .LVU477
 1858 0ab6 3B4B     		ldr	r3, .L331+8
 1859 0ab8 9A60     		str	r2, [r3, #8]
 1860 0aba 64E7     		b	.L44
 1861              	.L218:
 194:Drivers/STM32F7xx_HAL_Driver/Src/stm32f7xx_hal_dma_ex.c ****     __HAL_DMA_CLEAR_FLAG (hdma, __HAL_DMA_GET_FE_FLAG_INDEX(hdma));
 1862              		.loc 1 194 5 discriminator 56 view .LVU478
 1863 0abc 0422     		movs	r2, #4
 1864 0abe FAE7     		b	.L46
 1865              	.L219:
 194:Drivers/STM32F7xx_HAL_Driver/Src/stm32f7xx_hal_dma_ex.c ****     __HAL_DMA_CLEAR_FLAG (hdma, __HAL_DMA_GET_FE_FLAG_INDEX(hdma));
 1866              		.loc 1 194 5 discriminator 58 view .LVU479
 1867 0ac0 0422     		movs	r2, #4
ARM GAS  C:\Users\frees\AppData\Local\Temp\ccr3Z05i.s 			page 47


 1868 0ac2 F8E7     		b	.L46
 1869              	.L220:
 194:Drivers/STM32F7xx_HAL_Driver/Src/stm32f7xx_hal_dma_ex.c ****     __HAL_DMA_CLEAR_FLAG (hdma, __HAL_DMA_GET_FE_FLAG_INDEX(hdma));
 1870              		.loc 1 194 5 discriminator 60 view .LVU480
 1871 0ac4 0422     		movs	r2, #4
 1872 0ac6 F6E7     		b	.L46
 1873              	.L221:
 194:Drivers/STM32F7xx_HAL_Driver/Src/stm32f7xx_hal_dma_ex.c ****     __HAL_DMA_CLEAR_FLAG (hdma, __HAL_DMA_GET_FE_FLAG_INDEX(hdma));
 1874              		.loc 1 194 5 discriminator 62 view .LVU481
 1875 0ac8 4FF48072 		mov	r2, #256
 1876 0acc F3E7     		b	.L46
 1877              	.L222:
 194:Drivers/STM32F7xx_HAL_Driver/Src/stm32f7xx_hal_dma_ex.c ****     __HAL_DMA_CLEAR_FLAG (hdma, __HAL_DMA_GET_FE_FLAG_INDEX(hdma));
 1878              		.loc 1 194 5 discriminator 64 view .LVU482
 1879 0ace 4FF48072 		mov	r2, #256
 1880 0ad2 F0E7     		b	.L46
 1881              	.L223:
 194:Drivers/STM32F7xx_HAL_Driver/Src/stm32f7xx_hal_dma_ex.c ****     __HAL_DMA_CLEAR_FLAG (hdma, __HAL_DMA_GET_FE_FLAG_INDEX(hdma));
 1882              		.loc 1 194 5 discriminator 66 view .LVU483
 1883 0ad4 4FF48072 		mov	r2, #256
 1884 0ad8 EDE7     		b	.L46
 1885              	.L224:
 194:Drivers/STM32F7xx_HAL_Driver/Src/stm32f7xx_hal_dma_ex.c ****     __HAL_DMA_CLEAR_FLAG (hdma, __HAL_DMA_GET_FE_FLAG_INDEX(hdma));
 1886              		.loc 1 194 5 discriminator 68 view .LVU484
 1887 0ada 4FF48072 		mov	r2, #256
 1888 0ade EAE7     		b	.L46
 1889              	.L225:
 194:Drivers/STM32F7xx_HAL_Driver/Src/stm32f7xx_hal_dma_ex.c ****     __HAL_DMA_CLEAR_FLAG (hdma, __HAL_DMA_GET_FE_FLAG_INDEX(hdma));
 1890              		.loc 1 194 5 discriminator 70 view .LVU485
 1891 0ae0 4FF48022 		mov	r2, #262144
 1892 0ae4 E7E7     		b	.L46
 1893              	.L226:
 194:Drivers/STM32F7xx_HAL_Driver/Src/stm32f7xx_hal_dma_ex.c ****     __HAL_DMA_CLEAR_FLAG (hdma, __HAL_DMA_GET_FE_FLAG_INDEX(hdma));
 1894              		.loc 1 194 5 discriminator 72 view .LVU486
 1895 0ae6 4FF48022 		mov	r2, #262144
 1896 0aea E4E7     		b	.L46
 1897              	.L227:
 194:Drivers/STM32F7xx_HAL_Driver/Src/stm32f7xx_hal_dma_ex.c ****     __HAL_DMA_CLEAR_FLAG (hdma, __HAL_DMA_GET_FE_FLAG_INDEX(hdma));
 1898              		.loc 1 194 5 discriminator 74 view .LVU487
 1899 0aec 4FF48022 		mov	r2, #262144
 1900 0af0 E1E7     		b	.L46
 1901              	.L45:
 194:Drivers/STM32F7xx_HAL_Driver/Src/stm32f7xx_hal_dma_ex.c ****     __HAL_DMA_CLEAR_FLAG (hdma, __HAL_DMA_GET_FE_FLAG_INDEX(hdma));
 1902              		.loc 1 194 5 discriminator 52 view .LVU488
 1903 0af2 2F4A     		ldr	r2, .L331+20
 1904 0af4 9342     		cmp	r3, r2
 1905 0af6 60D9     		bls	.L47
 194:Drivers/STM32F7xx_HAL_Driver/Src/stm32f7xx_hal_dma_ex.c ****     __HAL_DMA_CLEAR_FLAG (hdma, __HAL_DMA_GET_FE_FLAG_INDEX(hdma));
 1906              		.loc 1 194 5 discriminator 102 view .LVU489
 1907 0af8 483A     		subs	r2, r2, #72
 1908 0afa 9342     		cmp	r3, r2
 1909 0afc 31D0     		beq	.L229
 194:Drivers/STM32F7xx_HAL_Driver/Src/stm32f7xx_hal_dma_ex.c ****     __HAL_DMA_CLEAR_FLAG (hdma, __HAL_DMA_GET_FE_FLAG_INDEX(hdma));
 1910              		.loc 1 194 5 discriminator 104 view .LVU490
 1911 0afe 02F58062 		add	r2, r2, #1024
 1912 0b02 9342     		cmp	r3, r2
 1913 0b04 31D0     		beq	.L230
ARM GAS  C:\Users\frees\AppData\Local\Temp\ccr3Z05i.s 			page 48


 194:Drivers/STM32F7xx_HAL_Driver/Src/stm32f7xx_hal_dma_ex.c ****     __HAL_DMA_CLEAR_FLAG (hdma, __HAL_DMA_GET_FE_FLAG_INDEX(hdma));
 1914              		.loc 1 194 5 discriminator 106 view .LVU491
 1915 0b06 A2F56872 		sub	r2, r2, #928
 1916 0b0a 9342     		cmp	r3, r2
 1917 0b0c 2FD0     		beq	.L231
 194:Drivers/STM32F7xx_HAL_Driver/Src/stm32f7xx_hal_dma_ex.c ****     __HAL_DMA_CLEAR_FLAG (hdma, __HAL_DMA_GET_FE_FLAG_INDEX(hdma));
 1918              		.loc 1 194 5 discriminator 108 view .LVU492
 1919 0b0e 02F58062 		add	r2, r2, #1024
 1920 0b12 9342     		cmp	r3, r2
 1921 0b14 2DD0     		beq	.L232
 194:Drivers/STM32F7xx_HAL_Driver/Src/stm32f7xx_hal_dma_ex.c ****     __HAL_DMA_CLEAR_FLAG (hdma, __HAL_DMA_GET_FE_FLAG_INDEX(hdma));
 1922              		.loc 1 194 5 discriminator 110 view .LVU493
 1923 0b16 A2F58962 		sub	r2, r2, #1096
 1924 0b1a 9342     		cmp	r3, r2
 1925 0b1c 2BD0     		beq	.L233
 194:Drivers/STM32F7xx_HAL_Driver/Src/stm32f7xx_hal_dma_ex.c ****     __HAL_DMA_CLEAR_FLAG (hdma, __HAL_DMA_GET_FE_FLAG_INDEX(hdma));
 1926              		.loc 1 194 5 discriminator 112 view .LVU494
 1927 0b1e 02F58062 		add	r2, r2, #1024
 1928 0b22 9342     		cmp	r3, r2
 1929 0b24 2AD0     		beq	.L234
 194:Drivers/STM32F7xx_HAL_Driver/Src/stm32f7xx_hal_dma_ex.c ****     __HAL_DMA_CLEAR_FLAG (hdma, __HAL_DMA_GET_FE_FLAG_INDEX(hdma));
 1930              		.loc 1 194 5 discriminator 114 view .LVU495
 1931 0b26 A2F56872 		sub	r2, r2, #928
 1932 0b2a 9342     		cmp	r3, r2
 1933 0b2c 29D0     		beq	.L235
 194:Drivers/STM32F7xx_HAL_Driver/Src/stm32f7xx_hal_dma_ex.c ****     __HAL_DMA_CLEAR_FLAG (hdma, __HAL_DMA_GET_FE_FLAG_INDEX(hdma));
 1934              		.loc 1 194 5 discriminator 116 view .LVU496
 1935 0b2e 02F58062 		add	r2, r2, #1024
 1936 0b32 9342     		cmp	r3, r2
 1937 0b34 28D0     		beq	.L236
 194:Drivers/STM32F7xx_HAL_Driver/Src/stm32f7xx_hal_dma_ex.c ****     __HAL_DMA_CLEAR_FLAG (hdma, __HAL_DMA_GET_FE_FLAG_INDEX(hdma));
 1938              		.loc 1 194 5 discriminator 118 view .LVU497
 1939 0b36 A2F58962 		sub	r2, r2, #1096
 1940 0b3a 9342     		cmp	r3, r2
 1941 0b3c 27D0     		beq	.L237
 194:Drivers/STM32F7xx_HAL_Driver/Src/stm32f7xx_hal_dma_ex.c ****     __HAL_DMA_CLEAR_FLAG (hdma, __HAL_DMA_GET_FE_FLAG_INDEX(hdma));
 1942              		.loc 1 194 5 discriminator 120 view .LVU498
 1943 0b3e 02F58062 		add	r2, r2, #1024
 1944 0b42 9342     		cmp	r3, r2
 1945 0b44 26D0     		beq	.L238
 194:Drivers/STM32F7xx_HAL_Driver/Src/stm32f7xx_hal_dma_ex.c ****     __HAL_DMA_CLEAR_FLAG (hdma, __HAL_DMA_GET_FE_FLAG_INDEX(hdma));
 1946              		.loc 1 194 5 discriminator 122 view .LVU499
 1947 0b46 A2F56872 		sub	r2, r2, #928
 1948 0b4a 9342     		cmp	r3, r2
 1949 0b4c 32D0     		beq	.L239
 194:Drivers/STM32F7xx_HAL_Driver/Src/stm32f7xx_hal_dma_ex.c ****     __HAL_DMA_CLEAR_FLAG (hdma, __HAL_DMA_GET_FE_FLAG_INDEX(hdma));
 1950              		.loc 1 194 5 discriminator 124 view .LVU500
 1951 0b4e 02F58062 		add	r2, r2, #1024
 1952 0b52 9342     		cmp	r3, r2
 1953 0b54 02D0     		beq	.L319
 194:Drivers/STM32F7xx_HAL_Driver/Src/stm32f7xx_hal_dma_ex.c ****     __HAL_DMA_CLEAR_FLAG (hdma, __HAL_DMA_GET_FE_FLAG_INDEX(hdma));
 1954              		.loc 1 194 5 discriminator 127 view .LVU501
 1955 0b56 4FF08073 		mov	r3, #16777216
 1956 0b5a 03E0     		b	.L48
 1957              	.L319:
 194:Drivers/STM32F7xx_HAL_Driver/Src/stm32f7xx_hal_dma_ex.c ****     __HAL_DMA_CLEAR_FLAG (hdma, __HAL_DMA_GET_FE_FLAG_INDEX(hdma));
 1958              		.loc 1 194 5 discriminator 126 view .LVU502
ARM GAS  C:\Users\frees\AppData\Local\Temp\ccr3Z05i.s 			page 49


 1959 0b5c 4FF48023 		mov	r3, #262144
 1960 0b60 00E0     		b	.L48
 1961              	.L229:
 194:Drivers/STM32F7xx_HAL_Driver/Src/stm32f7xx_hal_dma_ex.c ****     __HAL_DMA_CLEAR_FLAG (hdma, __HAL_DMA_GET_FE_FLAG_INDEX(hdma));
 1962              		.loc 1 194 5 discriminator 105 view .LVU503
 1963 0b62 0423     		movs	r3, #4
 1964              	.L48:
 194:Drivers/STM32F7xx_HAL_Driver/Src/stm32f7xx_hal_dma_ex.c ****     __HAL_DMA_CLEAR_FLAG (hdma, __HAL_DMA_GET_FE_FLAG_INDEX(hdma));
 1965              		.loc 1 194 5 discriminator 151 view .LVU504
 1966 0b64 0E4A     		ldr	r2, .L331+4
 1967 0b66 D360     		str	r3, [r2, #12]
 1968 0b68 0DE7     		b	.L44
 1969              	.L230:
 194:Drivers/STM32F7xx_HAL_Driver/Src/stm32f7xx_hal_dma_ex.c ****     __HAL_DMA_CLEAR_FLAG (hdma, __HAL_DMA_GET_FE_FLAG_INDEX(hdma));
 1970              		.loc 1 194 5 discriminator 107 view .LVU505
 1971 0b6a 0423     		movs	r3, #4
 1972 0b6c FAE7     		b	.L48
 1973              	.L231:
 194:Drivers/STM32F7xx_HAL_Driver/Src/stm32f7xx_hal_dma_ex.c ****     __HAL_DMA_CLEAR_FLAG (hdma, __HAL_DMA_GET_FE_FLAG_INDEX(hdma));
 1974              		.loc 1 194 5 discriminator 109 view .LVU506
 1975 0b6e 0423     		movs	r3, #4
 1976 0b70 F8E7     		b	.L48
 1977              	.L232:
 194:Drivers/STM32F7xx_HAL_Driver/Src/stm32f7xx_hal_dma_ex.c ****     __HAL_DMA_CLEAR_FLAG (hdma, __HAL_DMA_GET_FE_FLAG_INDEX(hdma));
 1978              		.loc 1 194 5 discriminator 111 view .LVU507
 1979 0b72 0423     		movs	r3, #4
 1980 0b74 F6E7     		b	.L48
 1981              	.L233:
 194:Drivers/STM32F7xx_HAL_Driver/Src/stm32f7xx_hal_dma_ex.c ****     __HAL_DMA_CLEAR_FLAG (hdma, __HAL_DMA_GET_FE_FLAG_INDEX(hdma));
 1982              		.loc 1 194 5 discriminator 113 view .LVU508
 1983 0b76 4FF48073 		mov	r3, #256
 1984 0b7a F3E7     		b	.L48
 1985              	.L234:
 194:Drivers/STM32F7xx_HAL_Driver/Src/stm32f7xx_hal_dma_ex.c ****     __HAL_DMA_CLEAR_FLAG (hdma, __HAL_DMA_GET_FE_FLAG_INDEX(hdma));
 1986              		.loc 1 194 5 discriminator 115 view .LVU509
 1987 0b7c 4FF48073 		mov	r3, #256
 1988 0b80 F0E7     		b	.L48
 1989              	.L235:
 194:Drivers/STM32F7xx_HAL_Driver/Src/stm32f7xx_hal_dma_ex.c ****     __HAL_DMA_CLEAR_FLAG (hdma, __HAL_DMA_GET_FE_FLAG_INDEX(hdma));
 1990              		.loc 1 194 5 discriminator 117 view .LVU510
 1991 0b82 4FF48073 		mov	r3, #256
 1992 0b86 EDE7     		b	.L48
 1993              	.L236:
 194:Drivers/STM32F7xx_HAL_Driver/Src/stm32f7xx_hal_dma_ex.c ****     __HAL_DMA_CLEAR_FLAG (hdma, __HAL_DMA_GET_FE_FLAG_INDEX(hdma));
 1994              		.loc 1 194 5 discriminator 119 view .LVU511
 1995 0b88 4FF48073 		mov	r3, #256
 1996 0b8c EAE7     		b	.L48
 1997              	.L237:
 194:Drivers/STM32F7xx_HAL_Driver/Src/stm32f7xx_hal_dma_ex.c ****     __HAL_DMA_CLEAR_FLAG (hdma, __HAL_DMA_GET_FE_FLAG_INDEX(hdma));
 1998              		.loc 1 194 5 discriminator 121 view .LVU512
 1999 0b8e 4FF48023 		mov	r3, #262144
 2000 0b92 E7E7     		b	.L48
 2001              	.L238:
 194:Drivers/STM32F7xx_HAL_Driver/Src/stm32f7xx_hal_dma_ex.c ****     __HAL_DMA_CLEAR_FLAG (hdma, __HAL_DMA_GET_FE_FLAG_INDEX(hdma));
 2002              		.loc 1 194 5 discriminator 123 view .LVU513
 2003 0b94 4FF48023 		mov	r3, #262144
 2004 0b98 E4E7     		b	.L48
ARM GAS  C:\Users\frees\AppData\Local\Temp\ccr3Z05i.s 			page 50


 2005              	.L332:
 2006 0b9a 00BF     		.align	2
 2007              	.L331:
 2008 0b9c 10600240 		.word	1073897488
 2009 0ba0 00600240 		.word	1073897472
 2010 0ba4 00640240 		.word	1073898496
 2011 0ba8 58640240 		.word	1073898584
 2012 0bac B8600240 		.word	1073897656
 2013 0bb0 58600240 		.word	1073897560
 2014              	.L239:
 194:Drivers/STM32F7xx_HAL_Driver/Src/stm32f7xx_hal_dma_ex.c ****     __HAL_DMA_CLEAR_FLAG (hdma, __HAL_DMA_GET_FE_FLAG_INDEX(hdma));
 2015              		.loc 1 194 5 discriminator 125 view .LVU514
 2016 0bb4 4FF48023 		mov	r3, #262144
 2017 0bb8 D4E7     		b	.L48
 2018              	.L47:
 194:Drivers/STM32F7xx_HAL_Driver/Src/stm32f7xx_hal_dma_ex.c ****     __HAL_DMA_CLEAR_FLAG (hdma, __HAL_DMA_GET_FE_FLAG_INDEX(hdma));
 2019              		.loc 1 194 5 discriminator 103 view .LVU515
 2020 0bba 994A     		ldr	r2, .L333
 2021 0bbc 9342     		cmp	r3, r2
 2022 0bbe 31D0     		beq	.L241
 194:Drivers/STM32F7xx_HAL_Driver/Src/stm32f7xx_hal_dma_ex.c ****     __HAL_DMA_CLEAR_FLAG (hdma, __HAL_DMA_GET_FE_FLAG_INDEX(hdma));
 2023              		.loc 1 194 5 discriminator 153 view .LVU516
 2024 0bc0 02F58062 		add	r2, r2, #1024
 2025 0bc4 9342     		cmp	r3, r2
 2026 0bc6 31D0     		beq	.L242
 194:Drivers/STM32F7xx_HAL_Driver/Src/stm32f7xx_hal_dma_ex.c ****     __HAL_DMA_CLEAR_FLAG (hdma, __HAL_DMA_GET_FE_FLAG_INDEX(hdma));
 2027              		.loc 1 194 5 discriminator 155 view .LVU517
 2028 0bc8 A2F56872 		sub	r2, r2, #928
 2029 0bcc 9342     		cmp	r3, r2
 2030 0bce 2FD0     		beq	.L243
 194:Drivers/STM32F7xx_HAL_Driver/Src/stm32f7xx_hal_dma_ex.c ****     __HAL_DMA_CLEAR_FLAG (hdma, __HAL_DMA_GET_FE_FLAG_INDEX(hdma));
 2031              		.loc 1 194 5 discriminator 157 view .LVU518
 2032 0bd0 02F58062 		add	r2, r2, #1024
 2033 0bd4 9342     		cmp	r3, r2
 2034 0bd6 2DD0     		beq	.L244
 194:Drivers/STM32F7xx_HAL_Driver/Src/stm32f7xx_hal_dma_ex.c ****     __HAL_DMA_CLEAR_FLAG (hdma, __HAL_DMA_GET_FE_FLAG_INDEX(hdma));
 2035              		.loc 1 194 5 discriminator 159 view .LVU519
 2036 0bd8 A2F58962 		sub	r2, r2, #1096
 2037 0bdc 9342     		cmp	r3, r2
 2038 0bde 2BD0     		beq	.L245
 194:Drivers/STM32F7xx_HAL_Driver/Src/stm32f7xx_hal_dma_ex.c ****     __HAL_DMA_CLEAR_FLAG (hdma, __HAL_DMA_GET_FE_FLAG_INDEX(hdma));
 2039              		.loc 1 194 5 discriminator 161 view .LVU520
 2040 0be0 02F58062 		add	r2, r2, #1024
 2041 0be4 9342     		cmp	r3, r2
 2042 0be6 2AD0     		beq	.L246
 194:Drivers/STM32F7xx_HAL_Driver/Src/stm32f7xx_hal_dma_ex.c ****     __HAL_DMA_CLEAR_FLAG (hdma, __HAL_DMA_GET_FE_FLAG_INDEX(hdma));
 2043              		.loc 1 194 5 discriminator 163 view .LVU521
 2044 0be8 A2F56872 		sub	r2, r2, #928
 2045 0bec 9342     		cmp	r3, r2
 2046 0bee 29D0     		beq	.L247
 194:Drivers/STM32F7xx_HAL_Driver/Src/stm32f7xx_hal_dma_ex.c ****     __HAL_DMA_CLEAR_FLAG (hdma, __HAL_DMA_GET_FE_FLAG_INDEX(hdma));
 2047              		.loc 1 194 5 discriminator 165 view .LVU522
 2048 0bf0 02F58062 		add	r2, r2, #1024
 2049 0bf4 9342     		cmp	r3, r2
 2050 0bf6 28D0     		beq	.L248
 194:Drivers/STM32F7xx_HAL_Driver/Src/stm32f7xx_hal_dma_ex.c ****     __HAL_DMA_CLEAR_FLAG (hdma, __HAL_DMA_GET_FE_FLAG_INDEX(hdma));
 2051              		.loc 1 194 5 discriminator 167 view .LVU523
ARM GAS  C:\Users\frees\AppData\Local\Temp\ccr3Z05i.s 			page 51


 2052 0bf8 A2F58962 		sub	r2, r2, #1096
 2053 0bfc 9342     		cmp	r3, r2
 2054 0bfe 27D0     		beq	.L249
 194:Drivers/STM32F7xx_HAL_Driver/Src/stm32f7xx_hal_dma_ex.c ****     __HAL_DMA_CLEAR_FLAG (hdma, __HAL_DMA_GET_FE_FLAG_INDEX(hdma));
 2055              		.loc 1 194 5 discriminator 169 view .LVU524
 2056 0c00 02F58062 		add	r2, r2, #1024
 2057 0c04 9342     		cmp	r3, r2
 2058 0c06 26D0     		beq	.L250
 194:Drivers/STM32F7xx_HAL_Driver/Src/stm32f7xx_hal_dma_ex.c ****     __HAL_DMA_CLEAR_FLAG (hdma, __HAL_DMA_GET_FE_FLAG_INDEX(hdma));
 2059              		.loc 1 194 5 discriminator 171 view .LVU525
 2060 0c08 A2F56872 		sub	r2, r2, #928
 2061 0c0c 9342     		cmp	r3, r2
 2062 0c0e 25D0     		beq	.L251
 194:Drivers/STM32F7xx_HAL_Driver/Src/stm32f7xx_hal_dma_ex.c ****     __HAL_DMA_CLEAR_FLAG (hdma, __HAL_DMA_GET_FE_FLAG_INDEX(hdma));
 2063              		.loc 1 194 5 discriminator 173 view .LVU526
 2064 0c10 02F58062 		add	r2, r2, #1024
 2065 0c14 9342     		cmp	r3, r2
 2066 0c16 02D0     		beq	.L320
 194:Drivers/STM32F7xx_HAL_Driver/Src/stm32f7xx_hal_dma_ex.c ****     __HAL_DMA_CLEAR_FLAG (hdma, __HAL_DMA_GET_FE_FLAG_INDEX(hdma));
 2067              		.loc 1 194 5 discriminator 176 view .LVU527
 2068 0c18 4FF08073 		mov	r3, #16777216
 2069 0c1c 03E0     		b	.L49
 2070              	.L320:
 194:Drivers/STM32F7xx_HAL_Driver/Src/stm32f7xx_hal_dma_ex.c ****     __HAL_DMA_CLEAR_FLAG (hdma, __HAL_DMA_GET_FE_FLAG_INDEX(hdma));
 2071              		.loc 1 194 5 discriminator 175 view .LVU528
 2072 0c1e 4FF48023 		mov	r3, #262144
 2073 0c22 00E0     		b	.L49
 2074              	.L241:
 194:Drivers/STM32F7xx_HAL_Driver/Src/stm32f7xx_hal_dma_ex.c ****     __HAL_DMA_CLEAR_FLAG (hdma, __HAL_DMA_GET_FE_FLAG_INDEX(hdma));
 2075              		.loc 1 194 5 discriminator 154 view .LVU529
 2076 0c24 0423     		movs	r3, #4
 2077              	.L49:
 194:Drivers/STM32F7xx_HAL_Driver/Src/stm32f7xx_hal_dma_ex.c ****     __HAL_DMA_CLEAR_FLAG (hdma, __HAL_DMA_GET_FE_FLAG_INDEX(hdma));
 2078              		.loc 1 194 5 discriminator 200 view .LVU530
 2079 0c26 7F4A     		ldr	r2, .L333+4
 2080 0c28 9360     		str	r3, [r2, #8]
 2081 0c2a ACE6     		b	.L44
 2082              	.L242:
 194:Drivers/STM32F7xx_HAL_Driver/Src/stm32f7xx_hal_dma_ex.c ****     __HAL_DMA_CLEAR_FLAG (hdma, __HAL_DMA_GET_FE_FLAG_INDEX(hdma));
 2083              		.loc 1 194 5 discriminator 156 view .LVU531
 2084 0c2c 0423     		movs	r3, #4
 2085 0c2e FAE7     		b	.L49
 2086              	.L243:
 194:Drivers/STM32F7xx_HAL_Driver/Src/stm32f7xx_hal_dma_ex.c ****     __HAL_DMA_CLEAR_FLAG (hdma, __HAL_DMA_GET_FE_FLAG_INDEX(hdma));
 2087              		.loc 1 194 5 discriminator 158 view .LVU532
 2088 0c30 0423     		movs	r3, #4
 2089 0c32 F8E7     		b	.L49
 2090              	.L244:
 194:Drivers/STM32F7xx_HAL_Driver/Src/stm32f7xx_hal_dma_ex.c ****     __HAL_DMA_CLEAR_FLAG (hdma, __HAL_DMA_GET_FE_FLAG_INDEX(hdma));
 2091              		.loc 1 194 5 discriminator 160 view .LVU533
 2092 0c34 0423     		movs	r3, #4
 2093 0c36 F6E7     		b	.L49
 2094              	.L245:
 194:Drivers/STM32F7xx_HAL_Driver/Src/stm32f7xx_hal_dma_ex.c ****     __HAL_DMA_CLEAR_FLAG (hdma, __HAL_DMA_GET_FE_FLAG_INDEX(hdma));
 2095              		.loc 1 194 5 discriminator 162 view .LVU534
 2096 0c38 4FF48073 		mov	r3, #256
 2097 0c3c F3E7     		b	.L49
ARM GAS  C:\Users\frees\AppData\Local\Temp\ccr3Z05i.s 			page 52


 2098              	.L246:
 194:Drivers/STM32F7xx_HAL_Driver/Src/stm32f7xx_hal_dma_ex.c ****     __HAL_DMA_CLEAR_FLAG (hdma, __HAL_DMA_GET_FE_FLAG_INDEX(hdma));
 2099              		.loc 1 194 5 discriminator 164 view .LVU535
 2100 0c3e 4FF48073 		mov	r3, #256
 2101 0c42 F0E7     		b	.L49
 2102              	.L247:
 194:Drivers/STM32F7xx_HAL_Driver/Src/stm32f7xx_hal_dma_ex.c ****     __HAL_DMA_CLEAR_FLAG (hdma, __HAL_DMA_GET_FE_FLAG_INDEX(hdma));
 2103              		.loc 1 194 5 discriminator 166 view .LVU536
 2104 0c44 4FF48073 		mov	r3, #256
 2105 0c48 EDE7     		b	.L49
 2106              	.L248:
 194:Drivers/STM32F7xx_HAL_Driver/Src/stm32f7xx_hal_dma_ex.c ****     __HAL_DMA_CLEAR_FLAG (hdma, __HAL_DMA_GET_FE_FLAG_INDEX(hdma));
 2107              		.loc 1 194 5 discriminator 168 view .LVU537
 2108 0c4a 4FF48073 		mov	r3, #256
 2109 0c4e EAE7     		b	.L49
 2110              	.L249:
 194:Drivers/STM32F7xx_HAL_Driver/Src/stm32f7xx_hal_dma_ex.c ****     __HAL_DMA_CLEAR_FLAG (hdma, __HAL_DMA_GET_FE_FLAG_INDEX(hdma));
 2111              		.loc 1 194 5 discriminator 170 view .LVU538
 2112 0c50 4FF48023 		mov	r3, #262144
 2113 0c54 E7E7     		b	.L49
 2114              	.L250:
 194:Drivers/STM32F7xx_HAL_Driver/Src/stm32f7xx_hal_dma_ex.c ****     __HAL_DMA_CLEAR_FLAG (hdma, __HAL_DMA_GET_FE_FLAG_INDEX(hdma));
 2115              		.loc 1 194 5 discriminator 172 view .LVU539
 2116 0c56 4FF48023 		mov	r3, #262144
 2117 0c5a E4E7     		b	.L49
 2118              	.L251:
 194:Drivers/STM32F7xx_HAL_Driver/Src/stm32f7xx_hal_dma_ex.c ****     __HAL_DMA_CLEAR_FLAG (hdma, __HAL_DMA_GET_FE_FLAG_INDEX(hdma));
 2119              		.loc 1 194 5 discriminator 174 view .LVU540
 2120 0c5c 4FF48023 		mov	r3, #262144
 2121 0c60 E1E7     		b	.L49
 2122              	.L317:
 195:Drivers/STM32F7xx_HAL_Driver/Src/stm32f7xx_hal_dma_ex.c ****     
 2123              		.loc 1 195 5 discriminator 25 view .LVU541
 2124 0c62 4FF48032 		mov	r2, #65536
 2125 0c66 00E0     		b	.L51
 2126              	.L253:
 195:Drivers/STM32F7xx_HAL_Driver/Src/stm32f7xx_hal_dma_ex.c ****     
 2127              		.loc 1 195 5 discriminator 4 view .LVU542
 2128 0c68 0122     		movs	r2, #1
 2129              	.L51:
 195:Drivers/STM32F7xx_HAL_Driver/Src/stm32f7xx_hal_dma_ex.c ****     
 2130              		.loc 1 195 5 discriminator 50 view .LVU543
 2131 0c6a 6F4B     		ldr	r3, .L333+8
 2132 0c6c DA60     		str	r2, [r3, #12]
 2133              	.L52:
 198:Drivers/STM32F7xx_HAL_Driver/Src/stm32f7xx_hal_dma_ex.c ****     hdma->Instance->FCR |= DMA_IT_FE;
 2134              		.loc 1 198 5 is_stmt 1 view .LVU544
 198:Drivers/STM32F7xx_HAL_Driver/Src/stm32f7xx_hal_dma_ex.c ****     hdma->Instance->FCR |= DMA_IT_FE;
 2135              		.loc 1 198 9 is_stmt 0 view .LVU545
 2136 0c6e 2268     		ldr	r2, [r4]
 198:Drivers/STM32F7xx_HAL_Driver/Src/stm32f7xx_hal_dma_ex.c ****     hdma->Instance->FCR |= DMA_IT_FE;
 2137              		.loc 1 198 19 view .LVU546
 2138 0c70 1368     		ldr	r3, [r2]
 198:Drivers/STM32F7xx_HAL_Driver/Src/stm32f7xx_hal_dma_ex.c ****     hdma->Instance->FCR |= DMA_IT_FE;
 2139              		.loc 1 198 25 view .LVU547
 2140 0c72 43F01603 		orr	r3, r3, #22
 2141 0c76 1360     		str	r3, [r2]
ARM GAS  C:\Users\frees\AppData\Local\Temp\ccr3Z05i.s 			page 53


 199:Drivers/STM32F7xx_HAL_Driver/Src/stm32f7xx_hal_dma_ex.c ****     
 2142              		.loc 1 199 5 is_stmt 1 view .LVU548
 199:Drivers/STM32F7xx_HAL_Driver/Src/stm32f7xx_hal_dma_ex.c ****     
 2143              		.loc 1 199 9 is_stmt 0 view .LVU549
 2144 0c78 2268     		ldr	r2, [r4]
 199:Drivers/STM32F7xx_HAL_Driver/Src/stm32f7xx_hal_dma_ex.c ****     
 2145              		.loc 1 199 19 view .LVU550
 2146 0c7a 5369     		ldr	r3, [r2, #20]
 199:Drivers/STM32F7xx_HAL_Driver/Src/stm32f7xx_hal_dma_ex.c ****     
 2147              		.loc 1 199 25 view .LVU551
 2148 0c7c 43F08003 		orr	r3, r3, #128
 2149 0c80 5361     		str	r3, [r2, #20]
 201:Drivers/STM32F7xx_HAL_Driver/Src/stm32f7xx_hal_dma_ex.c ****     {
 2150              		.loc 1 201 5 is_stmt 1 view .LVU552
 201:Drivers/STM32F7xx_HAL_Driver/Src/stm32f7xx_hal_dma_ex.c ****     {
 2151              		.loc 1 201 13 is_stmt 0 view .LVU553
 2152 0c82 236C     		ldr	r3, [r4, #64]
 201:Drivers/STM32F7xx_HAL_Driver/Src/stm32f7xx_hal_dma_ex.c ****     {
 2153              		.loc 1 201 7 view .LVU554
 2154 0c84 002B     		cmp	r3, #0
 2155 0c86 00F02581 		beq	.L321
 2156              	.L58:
 203:Drivers/STM32F7xx_HAL_Driver/Src/stm32f7xx_hal_dma_ex.c ****     }
 2157              		.loc 1 203 7 is_stmt 1 view .LVU555
 203:Drivers/STM32F7xx_HAL_Driver/Src/stm32f7xx_hal_dma_ex.c ****     }
 2158              		.loc 1 203 11 is_stmt 0 view .LVU556
 2159 0c8a 2268     		ldr	r2, [r4]
 203:Drivers/STM32F7xx_HAL_Driver/Src/stm32f7xx_hal_dma_ex.c ****     }
 2160              		.loc 1 203 21 view .LVU557
 2161 0c8c 1368     		ldr	r3, [r2]
 203:Drivers/STM32F7xx_HAL_Driver/Src/stm32f7xx_hal_dma_ex.c ****     }
 2162              		.loc 1 203 27 view .LVU558
 2163 0c8e 43F00803 		orr	r3, r3, #8
 2164 0c92 1360     		str	r3, [r2]
 2165              	.L59:
 207:Drivers/STM32F7xx_HAL_Driver/Src/stm32f7xx_hal_dma_ex.c ****   }
 2166              		.loc 1 207 5 is_stmt 1 view .LVU559
 2167 0c94 2268     		ldr	r2, [r4]
 2168 0c96 1368     		ldr	r3, [r2]
 2169 0c98 43F00103 		orr	r3, r3, #1
 2170 0c9c 1360     		str	r3, [r2]
 158:Drivers/STM32F7xx_HAL_Driver/Src/stm32f7xx_hal_dma_ex.c ****   
 2171              		.loc 1 158 21 is_stmt 0 view .LVU560
 2172 0c9e 0020     		movs	r0, #0
 2173 0ca0 FFF7C4B9 		b	.L16
 2174              	.L254:
 195:Drivers/STM32F7xx_HAL_Driver/Src/stm32f7xx_hal_dma_ex.c ****     
 2175              		.loc 1 195 5 discriminator 6 view .LVU561
 2176 0ca4 0122     		movs	r2, #1
 2177 0ca6 E0E7     		b	.L51
 2178              	.L255:
 195:Drivers/STM32F7xx_HAL_Driver/Src/stm32f7xx_hal_dma_ex.c ****     
 2179              		.loc 1 195 5 discriminator 8 view .LVU562
 2180 0ca8 0122     		movs	r2, #1
 2181 0caa DEE7     		b	.L51
 2182              	.L256:
 195:Drivers/STM32F7xx_HAL_Driver/Src/stm32f7xx_hal_dma_ex.c ****     
ARM GAS  C:\Users\frees\AppData\Local\Temp\ccr3Z05i.s 			page 54


 2183              		.loc 1 195 5 discriminator 10 view .LVU563
 2184 0cac 0122     		movs	r2, #1
 2185 0cae DCE7     		b	.L51
 2186              	.L257:
 195:Drivers/STM32F7xx_HAL_Driver/Src/stm32f7xx_hal_dma_ex.c ****     
 2187              		.loc 1 195 5 discriminator 12 view .LVU564
 2188 0cb0 4022     		movs	r2, #64
 2189 0cb2 DAE7     		b	.L51
 2190              	.L258:
 195:Drivers/STM32F7xx_HAL_Driver/Src/stm32f7xx_hal_dma_ex.c ****     
 2191              		.loc 1 195 5 discriminator 14 view .LVU565
 2192 0cb4 4022     		movs	r2, #64
 2193 0cb6 D8E7     		b	.L51
 2194              	.L259:
 195:Drivers/STM32F7xx_HAL_Driver/Src/stm32f7xx_hal_dma_ex.c ****     
 2195              		.loc 1 195 5 discriminator 16 view .LVU566
 2196 0cb8 4022     		movs	r2, #64
 2197 0cba D6E7     		b	.L51
 2198              	.L260:
 195:Drivers/STM32F7xx_HAL_Driver/Src/stm32f7xx_hal_dma_ex.c ****     
 2199              		.loc 1 195 5 discriminator 18 view .LVU567
 2200 0cbc 4022     		movs	r2, #64
 2201 0cbe D4E7     		b	.L51
 2202              	.L261:
 195:Drivers/STM32F7xx_HAL_Driver/Src/stm32f7xx_hal_dma_ex.c ****     
 2203              		.loc 1 195 5 discriminator 20 view .LVU568
 2204 0cc0 4FF48032 		mov	r2, #65536
 2205 0cc4 D1E7     		b	.L51
 2206              	.L262:
 195:Drivers/STM32F7xx_HAL_Driver/Src/stm32f7xx_hal_dma_ex.c ****     
 2207              		.loc 1 195 5 discriminator 22 view .LVU569
 2208 0cc6 4FF48032 		mov	r2, #65536
 2209 0cca CEE7     		b	.L51
 2210              	.L263:
 195:Drivers/STM32F7xx_HAL_Driver/Src/stm32f7xx_hal_dma_ex.c ****     
 2211              		.loc 1 195 5 discriminator 24 view .LVU570
 2212 0ccc 4FF48032 		mov	r2, #65536
 2213 0cd0 CBE7     		b	.L51
 2214              	.L50:
 195:Drivers/STM32F7xx_HAL_Driver/Src/stm32f7xx_hal_dma_ex.c ****     
 2215              		.loc 1 195 5 discriminator 2 view .LVU571
 2216 0cd2 564A     		ldr	r2, .L333+12
 2217 0cd4 9342     		cmp	r3, r2
 2218 0cd6 4FD9     		bls	.L53
 195:Drivers/STM32F7xx_HAL_Driver/Src/stm32f7xx_hal_dma_ex.c ****     
 2219              		.loc 1 195 5 discriminator 51 view .LVU572
 2220 0cd8 A83A     		subs	r2, r2, #168
 2221 0cda 9342     		cmp	r3, r2
 2222 0cdc 31D0     		beq	.L265
 195:Drivers/STM32F7xx_HAL_Driver/Src/stm32f7xx_hal_dma_ex.c ****     
 2223              		.loc 1 195 5 discriminator 53 view .LVU573
 2224 0cde 02F58062 		add	r2, r2, #1024
 2225 0ce2 9342     		cmp	r3, r2
 2226 0ce4 31D0     		beq	.L266
 195:Drivers/STM32F7xx_HAL_Driver/Src/stm32f7xx_hal_dma_ex.c ****     
 2227              		.loc 1 195 5 discriminator 55 view .LVU574
 2228 0ce6 A2F56872 		sub	r2, r2, #928
ARM GAS  C:\Users\frees\AppData\Local\Temp\ccr3Z05i.s 			page 55


 2229 0cea 9342     		cmp	r3, r2
 2230 0cec 2FD0     		beq	.L267
 195:Drivers/STM32F7xx_HAL_Driver/Src/stm32f7xx_hal_dma_ex.c ****     
 2231              		.loc 1 195 5 discriminator 57 view .LVU575
 2232 0cee 02F58062 		add	r2, r2, #1024
 2233 0cf2 9342     		cmp	r3, r2
 2234 0cf4 2DD0     		beq	.L268
 195:Drivers/STM32F7xx_HAL_Driver/Src/stm32f7xx_hal_dma_ex.c ****     
 2235              		.loc 1 195 5 discriminator 59 view .LVU576
 2236 0cf6 A2F58962 		sub	r2, r2, #1096
 2237 0cfa 9342     		cmp	r3, r2
 2238 0cfc 2BD0     		beq	.L269
 195:Drivers/STM32F7xx_HAL_Driver/Src/stm32f7xx_hal_dma_ex.c ****     
 2239              		.loc 1 195 5 discriminator 61 view .LVU577
 2240 0cfe 02F58062 		add	r2, r2, #1024
 2241 0d02 9342     		cmp	r3, r2
 2242 0d04 29D0     		beq	.L270
 195:Drivers/STM32F7xx_HAL_Driver/Src/stm32f7xx_hal_dma_ex.c ****     
 2243              		.loc 1 195 5 discriminator 63 view .LVU578
 2244 0d06 A2F56872 		sub	r2, r2, #928
 2245 0d0a 9342     		cmp	r3, r2
 2246 0d0c 27D0     		beq	.L271
 195:Drivers/STM32F7xx_HAL_Driver/Src/stm32f7xx_hal_dma_ex.c ****     
 2247              		.loc 1 195 5 discriminator 65 view .LVU579
 2248 0d0e 02F58062 		add	r2, r2, #1024
 2249 0d12 9342     		cmp	r3, r2
 2250 0d14 25D0     		beq	.L272
 195:Drivers/STM32F7xx_HAL_Driver/Src/stm32f7xx_hal_dma_ex.c ****     
 2251              		.loc 1 195 5 discriminator 67 view .LVU580
 2252 0d16 A2F58962 		sub	r2, r2, #1096
 2253 0d1a 9342     		cmp	r3, r2
 2254 0d1c 23D0     		beq	.L273
 195:Drivers/STM32F7xx_HAL_Driver/Src/stm32f7xx_hal_dma_ex.c ****     
 2255              		.loc 1 195 5 discriminator 69 view .LVU581
 2256 0d1e 02F58062 		add	r2, r2, #1024
 2257 0d22 9342     		cmp	r3, r2
 2258 0d24 22D0     		beq	.L274
 195:Drivers/STM32F7xx_HAL_Driver/Src/stm32f7xx_hal_dma_ex.c ****     
 2259              		.loc 1 195 5 discriminator 71 view .LVU582
 2260 0d26 A2F56872 		sub	r2, r2, #928
 2261 0d2a 9342     		cmp	r3, r2
 2262 0d2c 21D0     		beq	.L275
 195:Drivers/STM32F7xx_HAL_Driver/Src/stm32f7xx_hal_dma_ex.c ****     
 2263              		.loc 1 195 5 discriminator 73 view .LVU583
 2264 0d2e 02F58062 		add	r2, r2, #1024
 2265 0d32 9342     		cmp	r3, r2
 2266 0d34 02D0     		beq	.L322
 195:Drivers/STM32F7xx_HAL_Driver/Src/stm32f7xx_hal_dma_ex.c ****     
 2267              		.loc 1 195 5 discriminator 76 view .LVU584
 2268 0d36 4FF48002 		mov	r2, #4194304
 2269 0d3a 03E0     		b	.L54
 2270              	.L322:
 195:Drivers/STM32F7xx_HAL_Driver/Src/stm32f7xx_hal_dma_ex.c ****     
 2271              		.loc 1 195 5 discriminator 75 view .LVU585
 2272 0d3c 4FF48032 		mov	r2, #65536
 2273 0d40 00E0     		b	.L54
 2274              	.L265:
ARM GAS  C:\Users\frees\AppData\Local\Temp\ccr3Z05i.s 			page 56


 195:Drivers/STM32F7xx_HAL_Driver/Src/stm32f7xx_hal_dma_ex.c ****     
 2275              		.loc 1 195 5 discriminator 54 view .LVU586
 2276 0d42 0122     		movs	r2, #1
 2277              	.L54:
 195:Drivers/STM32F7xx_HAL_Driver/Src/stm32f7xx_hal_dma_ex.c ****     
 2278              		.loc 1 195 5 discriminator 100 view .LVU587
 2279 0d44 384B     		ldr	r3, .L333+8
 2280 0d46 9A60     		str	r2, [r3, #8]
 2281 0d48 91E7     		b	.L52
 2282              	.L266:
 195:Drivers/STM32F7xx_HAL_Driver/Src/stm32f7xx_hal_dma_ex.c ****     
 2283              		.loc 1 195 5 discriminator 56 view .LVU588
 2284 0d4a 0122     		movs	r2, #1
 2285 0d4c FAE7     		b	.L54
 2286              	.L267:
 195:Drivers/STM32F7xx_HAL_Driver/Src/stm32f7xx_hal_dma_ex.c ****     
 2287              		.loc 1 195 5 discriminator 58 view .LVU589
 2288 0d4e 0122     		movs	r2, #1
 2289 0d50 F8E7     		b	.L54
 2290              	.L268:
 195:Drivers/STM32F7xx_HAL_Driver/Src/stm32f7xx_hal_dma_ex.c ****     
 2291              		.loc 1 195 5 discriminator 60 view .LVU590
 2292 0d52 0122     		movs	r2, #1
 2293 0d54 F6E7     		b	.L54
 2294              	.L269:
 195:Drivers/STM32F7xx_HAL_Driver/Src/stm32f7xx_hal_dma_ex.c ****     
 2295              		.loc 1 195 5 discriminator 62 view .LVU591
 2296 0d56 4022     		movs	r2, #64
 2297 0d58 F4E7     		b	.L54
 2298              	.L270:
 195:Drivers/STM32F7xx_HAL_Driver/Src/stm32f7xx_hal_dma_ex.c ****     
 2299              		.loc 1 195 5 discriminator 64 view .LVU592
 2300 0d5a 4022     		movs	r2, #64
 2301 0d5c F2E7     		b	.L54
 2302              	.L271:
 195:Drivers/STM32F7xx_HAL_Driver/Src/stm32f7xx_hal_dma_ex.c ****     
 2303              		.loc 1 195 5 discriminator 66 view .LVU593
 2304 0d5e 4022     		movs	r2, #64
 2305 0d60 F0E7     		b	.L54
 2306              	.L272:
 195:Drivers/STM32F7xx_HAL_Driver/Src/stm32f7xx_hal_dma_ex.c ****     
 2307              		.loc 1 195 5 discriminator 68 view .LVU594
 2308 0d62 4022     		movs	r2, #64
 2309 0d64 EEE7     		b	.L54
 2310              	.L273:
 195:Drivers/STM32F7xx_HAL_Driver/Src/stm32f7xx_hal_dma_ex.c ****     
 2311              		.loc 1 195 5 discriminator 70 view .LVU595
 2312 0d66 4FF48032 		mov	r2, #65536
 2313 0d6a EBE7     		b	.L54
 2314              	.L274:
 195:Drivers/STM32F7xx_HAL_Driver/Src/stm32f7xx_hal_dma_ex.c ****     
 2315              		.loc 1 195 5 discriminator 72 view .LVU596
 2316 0d6c 4FF48032 		mov	r2, #65536
 2317 0d70 E8E7     		b	.L54
 2318              	.L275:
 195:Drivers/STM32F7xx_HAL_Driver/Src/stm32f7xx_hal_dma_ex.c ****     
 2319              		.loc 1 195 5 discriminator 74 view .LVU597
ARM GAS  C:\Users\frees\AppData\Local\Temp\ccr3Z05i.s 			page 57


 2320 0d72 4FF48032 		mov	r2, #65536
 2321 0d76 E5E7     		b	.L54
 2322              	.L53:
 195:Drivers/STM32F7xx_HAL_Driver/Src/stm32f7xx_hal_dma_ex.c ****     
 2323              		.loc 1 195 5 discriminator 52 view .LVU598
 2324 0d78 2D4A     		ldr	r2, .L333+16
 2325 0d7a 9342     		cmp	r3, r2
 2326 0d7c 5AD9     		bls	.L55
 195:Drivers/STM32F7xx_HAL_Driver/Src/stm32f7xx_hal_dma_ex.c ****     
 2327              		.loc 1 195 5 discriminator 102 view .LVU599
 2328 0d7e 483A     		subs	r2, r2, #72
 2329 0d80 9342     		cmp	r3, r2
 2330 0d82 31D0     		beq	.L277
 195:Drivers/STM32F7xx_HAL_Driver/Src/stm32f7xx_hal_dma_ex.c ****     
 2331              		.loc 1 195 5 discriminator 104 view .LVU600
 2332 0d84 02F58062 		add	r2, r2, #1024
 2333 0d88 9342     		cmp	r3, r2
 2334 0d8a 31D0     		beq	.L278
 195:Drivers/STM32F7xx_HAL_Driver/Src/stm32f7xx_hal_dma_ex.c ****     
 2335              		.loc 1 195 5 discriminator 106 view .LVU601
 2336 0d8c A2F56872 		sub	r2, r2, #928
 2337 0d90 9342     		cmp	r3, r2
 2338 0d92 2FD0     		beq	.L279
 195:Drivers/STM32F7xx_HAL_Driver/Src/stm32f7xx_hal_dma_ex.c ****     
 2339              		.loc 1 195 5 discriminator 108 view .LVU602
 2340 0d94 02F58062 		add	r2, r2, #1024
 2341 0d98 9342     		cmp	r3, r2
 2342 0d9a 2DD0     		beq	.L280
 195:Drivers/STM32F7xx_HAL_Driver/Src/stm32f7xx_hal_dma_ex.c ****     
 2343              		.loc 1 195 5 discriminator 110 view .LVU603
 2344 0d9c A2F58962 		sub	r2, r2, #1096
 2345 0da0 9342     		cmp	r3, r2
 2346 0da2 2BD0     		beq	.L281
 195:Drivers/STM32F7xx_HAL_Driver/Src/stm32f7xx_hal_dma_ex.c ****     
 2347              		.loc 1 195 5 discriminator 112 view .LVU604
 2348 0da4 02F58062 		add	r2, r2, #1024
 2349 0da8 9342     		cmp	r3, r2
 2350 0daa 29D0     		beq	.L282
 195:Drivers/STM32F7xx_HAL_Driver/Src/stm32f7xx_hal_dma_ex.c ****     
 2351              		.loc 1 195 5 discriminator 114 view .LVU605
 2352 0dac A2F56872 		sub	r2, r2, #928
 2353 0db0 9342     		cmp	r3, r2
 2354 0db2 27D0     		beq	.L283
 195:Drivers/STM32F7xx_HAL_Driver/Src/stm32f7xx_hal_dma_ex.c ****     
 2355              		.loc 1 195 5 discriminator 116 view .LVU606
 2356 0db4 02F58062 		add	r2, r2, #1024
 2357 0db8 9342     		cmp	r3, r2
 2358 0dba 25D0     		beq	.L284
 195:Drivers/STM32F7xx_HAL_Driver/Src/stm32f7xx_hal_dma_ex.c ****     
 2359              		.loc 1 195 5 discriminator 118 view .LVU607
 2360 0dbc A2F58962 		sub	r2, r2, #1096
 2361 0dc0 9342     		cmp	r3, r2
 2362 0dc2 23D0     		beq	.L285
 195:Drivers/STM32F7xx_HAL_Driver/Src/stm32f7xx_hal_dma_ex.c ****     
 2363              		.loc 1 195 5 discriminator 120 view .LVU608
 2364 0dc4 02F58062 		add	r2, r2, #1024
 2365 0dc8 9342     		cmp	r3, r2
ARM GAS  C:\Users\frees\AppData\Local\Temp\ccr3Z05i.s 			page 58


 2366 0dca 22D0     		beq	.L286
 195:Drivers/STM32F7xx_HAL_Driver/Src/stm32f7xx_hal_dma_ex.c ****     
 2367              		.loc 1 195 5 discriminator 122 view .LVU609
 2368 0dcc A2F56872 		sub	r2, r2, #928
 2369 0dd0 9342     		cmp	r3, r2
 2370 0dd2 21D0     		beq	.L287
 195:Drivers/STM32F7xx_HAL_Driver/Src/stm32f7xx_hal_dma_ex.c ****     
 2371              		.loc 1 195 5 discriminator 124 view .LVU610
 2372 0dd4 02F58062 		add	r2, r2, #1024
 2373 0dd8 9342     		cmp	r3, r2
 2374 0dda 02D0     		beq	.L323
 195:Drivers/STM32F7xx_HAL_Driver/Src/stm32f7xx_hal_dma_ex.c ****     
 2375              		.loc 1 195 5 discriminator 127 view .LVU611
 2376 0ddc 4FF48003 		mov	r3, #4194304
 2377 0de0 03E0     		b	.L56
 2378              	.L323:
 195:Drivers/STM32F7xx_HAL_Driver/Src/stm32f7xx_hal_dma_ex.c ****     
 2379              		.loc 1 195 5 discriminator 126 view .LVU612
 2380 0de2 4FF48033 		mov	r3, #65536
 2381 0de6 00E0     		b	.L56
 2382              	.L277:
 195:Drivers/STM32F7xx_HAL_Driver/Src/stm32f7xx_hal_dma_ex.c ****     
 2383              		.loc 1 195 5 discriminator 105 view .LVU613
 2384 0de8 0123     		movs	r3, #1
 2385              	.L56:
 195:Drivers/STM32F7xx_HAL_Driver/Src/stm32f7xx_hal_dma_ex.c ****     
 2386              		.loc 1 195 5 discriminator 151 view .LVU614
 2387 0dea 0E4A     		ldr	r2, .L333+4
 2388 0dec D360     		str	r3, [r2, #12]
 2389 0dee 3EE7     		b	.L52
 2390              	.L278:
 195:Drivers/STM32F7xx_HAL_Driver/Src/stm32f7xx_hal_dma_ex.c ****     
 2391              		.loc 1 195 5 discriminator 107 view .LVU615
 2392 0df0 0123     		movs	r3, #1
 2393 0df2 FAE7     		b	.L56
 2394              	.L279:
 195:Drivers/STM32F7xx_HAL_Driver/Src/stm32f7xx_hal_dma_ex.c ****     
 2395              		.loc 1 195 5 discriminator 109 view .LVU616
 2396 0df4 0123     		movs	r3, #1
 2397 0df6 F8E7     		b	.L56
 2398              	.L280:
 195:Drivers/STM32F7xx_HAL_Driver/Src/stm32f7xx_hal_dma_ex.c ****     
 2399              		.loc 1 195 5 discriminator 111 view .LVU617
 2400 0df8 0123     		movs	r3, #1
 2401 0dfa F6E7     		b	.L56
 2402              	.L281:
 195:Drivers/STM32F7xx_HAL_Driver/Src/stm32f7xx_hal_dma_ex.c ****     
 2403              		.loc 1 195 5 discriminator 113 view .LVU618
 2404 0dfc 4023     		movs	r3, #64
 2405 0dfe F4E7     		b	.L56
 2406              	.L282:
 195:Drivers/STM32F7xx_HAL_Driver/Src/stm32f7xx_hal_dma_ex.c ****     
 2407              		.loc 1 195 5 discriminator 115 view .LVU619
 2408 0e00 4023     		movs	r3, #64
 2409 0e02 F2E7     		b	.L56
 2410              	.L283:
 195:Drivers/STM32F7xx_HAL_Driver/Src/stm32f7xx_hal_dma_ex.c ****     
ARM GAS  C:\Users\frees\AppData\Local\Temp\ccr3Z05i.s 			page 59


 2411              		.loc 1 195 5 discriminator 117 view .LVU620
 2412 0e04 4023     		movs	r3, #64
 2413 0e06 F0E7     		b	.L56
 2414              	.L284:
 195:Drivers/STM32F7xx_HAL_Driver/Src/stm32f7xx_hal_dma_ex.c ****     
 2415              		.loc 1 195 5 discriminator 119 view .LVU621
 2416 0e08 4023     		movs	r3, #64
 2417 0e0a EEE7     		b	.L56
 2418              	.L285:
 195:Drivers/STM32F7xx_HAL_Driver/Src/stm32f7xx_hal_dma_ex.c ****     
 2419              		.loc 1 195 5 discriminator 121 view .LVU622
 2420 0e0c 4FF48033 		mov	r3, #65536
 2421 0e10 EBE7     		b	.L56
 2422              	.L286:
 195:Drivers/STM32F7xx_HAL_Driver/Src/stm32f7xx_hal_dma_ex.c ****     
 2423              		.loc 1 195 5 discriminator 123 view .LVU623
 2424 0e12 4FF48033 		mov	r3, #65536
 2425 0e16 E8E7     		b	.L56
 2426              	.L287:
 195:Drivers/STM32F7xx_HAL_Driver/Src/stm32f7xx_hal_dma_ex.c ****     
 2427              		.loc 1 195 5 discriminator 125 view .LVU624
 2428 0e18 4FF48033 		mov	r3, #65536
 2429 0e1c E5E7     		b	.L56
 2430              	.L334:
 2431 0e1e 00BF     		.align	2
 2432              	.L333:
 2433 0e20 10600240 		.word	1073897488
 2434 0e24 00600240 		.word	1073897472
 2435 0e28 00640240 		.word	1073898496
 2436 0e2c B8600240 		.word	1073897656
 2437 0e30 58600240 		.word	1073897560
 2438              	.L55:
 195:Drivers/STM32F7xx_HAL_Driver/Src/stm32f7xx_hal_dma_ex.c ****     
 2439              		.loc 1 195 5 discriminator 103 view .LVU625
 2440 0e34 2B4A     		ldr	r2, .L335
 2441 0e36 9342     		cmp	r3, r2
 2442 0e38 31D0     		beq	.L289
 195:Drivers/STM32F7xx_HAL_Driver/Src/stm32f7xx_hal_dma_ex.c ****     
 2443              		.loc 1 195 5 discriminator 153 view .LVU626
 2444 0e3a 02F58062 		add	r2, r2, #1024
 2445 0e3e 9342     		cmp	r3, r2
 2446 0e40 31D0     		beq	.L290
 195:Drivers/STM32F7xx_HAL_Driver/Src/stm32f7xx_hal_dma_ex.c ****     
 2447              		.loc 1 195 5 discriminator 155 view .LVU627
 2448 0e42 A2F56872 		sub	r2, r2, #928
 2449 0e46 9342     		cmp	r3, r2
 2450 0e48 2FD0     		beq	.L291
 195:Drivers/STM32F7xx_HAL_Driver/Src/stm32f7xx_hal_dma_ex.c ****     
 2451              		.loc 1 195 5 discriminator 157 view .LVU628
 2452 0e4a 02F58062 		add	r2, r2, #1024
 2453 0e4e 9342     		cmp	r3, r2
 2454 0e50 2DD0     		beq	.L292
 195:Drivers/STM32F7xx_HAL_Driver/Src/stm32f7xx_hal_dma_ex.c ****     
 2455              		.loc 1 195 5 discriminator 159 view .LVU629
 2456 0e52 A2F58962 		sub	r2, r2, #1096
 2457 0e56 9342     		cmp	r3, r2
 2458 0e58 2BD0     		beq	.L293
ARM GAS  C:\Users\frees\AppData\Local\Temp\ccr3Z05i.s 			page 60


 195:Drivers/STM32F7xx_HAL_Driver/Src/stm32f7xx_hal_dma_ex.c ****     
 2459              		.loc 1 195 5 discriminator 161 view .LVU630
 2460 0e5a 02F58062 		add	r2, r2, #1024
 2461 0e5e 9342     		cmp	r3, r2
 2462 0e60 29D0     		beq	.L294
 195:Drivers/STM32F7xx_HAL_Driver/Src/stm32f7xx_hal_dma_ex.c ****     
 2463              		.loc 1 195 5 discriminator 163 view .LVU631
 2464 0e62 A2F56872 		sub	r2, r2, #928
 2465 0e66 9342     		cmp	r3, r2
 2466 0e68 27D0     		beq	.L295
 195:Drivers/STM32F7xx_HAL_Driver/Src/stm32f7xx_hal_dma_ex.c ****     
 2467              		.loc 1 195 5 discriminator 165 view .LVU632
 2468 0e6a 02F58062 		add	r2, r2, #1024
 2469 0e6e 9342     		cmp	r3, r2
 2470 0e70 25D0     		beq	.L296
 195:Drivers/STM32F7xx_HAL_Driver/Src/stm32f7xx_hal_dma_ex.c ****     
 2471              		.loc 1 195 5 discriminator 167 view .LVU633
 2472 0e72 A2F58962 		sub	r2, r2, #1096
 2473 0e76 9342     		cmp	r3, r2
 2474 0e78 23D0     		beq	.L297
 195:Drivers/STM32F7xx_HAL_Driver/Src/stm32f7xx_hal_dma_ex.c ****     
 2475              		.loc 1 195 5 discriminator 169 view .LVU634
 2476 0e7a 02F58062 		add	r2, r2, #1024
 2477 0e7e 9342     		cmp	r3, r2
 2478 0e80 22D0     		beq	.L298
 195:Drivers/STM32F7xx_HAL_Driver/Src/stm32f7xx_hal_dma_ex.c ****     
 2479              		.loc 1 195 5 discriminator 171 view .LVU635
 2480 0e82 A2F56872 		sub	r2, r2, #928
 2481 0e86 9342     		cmp	r3, r2
 2482 0e88 21D0     		beq	.L299
 195:Drivers/STM32F7xx_HAL_Driver/Src/stm32f7xx_hal_dma_ex.c ****     
 2483              		.loc 1 195 5 discriminator 173 view .LVU636
 2484 0e8a 02F58062 		add	r2, r2, #1024
 2485 0e8e 9342     		cmp	r3, r2
 2486 0e90 02D0     		beq	.L324
 195:Drivers/STM32F7xx_HAL_Driver/Src/stm32f7xx_hal_dma_ex.c ****     
 2487              		.loc 1 195 5 discriminator 176 view .LVU637
 2488 0e92 4FF48003 		mov	r3, #4194304
 2489 0e96 03E0     		b	.L57
 2490              	.L324:
 195:Drivers/STM32F7xx_HAL_Driver/Src/stm32f7xx_hal_dma_ex.c ****     
 2491              		.loc 1 195 5 discriminator 175 view .LVU638
 2492 0e98 4FF48033 		mov	r3, #65536
 2493 0e9c 00E0     		b	.L57
 2494              	.L289:
 195:Drivers/STM32F7xx_HAL_Driver/Src/stm32f7xx_hal_dma_ex.c ****     
 2495              		.loc 1 195 5 discriminator 154 view .LVU639
 2496 0e9e 0123     		movs	r3, #1
 2497              	.L57:
 195:Drivers/STM32F7xx_HAL_Driver/Src/stm32f7xx_hal_dma_ex.c ****     
 2498              		.loc 1 195 5 discriminator 200 view .LVU640
 2499 0ea0 114A     		ldr	r2, .L335+4
 2500 0ea2 9360     		str	r3, [r2, #8]
 2501 0ea4 E3E6     		b	.L52
 2502              	.L290:
 195:Drivers/STM32F7xx_HAL_Driver/Src/stm32f7xx_hal_dma_ex.c ****     
 2503              		.loc 1 195 5 discriminator 156 view .LVU641
ARM GAS  C:\Users\frees\AppData\Local\Temp\ccr3Z05i.s 			page 61


 2504 0ea6 0123     		movs	r3, #1
 2505 0ea8 FAE7     		b	.L57
 2506              	.L291:
 195:Drivers/STM32F7xx_HAL_Driver/Src/stm32f7xx_hal_dma_ex.c ****     
 2507              		.loc 1 195 5 discriminator 158 view .LVU642
 2508 0eaa 0123     		movs	r3, #1
 2509 0eac F8E7     		b	.L57
 2510              	.L292:
 195:Drivers/STM32F7xx_HAL_Driver/Src/stm32f7xx_hal_dma_ex.c ****     
 2511              		.loc 1 195 5 discriminator 160 view .LVU643
 2512 0eae 0123     		movs	r3, #1
 2513 0eb0 F6E7     		b	.L57
 2514              	.L293:
 195:Drivers/STM32F7xx_HAL_Driver/Src/stm32f7xx_hal_dma_ex.c ****     
 2515              		.loc 1 195 5 discriminator 162 view .LVU644
 2516 0eb2 4023     		movs	r3, #64
 2517 0eb4 F4E7     		b	.L57
 2518              	.L294:
 195:Drivers/STM32F7xx_HAL_Driver/Src/stm32f7xx_hal_dma_ex.c ****     
 2519              		.loc 1 195 5 discriminator 164 view .LVU645
 2520 0eb6 4023     		movs	r3, #64
 2521 0eb8 F2E7     		b	.L57
 2522              	.L295:
 195:Drivers/STM32F7xx_HAL_Driver/Src/stm32f7xx_hal_dma_ex.c ****     
 2523              		.loc 1 195 5 discriminator 166 view .LVU646
 2524 0eba 4023     		movs	r3, #64
 2525 0ebc F0E7     		b	.L57
 2526              	.L296:
 195:Drivers/STM32F7xx_HAL_Driver/Src/stm32f7xx_hal_dma_ex.c ****     
 2527              		.loc 1 195 5 discriminator 168 view .LVU647
 2528 0ebe 4023     		movs	r3, #64
 2529 0ec0 EEE7     		b	.L57
 2530              	.L297:
 195:Drivers/STM32F7xx_HAL_Driver/Src/stm32f7xx_hal_dma_ex.c ****     
 2531              		.loc 1 195 5 discriminator 170 view .LVU648
 2532 0ec2 4FF48033 		mov	r3, #65536
 2533 0ec6 EBE7     		b	.L57
 2534              	.L298:
 195:Drivers/STM32F7xx_HAL_Driver/Src/stm32f7xx_hal_dma_ex.c ****     
 2535              		.loc 1 195 5 discriminator 172 view .LVU649
 2536 0ec8 4FF48033 		mov	r3, #65536
 2537 0ecc E8E7     		b	.L57
 2538              	.L299:
 195:Drivers/STM32F7xx_HAL_Driver/Src/stm32f7xx_hal_dma_ex.c ****     
 2539              		.loc 1 195 5 discriminator 174 view .LVU650
 2540 0ece 4FF48033 		mov	r3, #65536
 2541 0ed2 E5E7     		b	.L57
 2542              	.L321:
 201:Drivers/STM32F7xx_HAL_Driver/Src/stm32f7xx_hal_dma_ex.c ****     {
 2543              		.loc 1 201 53 discriminator 1 view .LVU651
 2544 0ed4 A36C     		ldr	r3, [r4, #72]
 201:Drivers/STM32F7xx_HAL_Driver/Src/stm32f7xx_hal_dma_ex.c ****     {
 2545              		.loc 1 201 45 discriminator 1 view .LVU652
 2546 0ed6 002B     		cmp	r3, #0
 2547 0ed8 7FF4D7AE 		bne	.L58
 2548 0edc DAE6     		b	.L59
 2549              	.LVL38:
ARM GAS  C:\Users\frees\AppData\Local\Temp\ccr3Z05i.s 			page 62


 2550              	.L60:
 171:Drivers/STM32F7xx_HAL_Driver/Src/stm32f7xx_hal_dma_ex.c ****   
 2551              		.loc 1 171 3 discriminator 1 view .LVU653
 2552 0ede 0220     		movs	r0, #2
 2553 0ee0 FFF7A4B8 		b	.L16
 2554              	.L336:
 2555              		.align	2
 2556              	.L335:
 2557 0ee4 10600240 		.word	1073897488
 2558 0ee8 00600240 		.word	1073897472
 2559              		.cfi_endproc
 2560              	.LFE142:
 2562              		.section	.text.HAL_DMAEx_ChangeMemory,"ax",%progbits
 2563              		.align	1
 2564              		.global	HAL_DMAEx_ChangeMemory
 2565              		.syntax unified
 2566              		.thumb
 2567              		.thumb_func
 2569              	HAL_DMAEx_ChangeMemory:
 2570              	.LVL39:
 2571              	.LFB143:
 235:Drivers/STM32F7xx_HAL_Driver/Src/stm32f7xx_hal_dma_ex.c ****   if(memory == MEMORY0)
 2572              		.loc 1 235 1 is_stmt 1 view -0
 2573              		.cfi_startproc
 2574              		@ args = 0, pretend = 0, frame = 0
 2575              		@ frame_needed = 0, uses_anonymous_args = 0
 2576              		@ link register save eliminated.
 236:Drivers/STM32F7xx_HAL_Driver/Src/stm32f7xx_hal_dma_ex.c ****   {
 2577              		.loc 1 236 3 view .LVU655
 236:Drivers/STM32F7xx_HAL_Driver/Src/stm32f7xx_hal_dma_ex.c ****   {
 2578              		.loc 1 236 5 is_stmt 0 view .LVU656
 2579 0000 1AB9     		cbnz	r2, .L338
 239:Drivers/STM32F7xx_HAL_Driver/Src/stm32f7xx_hal_dma_ex.c ****   }
 2580              		.loc 1 239 5 is_stmt 1 view .LVU657
 239:Drivers/STM32F7xx_HAL_Driver/Src/stm32f7xx_hal_dma_ex.c ****   }
 2581              		.loc 1 239 9 is_stmt 0 view .LVU658
 2582 0002 0368     		ldr	r3, [r0]
 239:Drivers/STM32F7xx_HAL_Driver/Src/stm32f7xx_hal_dma_ex.c ****   }
 2583              		.loc 1 239 26 view .LVU659
 2584 0004 D960     		str	r1, [r3, #12]
 2585              	.L339:
 247:Drivers/STM32F7xx_HAL_Driver/Src/stm32f7xx_hal_dma_ex.c **** }
 2586              		.loc 1 247 3 is_stmt 1 view .LVU660
 248:Drivers/STM32F7xx_HAL_Driver/Src/stm32f7xx_hal_dma_ex.c **** 
 2587              		.loc 1 248 1 is_stmt 0 view .LVU661
 2588 0006 0020     		movs	r0, #0
 2589              	.LVL40:
 248:Drivers/STM32F7xx_HAL_Driver/Src/stm32f7xx_hal_dma_ex.c **** 
 2590              		.loc 1 248 1 view .LVU662
 2591 0008 7047     		bx	lr
 2592              	.LVL41:
 2593              	.L338:
 244:Drivers/STM32F7xx_HAL_Driver/Src/stm32f7xx_hal_dma_ex.c ****   }
 2594              		.loc 1 244 5 is_stmt 1 view .LVU663
 244:Drivers/STM32F7xx_HAL_Driver/Src/stm32f7xx_hal_dma_ex.c ****   }
 2595              		.loc 1 244 9 is_stmt 0 view .LVU664
 2596 000a 0368     		ldr	r3, [r0]
ARM GAS  C:\Users\frees\AppData\Local\Temp\ccr3Z05i.s 			page 63


 244:Drivers/STM32F7xx_HAL_Driver/Src/stm32f7xx_hal_dma_ex.c ****   }
 2597              		.loc 1 244 26 view .LVU665
 2598 000c 1961     		str	r1, [r3, #16]
 2599 000e FAE7     		b	.L339
 2600              		.cfi_endproc
 2601              	.LFE143:
 2603              		.text
 2604              	.Letext0:
 2605              		.file 2 "C:\\ST\\STM32CubeIDE_1.19.0\\STM32CubeIDE\\plugins\\com.st.stm32cube.ide.mcu.externaltool
 2606              		.file 3 "C:\\ST\\STM32CubeIDE_1.19.0\\STM32CubeIDE\\plugins\\com.st.stm32cube.ide.mcu.externaltool
 2607              		.file 4 "Drivers/CMSIS/Device/ST/STM32F7xx/Include/stm32f767xx.h"
 2608              		.file 5 "Drivers/STM32F7xx_HAL_Driver/Inc/stm32f7xx_hal_def.h"
 2609              		.file 6 "Drivers/STM32F7xx_HAL_Driver/Inc/stm32f7xx_hal_dma.h"
 2610              		.file 7 "Drivers/STM32F7xx_HAL_Driver/Inc/stm32f7xx_hal_dma_ex.h"
ARM GAS  C:\Users\frees\AppData\Local\Temp\ccr3Z05i.s 			page 64


DEFINED SYMBOLS
                            *ABS*:00000000 stm32f7xx_hal_dma_ex.c
C:\Users\frees\AppData\Local\Temp\ccr3Z05i.s:20     .text.DMA_MultiBufferSetConfig:00000000 $t
C:\Users\frees\AppData\Local\Temp\ccr3Z05i.s:25     .text.DMA_MultiBufferSetConfig:00000000 DMA_MultiBufferSetConfig
C:\Users\frees\AppData\Local\Temp\ccr3Z05i.s:88     .text.HAL_DMAEx_MultiBufferStart:00000000 $t
C:\Users\frees\AppData\Local\Temp\ccr3Z05i.s:94     .text.HAL_DMAEx_MultiBufferStart:00000000 HAL_DMAEx_MultiBufferStart
C:\Users\frees\AppData\Local\Temp\ccr3Z05i.s:200    .text.HAL_DMAEx_MultiBufferStart_IT:00000000 $t
C:\Users\frees\AppData\Local\Temp\ccr3Z05i.s:206    .text.HAL_DMAEx_MultiBufferStart_IT:00000000 HAL_DMAEx_MultiBufferStart_IT
C:\Users\frees\AppData\Local\Temp\ccr3Z05i.s:698    .text.HAL_DMAEx_MultiBufferStart_IT:000002f0 $d
C:\Users\frees\AppData\Local\Temp\ccr3Z05i.s:705    .text.HAL_DMAEx_MultiBufferStart_IT:00000304 $t
C:\Users\frees\AppData\Local\Temp\ccr3Z05i.s:1134   .text.HAL_DMAEx_MultiBufferStart_IT:000005cc $d
C:\Users\frees\AppData\Local\Temp\ccr3Z05i.s:1142   .text.HAL_DMAEx_MultiBufferStart_IT:000005e4 $t
C:\Users\frees\AppData\Local\Temp\ccr3Z05i.s:1571   .text.HAL_DMAEx_MultiBufferStart_IT:000008b4 $d
C:\Users\frees\AppData\Local\Temp\ccr3Z05i.s:1579   .text.HAL_DMAEx_MultiBufferStart_IT:000008cc $t
C:\Users\frees\AppData\Local\Temp\ccr3Z05i.s:2008   .text.HAL_DMAEx_MultiBufferStart_IT:00000b9c $d
C:\Users\frees\AppData\Local\Temp\ccr3Z05i.s:2016   .text.HAL_DMAEx_MultiBufferStart_IT:00000bb4 $t
C:\Users\frees\AppData\Local\Temp\ccr3Z05i.s:2433   .text.HAL_DMAEx_MultiBufferStart_IT:00000e20 $d
C:\Users\frees\AppData\Local\Temp\ccr3Z05i.s:2440   .text.HAL_DMAEx_MultiBufferStart_IT:00000e34 $t
C:\Users\frees\AppData\Local\Temp\ccr3Z05i.s:2557   .text.HAL_DMAEx_MultiBufferStart_IT:00000ee4 $d
C:\Users\frees\AppData\Local\Temp\ccr3Z05i.s:2563   .text.HAL_DMAEx_ChangeMemory:00000000 $t
C:\Users\frees\AppData\Local\Temp\ccr3Z05i.s:2569   .text.HAL_DMAEx_ChangeMemory:00000000 HAL_DMAEx_ChangeMemory

NO UNDEFINED SYMBOLS
