ARM GAS  /tmp/cc1lRkNS.s 			page 1


   1              		.cpu cortex-m7
   2              		.arch armv7e-m
   3              		.fpu fpv5-d16
   4              		.eabi_attribute 28, 1
   5              		.eabi_attribute 20, 1
   6              		.eabi_attribute 21, 1
   7              		.eabi_attribute 23, 3
   8              		.eabi_attribute 24, 1
   9              		.eabi_attribute 25, 1
  10              		.eabi_attribute 26, 1
  11              		.eabi_attribute 30, 1
  12              		.eabi_attribute 34, 1
  13              		.eabi_attribute 18, 4
  14              		.file	"stm32f7xx_hal_dma_ex.c"
  15              		.text
  16              	.Ltext0:
  17              		.cfi_sections	.debug_frame
  18              		.file 1 "Drivers/STM32F7xx_HAL_Driver/Src/stm32f7xx_hal_dma_ex.c"
  19              		.section	.text.DMA_MultiBufferSetConfig,"ax",%progbits
  20              		.align	1
  21              		.syntax unified
  22              		.thumb
  23              		.thumb_func
  25              	DMA_MultiBufferSetConfig:
  26              	.LVL0:
  27              	.LFB144:
   1:Drivers/STM32F7xx_HAL_Driver/Src/stm32f7xx_hal_dma_ex.c **** /**
   2:Drivers/STM32F7xx_HAL_Driver/Src/stm32f7xx_hal_dma_ex.c ****   ******************************************************************************
   3:Drivers/STM32F7xx_HAL_Driver/Src/stm32f7xx_hal_dma_ex.c ****   * @file    stm32f7xx_hal_dma_ex.c
   4:Drivers/STM32F7xx_HAL_Driver/Src/stm32f7xx_hal_dma_ex.c ****   * @author  MCD Application Team
   5:Drivers/STM32F7xx_HAL_Driver/Src/stm32f7xx_hal_dma_ex.c ****   * @brief   DMA Extension HAL module driver
   6:Drivers/STM32F7xx_HAL_Driver/Src/stm32f7xx_hal_dma_ex.c ****   *         This file provides firmware functions to manage the following 
   7:Drivers/STM32F7xx_HAL_Driver/Src/stm32f7xx_hal_dma_ex.c ****   *         functionalities of the DMA Extension peripheral:
   8:Drivers/STM32F7xx_HAL_Driver/Src/stm32f7xx_hal_dma_ex.c ****   *           + Extended features functions
   9:Drivers/STM32F7xx_HAL_Driver/Src/stm32f7xx_hal_dma_ex.c ****   *
  10:Drivers/STM32F7xx_HAL_Driver/Src/stm32f7xx_hal_dma_ex.c ****   @verbatim
  11:Drivers/STM32F7xx_HAL_Driver/Src/stm32f7xx_hal_dma_ex.c ****   ==============================================================================
  12:Drivers/STM32F7xx_HAL_Driver/Src/stm32f7xx_hal_dma_ex.c ****                         ##### How to use this driver #####
  13:Drivers/STM32F7xx_HAL_Driver/Src/stm32f7xx_hal_dma_ex.c ****   ==============================================================================
  14:Drivers/STM32F7xx_HAL_Driver/Src/stm32f7xx_hal_dma_ex.c ****   [..]
  15:Drivers/STM32F7xx_HAL_Driver/Src/stm32f7xx_hal_dma_ex.c ****   The DMA Extension HAL driver can be used as follows:
  16:Drivers/STM32F7xx_HAL_Driver/Src/stm32f7xx_hal_dma_ex.c ****    (+) Start a multi buffer transfer using the HAL_DMA_MultiBufferStart() function
  17:Drivers/STM32F7xx_HAL_Driver/Src/stm32f7xx_hal_dma_ex.c ****        for polling mode or HAL_DMA_MultiBufferStart_IT() for interrupt mode.
  18:Drivers/STM32F7xx_HAL_Driver/Src/stm32f7xx_hal_dma_ex.c **** 
  19:Drivers/STM32F7xx_HAL_Driver/Src/stm32f7xx_hal_dma_ex.c ****      -@-  In Memory-to-Memory transfer mode, Multi (Double) Buffer mode is not allowed.
  20:Drivers/STM32F7xx_HAL_Driver/Src/stm32f7xx_hal_dma_ex.c ****      -@-  When Multi (Double) Buffer mode is enabled, the transfer is circular by default.
  21:Drivers/STM32F7xx_HAL_Driver/Src/stm32f7xx_hal_dma_ex.c ****      -@-  In Multi (Double) buffer mode, it is possible to update the base address for 
  22:Drivers/STM32F7xx_HAL_Driver/Src/stm32f7xx_hal_dma_ex.c ****           the AHB memory port on the fly (DMA_SxM0AR or DMA_SxM1AR) when the stream is enabled.
  23:Drivers/STM32F7xx_HAL_Driver/Src/stm32f7xx_hal_dma_ex.c ****   
  24:Drivers/STM32F7xx_HAL_Driver/Src/stm32f7xx_hal_dma_ex.c ****   @endverbatim
  25:Drivers/STM32F7xx_HAL_Driver/Src/stm32f7xx_hal_dma_ex.c ****   ******************************************************************************
  26:Drivers/STM32F7xx_HAL_Driver/Src/stm32f7xx_hal_dma_ex.c ****   * @attention
  27:Drivers/STM32F7xx_HAL_Driver/Src/stm32f7xx_hal_dma_ex.c ****   *
  28:Drivers/STM32F7xx_HAL_Driver/Src/stm32f7xx_hal_dma_ex.c ****   * Copyright (c) 2017 STMicroelectronics.
  29:Drivers/STM32F7xx_HAL_Driver/Src/stm32f7xx_hal_dma_ex.c ****   * All rights reserved.
  30:Drivers/STM32F7xx_HAL_Driver/Src/stm32f7xx_hal_dma_ex.c ****   *
  31:Drivers/STM32F7xx_HAL_Driver/Src/stm32f7xx_hal_dma_ex.c ****   * This software is licensed under terms that can be found in the LICENSE file in
ARM GAS  /tmp/cc1lRkNS.s 			page 2


  32:Drivers/STM32F7xx_HAL_Driver/Src/stm32f7xx_hal_dma_ex.c ****   * the root directory of this software component.
  33:Drivers/STM32F7xx_HAL_Driver/Src/stm32f7xx_hal_dma_ex.c ****   * If no LICENSE file comes with this software, it is provided AS-IS.
  34:Drivers/STM32F7xx_HAL_Driver/Src/stm32f7xx_hal_dma_ex.c ****   *
  35:Drivers/STM32F7xx_HAL_Driver/Src/stm32f7xx_hal_dma_ex.c ****   ******************************************************************************
  36:Drivers/STM32F7xx_HAL_Driver/Src/stm32f7xx_hal_dma_ex.c ****   */
  37:Drivers/STM32F7xx_HAL_Driver/Src/stm32f7xx_hal_dma_ex.c **** 
  38:Drivers/STM32F7xx_HAL_Driver/Src/stm32f7xx_hal_dma_ex.c **** /* Includes ------------------------------------------------------------------*/
  39:Drivers/STM32F7xx_HAL_Driver/Src/stm32f7xx_hal_dma_ex.c **** #include "stm32f7xx_hal.h"
  40:Drivers/STM32F7xx_HAL_Driver/Src/stm32f7xx_hal_dma_ex.c **** 
  41:Drivers/STM32F7xx_HAL_Driver/Src/stm32f7xx_hal_dma_ex.c **** /** @addtogroup STM32F7xx_HAL_Driver
  42:Drivers/STM32F7xx_HAL_Driver/Src/stm32f7xx_hal_dma_ex.c ****   * @{
  43:Drivers/STM32F7xx_HAL_Driver/Src/stm32f7xx_hal_dma_ex.c ****   */
  44:Drivers/STM32F7xx_HAL_Driver/Src/stm32f7xx_hal_dma_ex.c **** 
  45:Drivers/STM32F7xx_HAL_Driver/Src/stm32f7xx_hal_dma_ex.c **** /** @defgroup DMAEx DMAEx
  46:Drivers/STM32F7xx_HAL_Driver/Src/stm32f7xx_hal_dma_ex.c ****   * @brief DMA Extended HAL module driver
  47:Drivers/STM32F7xx_HAL_Driver/Src/stm32f7xx_hal_dma_ex.c ****   * @{
  48:Drivers/STM32F7xx_HAL_Driver/Src/stm32f7xx_hal_dma_ex.c ****   */
  49:Drivers/STM32F7xx_HAL_Driver/Src/stm32f7xx_hal_dma_ex.c **** 
  50:Drivers/STM32F7xx_HAL_Driver/Src/stm32f7xx_hal_dma_ex.c **** #ifdef HAL_DMA_MODULE_ENABLED
  51:Drivers/STM32F7xx_HAL_Driver/Src/stm32f7xx_hal_dma_ex.c **** 
  52:Drivers/STM32F7xx_HAL_Driver/Src/stm32f7xx_hal_dma_ex.c **** /* Private types -------------------------------------------------------------*/
  53:Drivers/STM32F7xx_HAL_Driver/Src/stm32f7xx_hal_dma_ex.c **** /* Private variables ---------------------------------------------------------*/
  54:Drivers/STM32F7xx_HAL_Driver/Src/stm32f7xx_hal_dma_ex.c **** /* Private Constants ---------------------------------------------------------*/
  55:Drivers/STM32F7xx_HAL_Driver/Src/stm32f7xx_hal_dma_ex.c **** /* Private macros ------------------------------------------------------------*/
  56:Drivers/STM32F7xx_HAL_Driver/Src/stm32f7xx_hal_dma_ex.c **** /* Private functions ---------------------------------------------------------*/
  57:Drivers/STM32F7xx_HAL_Driver/Src/stm32f7xx_hal_dma_ex.c **** /** @addtogroup DMAEx_Private_Functions
  58:Drivers/STM32F7xx_HAL_Driver/Src/stm32f7xx_hal_dma_ex.c ****   * @{
  59:Drivers/STM32F7xx_HAL_Driver/Src/stm32f7xx_hal_dma_ex.c ****   */
  60:Drivers/STM32F7xx_HAL_Driver/Src/stm32f7xx_hal_dma_ex.c **** 
  61:Drivers/STM32F7xx_HAL_Driver/Src/stm32f7xx_hal_dma_ex.c **** static void DMA_MultiBufferSetConfig(DMA_HandleTypeDef *hdma, uint32_t SrcAddress, uint32_t DstAddr
  62:Drivers/STM32F7xx_HAL_Driver/Src/stm32f7xx_hal_dma_ex.c **** 
  63:Drivers/STM32F7xx_HAL_Driver/Src/stm32f7xx_hal_dma_ex.c **** /**
  64:Drivers/STM32F7xx_HAL_Driver/Src/stm32f7xx_hal_dma_ex.c ****   * @}
  65:Drivers/STM32F7xx_HAL_Driver/Src/stm32f7xx_hal_dma_ex.c ****   */
  66:Drivers/STM32F7xx_HAL_Driver/Src/stm32f7xx_hal_dma_ex.c **** 
  67:Drivers/STM32F7xx_HAL_Driver/Src/stm32f7xx_hal_dma_ex.c **** /* Exported functions ---------------------------------------------------------*/
  68:Drivers/STM32F7xx_HAL_Driver/Src/stm32f7xx_hal_dma_ex.c **** 
  69:Drivers/STM32F7xx_HAL_Driver/Src/stm32f7xx_hal_dma_ex.c **** /** @addtogroup DMAEx_Exported_Functions
  70:Drivers/STM32F7xx_HAL_Driver/Src/stm32f7xx_hal_dma_ex.c ****   * @{
  71:Drivers/STM32F7xx_HAL_Driver/Src/stm32f7xx_hal_dma_ex.c ****   */
  72:Drivers/STM32F7xx_HAL_Driver/Src/stm32f7xx_hal_dma_ex.c **** 
  73:Drivers/STM32F7xx_HAL_Driver/Src/stm32f7xx_hal_dma_ex.c **** 
  74:Drivers/STM32F7xx_HAL_Driver/Src/stm32f7xx_hal_dma_ex.c **** /** @addtogroup DMAEx_Exported_Functions_Group1
  75:Drivers/STM32F7xx_HAL_Driver/Src/stm32f7xx_hal_dma_ex.c ****   *
  76:Drivers/STM32F7xx_HAL_Driver/Src/stm32f7xx_hal_dma_ex.c **** @verbatim
  77:Drivers/STM32F7xx_HAL_Driver/Src/stm32f7xx_hal_dma_ex.c ****  ===============================================================================
  78:Drivers/STM32F7xx_HAL_Driver/Src/stm32f7xx_hal_dma_ex.c ****                 #####  Extended features functions  #####
  79:Drivers/STM32F7xx_HAL_Driver/Src/stm32f7xx_hal_dma_ex.c ****  ===============================================================================  
  80:Drivers/STM32F7xx_HAL_Driver/Src/stm32f7xx_hal_dma_ex.c ****     [..]  This section provides functions allowing to:
  81:Drivers/STM32F7xx_HAL_Driver/Src/stm32f7xx_hal_dma_ex.c ****       (+) Configure the source, destination address and data length and 
  82:Drivers/STM32F7xx_HAL_Driver/Src/stm32f7xx_hal_dma_ex.c ****           Start MultiBuffer DMA transfer
  83:Drivers/STM32F7xx_HAL_Driver/Src/stm32f7xx_hal_dma_ex.c ****       (+) Configure the source, destination address and data length and 
  84:Drivers/STM32F7xx_HAL_Driver/Src/stm32f7xx_hal_dma_ex.c ****           Start MultiBuffer DMA transfer with interrupt
  85:Drivers/STM32F7xx_HAL_Driver/Src/stm32f7xx_hal_dma_ex.c ****       (+) Change on the fly the memory0 or memory1 address.
  86:Drivers/STM32F7xx_HAL_Driver/Src/stm32f7xx_hal_dma_ex.c ****       
  87:Drivers/STM32F7xx_HAL_Driver/Src/stm32f7xx_hal_dma_ex.c **** @endverbatim
  88:Drivers/STM32F7xx_HAL_Driver/Src/stm32f7xx_hal_dma_ex.c ****   * @{
ARM GAS  /tmp/cc1lRkNS.s 			page 3


  89:Drivers/STM32F7xx_HAL_Driver/Src/stm32f7xx_hal_dma_ex.c ****   */
  90:Drivers/STM32F7xx_HAL_Driver/Src/stm32f7xx_hal_dma_ex.c **** 
  91:Drivers/STM32F7xx_HAL_Driver/Src/stm32f7xx_hal_dma_ex.c **** 
  92:Drivers/STM32F7xx_HAL_Driver/Src/stm32f7xx_hal_dma_ex.c **** /**
  93:Drivers/STM32F7xx_HAL_Driver/Src/stm32f7xx_hal_dma_ex.c ****   * @brief  Starts the multi_buffer DMA Transfer.
  94:Drivers/STM32F7xx_HAL_Driver/Src/stm32f7xx_hal_dma_ex.c ****   * @param  hdma       pointer to a DMA_HandleTypeDef structure that contains
  95:Drivers/STM32F7xx_HAL_Driver/Src/stm32f7xx_hal_dma_ex.c ****   *                     the configuration information for the specified DMA Stream.  
  96:Drivers/STM32F7xx_HAL_Driver/Src/stm32f7xx_hal_dma_ex.c ****   * @param  SrcAddress The source memory Buffer address
  97:Drivers/STM32F7xx_HAL_Driver/Src/stm32f7xx_hal_dma_ex.c ****   * @param  DstAddress The destination memory Buffer address
  98:Drivers/STM32F7xx_HAL_Driver/Src/stm32f7xx_hal_dma_ex.c ****   * @param  SecondMemAddress The second memory Buffer address in case of multi buffer Transfer  
  99:Drivers/STM32F7xx_HAL_Driver/Src/stm32f7xx_hal_dma_ex.c ****   * @param  DataLength The length of data to be transferred from source to destination
 100:Drivers/STM32F7xx_HAL_Driver/Src/stm32f7xx_hal_dma_ex.c ****   * @retval HAL status
 101:Drivers/STM32F7xx_HAL_Driver/Src/stm32f7xx_hal_dma_ex.c ****   */
 102:Drivers/STM32F7xx_HAL_Driver/Src/stm32f7xx_hal_dma_ex.c **** HAL_StatusTypeDef HAL_DMAEx_MultiBufferStart(DMA_HandleTypeDef *hdma, uint32_t SrcAddress, uint32_t
 103:Drivers/STM32F7xx_HAL_Driver/Src/stm32f7xx_hal_dma_ex.c **** {
 104:Drivers/STM32F7xx_HAL_Driver/Src/stm32f7xx_hal_dma_ex.c ****   HAL_StatusTypeDef status = HAL_OK;
 105:Drivers/STM32F7xx_HAL_Driver/Src/stm32f7xx_hal_dma_ex.c ****   
 106:Drivers/STM32F7xx_HAL_Driver/Src/stm32f7xx_hal_dma_ex.c ****   /* Check the parameters */
 107:Drivers/STM32F7xx_HAL_Driver/Src/stm32f7xx_hal_dma_ex.c ****   assert_param(IS_DMA_BUFFER_SIZE(DataLength));
 108:Drivers/STM32F7xx_HAL_Driver/Src/stm32f7xx_hal_dma_ex.c ****   
 109:Drivers/STM32F7xx_HAL_Driver/Src/stm32f7xx_hal_dma_ex.c ****   /* Memory-to-memory transfer not supported in double buffering mode */
 110:Drivers/STM32F7xx_HAL_Driver/Src/stm32f7xx_hal_dma_ex.c ****   if (hdma->Init.Direction == DMA_MEMORY_TO_MEMORY)
 111:Drivers/STM32F7xx_HAL_Driver/Src/stm32f7xx_hal_dma_ex.c ****   {
 112:Drivers/STM32F7xx_HAL_Driver/Src/stm32f7xx_hal_dma_ex.c ****     hdma->ErrorCode = HAL_DMA_ERROR_NOT_SUPPORTED;
 113:Drivers/STM32F7xx_HAL_Driver/Src/stm32f7xx_hal_dma_ex.c ****     status = HAL_ERROR;
 114:Drivers/STM32F7xx_HAL_Driver/Src/stm32f7xx_hal_dma_ex.c ****   }
 115:Drivers/STM32F7xx_HAL_Driver/Src/stm32f7xx_hal_dma_ex.c ****   else
 116:Drivers/STM32F7xx_HAL_Driver/Src/stm32f7xx_hal_dma_ex.c ****   {
 117:Drivers/STM32F7xx_HAL_Driver/Src/stm32f7xx_hal_dma_ex.c ****     /* Process Locked */
 118:Drivers/STM32F7xx_HAL_Driver/Src/stm32f7xx_hal_dma_ex.c ****     __HAL_LOCK(hdma);
 119:Drivers/STM32F7xx_HAL_Driver/Src/stm32f7xx_hal_dma_ex.c ****     
 120:Drivers/STM32F7xx_HAL_Driver/Src/stm32f7xx_hal_dma_ex.c ****     if(HAL_DMA_STATE_READY == hdma->State)
 121:Drivers/STM32F7xx_HAL_Driver/Src/stm32f7xx_hal_dma_ex.c ****     {
 122:Drivers/STM32F7xx_HAL_Driver/Src/stm32f7xx_hal_dma_ex.c ****       /* Change DMA peripheral state */
 123:Drivers/STM32F7xx_HAL_Driver/Src/stm32f7xx_hal_dma_ex.c ****       hdma->State = HAL_DMA_STATE_BUSY; 
 124:Drivers/STM32F7xx_HAL_Driver/Src/stm32f7xx_hal_dma_ex.c ****       
 125:Drivers/STM32F7xx_HAL_Driver/Src/stm32f7xx_hal_dma_ex.c ****       /* Enable the double buffer mode */
 126:Drivers/STM32F7xx_HAL_Driver/Src/stm32f7xx_hal_dma_ex.c ****       hdma->Instance->CR |= (uint32_t)DMA_SxCR_DBM;
 127:Drivers/STM32F7xx_HAL_Driver/Src/stm32f7xx_hal_dma_ex.c ****       
 128:Drivers/STM32F7xx_HAL_Driver/Src/stm32f7xx_hal_dma_ex.c ****       /* Configure DMA Stream destination address */
 129:Drivers/STM32F7xx_HAL_Driver/Src/stm32f7xx_hal_dma_ex.c ****       hdma->Instance->M1AR = SecondMemAddress;
 130:Drivers/STM32F7xx_HAL_Driver/Src/stm32f7xx_hal_dma_ex.c ****       
 131:Drivers/STM32F7xx_HAL_Driver/Src/stm32f7xx_hal_dma_ex.c ****       /* Configure the source, destination address and the data length */
 132:Drivers/STM32F7xx_HAL_Driver/Src/stm32f7xx_hal_dma_ex.c ****       DMA_MultiBufferSetConfig(hdma, SrcAddress, DstAddress, DataLength);
 133:Drivers/STM32F7xx_HAL_Driver/Src/stm32f7xx_hal_dma_ex.c ****       
 134:Drivers/STM32F7xx_HAL_Driver/Src/stm32f7xx_hal_dma_ex.c ****       /* Enable the peripheral */
 135:Drivers/STM32F7xx_HAL_Driver/Src/stm32f7xx_hal_dma_ex.c ****       __HAL_DMA_ENABLE(hdma);
 136:Drivers/STM32F7xx_HAL_Driver/Src/stm32f7xx_hal_dma_ex.c ****     }
 137:Drivers/STM32F7xx_HAL_Driver/Src/stm32f7xx_hal_dma_ex.c ****     else
 138:Drivers/STM32F7xx_HAL_Driver/Src/stm32f7xx_hal_dma_ex.c ****     {
 139:Drivers/STM32F7xx_HAL_Driver/Src/stm32f7xx_hal_dma_ex.c ****       /* Return error status */
 140:Drivers/STM32F7xx_HAL_Driver/Src/stm32f7xx_hal_dma_ex.c ****       status = HAL_BUSY;
 141:Drivers/STM32F7xx_HAL_Driver/Src/stm32f7xx_hal_dma_ex.c ****     }
 142:Drivers/STM32F7xx_HAL_Driver/Src/stm32f7xx_hal_dma_ex.c ****   }
 143:Drivers/STM32F7xx_HAL_Driver/Src/stm32f7xx_hal_dma_ex.c ****   return status;
 144:Drivers/STM32F7xx_HAL_Driver/Src/stm32f7xx_hal_dma_ex.c **** }
 145:Drivers/STM32F7xx_HAL_Driver/Src/stm32f7xx_hal_dma_ex.c **** 
ARM GAS  /tmp/cc1lRkNS.s 			page 4


 146:Drivers/STM32F7xx_HAL_Driver/Src/stm32f7xx_hal_dma_ex.c **** /**
 147:Drivers/STM32F7xx_HAL_Driver/Src/stm32f7xx_hal_dma_ex.c ****   * @brief  Starts the multi_buffer DMA Transfer with interrupt enabled.
 148:Drivers/STM32F7xx_HAL_Driver/Src/stm32f7xx_hal_dma_ex.c ****   * @param  hdma       pointer to a DMA_HandleTypeDef structure that contains
 149:Drivers/STM32F7xx_HAL_Driver/Src/stm32f7xx_hal_dma_ex.c ****   *                     the configuration information for the specified DMA Stream.  
 150:Drivers/STM32F7xx_HAL_Driver/Src/stm32f7xx_hal_dma_ex.c ****   * @param  SrcAddress The source memory Buffer address
 151:Drivers/STM32F7xx_HAL_Driver/Src/stm32f7xx_hal_dma_ex.c ****   * @param  DstAddress The destination memory Buffer address
 152:Drivers/STM32F7xx_HAL_Driver/Src/stm32f7xx_hal_dma_ex.c ****   * @param  SecondMemAddress The second memory Buffer address in case of multi buffer Transfer  
 153:Drivers/STM32F7xx_HAL_Driver/Src/stm32f7xx_hal_dma_ex.c ****   * @param  DataLength The length of data to be transferred from source to destination
 154:Drivers/STM32F7xx_HAL_Driver/Src/stm32f7xx_hal_dma_ex.c ****   * @retval HAL status
 155:Drivers/STM32F7xx_HAL_Driver/Src/stm32f7xx_hal_dma_ex.c ****   */
 156:Drivers/STM32F7xx_HAL_Driver/Src/stm32f7xx_hal_dma_ex.c **** HAL_StatusTypeDef HAL_DMAEx_MultiBufferStart_IT(DMA_HandleTypeDef *hdma, uint32_t SrcAddress, uint3
 157:Drivers/STM32F7xx_HAL_Driver/Src/stm32f7xx_hal_dma_ex.c **** {
 158:Drivers/STM32F7xx_HAL_Driver/Src/stm32f7xx_hal_dma_ex.c ****   HAL_StatusTypeDef status = HAL_OK;
 159:Drivers/STM32F7xx_HAL_Driver/Src/stm32f7xx_hal_dma_ex.c ****   
 160:Drivers/STM32F7xx_HAL_Driver/Src/stm32f7xx_hal_dma_ex.c ****   /* Check the parameters */
 161:Drivers/STM32F7xx_HAL_Driver/Src/stm32f7xx_hal_dma_ex.c ****   assert_param(IS_DMA_BUFFER_SIZE(DataLength));
 162:Drivers/STM32F7xx_HAL_Driver/Src/stm32f7xx_hal_dma_ex.c ****   
 163:Drivers/STM32F7xx_HAL_Driver/Src/stm32f7xx_hal_dma_ex.c ****   /* Memory-to-memory transfer not supported in double buffering mode */
 164:Drivers/STM32F7xx_HAL_Driver/Src/stm32f7xx_hal_dma_ex.c ****   if (hdma->Init.Direction == DMA_MEMORY_TO_MEMORY)
 165:Drivers/STM32F7xx_HAL_Driver/Src/stm32f7xx_hal_dma_ex.c ****   {
 166:Drivers/STM32F7xx_HAL_Driver/Src/stm32f7xx_hal_dma_ex.c ****     hdma->ErrorCode = HAL_DMA_ERROR_NOT_SUPPORTED;
 167:Drivers/STM32F7xx_HAL_Driver/Src/stm32f7xx_hal_dma_ex.c ****     return HAL_ERROR;
 168:Drivers/STM32F7xx_HAL_Driver/Src/stm32f7xx_hal_dma_ex.c ****   }
 169:Drivers/STM32F7xx_HAL_Driver/Src/stm32f7xx_hal_dma_ex.c ****   
 170:Drivers/STM32F7xx_HAL_Driver/Src/stm32f7xx_hal_dma_ex.c ****   /* Process locked */
 171:Drivers/STM32F7xx_HAL_Driver/Src/stm32f7xx_hal_dma_ex.c ****   __HAL_LOCK(hdma);
 172:Drivers/STM32F7xx_HAL_Driver/Src/stm32f7xx_hal_dma_ex.c ****   
 173:Drivers/STM32F7xx_HAL_Driver/Src/stm32f7xx_hal_dma_ex.c ****   if(HAL_DMA_STATE_READY == hdma->State)
 174:Drivers/STM32F7xx_HAL_Driver/Src/stm32f7xx_hal_dma_ex.c ****   {
 175:Drivers/STM32F7xx_HAL_Driver/Src/stm32f7xx_hal_dma_ex.c ****     /* Change DMA peripheral state */
 176:Drivers/STM32F7xx_HAL_Driver/Src/stm32f7xx_hal_dma_ex.c ****     hdma->State = HAL_DMA_STATE_BUSY;
 177:Drivers/STM32F7xx_HAL_Driver/Src/stm32f7xx_hal_dma_ex.c ****     
 178:Drivers/STM32F7xx_HAL_Driver/Src/stm32f7xx_hal_dma_ex.c ****     /* Initialize the error code */
 179:Drivers/STM32F7xx_HAL_Driver/Src/stm32f7xx_hal_dma_ex.c ****     hdma->ErrorCode = HAL_DMA_ERROR_NONE;
 180:Drivers/STM32F7xx_HAL_Driver/Src/stm32f7xx_hal_dma_ex.c ****     
 181:Drivers/STM32F7xx_HAL_Driver/Src/stm32f7xx_hal_dma_ex.c ****     /* Enable the Double buffer mode */
 182:Drivers/STM32F7xx_HAL_Driver/Src/stm32f7xx_hal_dma_ex.c ****     hdma->Instance->CR |= (uint32_t)DMA_SxCR_DBM;
 183:Drivers/STM32F7xx_HAL_Driver/Src/stm32f7xx_hal_dma_ex.c ****     
 184:Drivers/STM32F7xx_HAL_Driver/Src/stm32f7xx_hal_dma_ex.c ****     /* Configure DMA Stream destination address */
 185:Drivers/STM32F7xx_HAL_Driver/Src/stm32f7xx_hal_dma_ex.c ****     hdma->Instance->M1AR = SecondMemAddress;
 186:Drivers/STM32F7xx_HAL_Driver/Src/stm32f7xx_hal_dma_ex.c ****     
 187:Drivers/STM32F7xx_HAL_Driver/Src/stm32f7xx_hal_dma_ex.c ****     /* Configure the source, destination address and the data length */
 188:Drivers/STM32F7xx_HAL_Driver/Src/stm32f7xx_hal_dma_ex.c ****     DMA_MultiBufferSetConfig(hdma, SrcAddress, DstAddress, DataLength); 
 189:Drivers/STM32F7xx_HAL_Driver/Src/stm32f7xx_hal_dma_ex.c ****     
 190:Drivers/STM32F7xx_HAL_Driver/Src/stm32f7xx_hal_dma_ex.c ****     /* Clear all flags */
 191:Drivers/STM32F7xx_HAL_Driver/Src/stm32f7xx_hal_dma_ex.c ****     __HAL_DMA_CLEAR_FLAG (hdma, __HAL_DMA_GET_TC_FLAG_INDEX(hdma));
 192:Drivers/STM32F7xx_HAL_Driver/Src/stm32f7xx_hal_dma_ex.c ****     __HAL_DMA_CLEAR_FLAG (hdma, __HAL_DMA_GET_HT_FLAG_INDEX(hdma));
 193:Drivers/STM32F7xx_HAL_Driver/Src/stm32f7xx_hal_dma_ex.c ****     __HAL_DMA_CLEAR_FLAG (hdma, __HAL_DMA_GET_TE_FLAG_INDEX(hdma));
 194:Drivers/STM32F7xx_HAL_Driver/Src/stm32f7xx_hal_dma_ex.c ****     __HAL_DMA_CLEAR_FLAG (hdma, __HAL_DMA_GET_DME_FLAG_INDEX(hdma));
 195:Drivers/STM32F7xx_HAL_Driver/Src/stm32f7xx_hal_dma_ex.c ****     __HAL_DMA_CLEAR_FLAG (hdma, __HAL_DMA_GET_FE_FLAG_INDEX(hdma));
 196:Drivers/STM32F7xx_HAL_Driver/Src/stm32f7xx_hal_dma_ex.c ****     
 197:Drivers/STM32F7xx_HAL_Driver/Src/stm32f7xx_hal_dma_ex.c ****     /* Enable Common interrupts*/
 198:Drivers/STM32F7xx_HAL_Driver/Src/stm32f7xx_hal_dma_ex.c ****     hdma->Instance->CR  |= DMA_IT_TC | DMA_IT_TE | DMA_IT_DME;
 199:Drivers/STM32F7xx_HAL_Driver/Src/stm32f7xx_hal_dma_ex.c ****     hdma->Instance->FCR |= DMA_IT_FE;
 200:Drivers/STM32F7xx_HAL_Driver/Src/stm32f7xx_hal_dma_ex.c ****     
 201:Drivers/STM32F7xx_HAL_Driver/Src/stm32f7xx_hal_dma_ex.c ****     if((hdma->XferHalfCpltCallback != NULL) || (hdma->XferM1HalfCpltCallback != NULL))
 202:Drivers/STM32F7xx_HAL_Driver/Src/stm32f7xx_hal_dma_ex.c ****     {
ARM GAS  /tmp/cc1lRkNS.s 			page 5


 203:Drivers/STM32F7xx_HAL_Driver/Src/stm32f7xx_hal_dma_ex.c ****       hdma->Instance->CR  |= DMA_IT_HT;
 204:Drivers/STM32F7xx_HAL_Driver/Src/stm32f7xx_hal_dma_ex.c ****     }
 205:Drivers/STM32F7xx_HAL_Driver/Src/stm32f7xx_hal_dma_ex.c ****     
 206:Drivers/STM32F7xx_HAL_Driver/Src/stm32f7xx_hal_dma_ex.c ****     /* Enable the peripheral */
 207:Drivers/STM32F7xx_HAL_Driver/Src/stm32f7xx_hal_dma_ex.c ****     __HAL_DMA_ENABLE(hdma); 
 208:Drivers/STM32F7xx_HAL_Driver/Src/stm32f7xx_hal_dma_ex.c ****   }
 209:Drivers/STM32F7xx_HAL_Driver/Src/stm32f7xx_hal_dma_ex.c ****   else
 210:Drivers/STM32F7xx_HAL_Driver/Src/stm32f7xx_hal_dma_ex.c ****   {     
 211:Drivers/STM32F7xx_HAL_Driver/Src/stm32f7xx_hal_dma_ex.c ****     /* Process unlocked */
 212:Drivers/STM32F7xx_HAL_Driver/Src/stm32f7xx_hal_dma_ex.c ****     __HAL_UNLOCK(hdma);	  
 213:Drivers/STM32F7xx_HAL_Driver/Src/stm32f7xx_hal_dma_ex.c ****     
 214:Drivers/STM32F7xx_HAL_Driver/Src/stm32f7xx_hal_dma_ex.c ****     /* Return error status */
 215:Drivers/STM32F7xx_HAL_Driver/Src/stm32f7xx_hal_dma_ex.c ****     status = HAL_BUSY;
 216:Drivers/STM32F7xx_HAL_Driver/Src/stm32f7xx_hal_dma_ex.c ****   }  
 217:Drivers/STM32F7xx_HAL_Driver/Src/stm32f7xx_hal_dma_ex.c ****   return status; 
 218:Drivers/STM32F7xx_HAL_Driver/Src/stm32f7xx_hal_dma_ex.c **** }
 219:Drivers/STM32F7xx_HAL_Driver/Src/stm32f7xx_hal_dma_ex.c **** 
 220:Drivers/STM32F7xx_HAL_Driver/Src/stm32f7xx_hal_dma_ex.c **** /**
 221:Drivers/STM32F7xx_HAL_Driver/Src/stm32f7xx_hal_dma_ex.c ****   * @brief  Change the memory0 or memory1 address on the fly.
 222:Drivers/STM32F7xx_HAL_Driver/Src/stm32f7xx_hal_dma_ex.c ****   * @param  hdma       pointer to a DMA_HandleTypeDef structure that contains
 223:Drivers/STM32F7xx_HAL_Driver/Src/stm32f7xx_hal_dma_ex.c ****   *                     the configuration information for the specified DMA Stream.  
 224:Drivers/STM32F7xx_HAL_Driver/Src/stm32f7xx_hal_dma_ex.c ****   * @param  Address    The new address
 225:Drivers/STM32F7xx_HAL_Driver/Src/stm32f7xx_hal_dma_ex.c ****   * @param  memory     the memory to be changed, This parameter can be one of 
 226:Drivers/STM32F7xx_HAL_Driver/Src/stm32f7xx_hal_dma_ex.c ****   *                     the following values:
 227:Drivers/STM32F7xx_HAL_Driver/Src/stm32f7xx_hal_dma_ex.c ****   *                      MEMORY0 /
 228:Drivers/STM32F7xx_HAL_Driver/Src/stm32f7xx_hal_dma_ex.c ****   *                      MEMORY1
 229:Drivers/STM32F7xx_HAL_Driver/Src/stm32f7xx_hal_dma_ex.c ****   * @note   The MEMORY0 address can be changed only when the current transfer use
 230:Drivers/STM32F7xx_HAL_Driver/Src/stm32f7xx_hal_dma_ex.c ****   *         MEMORY1 and the MEMORY1 address can be changed only when the current 
 231:Drivers/STM32F7xx_HAL_Driver/Src/stm32f7xx_hal_dma_ex.c ****   *         transfer use MEMORY0.
 232:Drivers/STM32F7xx_HAL_Driver/Src/stm32f7xx_hal_dma_ex.c ****   * @retval HAL status
 233:Drivers/STM32F7xx_HAL_Driver/Src/stm32f7xx_hal_dma_ex.c ****   */
 234:Drivers/STM32F7xx_HAL_Driver/Src/stm32f7xx_hal_dma_ex.c **** HAL_StatusTypeDef HAL_DMAEx_ChangeMemory(DMA_HandleTypeDef *hdma, uint32_t Address, HAL_DMA_MemoryT
 235:Drivers/STM32F7xx_HAL_Driver/Src/stm32f7xx_hal_dma_ex.c **** {
 236:Drivers/STM32F7xx_HAL_Driver/Src/stm32f7xx_hal_dma_ex.c ****   if(memory == MEMORY0)
 237:Drivers/STM32F7xx_HAL_Driver/Src/stm32f7xx_hal_dma_ex.c ****   {
 238:Drivers/STM32F7xx_HAL_Driver/Src/stm32f7xx_hal_dma_ex.c ****     /* change the memory0 address */
 239:Drivers/STM32F7xx_HAL_Driver/Src/stm32f7xx_hal_dma_ex.c ****     hdma->Instance->M0AR = Address;
 240:Drivers/STM32F7xx_HAL_Driver/Src/stm32f7xx_hal_dma_ex.c ****   }
 241:Drivers/STM32F7xx_HAL_Driver/Src/stm32f7xx_hal_dma_ex.c ****   else
 242:Drivers/STM32F7xx_HAL_Driver/Src/stm32f7xx_hal_dma_ex.c ****   {
 243:Drivers/STM32F7xx_HAL_Driver/Src/stm32f7xx_hal_dma_ex.c ****     /* change the memory1 address */
 244:Drivers/STM32F7xx_HAL_Driver/Src/stm32f7xx_hal_dma_ex.c ****     hdma->Instance->M1AR = Address;
 245:Drivers/STM32F7xx_HAL_Driver/Src/stm32f7xx_hal_dma_ex.c ****   }
 246:Drivers/STM32F7xx_HAL_Driver/Src/stm32f7xx_hal_dma_ex.c ****   
 247:Drivers/STM32F7xx_HAL_Driver/Src/stm32f7xx_hal_dma_ex.c ****   return HAL_OK;
 248:Drivers/STM32F7xx_HAL_Driver/Src/stm32f7xx_hal_dma_ex.c **** }
 249:Drivers/STM32F7xx_HAL_Driver/Src/stm32f7xx_hal_dma_ex.c **** 
 250:Drivers/STM32F7xx_HAL_Driver/Src/stm32f7xx_hal_dma_ex.c **** /**
 251:Drivers/STM32F7xx_HAL_Driver/Src/stm32f7xx_hal_dma_ex.c ****   * @}
 252:Drivers/STM32F7xx_HAL_Driver/Src/stm32f7xx_hal_dma_ex.c ****   */
 253:Drivers/STM32F7xx_HAL_Driver/Src/stm32f7xx_hal_dma_ex.c **** 
 254:Drivers/STM32F7xx_HAL_Driver/Src/stm32f7xx_hal_dma_ex.c **** /**
 255:Drivers/STM32F7xx_HAL_Driver/Src/stm32f7xx_hal_dma_ex.c ****   * @}
 256:Drivers/STM32F7xx_HAL_Driver/Src/stm32f7xx_hal_dma_ex.c ****   */
 257:Drivers/STM32F7xx_HAL_Driver/Src/stm32f7xx_hal_dma_ex.c **** 
 258:Drivers/STM32F7xx_HAL_Driver/Src/stm32f7xx_hal_dma_ex.c **** /** @addtogroup DMAEx_Private_Functions
 259:Drivers/STM32F7xx_HAL_Driver/Src/stm32f7xx_hal_dma_ex.c ****   * @{
ARM GAS  /tmp/cc1lRkNS.s 			page 6


 260:Drivers/STM32F7xx_HAL_Driver/Src/stm32f7xx_hal_dma_ex.c ****   */
 261:Drivers/STM32F7xx_HAL_Driver/Src/stm32f7xx_hal_dma_ex.c **** 
 262:Drivers/STM32F7xx_HAL_Driver/Src/stm32f7xx_hal_dma_ex.c **** /**
 263:Drivers/STM32F7xx_HAL_Driver/Src/stm32f7xx_hal_dma_ex.c ****   * @brief  Set the DMA Transfer parameter.
 264:Drivers/STM32F7xx_HAL_Driver/Src/stm32f7xx_hal_dma_ex.c ****   * @param  hdma       pointer to a DMA_HandleTypeDef structure that contains
 265:Drivers/STM32F7xx_HAL_Driver/Src/stm32f7xx_hal_dma_ex.c ****   *                     the configuration information for the specified DMA Stream.  
 266:Drivers/STM32F7xx_HAL_Driver/Src/stm32f7xx_hal_dma_ex.c ****   * @param  SrcAddress The source memory Buffer address
 267:Drivers/STM32F7xx_HAL_Driver/Src/stm32f7xx_hal_dma_ex.c ****   * @param  DstAddress The destination memory Buffer address
 268:Drivers/STM32F7xx_HAL_Driver/Src/stm32f7xx_hal_dma_ex.c ****   * @param  DataLength The length of data to be transferred from source to destination
 269:Drivers/STM32F7xx_HAL_Driver/Src/stm32f7xx_hal_dma_ex.c ****   * @retval HAL status
 270:Drivers/STM32F7xx_HAL_Driver/Src/stm32f7xx_hal_dma_ex.c ****   */
 271:Drivers/STM32F7xx_HAL_Driver/Src/stm32f7xx_hal_dma_ex.c **** static void DMA_MultiBufferSetConfig(DMA_HandleTypeDef *hdma, uint32_t SrcAddress, uint32_t DstAddr
 272:Drivers/STM32F7xx_HAL_Driver/Src/stm32f7xx_hal_dma_ex.c **** {
  28              		.loc 1 272 1 view -0
  29              		.cfi_startproc
  30              		@ args = 0, pretend = 0, frame = 0
  31              		@ frame_needed = 0, uses_anonymous_args = 0
  32              		@ link register save eliminated.
  33              		.loc 1 272 1 is_stmt 0 view .LVU1
  34 0000 10B4     		push	{r4}
  35              	.LCFI0:
  36              		.cfi_def_cfa_offset 4
  37              		.cfi_offset 4, -4
 273:Drivers/STM32F7xx_HAL_Driver/Src/stm32f7xx_hal_dma_ex.c ****   /* Configure DMA Stream data length */
 274:Drivers/STM32F7xx_HAL_Driver/Src/stm32f7xx_hal_dma_ex.c ****   hdma->Instance->NDTR = DataLength;
  38              		.loc 1 274 3 is_stmt 1 view .LVU2
  39              		.loc 1 274 24 is_stmt 0 view .LVU3
  40 0002 0468     		ldr	r4, [r0]
  41 0004 6360     		str	r3, [r4, #4]
 275:Drivers/STM32F7xx_HAL_Driver/Src/stm32f7xx_hal_dma_ex.c ****   
 276:Drivers/STM32F7xx_HAL_Driver/Src/stm32f7xx_hal_dma_ex.c ****   /* Peripheral to Memory */
 277:Drivers/STM32F7xx_HAL_Driver/Src/stm32f7xx_hal_dma_ex.c ****   if((hdma->Init.Direction) == DMA_MEMORY_TO_PERIPH)
  42              		.loc 1 277 3 is_stmt 1 view .LVU4
  43              		.loc 1 277 17 is_stmt 0 view .LVU5
  44 0006 8368     		ldr	r3, [r0, #8]
  45              	.LVL1:
  46              		.loc 1 277 5 view .LVU6
  47 0008 402B     		cmp	r3, #64
  48 000a 05D0     		beq	.L5
 278:Drivers/STM32F7xx_HAL_Driver/Src/stm32f7xx_hal_dma_ex.c ****   {
 279:Drivers/STM32F7xx_HAL_Driver/Src/stm32f7xx_hal_dma_ex.c ****     /* Configure DMA Stream destination address */
 280:Drivers/STM32F7xx_HAL_Driver/Src/stm32f7xx_hal_dma_ex.c ****     hdma->Instance->PAR = DstAddress;
 281:Drivers/STM32F7xx_HAL_Driver/Src/stm32f7xx_hal_dma_ex.c ****     
 282:Drivers/STM32F7xx_HAL_Driver/Src/stm32f7xx_hal_dma_ex.c ****     /* Configure DMA Stream source address */
 283:Drivers/STM32F7xx_HAL_Driver/Src/stm32f7xx_hal_dma_ex.c ****     hdma->Instance->M0AR = SrcAddress;
 284:Drivers/STM32F7xx_HAL_Driver/Src/stm32f7xx_hal_dma_ex.c ****   }
 285:Drivers/STM32F7xx_HAL_Driver/Src/stm32f7xx_hal_dma_ex.c ****   /* Memory to Peripheral */
 286:Drivers/STM32F7xx_HAL_Driver/Src/stm32f7xx_hal_dma_ex.c ****   else
 287:Drivers/STM32F7xx_HAL_Driver/Src/stm32f7xx_hal_dma_ex.c ****   {
 288:Drivers/STM32F7xx_HAL_Driver/Src/stm32f7xx_hal_dma_ex.c ****     /* Configure DMA Stream source address */
 289:Drivers/STM32F7xx_HAL_Driver/Src/stm32f7xx_hal_dma_ex.c ****     hdma->Instance->PAR = SrcAddress;
  49              		.loc 1 289 5 is_stmt 1 view .LVU7
  50              		.loc 1 289 9 is_stmt 0 view .LVU8
  51 000c 0368     		ldr	r3, [r0]
  52              		.loc 1 289 25 view .LVU9
  53 000e 9960     		str	r1, [r3, #8]
  54              	.LVL2:
ARM GAS  /tmp/cc1lRkNS.s 			page 7


 290:Drivers/STM32F7xx_HAL_Driver/Src/stm32f7xx_hal_dma_ex.c ****     
 291:Drivers/STM32F7xx_HAL_Driver/Src/stm32f7xx_hal_dma_ex.c ****     /* Configure DMA Stream destination address */
 292:Drivers/STM32F7xx_HAL_Driver/Src/stm32f7xx_hal_dma_ex.c ****     hdma->Instance->M0AR = DstAddress;
  55              		.loc 1 292 5 is_stmt 1 view .LVU10
  56              		.loc 1 292 9 is_stmt 0 view .LVU11
  57 0010 0368     		ldr	r3, [r0]
  58              		.loc 1 292 26 view .LVU12
  59 0012 DA60     		str	r2, [r3, #12]
  60              	.L1:
 293:Drivers/STM32F7xx_HAL_Driver/Src/stm32f7xx_hal_dma_ex.c ****   }
 294:Drivers/STM32F7xx_HAL_Driver/Src/stm32f7xx_hal_dma_ex.c **** }
  61              		.loc 1 294 1 view .LVU13
  62 0014 10BC     		pop	{r4}
  63              	.LCFI1:
  64              		.cfi_remember_state
  65              		.cfi_restore 4
  66              		.cfi_def_cfa_offset 0
  67 0016 7047     		bx	lr
  68              	.LVL3:
  69              	.L5:
  70              	.LCFI2:
  71              		.cfi_restore_state
 280:Drivers/STM32F7xx_HAL_Driver/Src/stm32f7xx_hal_dma_ex.c ****     
  72              		.loc 1 280 5 is_stmt 1 view .LVU14
 280:Drivers/STM32F7xx_HAL_Driver/Src/stm32f7xx_hal_dma_ex.c ****     
  73              		.loc 1 280 9 is_stmt 0 view .LVU15
  74 0018 0368     		ldr	r3, [r0]
 280:Drivers/STM32F7xx_HAL_Driver/Src/stm32f7xx_hal_dma_ex.c ****     
  75              		.loc 1 280 25 view .LVU16
  76 001a 9A60     		str	r2, [r3, #8]
  77              	.LVL4:
 283:Drivers/STM32F7xx_HAL_Driver/Src/stm32f7xx_hal_dma_ex.c ****   }
  78              		.loc 1 283 5 is_stmt 1 view .LVU17
 283:Drivers/STM32F7xx_HAL_Driver/Src/stm32f7xx_hal_dma_ex.c ****   }
  79              		.loc 1 283 9 is_stmt 0 view .LVU18
  80 001c 0368     		ldr	r3, [r0]
 283:Drivers/STM32F7xx_HAL_Driver/Src/stm32f7xx_hal_dma_ex.c ****   }
  81              		.loc 1 283 26 view .LVU19
  82 001e D960     		str	r1, [r3, #12]
  83 0020 F8E7     		b	.L1
  84              		.cfi_endproc
  85              	.LFE144:
  87              		.section	.text.HAL_DMAEx_MultiBufferStart,"ax",%progbits
  88              		.align	1
  89              		.global	HAL_DMAEx_MultiBufferStart
  90              		.syntax unified
  91              		.thumb
  92              		.thumb_func
  94              	HAL_DMAEx_MultiBufferStart:
  95              	.LVL5:
  96              	.LFB141:
 103:Drivers/STM32F7xx_HAL_Driver/Src/stm32f7xx_hal_dma_ex.c ****   HAL_StatusTypeDef status = HAL_OK;
  97              		.loc 1 103 1 is_stmt 1 view -0
  98              		.cfi_startproc
  99              		@ args = 4, pretend = 0, frame = 0
 100              		@ frame_needed = 0, uses_anonymous_args = 0
 103:Drivers/STM32F7xx_HAL_Driver/Src/stm32f7xx_hal_dma_ex.c ****   HAL_StatusTypeDef status = HAL_OK;
ARM GAS  /tmp/cc1lRkNS.s 			page 8


 101              		.loc 1 103 1 is_stmt 0 view .LVU21
 102 0000 10B5     		push	{r4, lr}
 103              	.LCFI3:
 104              		.cfi_def_cfa_offset 8
 105              		.cfi_offset 4, -8
 106              		.cfi_offset 14, -4
 107 0002 0446     		mov	r4, r0
 104:Drivers/STM32F7xx_HAL_Driver/Src/stm32f7xx_hal_dma_ex.c ****   
 108              		.loc 1 104 3 is_stmt 1 view .LVU22
 109              	.LVL6:
 107:Drivers/STM32F7xx_HAL_Driver/Src/stm32f7xx_hal_dma_ex.c ****   
 110              		.loc 1 107 3 view .LVU23
 110:Drivers/STM32F7xx_HAL_Driver/Src/stm32f7xx_hal_dma_ex.c ****   {
 111              		.loc 1 110 3 view .LVU24
 110:Drivers/STM32F7xx_HAL_Driver/Src/stm32f7xx_hal_dma_ex.c ****   {
 112              		.loc 1 110 17 is_stmt 0 view .LVU25
 113 0004 8068     		ldr	r0, [r0, #8]
 114              	.LVL7:
 110:Drivers/STM32F7xx_HAL_Driver/Src/stm32f7xx_hal_dma_ex.c ****   {
 115              		.loc 1 110 6 view .LVU26
 116 0006 8028     		cmp	r0, #128
 117 0008 0CD0     		beq	.L12
 118:Drivers/STM32F7xx_HAL_Driver/Src/stm32f7xx_hal_dma_ex.c ****     
 118              		.loc 1 118 5 is_stmt 1 view .LVU27
 118:Drivers/STM32F7xx_HAL_Driver/Src/stm32f7xx_hal_dma_ex.c ****     
 119              		.loc 1 118 5 view .LVU28
 120 000a 94F83400 		ldrb	r0, [r4, #52]	@ zero_extendqisi2
 121 000e 0128     		cmp	r0, #1
 122 0010 25D0     		beq	.L9
 118:Drivers/STM32F7xx_HAL_Driver/Src/stm32f7xx_hal_dma_ex.c ****     
 123              		.loc 1 118 5 discriminator 2 view .LVU29
 124 0012 0120     		movs	r0, #1
 125 0014 84F83400 		strb	r0, [r4, #52]
 118:Drivers/STM32F7xx_HAL_Driver/Src/stm32f7xx_hal_dma_ex.c ****     
 126              		.loc 1 118 5 view .LVU30
 120:Drivers/STM32F7xx_HAL_Driver/Src/stm32f7xx_hal_dma_ex.c ****     {
 127              		.loc 1 120 5 view .LVU31
 120:Drivers/STM32F7xx_HAL_Driver/Src/stm32f7xx_hal_dma_ex.c ****     {
 128              		.loc 1 120 35 is_stmt 0 view .LVU32
 129 0018 94F83500 		ldrb	r0, [r4, #53]	@ zero_extendqisi2
 120:Drivers/STM32F7xx_HAL_Driver/Src/stm32f7xx_hal_dma_ex.c ****     {
 130              		.loc 1 120 7 view .LVU33
 131 001c 0128     		cmp	r0, #1
 132 001e 06D0     		beq	.L13
 140:Drivers/STM32F7xx_HAL_Driver/Src/stm32f7xx_hal_dma_ex.c ****     }
 133              		.loc 1 140 14 view .LVU34
 134 0020 0220     		movs	r0, #2
 135              	.LVL8:
 136              	.L8:
 144:Drivers/STM32F7xx_HAL_Driver/Src/stm32f7xx_hal_dma_ex.c **** 
 137              		.loc 1 144 1 view .LVU35
 138 0022 10BD     		pop	{r4, pc}
 139              	.LVL9:
 140              	.L12:
 112:Drivers/STM32F7xx_HAL_Driver/Src/stm32f7xx_hal_dma_ex.c ****     status = HAL_ERROR;
 141              		.loc 1 112 5 is_stmt 1 view .LVU36
 112:Drivers/STM32F7xx_HAL_Driver/Src/stm32f7xx_hal_dma_ex.c ****     status = HAL_ERROR;
ARM GAS  /tmp/cc1lRkNS.s 			page 9


 142              		.loc 1 112 21 is_stmt 0 view .LVU37
 143 0024 4FF48073 		mov	r3, #256
 144              	.LVL10:
 112:Drivers/STM32F7xx_HAL_Driver/Src/stm32f7xx_hal_dma_ex.c ****     status = HAL_ERROR;
 145              		.loc 1 112 21 view .LVU38
 146 0028 6365     		str	r3, [r4, #84]
 113:Drivers/STM32F7xx_HAL_Driver/Src/stm32f7xx_hal_dma_ex.c ****   }
 147              		.loc 1 113 5 is_stmt 1 view .LVU39
 148              	.LVL11:
 113:Drivers/STM32F7xx_HAL_Driver/Src/stm32f7xx_hal_dma_ex.c ****   }
 149              		.loc 1 113 12 is_stmt 0 view .LVU40
 150 002a 0120     		movs	r0, #1
 151 002c F9E7     		b	.L8
 152              	.LVL12:
 153              	.L13:
 123:Drivers/STM32F7xx_HAL_Driver/Src/stm32f7xx_hal_dma_ex.c ****       
 154              		.loc 1 123 7 is_stmt 1 view .LVU41
 123:Drivers/STM32F7xx_HAL_Driver/Src/stm32f7xx_hal_dma_ex.c ****       
 155              		.loc 1 123 19 is_stmt 0 view .LVU42
 156 002e 0220     		movs	r0, #2
 157 0030 84F83500 		strb	r0, [r4, #53]
 126:Drivers/STM32F7xx_HAL_Driver/Src/stm32f7xx_hal_dma_ex.c ****       
 158              		.loc 1 126 7 is_stmt 1 view .LVU43
 126:Drivers/STM32F7xx_HAL_Driver/Src/stm32f7xx_hal_dma_ex.c ****       
 159              		.loc 1 126 11 is_stmt 0 view .LVU44
 160 0034 D4F800C0 		ldr	ip, [r4]
 126:Drivers/STM32F7xx_HAL_Driver/Src/stm32f7xx_hal_dma_ex.c ****       
 161              		.loc 1 126 21 view .LVU45
 162 0038 DCF80000 		ldr	r0, [ip]
 126:Drivers/STM32F7xx_HAL_Driver/Src/stm32f7xx_hal_dma_ex.c ****       
 163              		.loc 1 126 26 view .LVU46
 164 003c 40F48020 		orr	r0, r0, #262144
 165 0040 CCF80000 		str	r0, [ip]
 129:Drivers/STM32F7xx_HAL_Driver/Src/stm32f7xx_hal_dma_ex.c ****       
 166              		.loc 1 129 7 is_stmt 1 view .LVU47
 129:Drivers/STM32F7xx_HAL_Driver/Src/stm32f7xx_hal_dma_ex.c ****       
 167              		.loc 1 129 11 is_stmt 0 view .LVU48
 168 0044 2068     		ldr	r0, [r4]
 129:Drivers/STM32F7xx_HAL_Driver/Src/stm32f7xx_hal_dma_ex.c ****       
 169              		.loc 1 129 28 view .LVU49
 170 0046 0361     		str	r3, [r0, #16]
 132:Drivers/STM32F7xx_HAL_Driver/Src/stm32f7xx_hal_dma_ex.c ****       
 171              		.loc 1 132 7 is_stmt 1 view .LVU50
 172 0048 029B     		ldr	r3, [sp, #8]
 173              	.LVL13:
 132:Drivers/STM32F7xx_HAL_Driver/Src/stm32f7xx_hal_dma_ex.c ****       
 174              		.loc 1 132 7 is_stmt 0 view .LVU51
 175 004a 2046     		mov	r0, r4
 176              	.LVL14:
 132:Drivers/STM32F7xx_HAL_Driver/Src/stm32f7xx_hal_dma_ex.c ****       
 177              		.loc 1 132 7 view .LVU52
 178 004c FFF7FEFF 		bl	DMA_MultiBufferSetConfig
 179              	.LVL15:
 135:Drivers/STM32F7xx_HAL_Driver/Src/stm32f7xx_hal_dma_ex.c ****     }
 180              		.loc 1 135 7 is_stmt 1 view .LVU53
 181 0050 2268     		ldr	r2, [r4]
 182 0052 1368     		ldr	r3, [r2]
ARM GAS  /tmp/cc1lRkNS.s 			page 10


 183 0054 43F00103 		orr	r3, r3, #1
 184 0058 1360     		str	r3, [r2]
 104:Drivers/STM32F7xx_HAL_Driver/Src/stm32f7xx_hal_dma_ex.c ****   
 185              		.loc 1 104 21 is_stmt 0 view .LVU54
 186 005a 0020     		movs	r0, #0
 187 005c E1E7     		b	.L8
 188              	.LVL16:
 189              	.L9:
 118:Drivers/STM32F7xx_HAL_Driver/Src/stm32f7xx_hal_dma_ex.c ****     
 190              		.loc 1 118 5 discriminator 1 view .LVU55
 191 005e 0220     		movs	r0, #2
 192 0060 DFE7     		b	.L8
 193              		.cfi_endproc
 194              	.LFE141:
 196              		.section	.text.HAL_DMAEx_MultiBufferStart_IT,"ax",%progbits
 197              		.align	1
 198              		.global	HAL_DMAEx_MultiBufferStart_IT
 199              		.syntax unified
 200              		.thumb
 201              		.thumb_func
 203              	HAL_DMAEx_MultiBufferStart_IT:
 204              	.LVL17:
 205              	.LFB142:
 157:Drivers/STM32F7xx_HAL_Driver/Src/stm32f7xx_hal_dma_ex.c ****   HAL_StatusTypeDef status = HAL_OK;
 206              		.loc 1 157 1 is_stmt 1 view -0
 207              		.cfi_startproc
 208              		@ args = 4, pretend = 0, frame = 0
 209              		@ frame_needed = 0, uses_anonymous_args = 0
 157:Drivers/STM32F7xx_HAL_Driver/Src/stm32f7xx_hal_dma_ex.c ****   HAL_StatusTypeDef status = HAL_OK;
 210              		.loc 1 157 1 is_stmt 0 view .LVU57
 211 0000 10B5     		push	{r4, lr}
 212              	.LCFI4:
 213              		.cfi_def_cfa_offset 8
 214              		.cfi_offset 4, -8
 215              		.cfi_offset 14, -4
 216 0002 0446     		mov	r4, r0
 158:Drivers/STM32F7xx_HAL_Driver/Src/stm32f7xx_hal_dma_ex.c ****   
 217              		.loc 1 158 3 is_stmt 1 view .LVU58
 218              	.LVL18:
 161:Drivers/STM32F7xx_HAL_Driver/Src/stm32f7xx_hal_dma_ex.c ****   
 219              		.loc 1 161 3 view .LVU59
 164:Drivers/STM32F7xx_HAL_Driver/Src/stm32f7xx_hal_dma_ex.c ****   {
 220              		.loc 1 164 3 view .LVU60
 164:Drivers/STM32F7xx_HAL_Driver/Src/stm32f7xx_hal_dma_ex.c ****   {
 221              		.loc 1 164 17 is_stmt 0 view .LVU61
 222 0004 8068     		ldr	r0, [r0, #8]
 223              	.LVL19:
 164:Drivers/STM32F7xx_HAL_Driver/Src/stm32f7xx_hal_dma_ex.c ****   {
 224              		.loc 1 164 6 view .LVU62
 225 0006 8028     		cmp	r0, #128
 226 0008 10D0     		beq	.L302
 171:Drivers/STM32F7xx_HAL_Driver/Src/stm32f7xx_hal_dma_ex.c ****   
 227              		.loc 1 171 3 is_stmt 1 view .LVU63
 171:Drivers/STM32F7xx_HAL_Driver/Src/stm32f7xx_hal_dma_ex.c ****   
 228              		.loc 1 171 3 view .LVU64
 229 000a 94F83400 		ldrb	r0, [r4, #52]	@ zero_extendqisi2
 230 000e 0128     		cmp	r0, #1
ARM GAS  /tmp/cc1lRkNS.s 			page 11


 231 0010 00F06787 		beq	.L60
 171:Drivers/STM32F7xx_HAL_Driver/Src/stm32f7xx_hal_dma_ex.c ****   
 232              		.loc 1 171 3 discriminator 2 view .LVU65
 233 0014 0120     		movs	r0, #1
 234 0016 84F83400 		strb	r0, [r4, #52]
 171:Drivers/STM32F7xx_HAL_Driver/Src/stm32f7xx_hal_dma_ex.c ****   
 235              		.loc 1 171 3 view .LVU66
 173:Drivers/STM32F7xx_HAL_Driver/Src/stm32f7xx_hal_dma_ex.c ****   {
 236              		.loc 1 173 3 view .LVU67
 173:Drivers/STM32F7xx_HAL_Driver/Src/stm32f7xx_hal_dma_ex.c ****   {
 237              		.loc 1 173 33 is_stmt 0 view .LVU68
 238 001a 94F83500 		ldrb	r0, [r4, #53]	@ zero_extendqisi2
 173:Drivers/STM32F7xx_HAL_Driver/Src/stm32f7xx_hal_dma_ex.c ****   {
 239              		.loc 1 173 5 view .LVU69
 240 001e 0128     		cmp	r0, #1
 241 0020 09D0     		beq	.L303
 212:Drivers/STM32F7xx_HAL_Driver/Src/stm32f7xx_hal_dma_ex.c ****     
 242              		.loc 1 212 5 is_stmt 1 view .LVU70
 212:Drivers/STM32F7xx_HAL_Driver/Src/stm32f7xx_hal_dma_ex.c ****     
 243              		.loc 1 212 5 view .LVU71
 244 0022 0023     		movs	r3, #0
 245              	.LVL20:
 212:Drivers/STM32F7xx_HAL_Driver/Src/stm32f7xx_hal_dma_ex.c ****     
 246              		.loc 1 212 5 is_stmt 0 view .LVU72
 247 0024 84F83430 		strb	r3, [r4, #52]
 212:Drivers/STM32F7xx_HAL_Driver/Src/stm32f7xx_hal_dma_ex.c ****     
 248              		.loc 1 212 5 is_stmt 1 view .LVU73
 215:Drivers/STM32F7xx_HAL_Driver/Src/stm32f7xx_hal_dma_ex.c ****   }  
 249              		.loc 1 215 5 view .LVU74
 250              	.LVL21:
 215:Drivers/STM32F7xx_HAL_Driver/Src/stm32f7xx_hal_dma_ex.c ****   }  
 251              		.loc 1 215 12 is_stmt 0 view .LVU75
 252 0028 0220     		movs	r0, #2
 253              	.LVL22:
 254              	.L16:
 218:Drivers/STM32F7xx_HAL_Driver/Src/stm32f7xx_hal_dma_ex.c **** 
 255              		.loc 1 218 1 view .LVU76
 256 002a 10BD     		pop	{r4, pc}
 257              	.LVL23:
 258              	.L302:
 166:Drivers/STM32F7xx_HAL_Driver/Src/stm32f7xx_hal_dma_ex.c ****     return HAL_ERROR;
 259              		.loc 1 166 5 is_stmt 1 view .LVU77
 166:Drivers/STM32F7xx_HAL_Driver/Src/stm32f7xx_hal_dma_ex.c ****     return HAL_ERROR;
 260              		.loc 1 166 21 is_stmt 0 view .LVU78
 261 002c 4FF48073 		mov	r3, #256
 262              	.LVL24:
 166:Drivers/STM32F7xx_HAL_Driver/Src/stm32f7xx_hal_dma_ex.c ****     return HAL_ERROR;
 263              		.loc 1 166 21 view .LVU79
 264 0030 6365     		str	r3, [r4, #84]
 167:Drivers/STM32F7xx_HAL_Driver/Src/stm32f7xx_hal_dma_ex.c ****   }
 265              		.loc 1 167 5 is_stmt 1 view .LVU80
 167:Drivers/STM32F7xx_HAL_Driver/Src/stm32f7xx_hal_dma_ex.c ****   }
 266              		.loc 1 167 12 is_stmt 0 view .LVU81
 267 0032 0120     		movs	r0, #1
 268 0034 F9E7     		b	.L16
 269              	.LVL25:
 270              	.L303:
ARM GAS  /tmp/cc1lRkNS.s 			page 12


 176:Drivers/STM32F7xx_HAL_Driver/Src/stm32f7xx_hal_dma_ex.c ****     
 271              		.loc 1 176 5 is_stmt 1 view .LVU82
 176:Drivers/STM32F7xx_HAL_Driver/Src/stm32f7xx_hal_dma_ex.c ****     
 272              		.loc 1 176 17 is_stmt 0 view .LVU83
 273 0036 0220     		movs	r0, #2
 274 0038 84F83500 		strb	r0, [r4, #53]
 179:Drivers/STM32F7xx_HAL_Driver/Src/stm32f7xx_hal_dma_ex.c ****     
 275              		.loc 1 179 5 is_stmt 1 view .LVU84
 179:Drivers/STM32F7xx_HAL_Driver/Src/stm32f7xx_hal_dma_ex.c ****     
 276              		.loc 1 179 21 is_stmt 0 view .LVU85
 277 003c 0020     		movs	r0, #0
 278 003e 6065     		str	r0, [r4, #84]
 182:Drivers/STM32F7xx_HAL_Driver/Src/stm32f7xx_hal_dma_ex.c ****     
 279              		.loc 1 182 5 is_stmt 1 view .LVU86
 182:Drivers/STM32F7xx_HAL_Driver/Src/stm32f7xx_hal_dma_ex.c ****     
 280              		.loc 1 182 9 is_stmt 0 view .LVU87
 281 0040 D4F800C0 		ldr	ip, [r4]
 182:Drivers/STM32F7xx_HAL_Driver/Src/stm32f7xx_hal_dma_ex.c ****     
 282              		.loc 1 182 19 view .LVU88
 283 0044 DCF80000 		ldr	r0, [ip]
 182:Drivers/STM32F7xx_HAL_Driver/Src/stm32f7xx_hal_dma_ex.c ****     
 284              		.loc 1 182 24 view .LVU89
 285 0048 40F48020 		orr	r0, r0, #262144
 286 004c CCF80000 		str	r0, [ip]
 185:Drivers/STM32F7xx_HAL_Driver/Src/stm32f7xx_hal_dma_ex.c ****     
 287              		.loc 1 185 5 is_stmt 1 view .LVU90
 185:Drivers/STM32F7xx_HAL_Driver/Src/stm32f7xx_hal_dma_ex.c ****     
 288              		.loc 1 185 9 is_stmt 0 view .LVU91
 289 0050 2068     		ldr	r0, [r4]
 185:Drivers/STM32F7xx_HAL_Driver/Src/stm32f7xx_hal_dma_ex.c ****     
 290              		.loc 1 185 26 view .LVU92
 291 0052 0361     		str	r3, [r0, #16]
 188:Drivers/STM32F7xx_HAL_Driver/Src/stm32f7xx_hal_dma_ex.c ****     
 292              		.loc 1 188 5 is_stmt 1 view .LVU93
 293 0054 029B     		ldr	r3, [sp, #8]
 294              	.LVL26:
 188:Drivers/STM32F7xx_HAL_Driver/Src/stm32f7xx_hal_dma_ex.c ****     
 295              		.loc 1 188 5 is_stmt 0 view .LVU94
 296 0056 2046     		mov	r0, r4
 297              	.LVL27:
 188:Drivers/STM32F7xx_HAL_Driver/Src/stm32f7xx_hal_dma_ex.c ****     
 298              		.loc 1 188 5 view .LVU95
 299 0058 FFF7FEFF 		bl	DMA_MultiBufferSetConfig
 300              	.LVL28:
 191:Drivers/STM32F7xx_HAL_Driver/Src/stm32f7xx_hal_dma_ex.c ****     __HAL_DMA_CLEAR_FLAG (hdma, __HAL_DMA_GET_HT_FLAG_INDEX(hdma));
 301              		.loc 1 191 5 is_stmt 1 view .LVU96
 302 005c 2368     		ldr	r3, [r4]
 303 005e A54A     		ldr	r2, .L325
 304 0060 9342     		cmp	r3, r2
 305 0062 40F29880 		bls	.L18
 191:Drivers/STM32F7xx_HAL_Driver/Src/stm32f7xx_hal_dma_ex.c ****     __HAL_DMA_CLEAR_FLAG (hdma, __HAL_DMA_GET_HT_FLAG_INDEX(hdma));
 306              		.loc 1 191 5 is_stmt 0 discriminator 1 view .LVU97
 307 0066 A2F58962 		sub	r2, r2, #1096
 308 006a 9342     		cmp	r3, r2
 309 006c 31D0     		beq	.L61
 191:Drivers/STM32F7xx_HAL_Driver/Src/stm32f7xx_hal_dma_ex.c ****     __HAL_DMA_CLEAR_FLAG (hdma, __HAL_DMA_GET_HT_FLAG_INDEX(hdma));
 310              		.loc 1 191 5 discriminator 3 view .LVU98
ARM GAS  /tmp/cc1lRkNS.s 			page 13


 311 006e 02F58062 		add	r2, r2, #1024
 312 0072 9342     		cmp	r3, r2
 313 0074 74D0     		beq	.L62
 191:Drivers/STM32F7xx_HAL_Driver/Src/stm32f7xx_hal_dma_ex.c ****     __HAL_DMA_CLEAR_FLAG (hdma, __HAL_DMA_GET_HT_FLAG_INDEX(hdma));
 314              		.loc 1 191 5 discriminator 5 view .LVU99
 315 0076 A2F56872 		sub	r2, r2, #928
 316 007a 9342     		cmp	r3, r2
 317 007c 72D0     		beq	.L63
 191:Drivers/STM32F7xx_HAL_Driver/Src/stm32f7xx_hal_dma_ex.c ****     __HAL_DMA_CLEAR_FLAG (hdma, __HAL_DMA_GET_HT_FLAG_INDEX(hdma));
 318              		.loc 1 191 5 discriminator 7 view .LVU100
 319 007e 02F58062 		add	r2, r2, #1024
 320 0082 9342     		cmp	r3, r2
 321 0084 70D0     		beq	.L64
 191:Drivers/STM32F7xx_HAL_Driver/Src/stm32f7xx_hal_dma_ex.c ****     __HAL_DMA_CLEAR_FLAG (hdma, __HAL_DMA_GET_HT_FLAG_INDEX(hdma));
 322              		.loc 1 191 5 discriminator 9 view .LVU101
 323 0086 A2F58962 		sub	r2, r2, #1096
 324 008a 9342     		cmp	r3, r2
 325 008c 6ED0     		beq	.L65
 191:Drivers/STM32F7xx_HAL_Driver/Src/stm32f7xx_hal_dma_ex.c ****     __HAL_DMA_CLEAR_FLAG (hdma, __HAL_DMA_GET_HT_FLAG_INDEX(hdma));
 326              		.loc 1 191 5 discriminator 11 view .LVU102
 327 008e 02F58062 		add	r2, r2, #1024
 328 0092 9342     		cmp	r3, r2
 329 0094 6DD0     		beq	.L66
 191:Drivers/STM32F7xx_HAL_Driver/Src/stm32f7xx_hal_dma_ex.c ****     __HAL_DMA_CLEAR_FLAG (hdma, __HAL_DMA_GET_HT_FLAG_INDEX(hdma));
 330              		.loc 1 191 5 discriminator 13 view .LVU103
 331 0096 A2F56872 		sub	r2, r2, #928
 332 009a 9342     		cmp	r3, r2
 333 009c 6CD0     		beq	.L67
 191:Drivers/STM32F7xx_HAL_Driver/Src/stm32f7xx_hal_dma_ex.c ****     __HAL_DMA_CLEAR_FLAG (hdma, __HAL_DMA_GET_HT_FLAG_INDEX(hdma));
 334              		.loc 1 191 5 discriminator 15 view .LVU104
 335 009e 02F58062 		add	r2, r2, #1024
 336 00a2 9342     		cmp	r3, r2
 337 00a4 6BD0     		beq	.L68
 191:Drivers/STM32F7xx_HAL_Driver/Src/stm32f7xx_hal_dma_ex.c ****     __HAL_DMA_CLEAR_FLAG (hdma, __HAL_DMA_GET_HT_FLAG_INDEX(hdma));
 338              		.loc 1 191 5 discriminator 17 view .LVU105
 339 00a6 A2F58962 		sub	r2, r2, #1096
 340 00aa 9342     		cmp	r3, r2
 341 00ac 6AD0     		beq	.L69
 191:Drivers/STM32F7xx_HAL_Driver/Src/stm32f7xx_hal_dma_ex.c ****     __HAL_DMA_CLEAR_FLAG (hdma, __HAL_DMA_GET_HT_FLAG_INDEX(hdma));
 342              		.loc 1 191 5 discriminator 19 view .LVU106
 343 00ae 02F58062 		add	r2, r2, #1024
 344 00b2 9342     		cmp	r3, r2
 345 00b4 69D0     		beq	.L70
 191:Drivers/STM32F7xx_HAL_Driver/Src/stm32f7xx_hal_dma_ex.c ****     __HAL_DMA_CLEAR_FLAG (hdma, __HAL_DMA_GET_HT_FLAG_INDEX(hdma));
 346              		.loc 1 191 5 discriminator 21 view .LVU107
 347 00b6 A2F56872 		sub	r2, r2, #928
 348 00ba 9342     		cmp	r3, r2
 349 00bc 68D0     		beq	.L71
 191:Drivers/STM32F7xx_HAL_Driver/Src/stm32f7xx_hal_dma_ex.c ****     __HAL_DMA_CLEAR_FLAG (hdma, __HAL_DMA_GET_HT_FLAG_INDEX(hdma));
 350              		.loc 1 191 5 discriminator 23 view .LVU108
 351 00be 02F58062 		add	r2, r2, #1024
 352 00c2 9342     		cmp	r3, r2
 353 00c4 02D0     		beq	.L304
 191:Drivers/STM32F7xx_HAL_Driver/Src/stm32f7xx_hal_dma_ex.c ****     __HAL_DMA_CLEAR_FLAG (hdma, __HAL_DMA_GET_HT_FLAG_INDEX(hdma));
 354              		.loc 1 191 5 discriminator 26 view .LVU109
 355 00c6 4FF00062 		mov	r2, #134217728
 356 00ca 03E0     		b	.L19
ARM GAS  /tmp/cc1lRkNS.s 			page 14


 357              	.L304:
 191:Drivers/STM32F7xx_HAL_Driver/Src/stm32f7xx_hal_dma_ex.c ****     __HAL_DMA_CLEAR_FLAG (hdma, __HAL_DMA_GET_HT_FLAG_INDEX(hdma));
 358              		.loc 1 191 5 discriminator 25 view .LVU110
 359 00cc 4FF40012 		mov	r2, #2097152
 360 00d0 00E0     		b	.L19
 361              	.L61:
 191:Drivers/STM32F7xx_HAL_Driver/Src/stm32f7xx_hal_dma_ex.c ****     __HAL_DMA_CLEAR_FLAG (hdma, __HAL_DMA_GET_HT_FLAG_INDEX(hdma));
 362              		.loc 1 191 5 discriminator 4 view .LVU111
 363 00d2 2022     		movs	r2, #32
 364              	.L19:
 191:Drivers/STM32F7xx_HAL_Driver/Src/stm32f7xx_hal_dma_ex.c ****     __HAL_DMA_CLEAR_FLAG (hdma, __HAL_DMA_GET_HT_FLAG_INDEX(hdma));
 365              		.loc 1 191 5 discriminator 27 view .LVU112
 366 00d4 884B     		ldr	r3, .L325+4
 367 00d6 DA60     		str	r2, [r3, #12]
 368              	.LVL29:
 369              	.L20:
 192:Drivers/STM32F7xx_HAL_Driver/Src/stm32f7xx_hal_dma_ex.c ****     __HAL_DMA_CLEAR_FLAG (hdma, __HAL_DMA_GET_TE_FLAG_INDEX(hdma));
 370              		.loc 1 192 5 is_stmt 1 view .LVU113
 371 00d8 2368     		ldr	r3, [r4]
 372 00da 864A     		ldr	r2, .L325
 373 00dc 9342     		cmp	r3, r2
 374 00de 40F2CC81 		bls	.L26
 192:Drivers/STM32F7xx_HAL_Driver/Src/stm32f7xx_hal_dma_ex.c ****     __HAL_DMA_CLEAR_FLAG (hdma, __HAL_DMA_GET_TE_FLAG_INDEX(hdma));
 375              		.loc 1 192 5 is_stmt 0 discriminator 1 view .LVU114
 376 00e2 A2F58962 		sub	r2, r2, #1096
 377 00e6 9342     		cmp	r3, r2
 378 00e8 00F06581 		beq	.L109
 192:Drivers/STM32F7xx_HAL_Driver/Src/stm32f7xx_hal_dma_ex.c ****     __HAL_DMA_CLEAR_FLAG (hdma, __HAL_DMA_GET_TE_FLAG_INDEX(hdma));
 379              		.loc 1 192 5 discriminator 3 view .LVU115
 380 00ec 02F58062 		add	r2, r2, #1024
 381 00f0 9342     		cmp	r3, r2
 382 00f2 00F0A781 		beq	.L110
 192:Drivers/STM32F7xx_HAL_Driver/Src/stm32f7xx_hal_dma_ex.c ****     __HAL_DMA_CLEAR_FLAG (hdma, __HAL_DMA_GET_TE_FLAG_INDEX(hdma));
 383              		.loc 1 192 5 discriminator 5 view .LVU116
 384 00f6 A2F56872 		sub	r2, r2, #928
 385 00fa 9342     		cmp	r3, r2
 386 00fc 00F0A481 		beq	.L111
 192:Drivers/STM32F7xx_HAL_Driver/Src/stm32f7xx_hal_dma_ex.c ****     __HAL_DMA_CLEAR_FLAG (hdma, __HAL_DMA_GET_TE_FLAG_INDEX(hdma));
 387              		.loc 1 192 5 discriminator 7 view .LVU117
 388 0100 02F58062 		add	r2, r2, #1024
 389 0104 9342     		cmp	r3, r2
 390 0106 00F0A181 		beq	.L112
 192:Drivers/STM32F7xx_HAL_Driver/Src/stm32f7xx_hal_dma_ex.c ****     __HAL_DMA_CLEAR_FLAG (hdma, __HAL_DMA_GET_TE_FLAG_INDEX(hdma));
 391              		.loc 1 192 5 discriminator 9 view .LVU118
 392 010a A2F58962 		sub	r2, r2, #1096
 393 010e 9342     		cmp	r3, r2
 394 0110 00F09E81 		beq	.L113
 192:Drivers/STM32F7xx_HAL_Driver/Src/stm32f7xx_hal_dma_ex.c ****     __HAL_DMA_CLEAR_FLAG (hdma, __HAL_DMA_GET_TE_FLAG_INDEX(hdma));
 395              		.loc 1 192 5 discriminator 11 view .LVU119
 396 0114 02F58062 		add	r2, r2, #1024
 397 0118 9342     		cmp	r3, r2
 398 011a 00F09C81 		beq	.L114
 192:Drivers/STM32F7xx_HAL_Driver/Src/stm32f7xx_hal_dma_ex.c ****     __HAL_DMA_CLEAR_FLAG (hdma, __HAL_DMA_GET_TE_FLAG_INDEX(hdma));
 399              		.loc 1 192 5 discriminator 13 view .LVU120
 400 011e A2F56872 		sub	r2, r2, #928
 401 0122 9342     		cmp	r3, r2
 402 0124 00F09A81 		beq	.L115
ARM GAS  /tmp/cc1lRkNS.s 			page 15


 192:Drivers/STM32F7xx_HAL_Driver/Src/stm32f7xx_hal_dma_ex.c ****     __HAL_DMA_CLEAR_FLAG (hdma, __HAL_DMA_GET_TE_FLAG_INDEX(hdma));
 403              		.loc 1 192 5 discriminator 15 view .LVU121
 404 0128 02F58062 		add	r2, r2, #1024
 405 012c 9342     		cmp	r3, r2
 406 012e 00F09881 		beq	.L116
 192:Drivers/STM32F7xx_HAL_Driver/Src/stm32f7xx_hal_dma_ex.c ****     __HAL_DMA_CLEAR_FLAG (hdma, __HAL_DMA_GET_TE_FLAG_INDEX(hdma));
 407              		.loc 1 192 5 discriminator 17 view .LVU122
 408 0132 A2F58962 		sub	r2, r2, #1096
 409 0136 9342     		cmp	r3, r2
 410 0138 00F09681 		beq	.L117
 192:Drivers/STM32F7xx_HAL_Driver/Src/stm32f7xx_hal_dma_ex.c ****     __HAL_DMA_CLEAR_FLAG (hdma, __HAL_DMA_GET_TE_FLAG_INDEX(hdma));
 411              		.loc 1 192 5 discriminator 19 view .LVU123
 412 013c 02F58062 		add	r2, r2, #1024
 413 0140 9342     		cmp	r3, r2
 414 0142 00F09481 		beq	.L118
 192:Drivers/STM32F7xx_HAL_Driver/Src/stm32f7xx_hal_dma_ex.c ****     __HAL_DMA_CLEAR_FLAG (hdma, __HAL_DMA_GET_TE_FLAG_INDEX(hdma));
 415              		.loc 1 192 5 discriminator 21 view .LVU124
 416 0146 A2F56872 		sub	r2, r2, #928
 417 014a 9342     		cmp	r3, r2
 418 014c 00F09281 		beq	.L119
 192:Drivers/STM32F7xx_HAL_Driver/Src/stm32f7xx_hal_dma_ex.c ****     __HAL_DMA_CLEAR_FLAG (hdma, __HAL_DMA_GET_TE_FLAG_INDEX(hdma));
 419              		.loc 1 192 5 discriminator 23 view .LVU125
 420 0150 02F58062 		add	r2, r2, #1024
 421 0154 9342     		cmp	r3, r2
 422 0156 00F02B81 		beq	.L305
 192:Drivers/STM32F7xx_HAL_Driver/Src/stm32f7xx_hal_dma_ex.c ****     __HAL_DMA_CLEAR_FLAG (hdma, __HAL_DMA_GET_TE_FLAG_INDEX(hdma));
 423              		.loc 1 192 5 discriminator 26 view .LVU126
 424 015a 4FF08062 		mov	r2, #67108864
 425 015e 2BE1     		b	.L27
 426              	.LVL30:
 427              	.L62:
 191:Drivers/STM32F7xx_HAL_Driver/Src/stm32f7xx_hal_dma_ex.c ****     __HAL_DMA_CLEAR_FLAG (hdma, __HAL_DMA_GET_HT_FLAG_INDEX(hdma));
 428              		.loc 1 191 5 discriminator 6 view .LVU127
 429 0160 2022     		movs	r2, #32
 430 0162 B7E7     		b	.L19
 431              	.L63:
 191:Drivers/STM32F7xx_HAL_Driver/Src/stm32f7xx_hal_dma_ex.c ****     __HAL_DMA_CLEAR_FLAG (hdma, __HAL_DMA_GET_HT_FLAG_INDEX(hdma));
 432              		.loc 1 191 5 discriminator 8 view .LVU128
 433 0164 2022     		movs	r2, #32
 434 0166 B5E7     		b	.L19
 435              	.L64:
 191:Drivers/STM32F7xx_HAL_Driver/Src/stm32f7xx_hal_dma_ex.c ****     __HAL_DMA_CLEAR_FLAG (hdma, __HAL_DMA_GET_HT_FLAG_INDEX(hdma));
 436              		.loc 1 191 5 discriminator 10 view .LVU129
 437 0168 2022     		movs	r2, #32
 438 016a B3E7     		b	.L19
 439              	.L65:
 191:Drivers/STM32F7xx_HAL_Driver/Src/stm32f7xx_hal_dma_ex.c ****     __HAL_DMA_CLEAR_FLAG (hdma, __HAL_DMA_GET_HT_FLAG_INDEX(hdma));
 440              		.loc 1 191 5 discriminator 12 view .LVU130
 441 016c 4FF40062 		mov	r2, #2048
 442 0170 B0E7     		b	.L19
 443              	.L66:
 191:Drivers/STM32F7xx_HAL_Driver/Src/stm32f7xx_hal_dma_ex.c ****     __HAL_DMA_CLEAR_FLAG (hdma, __HAL_DMA_GET_HT_FLAG_INDEX(hdma));
 444              		.loc 1 191 5 discriminator 14 view .LVU131
 445 0172 4FF40062 		mov	r2, #2048
 446 0176 ADE7     		b	.L19
 447              	.L67:
 191:Drivers/STM32F7xx_HAL_Driver/Src/stm32f7xx_hal_dma_ex.c ****     __HAL_DMA_CLEAR_FLAG (hdma, __HAL_DMA_GET_HT_FLAG_INDEX(hdma));
ARM GAS  /tmp/cc1lRkNS.s 			page 16


 448              		.loc 1 191 5 discriminator 16 view .LVU132
 449 0178 4FF40062 		mov	r2, #2048
 450 017c AAE7     		b	.L19
 451              	.L68:
 191:Drivers/STM32F7xx_HAL_Driver/Src/stm32f7xx_hal_dma_ex.c ****     __HAL_DMA_CLEAR_FLAG (hdma, __HAL_DMA_GET_HT_FLAG_INDEX(hdma));
 452              		.loc 1 191 5 discriminator 18 view .LVU133
 453 017e 4FF40062 		mov	r2, #2048
 454 0182 A7E7     		b	.L19
 455              	.L69:
 191:Drivers/STM32F7xx_HAL_Driver/Src/stm32f7xx_hal_dma_ex.c ****     __HAL_DMA_CLEAR_FLAG (hdma, __HAL_DMA_GET_HT_FLAG_INDEX(hdma));
 456              		.loc 1 191 5 discriminator 20 view .LVU134
 457 0184 4FF40012 		mov	r2, #2097152
 458 0188 A4E7     		b	.L19
 459              	.L70:
 191:Drivers/STM32F7xx_HAL_Driver/Src/stm32f7xx_hal_dma_ex.c ****     __HAL_DMA_CLEAR_FLAG (hdma, __HAL_DMA_GET_HT_FLAG_INDEX(hdma));
 460              		.loc 1 191 5 discriminator 22 view .LVU135
 461 018a 4FF40012 		mov	r2, #2097152
 462 018e A1E7     		b	.L19
 463              	.L71:
 191:Drivers/STM32F7xx_HAL_Driver/Src/stm32f7xx_hal_dma_ex.c ****     __HAL_DMA_CLEAR_FLAG (hdma, __HAL_DMA_GET_HT_FLAG_INDEX(hdma));
 464              		.loc 1 191 5 discriminator 24 view .LVU136
 465 0190 4FF40012 		mov	r2, #2097152
 466 0194 9EE7     		b	.L19
 467              	.L18:
 191:Drivers/STM32F7xx_HAL_Driver/Src/stm32f7xx_hal_dma_ex.c ****     __HAL_DMA_CLEAR_FLAG (hdma, __HAL_DMA_GET_HT_FLAG_INDEX(hdma));
 468              		.loc 1 191 5 discriminator 2 view .LVU137
 469 0196 594A     		ldr	r2, .L325+8
 470 0198 9342     		cmp	r3, r2
 471 019a 53D9     		bls	.L21
 191:Drivers/STM32F7xx_HAL_Driver/Src/stm32f7xx_hal_dma_ex.c ****     __HAL_DMA_CLEAR_FLAG (hdma, __HAL_DMA_GET_HT_FLAG_INDEX(hdma));
 472              		.loc 1 191 5 discriminator 28 view .LVU138
 473 019c A83A     		subs	r2, r2, #168
 474 019e 9342     		cmp	r3, r2
 475 01a0 31D0     		beq	.L73
 191:Drivers/STM32F7xx_HAL_Driver/Src/stm32f7xx_hal_dma_ex.c ****     __HAL_DMA_CLEAR_FLAG (hdma, __HAL_DMA_GET_HT_FLAG_INDEX(hdma));
 476              		.loc 1 191 5 discriminator 30 view .LVU139
 477 01a2 02F58062 		add	r2, r2, #1024
 478 01a6 9342     		cmp	r3, r2
 479 01a8 31D0     		beq	.L74
 191:Drivers/STM32F7xx_HAL_Driver/Src/stm32f7xx_hal_dma_ex.c ****     __HAL_DMA_CLEAR_FLAG (hdma, __HAL_DMA_GET_HT_FLAG_INDEX(hdma));
 480              		.loc 1 191 5 discriminator 32 view .LVU140
 481 01aa A2F56872 		sub	r2, r2, #928
 482 01ae 9342     		cmp	r3, r2
 483 01b0 2FD0     		beq	.L75
 191:Drivers/STM32F7xx_HAL_Driver/Src/stm32f7xx_hal_dma_ex.c ****     __HAL_DMA_CLEAR_FLAG (hdma, __HAL_DMA_GET_HT_FLAG_INDEX(hdma));
 484              		.loc 1 191 5 discriminator 34 view .LVU141
 485 01b2 02F58062 		add	r2, r2, #1024
 486 01b6 9342     		cmp	r3, r2
 487 01b8 2DD0     		beq	.L76
 191:Drivers/STM32F7xx_HAL_Driver/Src/stm32f7xx_hal_dma_ex.c ****     __HAL_DMA_CLEAR_FLAG (hdma, __HAL_DMA_GET_HT_FLAG_INDEX(hdma));
 488              		.loc 1 191 5 discriminator 36 view .LVU142
 489 01ba A2F58962 		sub	r2, r2, #1096
 490 01be 9342     		cmp	r3, r2
 491 01c0 2BD0     		beq	.L77
 191:Drivers/STM32F7xx_HAL_Driver/Src/stm32f7xx_hal_dma_ex.c ****     __HAL_DMA_CLEAR_FLAG (hdma, __HAL_DMA_GET_HT_FLAG_INDEX(hdma));
 492              		.loc 1 191 5 discriminator 38 view .LVU143
 493 01c2 02F58062 		add	r2, r2, #1024
ARM GAS  /tmp/cc1lRkNS.s 			page 17


 494 01c6 9342     		cmp	r3, r2
 495 01c8 2AD0     		beq	.L78
 191:Drivers/STM32F7xx_HAL_Driver/Src/stm32f7xx_hal_dma_ex.c ****     __HAL_DMA_CLEAR_FLAG (hdma, __HAL_DMA_GET_HT_FLAG_INDEX(hdma));
 496              		.loc 1 191 5 discriminator 40 view .LVU144
 497 01ca A2F56872 		sub	r2, r2, #928
 498 01ce 9342     		cmp	r3, r2
 499 01d0 29D0     		beq	.L79
 191:Drivers/STM32F7xx_HAL_Driver/Src/stm32f7xx_hal_dma_ex.c ****     __HAL_DMA_CLEAR_FLAG (hdma, __HAL_DMA_GET_HT_FLAG_INDEX(hdma));
 500              		.loc 1 191 5 discriminator 42 view .LVU145
 501 01d2 02F58062 		add	r2, r2, #1024
 502 01d6 9342     		cmp	r3, r2
 503 01d8 28D0     		beq	.L80
 191:Drivers/STM32F7xx_HAL_Driver/Src/stm32f7xx_hal_dma_ex.c ****     __HAL_DMA_CLEAR_FLAG (hdma, __HAL_DMA_GET_HT_FLAG_INDEX(hdma));
 504              		.loc 1 191 5 discriminator 44 view .LVU146
 505 01da A2F58962 		sub	r2, r2, #1096
 506 01de 9342     		cmp	r3, r2
 507 01e0 27D0     		beq	.L81
 191:Drivers/STM32F7xx_HAL_Driver/Src/stm32f7xx_hal_dma_ex.c ****     __HAL_DMA_CLEAR_FLAG (hdma, __HAL_DMA_GET_HT_FLAG_INDEX(hdma));
 508              		.loc 1 191 5 discriminator 46 view .LVU147
 509 01e2 02F58062 		add	r2, r2, #1024
 510 01e6 9342     		cmp	r3, r2
 511 01e8 26D0     		beq	.L82
 191:Drivers/STM32F7xx_HAL_Driver/Src/stm32f7xx_hal_dma_ex.c ****     __HAL_DMA_CLEAR_FLAG (hdma, __HAL_DMA_GET_HT_FLAG_INDEX(hdma));
 512              		.loc 1 191 5 discriminator 48 view .LVU148
 513 01ea A2F56872 		sub	r2, r2, #928
 514 01ee 9342     		cmp	r3, r2
 515 01f0 25D0     		beq	.L83
 191:Drivers/STM32F7xx_HAL_Driver/Src/stm32f7xx_hal_dma_ex.c ****     __HAL_DMA_CLEAR_FLAG (hdma, __HAL_DMA_GET_HT_FLAG_INDEX(hdma));
 516              		.loc 1 191 5 discriminator 50 view .LVU149
 517 01f2 02F58062 		add	r2, r2, #1024
 518 01f6 9342     		cmp	r3, r2
 519 01f8 02D0     		beq	.L306
 191:Drivers/STM32F7xx_HAL_Driver/Src/stm32f7xx_hal_dma_ex.c ****     __HAL_DMA_CLEAR_FLAG (hdma, __HAL_DMA_GET_HT_FLAG_INDEX(hdma));
 520              		.loc 1 191 5 discriminator 53 view .LVU150
 521 01fa 4FF00062 		mov	r2, #134217728
 522 01fe 03E0     		b	.L22
 523              	.L306:
 191:Drivers/STM32F7xx_HAL_Driver/Src/stm32f7xx_hal_dma_ex.c ****     __HAL_DMA_CLEAR_FLAG (hdma, __HAL_DMA_GET_HT_FLAG_INDEX(hdma));
 524              		.loc 1 191 5 discriminator 52 view .LVU151
 525 0200 4FF40012 		mov	r2, #2097152
 526 0204 00E0     		b	.L22
 527              	.L73:
 191:Drivers/STM32F7xx_HAL_Driver/Src/stm32f7xx_hal_dma_ex.c ****     __HAL_DMA_CLEAR_FLAG (hdma, __HAL_DMA_GET_HT_FLAG_INDEX(hdma));
 528              		.loc 1 191 5 discriminator 31 view .LVU152
 529 0206 2022     		movs	r2, #32
 530              	.L22:
 191:Drivers/STM32F7xx_HAL_Driver/Src/stm32f7xx_hal_dma_ex.c ****     __HAL_DMA_CLEAR_FLAG (hdma, __HAL_DMA_GET_HT_FLAG_INDEX(hdma));
 531              		.loc 1 191 5 discriminator 54 view .LVU153
 532 0208 3B4B     		ldr	r3, .L325+4
 533 020a 9A60     		str	r2, [r3, #8]
 534              	.LVL31:
 191:Drivers/STM32F7xx_HAL_Driver/Src/stm32f7xx_hal_dma_ex.c ****     __HAL_DMA_CLEAR_FLAG (hdma, __HAL_DMA_GET_HT_FLAG_INDEX(hdma));
 535              		.loc 1 191 5 discriminator 54 view .LVU154
 536 020c 64E7     		b	.L20
 537              	.LVL32:
 538              	.L74:
 191:Drivers/STM32F7xx_HAL_Driver/Src/stm32f7xx_hal_dma_ex.c ****     __HAL_DMA_CLEAR_FLAG (hdma, __HAL_DMA_GET_HT_FLAG_INDEX(hdma));
ARM GAS  /tmp/cc1lRkNS.s 			page 18


 539              		.loc 1 191 5 discriminator 33 view .LVU155
 540 020e 2022     		movs	r2, #32
 541 0210 FAE7     		b	.L22
 542              	.L75:
 191:Drivers/STM32F7xx_HAL_Driver/Src/stm32f7xx_hal_dma_ex.c ****     __HAL_DMA_CLEAR_FLAG (hdma, __HAL_DMA_GET_HT_FLAG_INDEX(hdma));
 543              		.loc 1 191 5 discriminator 35 view .LVU156
 544 0212 2022     		movs	r2, #32
 545 0214 F8E7     		b	.L22
 546              	.L76:
 191:Drivers/STM32F7xx_HAL_Driver/Src/stm32f7xx_hal_dma_ex.c ****     __HAL_DMA_CLEAR_FLAG (hdma, __HAL_DMA_GET_HT_FLAG_INDEX(hdma));
 547              		.loc 1 191 5 discriminator 37 view .LVU157
 548 0216 2022     		movs	r2, #32
 549 0218 F6E7     		b	.L22
 550              	.L77:
 191:Drivers/STM32F7xx_HAL_Driver/Src/stm32f7xx_hal_dma_ex.c ****     __HAL_DMA_CLEAR_FLAG (hdma, __HAL_DMA_GET_HT_FLAG_INDEX(hdma));
 551              		.loc 1 191 5 discriminator 39 view .LVU158
 552 021a 4FF40062 		mov	r2, #2048
 553 021e F3E7     		b	.L22
 554              	.L78:
 191:Drivers/STM32F7xx_HAL_Driver/Src/stm32f7xx_hal_dma_ex.c ****     __HAL_DMA_CLEAR_FLAG (hdma, __HAL_DMA_GET_HT_FLAG_INDEX(hdma));
 555              		.loc 1 191 5 discriminator 41 view .LVU159
 556 0220 4FF40062 		mov	r2, #2048
 557 0224 F0E7     		b	.L22
 558              	.L79:
 191:Drivers/STM32F7xx_HAL_Driver/Src/stm32f7xx_hal_dma_ex.c ****     __HAL_DMA_CLEAR_FLAG (hdma, __HAL_DMA_GET_HT_FLAG_INDEX(hdma));
 559              		.loc 1 191 5 discriminator 43 view .LVU160
 560 0226 4FF40062 		mov	r2, #2048
 561 022a EDE7     		b	.L22
 562              	.L80:
 191:Drivers/STM32F7xx_HAL_Driver/Src/stm32f7xx_hal_dma_ex.c ****     __HAL_DMA_CLEAR_FLAG (hdma, __HAL_DMA_GET_HT_FLAG_INDEX(hdma));
 563              		.loc 1 191 5 discriminator 45 view .LVU161
 564 022c 4FF40062 		mov	r2, #2048
 565 0230 EAE7     		b	.L22
 566              	.L81:
 191:Drivers/STM32F7xx_HAL_Driver/Src/stm32f7xx_hal_dma_ex.c ****     __HAL_DMA_CLEAR_FLAG (hdma, __HAL_DMA_GET_HT_FLAG_INDEX(hdma));
 567              		.loc 1 191 5 discriminator 47 view .LVU162
 568 0232 4FF40012 		mov	r2, #2097152
 569 0236 E7E7     		b	.L22
 570              	.L82:
 191:Drivers/STM32F7xx_HAL_Driver/Src/stm32f7xx_hal_dma_ex.c ****     __HAL_DMA_CLEAR_FLAG (hdma, __HAL_DMA_GET_HT_FLAG_INDEX(hdma));
 571              		.loc 1 191 5 discriminator 49 view .LVU163
 572 0238 4FF40012 		mov	r2, #2097152
 573 023c E4E7     		b	.L22
 574              	.L83:
 191:Drivers/STM32F7xx_HAL_Driver/Src/stm32f7xx_hal_dma_ex.c ****     __HAL_DMA_CLEAR_FLAG (hdma, __HAL_DMA_GET_HT_FLAG_INDEX(hdma));
 575              		.loc 1 191 5 discriminator 51 view .LVU164
 576 023e 4FF40012 		mov	r2, #2097152
 577 0242 E1E7     		b	.L22
 578              	.L21:
 191:Drivers/STM32F7xx_HAL_Driver/Src/stm32f7xx_hal_dma_ex.c ****     __HAL_DMA_CLEAR_FLAG (hdma, __HAL_DMA_GET_HT_FLAG_INDEX(hdma));
 579              		.loc 1 191 5 discriminator 29 view .LVU165
 580 0244 2E4A     		ldr	r2, .L325+12
 581 0246 9342     		cmp	r3, r2
 582 0248 5ED9     		bls	.L23
 191:Drivers/STM32F7xx_HAL_Driver/Src/stm32f7xx_hal_dma_ex.c ****     __HAL_DMA_CLEAR_FLAG (hdma, __HAL_DMA_GET_HT_FLAG_INDEX(hdma));
 583              		.loc 1 191 5 discriminator 55 view .LVU166
 584 024a 483A     		subs	r2, r2, #72
ARM GAS  /tmp/cc1lRkNS.s 			page 19


 585 024c 9342     		cmp	r3, r2
 586 024e 31D0     		beq	.L85
 191:Drivers/STM32F7xx_HAL_Driver/Src/stm32f7xx_hal_dma_ex.c ****     __HAL_DMA_CLEAR_FLAG (hdma, __HAL_DMA_GET_HT_FLAG_INDEX(hdma));
 587              		.loc 1 191 5 discriminator 57 view .LVU167
 588 0250 02F58062 		add	r2, r2, #1024
 589 0254 9342     		cmp	r3, r2
 590 0256 31D0     		beq	.L86
 191:Drivers/STM32F7xx_HAL_Driver/Src/stm32f7xx_hal_dma_ex.c ****     __HAL_DMA_CLEAR_FLAG (hdma, __HAL_DMA_GET_HT_FLAG_INDEX(hdma));
 591              		.loc 1 191 5 discriminator 59 view .LVU168
 592 0258 A2F56872 		sub	r2, r2, #928
 593 025c 9342     		cmp	r3, r2
 594 025e 2FD0     		beq	.L87
 191:Drivers/STM32F7xx_HAL_Driver/Src/stm32f7xx_hal_dma_ex.c ****     __HAL_DMA_CLEAR_FLAG (hdma, __HAL_DMA_GET_HT_FLAG_INDEX(hdma));
 595              		.loc 1 191 5 discriminator 61 view .LVU169
 596 0260 02F58062 		add	r2, r2, #1024
 597 0264 9342     		cmp	r3, r2
 598 0266 2DD0     		beq	.L88
 191:Drivers/STM32F7xx_HAL_Driver/Src/stm32f7xx_hal_dma_ex.c ****     __HAL_DMA_CLEAR_FLAG (hdma, __HAL_DMA_GET_HT_FLAG_INDEX(hdma));
 599              		.loc 1 191 5 discriminator 63 view .LVU170
 600 0268 A2F58962 		sub	r2, r2, #1096
 601 026c 9342     		cmp	r3, r2
 602 026e 2BD0     		beq	.L89
 191:Drivers/STM32F7xx_HAL_Driver/Src/stm32f7xx_hal_dma_ex.c ****     __HAL_DMA_CLEAR_FLAG (hdma, __HAL_DMA_GET_HT_FLAG_INDEX(hdma));
 603              		.loc 1 191 5 discriminator 65 view .LVU171
 604 0270 02F58062 		add	r2, r2, #1024
 605 0274 9342     		cmp	r3, r2
 606 0276 2AD0     		beq	.L90
 191:Drivers/STM32F7xx_HAL_Driver/Src/stm32f7xx_hal_dma_ex.c ****     __HAL_DMA_CLEAR_FLAG (hdma, __HAL_DMA_GET_HT_FLAG_INDEX(hdma));
 607              		.loc 1 191 5 discriminator 67 view .LVU172
 608 0278 A2F56872 		sub	r2, r2, #928
 609 027c 9342     		cmp	r3, r2
 610 027e 29D0     		beq	.L91
 191:Drivers/STM32F7xx_HAL_Driver/Src/stm32f7xx_hal_dma_ex.c ****     __HAL_DMA_CLEAR_FLAG (hdma, __HAL_DMA_GET_HT_FLAG_INDEX(hdma));
 611              		.loc 1 191 5 discriminator 69 view .LVU173
 612 0280 02F58062 		add	r2, r2, #1024
 613 0284 9342     		cmp	r3, r2
 614 0286 28D0     		beq	.L92
 191:Drivers/STM32F7xx_HAL_Driver/Src/stm32f7xx_hal_dma_ex.c ****     __HAL_DMA_CLEAR_FLAG (hdma, __HAL_DMA_GET_HT_FLAG_INDEX(hdma));
 615              		.loc 1 191 5 discriminator 71 view .LVU174
 616 0288 A2F58962 		sub	r2, r2, #1096
 617 028c 9342     		cmp	r3, r2
 618 028e 27D0     		beq	.L93
 191:Drivers/STM32F7xx_HAL_Driver/Src/stm32f7xx_hal_dma_ex.c ****     __HAL_DMA_CLEAR_FLAG (hdma, __HAL_DMA_GET_HT_FLAG_INDEX(hdma));
 619              		.loc 1 191 5 discriminator 73 view .LVU175
 620 0290 02F58062 		add	r2, r2, #1024
 621 0294 9342     		cmp	r3, r2
 622 0296 26D0     		beq	.L94
 191:Drivers/STM32F7xx_HAL_Driver/Src/stm32f7xx_hal_dma_ex.c ****     __HAL_DMA_CLEAR_FLAG (hdma, __HAL_DMA_GET_HT_FLAG_INDEX(hdma));
 623              		.loc 1 191 5 discriminator 75 view .LVU176
 624 0298 A2F56872 		sub	r2, r2, #928
 625 029c 9342     		cmp	r3, r2
 626 029e 25D0     		beq	.L95
 191:Drivers/STM32F7xx_HAL_Driver/Src/stm32f7xx_hal_dma_ex.c ****     __HAL_DMA_CLEAR_FLAG (hdma, __HAL_DMA_GET_HT_FLAG_INDEX(hdma));
 627              		.loc 1 191 5 discriminator 77 view .LVU177
 628 02a0 02F58062 		add	r2, r2, #1024
 629 02a4 9342     		cmp	r3, r2
 630 02a6 02D0     		beq	.L307
ARM GAS  /tmp/cc1lRkNS.s 			page 20


 191:Drivers/STM32F7xx_HAL_Driver/Src/stm32f7xx_hal_dma_ex.c ****     __HAL_DMA_CLEAR_FLAG (hdma, __HAL_DMA_GET_HT_FLAG_INDEX(hdma));
 631              		.loc 1 191 5 discriminator 80 view .LVU178
 632 02a8 4FF00063 		mov	r3, #134217728
 633 02ac 03E0     		b	.L24
 634              	.L307:
 191:Drivers/STM32F7xx_HAL_Driver/Src/stm32f7xx_hal_dma_ex.c ****     __HAL_DMA_CLEAR_FLAG (hdma, __HAL_DMA_GET_HT_FLAG_INDEX(hdma));
 635              		.loc 1 191 5 discriminator 79 view .LVU179
 636 02ae 4FF40013 		mov	r3, #2097152
 637 02b2 00E0     		b	.L24
 638              	.L85:
 191:Drivers/STM32F7xx_HAL_Driver/Src/stm32f7xx_hal_dma_ex.c ****     __HAL_DMA_CLEAR_FLAG (hdma, __HAL_DMA_GET_HT_FLAG_INDEX(hdma));
 639              		.loc 1 191 5 discriminator 58 view .LVU180
 640 02b4 2023     		movs	r3, #32
 641              	.L24:
 191:Drivers/STM32F7xx_HAL_Driver/Src/stm32f7xx_hal_dma_ex.c ****     __HAL_DMA_CLEAR_FLAG (hdma, __HAL_DMA_GET_HT_FLAG_INDEX(hdma));
 642              		.loc 1 191 5 discriminator 81 view .LVU181
 643 02b6 134A     		ldr	r2, .L325+16
 644 02b8 D360     		str	r3, [r2, #12]
 645              	.LVL33:
 191:Drivers/STM32F7xx_HAL_Driver/Src/stm32f7xx_hal_dma_ex.c ****     __HAL_DMA_CLEAR_FLAG (hdma, __HAL_DMA_GET_HT_FLAG_INDEX(hdma));
 646              		.loc 1 191 5 discriminator 81 view .LVU182
 647 02ba 0DE7     		b	.L20
 648              	.LVL34:
 649              	.L86:
 191:Drivers/STM32F7xx_HAL_Driver/Src/stm32f7xx_hal_dma_ex.c ****     __HAL_DMA_CLEAR_FLAG (hdma, __HAL_DMA_GET_HT_FLAG_INDEX(hdma));
 650              		.loc 1 191 5 discriminator 60 view .LVU183
 651 02bc 2023     		movs	r3, #32
 652 02be FAE7     		b	.L24
 653              	.L87:
 191:Drivers/STM32F7xx_HAL_Driver/Src/stm32f7xx_hal_dma_ex.c ****     __HAL_DMA_CLEAR_FLAG (hdma, __HAL_DMA_GET_HT_FLAG_INDEX(hdma));
 654              		.loc 1 191 5 discriminator 62 view .LVU184
 655 02c0 2023     		movs	r3, #32
 656 02c2 F8E7     		b	.L24
 657              	.L88:
 191:Drivers/STM32F7xx_HAL_Driver/Src/stm32f7xx_hal_dma_ex.c ****     __HAL_DMA_CLEAR_FLAG (hdma, __HAL_DMA_GET_HT_FLAG_INDEX(hdma));
 658              		.loc 1 191 5 discriminator 64 view .LVU185
 659 02c4 2023     		movs	r3, #32
 660 02c6 F6E7     		b	.L24
 661              	.L89:
 191:Drivers/STM32F7xx_HAL_Driver/Src/stm32f7xx_hal_dma_ex.c ****     __HAL_DMA_CLEAR_FLAG (hdma, __HAL_DMA_GET_HT_FLAG_INDEX(hdma));
 662              		.loc 1 191 5 discriminator 66 view .LVU186
 663 02c8 4FF40063 		mov	r3, #2048
 664 02cc F3E7     		b	.L24
 665              	.L90:
 191:Drivers/STM32F7xx_HAL_Driver/Src/stm32f7xx_hal_dma_ex.c ****     __HAL_DMA_CLEAR_FLAG (hdma, __HAL_DMA_GET_HT_FLAG_INDEX(hdma));
 666              		.loc 1 191 5 discriminator 68 view .LVU187
 667 02ce 4FF40063 		mov	r3, #2048
 668 02d2 F0E7     		b	.L24
 669              	.L91:
 191:Drivers/STM32F7xx_HAL_Driver/Src/stm32f7xx_hal_dma_ex.c ****     __HAL_DMA_CLEAR_FLAG (hdma, __HAL_DMA_GET_HT_FLAG_INDEX(hdma));
 670              		.loc 1 191 5 discriminator 70 view .LVU188
 671 02d4 4FF40063 		mov	r3, #2048
 672 02d8 EDE7     		b	.L24
 673              	.L92:
 191:Drivers/STM32F7xx_HAL_Driver/Src/stm32f7xx_hal_dma_ex.c ****     __HAL_DMA_CLEAR_FLAG (hdma, __HAL_DMA_GET_HT_FLAG_INDEX(hdma));
 674              		.loc 1 191 5 discriminator 72 view .LVU189
 675 02da 4FF40063 		mov	r3, #2048
ARM GAS  /tmp/cc1lRkNS.s 			page 21


 676 02de EAE7     		b	.L24
 677              	.L93:
 191:Drivers/STM32F7xx_HAL_Driver/Src/stm32f7xx_hal_dma_ex.c ****     __HAL_DMA_CLEAR_FLAG (hdma, __HAL_DMA_GET_HT_FLAG_INDEX(hdma));
 678              		.loc 1 191 5 discriminator 74 view .LVU190
 679 02e0 4FF40013 		mov	r3, #2097152
 680 02e4 E7E7     		b	.L24
 681              	.L94:
 191:Drivers/STM32F7xx_HAL_Driver/Src/stm32f7xx_hal_dma_ex.c ****     __HAL_DMA_CLEAR_FLAG (hdma, __HAL_DMA_GET_HT_FLAG_INDEX(hdma));
 682              		.loc 1 191 5 discriminator 76 view .LVU191
 683 02e6 4FF40013 		mov	r3, #2097152
 684 02ea E4E7     		b	.L24
 685              	.L95:
 191:Drivers/STM32F7xx_HAL_Driver/Src/stm32f7xx_hal_dma_ex.c ****     __HAL_DMA_CLEAR_FLAG (hdma, __HAL_DMA_GET_HT_FLAG_INDEX(hdma));
 686              		.loc 1 191 5 discriminator 78 view .LVU192
 687 02ec 4FF40013 		mov	r3, #2097152
 688 02f0 E1E7     		b	.L24
 689              	.L326:
 690 02f2 00BF     		.align	2
 691              	.L325:
 692 02f4 58640240 		.word	1073898584
 693 02f8 00640240 		.word	1073898496
 694 02fc B8600240 		.word	1073897656
 695 0300 58600240 		.word	1073897560
 696 0304 00600240 		.word	1073897472
 697              	.L23:
 191:Drivers/STM32F7xx_HAL_Driver/Src/stm32f7xx_hal_dma_ex.c ****     __HAL_DMA_CLEAR_FLAG (hdma, __HAL_DMA_GET_HT_FLAG_INDEX(hdma));
 698              		.loc 1 191 5 discriminator 56 view .LVU193
 699 0308 B14A     		ldr	r2, .L327
 700 030a 9342     		cmp	r3, r2
 701 030c 31D0     		beq	.L97
 191:Drivers/STM32F7xx_HAL_Driver/Src/stm32f7xx_hal_dma_ex.c ****     __HAL_DMA_CLEAR_FLAG (hdma, __HAL_DMA_GET_HT_FLAG_INDEX(hdma));
 702              		.loc 1 191 5 discriminator 82 view .LVU194
 703 030e 02F58062 		add	r2, r2, #1024
 704 0312 9342     		cmp	r3, r2
 705 0314 31D0     		beq	.L98
 191:Drivers/STM32F7xx_HAL_Driver/Src/stm32f7xx_hal_dma_ex.c ****     __HAL_DMA_CLEAR_FLAG (hdma, __HAL_DMA_GET_HT_FLAG_INDEX(hdma));
 706              		.loc 1 191 5 discriminator 84 view .LVU195
 707 0316 A2F56872 		sub	r2, r2, #928
 708 031a 9342     		cmp	r3, r2
 709 031c 2FD0     		beq	.L99
 191:Drivers/STM32F7xx_HAL_Driver/Src/stm32f7xx_hal_dma_ex.c ****     __HAL_DMA_CLEAR_FLAG (hdma, __HAL_DMA_GET_HT_FLAG_INDEX(hdma));
 710              		.loc 1 191 5 discriminator 86 view .LVU196
 711 031e 02F58062 		add	r2, r2, #1024
 712 0322 9342     		cmp	r3, r2
 713 0324 2DD0     		beq	.L100
 191:Drivers/STM32F7xx_HAL_Driver/Src/stm32f7xx_hal_dma_ex.c ****     __HAL_DMA_CLEAR_FLAG (hdma, __HAL_DMA_GET_HT_FLAG_INDEX(hdma));
 714              		.loc 1 191 5 discriminator 88 view .LVU197
 715 0326 A2F58962 		sub	r2, r2, #1096
 716 032a 9342     		cmp	r3, r2
 717 032c 2BD0     		beq	.L101
 191:Drivers/STM32F7xx_HAL_Driver/Src/stm32f7xx_hal_dma_ex.c ****     __HAL_DMA_CLEAR_FLAG (hdma, __HAL_DMA_GET_HT_FLAG_INDEX(hdma));
 718              		.loc 1 191 5 discriminator 90 view .LVU198
 719 032e 02F58062 		add	r2, r2, #1024
 720 0332 9342     		cmp	r3, r2
 721 0334 2AD0     		beq	.L102
 191:Drivers/STM32F7xx_HAL_Driver/Src/stm32f7xx_hal_dma_ex.c ****     __HAL_DMA_CLEAR_FLAG (hdma, __HAL_DMA_GET_HT_FLAG_INDEX(hdma));
 722              		.loc 1 191 5 discriminator 92 view .LVU199
ARM GAS  /tmp/cc1lRkNS.s 			page 22


 723 0336 A2F56872 		sub	r2, r2, #928
 724 033a 9342     		cmp	r3, r2
 725 033c 29D0     		beq	.L103
 191:Drivers/STM32F7xx_HAL_Driver/Src/stm32f7xx_hal_dma_ex.c ****     __HAL_DMA_CLEAR_FLAG (hdma, __HAL_DMA_GET_HT_FLAG_INDEX(hdma));
 726              		.loc 1 191 5 discriminator 94 view .LVU200
 727 033e 02F58062 		add	r2, r2, #1024
 728 0342 9342     		cmp	r3, r2
 729 0344 28D0     		beq	.L104
 191:Drivers/STM32F7xx_HAL_Driver/Src/stm32f7xx_hal_dma_ex.c ****     __HAL_DMA_CLEAR_FLAG (hdma, __HAL_DMA_GET_HT_FLAG_INDEX(hdma));
 730              		.loc 1 191 5 discriminator 96 view .LVU201
 731 0346 A2F58962 		sub	r2, r2, #1096
 732 034a 9342     		cmp	r3, r2
 733 034c 27D0     		beq	.L105
 191:Drivers/STM32F7xx_HAL_Driver/Src/stm32f7xx_hal_dma_ex.c ****     __HAL_DMA_CLEAR_FLAG (hdma, __HAL_DMA_GET_HT_FLAG_INDEX(hdma));
 734              		.loc 1 191 5 discriminator 98 view .LVU202
 735 034e 02F58062 		add	r2, r2, #1024
 736 0352 9342     		cmp	r3, r2
 737 0354 26D0     		beq	.L106
 191:Drivers/STM32F7xx_HAL_Driver/Src/stm32f7xx_hal_dma_ex.c ****     __HAL_DMA_CLEAR_FLAG (hdma, __HAL_DMA_GET_HT_FLAG_INDEX(hdma));
 738              		.loc 1 191 5 discriminator 100 view .LVU203
 739 0356 A2F56872 		sub	r2, r2, #928
 740 035a 9342     		cmp	r3, r2
 741 035c 25D0     		beq	.L107
 191:Drivers/STM32F7xx_HAL_Driver/Src/stm32f7xx_hal_dma_ex.c ****     __HAL_DMA_CLEAR_FLAG (hdma, __HAL_DMA_GET_HT_FLAG_INDEX(hdma));
 742              		.loc 1 191 5 discriminator 102 view .LVU204
 743 035e 02F58062 		add	r2, r2, #1024
 744 0362 9342     		cmp	r3, r2
 745 0364 02D0     		beq	.L308
 191:Drivers/STM32F7xx_HAL_Driver/Src/stm32f7xx_hal_dma_ex.c ****     __HAL_DMA_CLEAR_FLAG (hdma, __HAL_DMA_GET_HT_FLAG_INDEX(hdma));
 746              		.loc 1 191 5 discriminator 105 view .LVU205
 747 0366 4FF00063 		mov	r3, #134217728
 748 036a 03E0     		b	.L25
 749              	.L308:
 191:Drivers/STM32F7xx_HAL_Driver/Src/stm32f7xx_hal_dma_ex.c ****     __HAL_DMA_CLEAR_FLAG (hdma, __HAL_DMA_GET_HT_FLAG_INDEX(hdma));
 750              		.loc 1 191 5 discriminator 104 view .LVU206
 751 036c 4FF40013 		mov	r3, #2097152
 752 0370 00E0     		b	.L25
 753              	.L97:
 191:Drivers/STM32F7xx_HAL_Driver/Src/stm32f7xx_hal_dma_ex.c ****     __HAL_DMA_CLEAR_FLAG (hdma, __HAL_DMA_GET_HT_FLAG_INDEX(hdma));
 754              		.loc 1 191 5 discriminator 83 view .LVU207
 755 0372 2023     		movs	r3, #32
 756              	.L25:
 191:Drivers/STM32F7xx_HAL_Driver/Src/stm32f7xx_hal_dma_ex.c ****     __HAL_DMA_CLEAR_FLAG (hdma, __HAL_DMA_GET_HT_FLAG_INDEX(hdma));
 757              		.loc 1 191 5 discriminator 106 view .LVU208
 758 0374 974A     		ldr	r2, .L327+4
 759 0376 9360     		str	r3, [r2, #8]
 760              	.LVL35:
 191:Drivers/STM32F7xx_HAL_Driver/Src/stm32f7xx_hal_dma_ex.c ****     __HAL_DMA_CLEAR_FLAG (hdma, __HAL_DMA_GET_HT_FLAG_INDEX(hdma));
 761              		.loc 1 191 5 discriminator 106 view .LVU209
 762 0378 AEE6     		b	.L20
 763              	.LVL36:
 764              	.L98:
 191:Drivers/STM32F7xx_HAL_Driver/Src/stm32f7xx_hal_dma_ex.c ****     __HAL_DMA_CLEAR_FLAG (hdma, __HAL_DMA_GET_HT_FLAG_INDEX(hdma));
 765              		.loc 1 191 5 discriminator 85 view .LVU210
 766 037a 2023     		movs	r3, #32
 767 037c FAE7     		b	.L25
 768              	.L99:
ARM GAS  /tmp/cc1lRkNS.s 			page 23


 191:Drivers/STM32F7xx_HAL_Driver/Src/stm32f7xx_hal_dma_ex.c ****     __HAL_DMA_CLEAR_FLAG (hdma, __HAL_DMA_GET_HT_FLAG_INDEX(hdma));
 769              		.loc 1 191 5 discriminator 87 view .LVU211
 770 037e 2023     		movs	r3, #32
 771 0380 F8E7     		b	.L25
 772              	.L100:
 191:Drivers/STM32F7xx_HAL_Driver/Src/stm32f7xx_hal_dma_ex.c ****     __HAL_DMA_CLEAR_FLAG (hdma, __HAL_DMA_GET_HT_FLAG_INDEX(hdma));
 773              		.loc 1 191 5 discriminator 89 view .LVU212
 774 0382 2023     		movs	r3, #32
 775 0384 F6E7     		b	.L25
 776              	.L101:
 191:Drivers/STM32F7xx_HAL_Driver/Src/stm32f7xx_hal_dma_ex.c ****     __HAL_DMA_CLEAR_FLAG (hdma, __HAL_DMA_GET_HT_FLAG_INDEX(hdma));
 777              		.loc 1 191 5 discriminator 91 view .LVU213
 778 0386 4FF40063 		mov	r3, #2048
 779 038a F3E7     		b	.L25
 780              	.L102:
 191:Drivers/STM32F7xx_HAL_Driver/Src/stm32f7xx_hal_dma_ex.c ****     __HAL_DMA_CLEAR_FLAG (hdma, __HAL_DMA_GET_HT_FLAG_INDEX(hdma));
 781              		.loc 1 191 5 discriminator 93 view .LVU214
 782 038c 4FF40063 		mov	r3, #2048
 783 0390 F0E7     		b	.L25
 784              	.L103:
 191:Drivers/STM32F7xx_HAL_Driver/Src/stm32f7xx_hal_dma_ex.c ****     __HAL_DMA_CLEAR_FLAG (hdma, __HAL_DMA_GET_HT_FLAG_INDEX(hdma));
 785              		.loc 1 191 5 discriminator 95 view .LVU215
 786 0392 4FF40063 		mov	r3, #2048
 787 0396 EDE7     		b	.L25
 788              	.L104:
 191:Drivers/STM32F7xx_HAL_Driver/Src/stm32f7xx_hal_dma_ex.c ****     __HAL_DMA_CLEAR_FLAG (hdma, __HAL_DMA_GET_HT_FLAG_INDEX(hdma));
 789              		.loc 1 191 5 discriminator 97 view .LVU216
 790 0398 4FF40063 		mov	r3, #2048
 791 039c EAE7     		b	.L25
 792              	.L105:
 191:Drivers/STM32F7xx_HAL_Driver/Src/stm32f7xx_hal_dma_ex.c ****     __HAL_DMA_CLEAR_FLAG (hdma, __HAL_DMA_GET_HT_FLAG_INDEX(hdma));
 793              		.loc 1 191 5 discriminator 99 view .LVU217
 794 039e 4FF40013 		mov	r3, #2097152
 795 03a2 E7E7     		b	.L25
 796              	.L106:
 191:Drivers/STM32F7xx_HAL_Driver/Src/stm32f7xx_hal_dma_ex.c ****     __HAL_DMA_CLEAR_FLAG (hdma, __HAL_DMA_GET_HT_FLAG_INDEX(hdma));
 797              		.loc 1 191 5 discriminator 101 view .LVU218
 798 03a4 4FF40013 		mov	r3, #2097152
 799 03a8 E4E7     		b	.L25
 800              	.L107:
 191:Drivers/STM32F7xx_HAL_Driver/Src/stm32f7xx_hal_dma_ex.c ****     __HAL_DMA_CLEAR_FLAG (hdma, __HAL_DMA_GET_HT_FLAG_INDEX(hdma));
 801              		.loc 1 191 5 discriminator 103 view .LVU219
 802 03aa 4FF40013 		mov	r3, #2097152
 803 03ae E1E7     		b	.L25
 804              	.LVL37:
 805              	.L305:
 192:Drivers/STM32F7xx_HAL_Driver/Src/stm32f7xx_hal_dma_ex.c ****     __HAL_DMA_CLEAR_FLAG (hdma, __HAL_DMA_GET_TE_FLAG_INDEX(hdma));
 806              		.loc 1 192 5 discriminator 25 view .LVU220
 807 03b0 4FF48012 		mov	r2, #1048576
 808 03b4 00E0     		b	.L27
 809              	.L109:
 192:Drivers/STM32F7xx_HAL_Driver/Src/stm32f7xx_hal_dma_ex.c ****     __HAL_DMA_CLEAR_FLAG (hdma, __HAL_DMA_GET_TE_FLAG_INDEX(hdma));
 810              		.loc 1 192 5 discriminator 4 view .LVU221
 811 03b6 1022     		movs	r2, #16
 812              	.L27:
 192:Drivers/STM32F7xx_HAL_Driver/Src/stm32f7xx_hal_dma_ex.c ****     __HAL_DMA_CLEAR_FLAG (hdma, __HAL_DMA_GET_TE_FLAG_INDEX(hdma));
 813              		.loc 1 192 5 discriminator 27 view .LVU222
ARM GAS  /tmp/cc1lRkNS.s 			page 24


 814 03b8 874B     		ldr	r3, .L327+8
 815 03ba DA60     		str	r2, [r3, #12]
 816              	.L28:
 193:Drivers/STM32F7xx_HAL_Driver/Src/stm32f7xx_hal_dma_ex.c ****     __HAL_DMA_CLEAR_FLAG (hdma, __HAL_DMA_GET_DME_FLAG_INDEX(hdma));
 817              		.loc 1 193 5 is_stmt 1 view .LVU223
 818 03bc 2368     		ldr	r3, [r4]
 819 03be 874A     		ldr	r2, .L327+12
 820 03c0 9342     		cmp	r3, r2
 821 03c2 40F2CD81 		bls	.L34
 193:Drivers/STM32F7xx_HAL_Driver/Src/stm32f7xx_hal_dma_ex.c ****     __HAL_DMA_CLEAR_FLAG (hdma, __HAL_DMA_GET_DME_FLAG_INDEX(hdma));
 822              		.loc 1 193 5 is_stmt 0 discriminator 1 view .LVU224
 823 03c6 A2F58962 		sub	r2, r2, #1096
 824 03ca 9342     		cmp	r3, r2
 825 03cc 00F06681 		beq	.L157
 193:Drivers/STM32F7xx_HAL_Driver/Src/stm32f7xx_hal_dma_ex.c ****     __HAL_DMA_CLEAR_FLAG (hdma, __HAL_DMA_GET_DME_FLAG_INDEX(hdma));
 826              		.loc 1 193 5 discriminator 3 view .LVU225
 827 03d0 02F58062 		add	r2, r2, #1024
 828 03d4 9342     		cmp	r3, r2
 829 03d6 00F0A881 		beq	.L158
 193:Drivers/STM32F7xx_HAL_Driver/Src/stm32f7xx_hal_dma_ex.c ****     __HAL_DMA_CLEAR_FLAG (hdma, __HAL_DMA_GET_DME_FLAG_INDEX(hdma));
 830              		.loc 1 193 5 discriminator 5 view .LVU226
 831 03da A2F56872 		sub	r2, r2, #928
 832 03de 9342     		cmp	r3, r2
 833 03e0 00F0A581 		beq	.L159
 193:Drivers/STM32F7xx_HAL_Driver/Src/stm32f7xx_hal_dma_ex.c ****     __HAL_DMA_CLEAR_FLAG (hdma, __HAL_DMA_GET_DME_FLAG_INDEX(hdma));
 834              		.loc 1 193 5 discriminator 7 view .LVU227
 835 03e4 02F58062 		add	r2, r2, #1024
 836 03e8 9342     		cmp	r3, r2
 837 03ea 00F0A281 		beq	.L160
 193:Drivers/STM32F7xx_HAL_Driver/Src/stm32f7xx_hal_dma_ex.c ****     __HAL_DMA_CLEAR_FLAG (hdma, __HAL_DMA_GET_DME_FLAG_INDEX(hdma));
 838              		.loc 1 193 5 discriminator 9 view .LVU228
 839 03ee A2F58962 		sub	r2, r2, #1096
 840 03f2 9342     		cmp	r3, r2
 841 03f4 00F09F81 		beq	.L161
 193:Drivers/STM32F7xx_HAL_Driver/Src/stm32f7xx_hal_dma_ex.c ****     __HAL_DMA_CLEAR_FLAG (hdma, __HAL_DMA_GET_DME_FLAG_INDEX(hdma));
 842              		.loc 1 193 5 discriminator 11 view .LVU229
 843 03f8 02F58062 		add	r2, r2, #1024
 844 03fc 9342     		cmp	r3, r2
 845 03fe 00F09D81 		beq	.L162
 193:Drivers/STM32F7xx_HAL_Driver/Src/stm32f7xx_hal_dma_ex.c ****     __HAL_DMA_CLEAR_FLAG (hdma, __HAL_DMA_GET_DME_FLAG_INDEX(hdma));
 846              		.loc 1 193 5 discriminator 13 view .LVU230
 847 0402 A2F56872 		sub	r2, r2, #928
 848 0406 9342     		cmp	r3, r2
 849 0408 00F09B81 		beq	.L163
 193:Drivers/STM32F7xx_HAL_Driver/Src/stm32f7xx_hal_dma_ex.c ****     __HAL_DMA_CLEAR_FLAG (hdma, __HAL_DMA_GET_DME_FLAG_INDEX(hdma));
 850              		.loc 1 193 5 discriminator 15 view .LVU231
 851 040c 02F58062 		add	r2, r2, #1024
 852 0410 9342     		cmp	r3, r2
 853 0412 00F09981 		beq	.L164
 193:Drivers/STM32F7xx_HAL_Driver/Src/stm32f7xx_hal_dma_ex.c ****     __HAL_DMA_CLEAR_FLAG (hdma, __HAL_DMA_GET_DME_FLAG_INDEX(hdma));
 854              		.loc 1 193 5 discriminator 17 view .LVU232
 855 0416 A2F58962 		sub	r2, r2, #1096
 856 041a 9342     		cmp	r3, r2
 857 041c 00F09781 		beq	.L165
 193:Drivers/STM32F7xx_HAL_Driver/Src/stm32f7xx_hal_dma_ex.c ****     __HAL_DMA_CLEAR_FLAG (hdma, __HAL_DMA_GET_DME_FLAG_INDEX(hdma));
 858              		.loc 1 193 5 discriminator 19 view .LVU233
 859 0420 02F58062 		add	r2, r2, #1024
ARM GAS  /tmp/cc1lRkNS.s 			page 25


 860 0424 9342     		cmp	r3, r2
 861 0426 00F09581 		beq	.L166
 193:Drivers/STM32F7xx_HAL_Driver/Src/stm32f7xx_hal_dma_ex.c ****     __HAL_DMA_CLEAR_FLAG (hdma, __HAL_DMA_GET_DME_FLAG_INDEX(hdma));
 862              		.loc 1 193 5 discriminator 21 view .LVU234
 863 042a A2F56872 		sub	r2, r2, #928
 864 042e 9342     		cmp	r3, r2
 865 0430 00F09381 		beq	.L167
 193:Drivers/STM32F7xx_HAL_Driver/Src/stm32f7xx_hal_dma_ex.c ****     __HAL_DMA_CLEAR_FLAG (hdma, __HAL_DMA_GET_DME_FLAG_INDEX(hdma));
 866              		.loc 1 193 5 discriminator 23 view .LVU235
 867 0434 02F58062 		add	r2, r2, #1024
 868 0438 9342     		cmp	r3, r2
 869 043a 00F02C81 		beq	.L309
 193:Drivers/STM32F7xx_HAL_Driver/Src/stm32f7xx_hal_dma_ex.c ****     __HAL_DMA_CLEAR_FLAG (hdma, __HAL_DMA_GET_DME_FLAG_INDEX(hdma));
 870              		.loc 1 193 5 discriminator 26 view .LVU236
 871 043e 4FF00072 		mov	r2, #33554432
 872 0442 2CE1     		b	.L35
 873              	.L110:
 192:Drivers/STM32F7xx_HAL_Driver/Src/stm32f7xx_hal_dma_ex.c ****     __HAL_DMA_CLEAR_FLAG (hdma, __HAL_DMA_GET_TE_FLAG_INDEX(hdma));
 874              		.loc 1 192 5 discriminator 6 view .LVU237
 875 0444 1022     		movs	r2, #16
 876 0446 B7E7     		b	.L27
 877              	.L111:
 192:Drivers/STM32F7xx_HAL_Driver/Src/stm32f7xx_hal_dma_ex.c ****     __HAL_DMA_CLEAR_FLAG (hdma, __HAL_DMA_GET_TE_FLAG_INDEX(hdma));
 878              		.loc 1 192 5 discriminator 8 view .LVU238
 879 0448 1022     		movs	r2, #16
 880 044a B5E7     		b	.L27
 881              	.L112:
 192:Drivers/STM32F7xx_HAL_Driver/Src/stm32f7xx_hal_dma_ex.c ****     __HAL_DMA_CLEAR_FLAG (hdma, __HAL_DMA_GET_TE_FLAG_INDEX(hdma));
 882              		.loc 1 192 5 discriminator 10 view .LVU239
 883 044c 1022     		movs	r2, #16
 884 044e B3E7     		b	.L27
 885              	.L113:
 192:Drivers/STM32F7xx_HAL_Driver/Src/stm32f7xx_hal_dma_ex.c ****     __HAL_DMA_CLEAR_FLAG (hdma, __HAL_DMA_GET_TE_FLAG_INDEX(hdma));
 886              		.loc 1 192 5 discriminator 12 view .LVU240
 887 0450 4FF48062 		mov	r2, #1024
 888 0454 B0E7     		b	.L27
 889              	.L114:
 192:Drivers/STM32F7xx_HAL_Driver/Src/stm32f7xx_hal_dma_ex.c ****     __HAL_DMA_CLEAR_FLAG (hdma, __HAL_DMA_GET_TE_FLAG_INDEX(hdma));
 890              		.loc 1 192 5 discriminator 14 view .LVU241
 891 0456 4FF48062 		mov	r2, #1024
 892 045a ADE7     		b	.L27
 893              	.L115:
 192:Drivers/STM32F7xx_HAL_Driver/Src/stm32f7xx_hal_dma_ex.c ****     __HAL_DMA_CLEAR_FLAG (hdma, __HAL_DMA_GET_TE_FLAG_INDEX(hdma));
 894              		.loc 1 192 5 discriminator 16 view .LVU242
 895 045c 4FF48062 		mov	r2, #1024
 896 0460 AAE7     		b	.L27
 897              	.L116:
 192:Drivers/STM32F7xx_HAL_Driver/Src/stm32f7xx_hal_dma_ex.c ****     __HAL_DMA_CLEAR_FLAG (hdma, __HAL_DMA_GET_TE_FLAG_INDEX(hdma));
 898              		.loc 1 192 5 discriminator 18 view .LVU243
 899 0462 4FF48062 		mov	r2, #1024
 900 0466 A7E7     		b	.L27
 901              	.L117:
 192:Drivers/STM32F7xx_HAL_Driver/Src/stm32f7xx_hal_dma_ex.c ****     __HAL_DMA_CLEAR_FLAG (hdma, __HAL_DMA_GET_TE_FLAG_INDEX(hdma));
 902              		.loc 1 192 5 discriminator 20 view .LVU244
 903 0468 4FF48012 		mov	r2, #1048576
 904 046c A4E7     		b	.L27
 905              	.L118:
ARM GAS  /tmp/cc1lRkNS.s 			page 26


 192:Drivers/STM32F7xx_HAL_Driver/Src/stm32f7xx_hal_dma_ex.c ****     __HAL_DMA_CLEAR_FLAG (hdma, __HAL_DMA_GET_TE_FLAG_INDEX(hdma));
 906              		.loc 1 192 5 discriminator 22 view .LVU245
 907 046e 4FF48012 		mov	r2, #1048576
 908 0472 A1E7     		b	.L27
 909              	.L119:
 192:Drivers/STM32F7xx_HAL_Driver/Src/stm32f7xx_hal_dma_ex.c ****     __HAL_DMA_CLEAR_FLAG (hdma, __HAL_DMA_GET_TE_FLAG_INDEX(hdma));
 910              		.loc 1 192 5 discriminator 24 view .LVU246
 911 0474 4FF48012 		mov	r2, #1048576
 912 0478 9EE7     		b	.L27
 913              	.L26:
 192:Drivers/STM32F7xx_HAL_Driver/Src/stm32f7xx_hal_dma_ex.c ****     __HAL_DMA_CLEAR_FLAG (hdma, __HAL_DMA_GET_TE_FLAG_INDEX(hdma));
 914              		.loc 1 192 5 discriminator 2 view .LVU247
 915 047a 594A     		ldr	r2, .L327+16
 916 047c 9342     		cmp	r3, r2
 917 047e 53D9     		bls	.L29
 192:Drivers/STM32F7xx_HAL_Driver/Src/stm32f7xx_hal_dma_ex.c ****     __HAL_DMA_CLEAR_FLAG (hdma, __HAL_DMA_GET_TE_FLAG_INDEX(hdma));
 918              		.loc 1 192 5 discriminator 28 view .LVU248
 919 0480 A83A     		subs	r2, r2, #168
 920 0482 9342     		cmp	r3, r2
 921 0484 31D0     		beq	.L121
 192:Drivers/STM32F7xx_HAL_Driver/Src/stm32f7xx_hal_dma_ex.c ****     __HAL_DMA_CLEAR_FLAG (hdma, __HAL_DMA_GET_TE_FLAG_INDEX(hdma));
 922              		.loc 1 192 5 discriminator 30 view .LVU249
 923 0486 02F58062 		add	r2, r2, #1024
 924 048a 9342     		cmp	r3, r2
 925 048c 31D0     		beq	.L122
 192:Drivers/STM32F7xx_HAL_Driver/Src/stm32f7xx_hal_dma_ex.c ****     __HAL_DMA_CLEAR_FLAG (hdma, __HAL_DMA_GET_TE_FLAG_INDEX(hdma));
 926              		.loc 1 192 5 discriminator 32 view .LVU250
 927 048e A2F56872 		sub	r2, r2, #928
 928 0492 9342     		cmp	r3, r2
 929 0494 2FD0     		beq	.L123
 192:Drivers/STM32F7xx_HAL_Driver/Src/stm32f7xx_hal_dma_ex.c ****     __HAL_DMA_CLEAR_FLAG (hdma, __HAL_DMA_GET_TE_FLAG_INDEX(hdma));
 930              		.loc 1 192 5 discriminator 34 view .LVU251
 931 0496 02F58062 		add	r2, r2, #1024
 932 049a 9342     		cmp	r3, r2
 933 049c 2DD0     		beq	.L124
 192:Drivers/STM32F7xx_HAL_Driver/Src/stm32f7xx_hal_dma_ex.c ****     __HAL_DMA_CLEAR_FLAG (hdma, __HAL_DMA_GET_TE_FLAG_INDEX(hdma));
 934              		.loc 1 192 5 discriminator 36 view .LVU252
 935 049e A2F58962 		sub	r2, r2, #1096
 936 04a2 9342     		cmp	r3, r2
 937 04a4 2BD0     		beq	.L125
 192:Drivers/STM32F7xx_HAL_Driver/Src/stm32f7xx_hal_dma_ex.c ****     __HAL_DMA_CLEAR_FLAG (hdma, __HAL_DMA_GET_TE_FLAG_INDEX(hdma));
 938              		.loc 1 192 5 discriminator 38 view .LVU253
 939 04a6 02F58062 		add	r2, r2, #1024
 940 04aa 9342     		cmp	r3, r2
 941 04ac 2AD0     		beq	.L126
 192:Drivers/STM32F7xx_HAL_Driver/Src/stm32f7xx_hal_dma_ex.c ****     __HAL_DMA_CLEAR_FLAG (hdma, __HAL_DMA_GET_TE_FLAG_INDEX(hdma));
 942              		.loc 1 192 5 discriminator 40 view .LVU254
 943 04ae A2F56872 		sub	r2, r2, #928
 944 04b2 9342     		cmp	r3, r2
 945 04b4 29D0     		beq	.L127
 192:Drivers/STM32F7xx_HAL_Driver/Src/stm32f7xx_hal_dma_ex.c ****     __HAL_DMA_CLEAR_FLAG (hdma, __HAL_DMA_GET_TE_FLAG_INDEX(hdma));
 946              		.loc 1 192 5 discriminator 42 view .LVU255
 947 04b6 02F58062 		add	r2, r2, #1024
 948 04ba 9342     		cmp	r3, r2
 949 04bc 28D0     		beq	.L128
 192:Drivers/STM32F7xx_HAL_Driver/Src/stm32f7xx_hal_dma_ex.c ****     __HAL_DMA_CLEAR_FLAG (hdma, __HAL_DMA_GET_TE_FLAG_INDEX(hdma));
 950              		.loc 1 192 5 discriminator 44 view .LVU256
ARM GAS  /tmp/cc1lRkNS.s 			page 27


 951 04be A2F58962 		sub	r2, r2, #1096
 952 04c2 9342     		cmp	r3, r2
 953 04c4 27D0     		beq	.L129
 192:Drivers/STM32F7xx_HAL_Driver/Src/stm32f7xx_hal_dma_ex.c ****     __HAL_DMA_CLEAR_FLAG (hdma, __HAL_DMA_GET_TE_FLAG_INDEX(hdma));
 954              		.loc 1 192 5 discriminator 46 view .LVU257
 955 04c6 02F58062 		add	r2, r2, #1024
 956 04ca 9342     		cmp	r3, r2
 957 04cc 26D0     		beq	.L130
 192:Drivers/STM32F7xx_HAL_Driver/Src/stm32f7xx_hal_dma_ex.c ****     __HAL_DMA_CLEAR_FLAG (hdma, __HAL_DMA_GET_TE_FLAG_INDEX(hdma));
 958              		.loc 1 192 5 discriminator 48 view .LVU258
 959 04ce A2F56872 		sub	r2, r2, #928
 960 04d2 9342     		cmp	r3, r2
 961 04d4 25D0     		beq	.L131
 192:Drivers/STM32F7xx_HAL_Driver/Src/stm32f7xx_hal_dma_ex.c ****     __HAL_DMA_CLEAR_FLAG (hdma, __HAL_DMA_GET_TE_FLAG_INDEX(hdma));
 962              		.loc 1 192 5 discriminator 50 view .LVU259
 963 04d6 02F58062 		add	r2, r2, #1024
 964 04da 9342     		cmp	r3, r2
 965 04dc 02D0     		beq	.L310
 192:Drivers/STM32F7xx_HAL_Driver/Src/stm32f7xx_hal_dma_ex.c ****     __HAL_DMA_CLEAR_FLAG (hdma, __HAL_DMA_GET_TE_FLAG_INDEX(hdma));
 966              		.loc 1 192 5 discriminator 53 view .LVU260
 967 04de 4FF08062 		mov	r2, #67108864
 968 04e2 03E0     		b	.L30
 969              	.L310:
 192:Drivers/STM32F7xx_HAL_Driver/Src/stm32f7xx_hal_dma_ex.c ****     __HAL_DMA_CLEAR_FLAG (hdma, __HAL_DMA_GET_TE_FLAG_INDEX(hdma));
 970              		.loc 1 192 5 discriminator 52 view .LVU261
 971 04e4 4FF48012 		mov	r2, #1048576
 972 04e8 00E0     		b	.L30
 973              	.L121:
 192:Drivers/STM32F7xx_HAL_Driver/Src/stm32f7xx_hal_dma_ex.c ****     __HAL_DMA_CLEAR_FLAG (hdma, __HAL_DMA_GET_TE_FLAG_INDEX(hdma));
 974              		.loc 1 192 5 discriminator 31 view .LVU262
 975 04ea 1022     		movs	r2, #16
 976              	.L30:
 192:Drivers/STM32F7xx_HAL_Driver/Src/stm32f7xx_hal_dma_ex.c ****     __HAL_DMA_CLEAR_FLAG (hdma, __HAL_DMA_GET_TE_FLAG_INDEX(hdma));
 977              		.loc 1 192 5 discriminator 54 view .LVU263
 978 04ec 3A4B     		ldr	r3, .L327+8
 979 04ee 9A60     		str	r2, [r3, #8]
 980 04f0 64E7     		b	.L28
 981              	.L122:
 192:Drivers/STM32F7xx_HAL_Driver/Src/stm32f7xx_hal_dma_ex.c ****     __HAL_DMA_CLEAR_FLAG (hdma, __HAL_DMA_GET_TE_FLAG_INDEX(hdma));
 982              		.loc 1 192 5 discriminator 33 view .LVU264
 983 04f2 1022     		movs	r2, #16
 984 04f4 FAE7     		b	.L30
 985              	.L123:
 192:Drivers/STM32F7xx_HAL_Driver/Src/stm32f7xx_hal_dma_ex.c ****     __HAL_DMA_CLEAR_FLAG (hdma, __HAL_DMA_GET_TE_FLAG_INDEX(hdma));
 986              		.loc 1 192 5 discriminator 35 view .LVU265
 987 04f6 1022     		movs	r2, #16
 988 04f8 F8E7     		b	.L30
 989              	.L124:
 192:Drivers/STM32F7xx_HAL_Driver/Src/stm32f7xx_hal_dma_ex.c ****     __HAL_DMA_CLEAR_FLAG (hdma, __HAL_DMA_GET_TE_FLAG_INDEX(hdma));
 990              		.loc 1 192 5 discriminator 37 view .LVU266
 991 04fa 1022     		movs	r2, #16
 992 04fc F6E7     		b	.L30
 993              	.L125:
 192:Drivers/STM32F7xx_HAL_Driver/Src/stm32f7xx_hal_dma_ex.c ****     __HAL_DMA_CLEAR_FLAG (hdma, __HAL_DMA_GET_TE_FLAG_INDEX(hdma));
 994              		.loc 1 192 5 discriminator 39 view .LVU267
 995 04fe 4FF48062 		mov	r2, #1024
 996 0502 F3E7     		b	.L30
ARM GAS  /tmp/cc1lRkNS.s 			page 28


 997              	.L126:
 192:Drivers/STM32F7xx_HAL_Driver/Src/stm32f7xx_hal_dma_ex.c ****     __HAL_DMA_CLEAR_FLAG (hdma, __HAL_DMA_GET_TE_FLAG_INDEX(hdma));
 998              		.loc 1 192 5 discriminator 41 view .LVU268
 999 0504 4FF48062 		mov	r2, #1024
 1000 0508 F0E7     		b	.L30
 1001              	.L127:
 192:Drivers/STM32F7xx_HAL_Driver/Src/stm32f7xx_hal_dma_ex.c ****     __HAL_DMA_CLEAR_FLAG (hdma, __HAL_DMA_GET_TE_FLAG_INDEX(hdma));
 1002              		.loc 1 192 5 discriminator 43 view .LVU269
 1003 050a 4FF48062 		mov	r2, #1024
 1004 050e EDE7     		b	.L30
 1005              	.L128:
 192:Drivers/STM32F7xx_HAL_Driver/Src/stm32f7xx_hal_dma_ex.c ****     __HAL_DMA_CLEAR_FLAG (hdma, __HAL_DMA_GET_TE_FLAG_INDEX(hdma));
 1006              		.loc 1 192 5 discriminator 45 view .LVU270
 1007 0510 4FF48062 		mov	r2, #1024
 1008 0514 EAE7     		b	.L30
 1009              	.L129:
 192:Drivers/STM32F7xx_HAL_Driver/Src/stm32f7xx_hal_dma_ex.c ****     __HAL_DMA_CLEAR_FLAG (hdma, __HAL_DMA_GET_TE_FLAG_INDEX(hdma));
 1010              		.loc 1 192 5 discriminator 47 view .LVU271
 1011 0516 4FF48012 		mov	r2, #1048576
 1012 051a E7E7     		b	.L30
 1013              	.L130:
 192:Drivers/STM32F7xx_HAL_Driver/Src/stm32f7xx_hal_dma_ex.c ****     __HAL_DMA_CLEAR_FLAG (hdma, __HAL_DMA_GET_TE_FLAG_INDEX(hdma));
 1014              		.loc 1 192 5 discriminator 49 view .LVU272
 1015 051c 4FF48012 		mov	r2, #1048576
 1016 0520 E4E7     		b	.L30
 1017              	.L131:
 192:Drivers/STM32F7xx_HAL_Driver/Src/stm32f7xx_hal_dma_ex.c ****     __HAL_DMA_CLEAR_FLAG (hdma, __HAL_DMA_GET_TE_FLAG_INDEX(hdma));
 1018              		.loc 1 192 5 discriminator 51 view .LVU273
 1019 0522 4FF48012 		mov	r2, #1048576
 1020 0526 E1E7     		b	.L30
 1021              	.L29:
 192:Drivers/STM32F7xx_HAL_Driver/Src/stm32f7xx_hal_dma_ex.c ****     __HAL_DMA_CLEAR_FLAG (hdma, __HAL_DMA_GET_TE_FLAG_INDEX(hdma));
 1022              		.loc 1 192 5 discriminator 29 view .LVU274
 1023 0528 2E4A     		ldr	r2, .L327+20
 1024 052a 9342     		cmp	r3, r2
 1025 052c 5FD9     		bls	.L31
 192:Drivers/STM32F7xx_HAL_Driver/Src/stm32f7xx_hal_dma_ex.c ****     __HAL_DMA_CLEAR_FLAG (hdma, __HAL_DMA_GET_TE_FLAG_INDEX(hdma));
 1026              		.loc 1 192 5 discriminator 55 view .LVU275
 1027 052e 483A     		subs	r2, r2, #72
 1028 0530 9342     		cmp	r3, r2
 1029 0532 31D0     		beq	.L133
 192:Drivers/STM32F7xx_HAL_Driver/Src/stm32f7xx_hal_dma_ex.c ****     __HAL_DMA_CLEAR_FLAG (hdma, __HAL_DMA_GET_TE_FLAG_INDEX(hdma));
 1030              		.loc 1 192 5 discriminator 57 view .LVU276
 1031 0534 02F58062 		add	r2, r2, #1024
 1032 0538 9342     		cmp	r3, r2
 1033 053a 31D0     		beq	.L134
 192:Drivers/STM32F7xx_HAL_Driver/Src/stm32f7xx_hal_dma_ex.c ****     __HAL_DMA_CLEAR_FLAG (hdma, __HAL_DMA_GET_TE_FLAG_INDEX(hdma));
 1034              		.loc 1 192 5 discriminator 59 view .LVU277
 1035 053c A2F56872 		sub	r2, r2, #928
 1036 0540 9342     		cmp	r3, r2
 1037 0542 2FD0     		beq	.L135
 192:Drivers/STM32F7xx_HAL_Driver/Src/stm32f7xx_hal_dma_ex.c ****     __HAL_DMA_CLEAR_FLAG (hdma, __HAL_DMA_GET_TE_FLAG_INDEX(hdma));
 1038              		.loc 1 192 5 discriminator 61 view .LVU278
 1039 0544 02F58062 		add	r2, r2, #1024
 1040 0548 9342     		cmp	r3, r2
 1041 054a 2DD0     		beq	.L136
 192:Drivers/STM32F7xx_HAL_Driver/Src/stm32f7xx_hal_dma_ex.c ****     __HAL_DMA_CLEAR_FLAG (hdma, __HAL_DMA_GET_TE_FLAG_INDEX(hdma));
ARM GAS  /tmp/cc1lRkNS.s 			page 29


 1042              		.loc 1 192 5 discriminator 63 view .LVU279
 1043 054c A2F58962 		sub	r2, r2, #1096
 1044 0550 9342     		cmp	r3, r2
 1045 0552 2BD0     		beq	.L137
 192:Drivers/STM32F7xx_HAL_Driver/Src/stm32f7xx_hal_dma_ex.c ****     __HAL_DMA_CLEAR_FLAG (hdma, __HAL_DMA_GET_TE_FLAG_INDEX(hdma));
 1046              		.loc 1 192 5 discriminator 65 view .LVU280
 1047 0554 02F58062 		add	r2, r2, #1024
 1048 0558 9342     		cmp	r3, r2
 1049 055a 2AD0     		beq	.L138
 192:Drivers/STM32F7xx_HAL_Driver/Src/stm32f7xx_hal_dma_ex.c ****     __HAL_DMA_CLEAR_FLAG (hdma, __HAL_DMA_GET_TE_FLAG_INDEX(hdma));
 1050              		.loc 1 192 5 discriminator 67 view .LVU281
 1051 055c A2F56872 		sub	r2, r2, #928
 1052 0560 9342     		cmp	r3, r2
 1053 0562 29D0     		beq	.L139
 192:Drivers/STM32F7xx_HAL_Driver/Src/stm32f7xx_hal_dma_ex.c ****     __HAL_DMA_CLEAR_FLAG (hdma, __HAL_DMA_GET_TE_FLAG_INDEX(hdma));
 1054              		.loc 1 192 5 discriminator 69 view .LVU282
 1055 0564 02F58062 		add	r2, r2, #1024
 1056 0568 9342     		cmp	r3, r2
 1057 056a 28D0     		beq	.L140
 192:Drivers/STM32F7xx_HAL_Driver/Src/stm32f7xx_hal_dma_ex.c ****     __HAL_DMA_CLEAR_FLAG (hdma, __HAL_DMA_GET_TE_FLAG_INDEX(hdma));
 1058              		.loc 1 192 5 discriminator 71 view .LVU283
 1059 056c A2F58962 		sub	r2, r2, #1096
 1060 0570 9342     		cmp	r3, r2
 1061 0572 27D0     		beq	.L141
 192:Drivers/STM32F7xx_HAL_Driver/Src/stm32f7xx_hal_dma_ex.c ****     __HAL_DMA_CLEAR_FLAG (hdma, __HAL_DMA_GET_TE_FLAG_INDEX(hdma));
 1062              		.loc 1 192 5 discriminator 73 view .LVU284
 1063 0574 02F58062 		add	r2, r2, #1024
 1064 0578 9342     		cmp	r3, r2
 1065 057a 26D0     		beq	.L142
 192:Drivers/STM32F7xx_HAL_Driver/Src/stm32f7xx_hal_dma_ex.c ****     __HAL_DMA_CLEAR_FLAG (hdma, __HAL_DMA_GET_TE_FLAG_INDEX(hdma));
 1066              		.loc 1 192 5 discriminator 75 view .LVU285
 1067 057c A2F56872 		sub	r2, r2, #928
 1068 0580 9342     		cmp	r3, r2
 1069 0582 31D0     		beq	.L143
 192:Drivers/STM32F7xx_HAL_Driver/Src/stm32f7xx_hal_dma_ex.c ****     __HAL_DMA_CLEAR_FLAG (hdma, __HAL_DMA_GET_TE_FLAG_INDEX(hdma));
 1070              		.loc 1 192 5 discriminator 77 view .LVU286
 1071 0584 02F58062 		add	r2, r2, #1024
 1072 0588 9342     		cmp	r3, r2
 1073 058a 02D0     		beq	.L311
 192:Drivers/STM32F7xx_HAL_Driver/Src/stm32f7xx_hal_dma_ex.c ****     __HAL_DMA_CLEAR_FLAG (hdma, __HAL_DMA_GET_TE_FLAG_INDEX(hdma));
 1074              		.loc 1 192 5 discriminator 80 view .LVU287
 1075 058c 4FF08063 		mov	r3, #67108864
 1076 0590 03E0     		b	.L32
 1077              	.L311:
 192:Drivers/STM32F7xx_HAL_Driver/Src/stm32f7xx_hal_dma_ex.c ****     __HAL_DMA_CLEAR_FLAG (hdma, __HAL_DMA_GET_TE_FLAG_INDEX(hdma));
 1078              		.loc 1 192 5 discriminator 79 view .LVU288
 1079 0592 4FF48013 		mov	r3, #1048576
 1080 0596 00E0     		b	.L32
 1081              	.L133:
 192:Drivers/STM32F7xx_HAL_Driver/Src/stm32f7xx_hal_dma_ex.c ****     __HAL_DMA_CLEAR_FLAG (hdma, __HAL_DMA_GET_TE_FLAG_INDEX(hdma));
 1082              		.loc 1 192 5 discriminator 58 view .LVU289
 1083 0598 1023     		movs	r3, #16
 1084              	.L32:
 192:Drivers/STM32F7xx_HAL_Driver/Src/stm32f7xx_hal_dma_ex.c ****     __HAL_DMA_CLEAR_FLAG (hdma, __HAL_DMA_GET_TE_FLAG_INDEX(hdma));
 1085              		.loc 1 192 5 discriminator 81 view .LVU290
 1086 059a 0E4A     		ldr	r2, .L327+4
 1087 059c D360     		str	r3, [r2, #12]
ARM GAS  /tmp/cc1lRkNS.s 			page 30


 1088 059e 0DE7     		b	.L28
 1089              	.L134:
 192:Drivers/STM32F7xx_HAL_Driver/Src/stm32f7xx_hal_dma_ex.c ****     __HAL_DMA_CLEAR_FLAG (hdma, __HAL_DMA_GET_TE_FLAG_INDEX(hdma));
 1090              		.loc 1 192 5 discriminator 60 view .LVU291
 1091 05a0 1023     		movs	r3, #16
 1092 05a2 FAE7     		b	.L32
 1093              	.L135:
 192:Drivers/STM32F7xx_HAL_Driver/Src/stm32f7xx_hal_dma_ex.c ****     __HAL_DMA_CLEAR_FLAG (hdma, __HAL_DMA_GET_TE_FLAG_INDEX(hdma));
 1094              		.loc 1 192 5 discriminator 62 view .LVU292
 1095 05a4 1023     		movs	r3, #16
 1096 05a6 F8E7     		b	.L32
 1097              	.L136:
 192:Drivers/STM32F7xx_HAL_Driver/Src/stm32f7xx_hal_dma_ex.c ****     __HAL_DMA_CLEAR_FLAG (hdma, __HAL_DMA_GET_TE_FLAG_INDEX(hdma));
 1098              		.loc 1 192 5 discriminator 64 view .LVU293
 1099 05a8 1023     		movs	r3, #16
 1100 05aa F6E7     		b	.L32
 1101              	.L137:
 192:Drivers/STM32F7xx_HAL_Driver/Src/stm32f7xx_hal_dma_ex.c ****     __HAL_DMA_CLEAR_FLAG (hdma, __HAL_DMA_GET_TE_FLAG_INDEX(hdma));
 1102              		.loc 1 192 5 discriminator 66 view .LVU294
 1103 05ac 4FF48063 		mov	r3, #1024
 1104 05b0 F3E7     		b	.L32
 1105              	.L138:
 192:Drivers/STM32F7xx_HAL_Driver/Src/stm32f7xx_hal_dma_ex.c ****     __HAL_DMA_CLEAR_FLAG (hdma, __HAL_DMA_GET_TE_FLAG_INDEX(hdma));
 1106              		.loc 1 192 5 discriminator 68 view .LVU295
 1107 05b2 4FF48063 		mov	r3, #1024
 1108 05b6 F0E7     		b	.L32
 1109              	.L139:
 192:Drivers/STM32F7xx_HAL_Driver/Src/stm32f7xx_hal_dma_ex.c ****     __HAL_DMA_CLEAR_FLAG (hdma, __HAL_DMA_GET_TE_FLAG_INDEX(hdma));
 1110              		.loc 1 192 5 discriminator 70 view .LVU296
 1111 05b8 4FF48063 		mov	r3, #1024
 1112 05bc EDE7     		b	.L32
 1113              	.L140:
 192:Drivers/STM32F7xx_HAL_Driver/Src/stm32f7xx_hal_dma_ex.c ****     __HAL_DMA_CLEAR_FLAG (hdma, __HAL_DMA_GET_TE_FLAG_INDEX(hdma));
 1114              		.loc 1 192 5 discriminator 72 view .LVU297
 1115 05be 4FF48063 		mov	r3, #1024
 1116 05c2 EAE7     		b	.L32
 1117              	.L141:
 192:Drivers/STM32F7xx_HAL_Driver/Src/stm32f7xx_hal_dma_ex.c ****     __HAL_DMA_CLEAR_FLAG (hdma, __HAL_DMA_GET_TE_FLAG_INDEX(hdma));
 1118              		.loc 1 192 5 discriminator 74 view .LVU298
 1119 05c4 4FF48013 		mov	r3, #1048576
 1120 05c8 E7E7     		b	.L32
 1121              	.L142:
 192:Drivers/STM32F7xx_HAL_Driver/Src/stm32f7xx_hal_dma_ex.c ****     __HAL_DMA_CLEAR_FLAG (hdma, __HAL_DMA_GET_TE_FLAG_INDEX(hdma));
 1122              		.loc 1 192 5 discriminator 76 view .LVU299
 1123 05ca 4FF48013 		mov	r3, #1048576
 1124 05ce E4E7     		b	.L32
 1125              	.L328:
 1126              		.align	2
 1127              	.L327:
 1128 05d0 10600240 		.word	1073897488
 1129 05d4 00600240 		.word	1073897472
 1130 05d8 00640240 		.word	1073898496
 1131 05dc 58640240 		.word	1073898584
 1132 05e0 B8600240 		.word	1073897656
 1133 05e4 58600240 		.word	1073897560
 1134              	.L143:
 192:Drivers/STM32F7xx_HAL_Driver/Src/stm32f7xx_hal_dma_ex.c ****     __HAL_DMA_CLEAR_FLAG (hdma, __HAL_DMA_GET_TE_FLAG_INDEX(hdma));
ARM GAS  /tmp/cc1lRkNS.s 			page 31


 1135              		.loc 1 192 5 discriminator 78 view .LVU300
 1136 05e8 4FF48013 		mov	r3, #1048576
 1137 05ec D5E7     		b	.L32
 1138              	.L31:
 192:Drivers/STM32F7xx_HAL_Driver/Src/stm32f7xx_hal_dma_ex.c ****     __HAL_DMA_CLEAR_FLAG (hdma, __HAL_DMA_GET_TE_FLAG_INDEX(hdma));
 1139              		.loc 1 192 5 discriminator 56 view .LVU301
 1140 05ee B24A     		ldr	r2, .L329
 1141 05f0 9342     		cmp	r3, r2
 1142 05f2 31D0     		beq	.L145
 192:Drivers/STM32F7xx_HAL_Driver/Src/stm32f7xx_hal_dma_ex.c ****     __HAL_DMA_CLEAR_FLAG (hdma, __HAL_DMA_GET_TE_FLAG_INDEX(hdma));
 1143              		.loc 1 192 5 discriminator 82 view .LVU302
 1144 05f4 02F58062 		add	r2, r2, #1024
 1145 05f8 9342     		cmp	r3, r2
 1146 05fa 31D0     		beq	.L146
 192:Drivers/STM32F7xx_HAL_Driver/Src/stm32f7xx_hal_dma_ex.c ****     __HAL_DMA_CLEAR_FLAG (hdma, __HAL_DMA_GET_TE_FLAG_INDEX(hdma));
 1147              		.loc 1 192 5 discriminator 84 view .LVU303
 1148 05fc A2F56872 		sub	r2, r2, #928
 1149 0600 9342     		cmp	r3, r2
 1150 0602 2FD0     		beq	.L147
 192:Drivers/STM32F7xx_HAL_Driver/Src/stm32f7xx_hal_dma_ex.c ****     __HAL_DMA_CLEAR_FLAG (hdma, __HAL_DMA_GET_TE_FLAG_INDEX(hdma));
 1151              		.loc 1 192 5 discriminator 86 view .LVU304
 1152 0604 02F58062 		add	r2, r2, #1024
 1153 0608 9342     		cmp	r3, r2
 1154 060a 2DD0     		beq	.L148
 192:Drivers/STM32F7xx_HAL_Driver/Src/stm32f7xx_hal_dma_ex.c ****     __HAL_DMA_CLEAR_FLAG (hdma, __HAL_DMA_GET_TE_FLAG_INDEX(hdma));
 1155              		.loc 1 192 5 discriminator 88 view .LVU305
 1156 060c A2F58962 		sub	r2, r2, #1096
 1157 0610 9342     		cmp	r3, r2
 1158 0612 2BD0     		beq	.L149
 192:Drivers/STM32F7xx_HAL_Driver/Src/stm32f7xx_hal_dma_ex.c ****     __HAL_DMA_CLEAR_FLAG (hdma, __HAL_DMA_GET_TE_FLAG_INDEX(hdma));
 1159              		.loc 1 192 5 discriminator 90 view .LVU306
 1160 0614 02F58062 		add	r2, r2, #1024
 1161 0618 9342     		cmp	r3, r2
 1162 061a 2AD0     		beq	.L150
 192:Drivers/STM32F7xx_HAL_Driver/Src/stm32f7xx_hal_dma_ex.c ****     __HAL_DMA_CLEAR_FLAG (hdma, __HAL_DMA_GET_TE_FLAG_INDEX(hdma));
 1163              		.loc 1 192 5 discriminator 92 view .LVU307
 1164 061c A2F56872 		sub	r2, r2, #928
 1165 0620 9342     		cmp	r3, r2
 1166 0622 29D0     		beq	.L151
 192:Drivers/STM32F7xx_HAL_Driver/Src/stm32f7xx_hal_dma_ex.c ****     __HAL_DMA_CLEAR_FLAG (hdma, __HAL_DMA_GET_TE_FLAG_INDEX(hdma));
 1167              		.loc 1 192 5 discriminator 94 view .LVU308
 1168 0624 02F58062 		add	r2, r2, #1024
 1169 0628 9342     		cmp	r3, r2
 1170 062a 28D0     		beq	.L152
 192:Drivers/STM32F7xx_HAL_Driver/Src/stm32f7xx_hal_dma_ex.c ****     __HAL_DMA_CLEAR_FLAG (hdma, __HAL_DMA_GET_TE_FLAG_INDEX(hdma));
 1171              		.loc 1 192 5 discriminator 96 view .LVU309
 1172 062c A2F58962 		sub	r2, r2, #1096
 1173 0630 9342     		cmp	r3, r2
 1174 0632 27D0     		beq	.L153
 192:Drivers/STM32F7xx_HAL_Driver/Src/stm32f7xx_hal_dma_ex.c ****     __HAL_DMA_CLEAR_FLAG (hdma, __HAL_DMA_GET_TE_FLAG_INDEX(hdma));
 1175              		.loc 1 192 5 discriminator 98 view .LVU310
 1176 0634 02F58062 		add	r2, r2, #1024
 1177 0638 9342     		cmp	r3, r2
 1178 063a 26D0     		beq	.L154
 192:Drivers/STM32F7xx_HAL_Driver/Src/stm32f7xx_hal_dma_ex.c ****     __HAL_DMA_CLEAR_FLAG (hdma, __HAL_DMA_GET_TE_FLAG_INDEX(hdma));
 1179              		.loc 1 192 5 discriminator 100 view .LVU311
 1180 063c A2F56872 		sub	r2, r2, #928
ARM GAS  /tmp/cc1lRkNS.s 			page 32


 1181 0640 9342     		cmp	r3, r2
 1182 0642 25D0     		beq	.L155
 192:Drivers/STM32F7xx_HAL_Driver/Src/stm32f7xx_hal_dma_ex.c ****     __HAL_DMA_CLEAR_FLAG (hdma, __HAL_DMA_GET_TE_FLAG_INDEX(hdma));
 1183              		.loc 1 192 5 discriminator 102 view .LVU312
 1184 0644 02F58062 		add	r2, r2, #1024
 1185 0648 9342     		cmp	r3, r2
 1186 064a 02D0     		beq	.L312
 192:Drivers/STM32F7xx_HAL_Driver/Src/stm32f7xx_hal_dma_ex.c ****     __HAL_DMA_CLEAR_FLAG (hdma, __HAL_DMA_GET_TE_FLAG_INDEX(hdma));
 1187              		.loc 1 192 5 discriminator 105 view .LVU313
 1188 064c 4FF08063 		mov	r3, #67108864
 1189 0650 03E0     		b	.L33
 1190              	.L312:
 192:Drivers/STM32F7xx_HAL_Driver/Src/stm32f7xx_hal_dma_ex.c ****     __HAL_DMA_CLEAR_FLAG (hdma, __HAL_DMA_GET_TE_FLAG_INDEX(hdma));
 1191              		.loc 1 192 5 discriminator 104 view .LVU314
 1192 0652 4FF48013 		mov	r3, #1048576
 1193 0656 00E0     		b	.L33
 1194              	.L145:
 192:Drivers/STM32F7xx_HAL_Driver/Src/stm32f7xx_hal_dma_ex.c ****     __HAL_DMA_CLEAR_FLAG (hdma, __HAL_DMA_GET_TE_FLAG_INDEX(hdma));
 1195              		.loc 1 192 5 discriminator 83 view .LVU315
 1196 0658 1023     		movs	r3, #16
 1197              	.L33:
 192:Drivers/STM32F7xx_HAL_Driver/Src/stm32f7xx_hal_dma_ex.c ****     __HAL_DMA_CLEAR_FLAG (hdma, __HAL_DMA_GET_TE_FLAG_INDEX(hdma));
 1198              		.loc 1 192 5 discriminator 106 view .LVU316
 1199 065a 984A     		ldr	r2, .L329+4
 1200 065c 9360     		str	r3, [r2, #8]
 1201 065e ADE6     		b	.L28
 1202              	.L146:
 192:Drivers/STM32F7xx_HAL_Driver/Src/stm32f7xx_hal_dma_ex.c ****     __HAL_DMA_CLEAR_FLAG (hdma, __HAL_DMA_GET_TE_FLAG_INDEX(hdma));
 1203              		.loc 1 192 5 discriminator 85 view .LVU317
 1204 0660 1023     		movs	r3, #16
 1205 0662 FAE7     		b	.L33
 1206              	.L147:
 192:Drivers/STM32F7xx_HAL_Driver/Src/stm32f7xx_hal_dma_ex.c ****     __HAL_DMA_CLEAR_FLAG (hdma, __HAL_DMA_GET_TE_FLAG_INDEX(hdma));
 1207              		.loc 1 192 5 discriminator 87 view .LVU318
 1208 0664 1023     		movs	r3, #16
 1209 0666 F8E7     		b	.L33
 1210              	.L148:
 192:Drivers/STM32F7xx_HAL_Driver/Src/stm32f7xx_hal_dma_ex.c ****     __HAL_DMA_CLEAR_FLAG (hdma, __HAL_DMA_GET_TE_FLAG_INDEX(hdma));
 1211              		.loc 1 192 5 discriminator 89 view .LVU319
 1212 0668 1023     		movs	r3, #16
 1213 066a F6E7     		b	.L33
 1214              	.L149:
 192:Drivers/STM32F7xx_HAL_Driver/Src/stm32f7xx_hal_dma_ex.c ****     __HAL_DMA_CLEAR_FLAG (hdma, __HAL_DMA_GET_TE_FLAG_INDEX(hdma));
 1215              		.loc 1 192 5 discriminator 91 view .LVU320
 1216 066c 4FF48063 		mov	r3, #1024
 1217 0670 F3E7     		b	.L33
 1218              	.L150:
 192:Drivers/STM32F7xx_HAL_Driver/Src/stm32f7xx_hal_dma_ex.c ****     __HAL_DMA_CLEAR_FLAG (hdma, __HAL_DMA_GET_TE_FLAG_INDEX(hdma));
 1219              		.loc 1 192 5 discriminator 93 view .LVU321
 1220 0672 4FF48063 		mov	r3, #1024
 1221 0676 F0E7     		b	.L33
 1222              	.L151:
 192:Drivers/STM32F7xx_HAL_Driver/Src/stm32f7xx_hal_dma_ex.c ****     __HAL_DMA_CLEAR_FLAG (hdma, __HAL_DMA_GET_TE_FLAG_INDEX(hdma));
 1223              		.loc 1 192 5 discriminator 95 view .LVU322
 1224 0678 4FF48063 		mov	r3, #1024
 1225 067c EDE7     		b	.L33
 1226              	.L152:
ARM GAS  /tmp/cc1lRkNS.s 			page 33


 192:Drivers/STM32F7xx_HAL_Driver/Src/stm32f7xx_hal_dma_ex.c ****     __HAL_DMA_CLEAR_FLAG (hdma, __HAL_DMA_GET_TE_FLAG_INDEX(hdma));
 1227              		.loc 1 192 5 discriminator 97 view .LVU323
 1228 067e 4FF48063 		mov	r3, #1024
 1229 0682 EAE7     		b	.L33
 1230              	.L153:
 192:Drivers/STM32F7xx_HAL_Driver/Src/stm32f7xx_hal_dma_ex.c ****     __HAL_DMA_CLEAR_FLAG (hdma, __HAL_DMA_GET_TE_FLAG_INDEX(hdma));
 1231              		.loc 1 192 5 discriminator 99 view .LVU324
 1232 0684 4FF48013 		mov	r3, #1048576
 1233 0688 E7E7     		b	.L33
 1234              	.L154:
 192:Drivers/STM32F7xx_HAL_Driver/Src/stm32f7xx_hal_dma_ex.c ****     __HAL_DMA_CLEAR_FLAG (hdma, __HAL_DMA_GET_TE_FLAG_INDEX(hdma));
 1235              		.loc 1 192 5 discriminator 101 view .LVU325
 1236 068a 4FF48013 		mov	r3, #1048576
 1237 068e E4E7     		b	.L33
 1238              	.L155:
 192:Drivers/STM32F7xx_HAL_Driver/Src/stm32f7xx_hal_dma_ex.c ****     __HAL_DMA_CLEAR_FLAG (hdma, __HAL_DMA_GET_TE_FLAG_INDEX(hdma));
 1239              		.loc 1 192 5 discriminator 103 view .LVU326
 1240 0690 4FF48013 		mov	r3, #1048576
 1241 0694 E1E7     		b	.L33
 1242              	.L309:
 193:Drivers/STM32F7xx_HAL_Driver/Src/stm32f7xx_hal_dma_ex.c ****     __HAL_DMA_CLEAR_FLAG (hdma, __HAL_DMA_GET_DME_FLAG_INDEX(hdma));
 1243              		.loc 1 193 5 discriminator 25 view .LVU327
 1244 0696 4FF40022 		mov	r2, #524288
 1245 069a 00E0     		b	.L35
 1246              	.L157:
 193:Drivers/STM32F7xx_HAL_Driver/Src/stm32f7xx_hal_dma_ex.c ****     __HAL_DMA_CLEAR_FLAG (hdma, __HAL_DMA_GET_DME_FLAG_INDEX(hdma));
 1247              		.loc 1 193 5 discriminator 4 view .LVU328
 1248 069c 0822     		movs	r2, #8
 1249              	.L35:
 193:Drivers/STM32F7xx_HAL_Driver/Src/stm32f7xx_hal_dma_ex.c ****     __HAL_DMA_CLEAR_FLAG (hdma, __HAL_DMA_GET_DME_FLAG_INDEX(hdma));
 1250              		.loc 1 193 5 discriminator 27 view .LVU329
 1251 069e 884B     		ldr	r3, .L329+8
 1252 06a0 DA60     		str	r2, [r3, #12]
 1253              	.L36:
 194:Drivers/STM32F7xx_HAL_Driver/Src/stm32f7xx_hal_dma_ex.c ****     __HAL_DMA_CLEAR_FLAG (hdma, __HAL_DMA_GET_FE_FLAG_INDEX(hdma));
 1254              		.loc 1 194 5 is_stmt 1 view .LVU330
 1255 06a2 2368     		ldr	r3, [r4]
 1256 06a4 874A     		ldr	r2, .L329+12
 1257 06a6 9342     		cmp	r3, r2
 1258 06a8 40F2CE81 		bls	.L42
 194:Drivers/STM32F7xx_HAL_Driver/Src/stm32f7xx_hal_dma_ex.c ****     __HAL_DMA_CLEAR_FLAG (hdma, __HAL_DMA_GET_FE_FLAG_INDEX(hdma));
 1259              		.loc 1 194 5 is_stmt 0 discriminator 1 view .LVU331
 1260 06ac A2F58962 		sub	r2, r2, #1096
 1261 06b0 9342     		cmp	r3, r2
 1262 06b2 00F06781 		beq	.L205
 194:Drivers/STM32F7xx_HAL_Driver/Src/stm32f7xx_hal_dma_ex.c ****     __HAL_DMA_CLEAR_FLAG (hdma, __HAL_DMA_GET_FE_FLAG_INDEX(hdma));
 1263              		.loc 1 194 5 discriminator 3 view .LVU332
 1264 06b6 02F58062 		add	r2, r2, #1024
 1265 06ba 9342     		cmp	r3, r2
 1266 06bc 00F0A981 		beq	.L206
 194:Drivers/STM32F7xx_HAL_Driver/Src/stm32f7xx_hal_dma_ex.c ****     __HAL_DMA_CLEAR_FLAG (hdma, __HAL_DMA_GET_FE_FLAG_INDEX(hdma));
 1267              		.loc 1 194 5 discriminator 5 view .LVU333
 1268 06c0 A2F56872 		sub	r2, r2, #928
 1269 06c4 9342     		cmp	r3, r2
 1270 06c6 00F0A681 		beq	.L207
 194:Drivers/STM32F7xx_HAL_Driver/Src/stm32f7xx_hal_dma_ex.c ****     __HAL_DMA_CLEAR_FLAG (hdma, __HAL_DMA_GET_FE_FLAG_INDEX(hdma));
 1271              		.loc 1 194 5 discriminator 7 view .LVU334
ARM GAS  /tmp/cc1lRkNS.s 			page 34


 1272 06ca 02F58062 		add	r2, r2, #1024
 1273 06ce 9342     		cmp	r3, r2
 1274 06d0 00F0A381 		beq	.L208
 194:Drivers/STM32F7xx_HAL_Driver/Src/stm32f7xx_hal_dma_ex.c ****     __HAL_DMA_CLEAR_FLAG (hdma, __HAL_DMA_GET_FE_FLAG_INDEX(hdma));
 1275              		.loc 1 194 5 discriminator 9 view .LVU335
 1276 06d4 A2F58962 		sub	r2, r2, #1096
 1277 06d8 9342     		cmp	r3, r2
 1278 06da 00F0A081 		beq	.L209
 194:Drivers/STM32F7xx_HAL_Driver/Src/stm32f7xx_hal_dma_ex.c ****     __HAL_DMA_CLEAR_FLAG (hdma, __HAL_DMA_GET_FE_FLAG_INDEX(hdma));
 1279              		.loc 1 194 5 discriminator 11 view .LVU336
 1280 06de 02F58062 		add	r2, r2, #1024
 1281 06e2 9342     		cmp	r3, r2
 1282 06e4 00F09E81 		beq	.L210
 194:Drivers/STM32F7xx_HAL_Driver/Src/stm32f7xx_hal_dma_ex.c ****     __HAL_DMA_CLEAR_FLAG (hdma, __HAL_DMA_GET_FE_FLAG_INDEX(hdma));
 1283              		.loc 1 194 5 discriminator 13 view .LVU337
 1284 06e8 A2F56872 		sub	r2, r2, #928
 1285 06ec 9342     		cmp	r3, r2
 1286 06ee 00F09C81 		beq	.L211
 194:Drivers/STM32F7xx_HAL_Driver/Src/stm32f7xx_hal_dma_ex.c ****     __HAL_DMA_CLEAR_FLAG (hdma, __HAL_DMA_GET_FE_FLAG_INDEX(hdma));
 1287              		.loc 1 194 5 discriminator 15 view .LVU338
 1288 06f2 02F58062 		add	r2, r2, #1024
 1289 06f6 9342     		cmp	r3, r2
 1290 06f8 00F09A81 		beq	.L212
 194:Drivers/STM32F7xx_HAL_Driver/Src/stm32f7xx_hal_dma_ex.c ****     __HAL_DMA_CLEAR_FLAG (hdma, __HAL_DMA_GET_FE_FLAG_INDEX(hdma));
 1291              		.loc 1 194 5 discriminator 17 view .LVU339
 1292 06fc A2F58962 		sub	r2, r2, #1096
 1293 0700 9342     		cmp	r3, r2
 1294 0702 00F09881 		beq	.L213
 194:Drivers/STM32F7xx_HAL_Driver/Src/stm32f7xx_hal_dma_ex.c ****     __HAL_DMA_CLEAR_FLAG (hdma, __HAL_DMA_GET_FE_FLAG_INDEX(hdma));
 1295              		.loc 1 194 5 discriminator 19 view .LVU340
 1296 0706 02F58062 		add	r2, r2, #1024
 1297 070a 9342     		cmp	r3, r2
 1298 070c 00F09681 		beq	.L214
 194:Drivers/STM32F7xx_HAL_Driver/Src/stm32f7xx_hal_dma_ex.c ****     __HAL_DMA_CLEAR_FLAG (hdma, __HAL_DMA_GET_FE_FLAG_INDEX(hdma));
 1299              		.loc 1 194 5 discriminator 21 view .LVU341
 1300 0710 A2F56872 		sub	r2, r2, #928
 1301 0714 9342     		cmp	r3, r2
 1302 0716 00F09481 		beq	.L215
 194:Drivers/STM32F7xx_HAL_Driver/Src/stm32f7xx_hal_dma_ex.c ****     __HAL_DMA_CLEAR_FLAG (hdma, __HAL_DMA_GET_FE_FLAG_INDEX(hdma));
 1303              		.loc 1 194 5 discriminator 23 view .LVU342
 1304 071a 02F58062 		add	r2, r2, #1024
 1305 071e 9342     		cmp	r3, r2
 1306 0720 00F02D81 		beq	.L313
 194:Drivers/STM32F7xx_HAL_Driver/Src/stm32f7xx_hal_dma_ex.c ****     __HAL_DMA_CLEAR_FLAG (hdma, __HAL_DMA_GET_FE_FLAG_INDEX(hdma));
 1307              		.loc 1 194 5 discriminator 26 view .LVU343
 1308 0724 4FF08072 		mov	r2, #16777216
 1309 0728 2DE1     		b	.L43
 1310              	.L158:
 193:Drivers/STM32F7xx_HAL_Driver/Src/stm32f7xx_hal_dma_ex.c ****     __HAL_DMA_CLEAR_FLAG (hdma, __HAL_DMA_GET_DME_FLAG_INDEX(hdma));
 1311              		.loc 1 193 5 discriminator 6 view .LVU344
 1312 072a 0822     		movs	r2, #8
 1313 072c B7E7     		b	.L35
 1314              	.L159:
 193:Drivers/STM32F7xx_HAL_Driver/Src/stm32f7xx_hal_dma_ex.c ****     __HAL_DMA_CLEAR_FLAG (hdma, __HAL_DMA_GET_DME_FLAG_INDEX(hdma));
 1315              		.loc 1 193 5 discriminator 8 view .LVU345
 1316 072e 0822     		movs	r2, #8
 1317 0730 B5E7     		b	.L35
ARM GAS  /tmp/cc1lRkNS.s 			page 35


 1318              	.L160:
 193:Drivers/STM32F7xx_HAL_Driver/Src/stm32f7xx_hal_dma_ex.c ****     __HAL_DMA_CLEAR_FLAG (hdma, __HAL_DMA_GET_DME_FLAG_INDEX(hdma));
 1319              		.loc 1 193 5 discriminator 10 view .LVU346
 1320 0732 0822     		movs	r2, #8
 1321 0734 B3E7     		b	.L35
 1322              	.L161:
 193:Drivers/STM32F7xx_HAL_Driver/Src/stm32f7xx_hal_dma_ex.c ****     __HAL_DMA_CLEAR_FLAG (hdma, __HAL_DMA_GET_DME_FLAG_INDEX(hdma));
 1323              		.loc 1 193 5 discriminator 12 view .LVU347
 1324 0736 4FF40072 		mov	r2, #512
 1325 073a B0E7     		b	.L35
 1326              	.L162:
 193:Drivers/STM32F7xx_HAL_Driver/Src/stm32f7xx_hal_dma_ex.c ****     __HAL_DMA_CLEAR_FLAG (hdma, __HAL_DMA_GET_DME_FLAG_INDEX(hdma));
 1327              		.loc 1 193 5 discriminator 14 view .LVU348
 1328 073c 4FF40072 		mov	r2, #512
 1329 0740 ADE7     		b	.L35
 1330              	.L163:
 193:Drivers/STM32F7xx_HAL_Driver/Src/stm32f7xx_hal_dma_ex.c ****     __HAL_DMA_CLEAR_FLAG (hdma, __HAL_DMA_GET_DME_FLAG_INDEX(hdma));
 1331              		.loc 1 193 5 discriminator 16 view .LVU349
 1332 0742 4FF40072 		mov	r2, #512
 1333 0746 AAE7     		b	.L35
 1334              	.L164:
 193:Drivers/STM32F7xx_HAL_Driver/Src/stm32f7xx_hal_dma_ex.c ****     __HAL_DMA_CLEAR_FLAG (hdma, __HAL_DMA_GET_DME_FLAG_INDEX(hdma));
 1335              		.loc 1 193 5 discriminator 18 view .LVU350
 1336 0748 4FF40072 		mov	r2, #512
 1337 074c A7E7     		b	.L35
 1338              	.L165:
 193:Drivers/STM32F7xx_HAL_Driver/Src/stm32f7xx_hal_dma_ex.c ****     __HAL_DMA_CLEAR_FLAG (hdma, __HAL_DMA_GET_DME_FLAG_INDEX(hdma));
 1339              		.loc 1 193 5 discriminator 20 view .LVU351
 1340 074e 4FF40022 		mov	r2, #524288
 1341 0752 A4E7     		b	.L35
 1342              	.L166:
 193:Drivers/STM32F7xx_HAL_Driver/Src/stm32f7xx_hal_dma_ex.c ****     __HAL_DMA_CLEAR_FLAG (hdma, __HAL_DMA_GET_DME_FLAG_INDEX(hdma));
 1343              		.loc 1 193 5 discriminator 22 view .LVU352
 1344 0754 4FF40022 		mov	r2, #524288
 1345 0758 A1E7     		b	.L35
 1346              	.L167:
 193:Drivers/STM32F7xx_HAL_Driver/Src/stm32f7xx_hal_dma_ex.c ****     __HAL_DMA_CLEAR_FLAG (hdma, __HAL_DMA_GET_DME_FLAG_INDEX(hdma));
 1347              		.loc 1 193 5 discriminator 24 view .LVU353
 1348 075a 4FF40022 		mov	r2, #524288
 1349 075e 9EE7     		b	.L35
 1350              	.L34:
 193:Drivers/STM32F7xx_HAL_Driver/Src/stm32f7xx_hal_dma_ex.c ****     __HAL_DMA_CLEAR_FLAG (hdma, __HAL_DMA_GET_DME_FLAG_INDEX(hdma));
 1351              		.loc 1 193 5 discriminator 2 view .LVU354
 1352 0760 594A     		ldr	r2, .L329+16
 1353 0762 9342     		cmp	r3, r2
 1354 0764 53D9     		bls	.L37
 193:Drivers/STM32F7xx_HAL_Driver/Src/stm32f7xx_hal_dma_ex.c ****     __HAL_DMA_CLEAR_FLAG (hdma, __HAL_DMA_GET_DME_FLAG_INDEX(hdma));
 1355              		.loc 1 193 5 discriminator 28 view .LVU355
 1356 0766 A83A     		subs	r2, r2, #168
 1357 0768 9342     		cmp	r3, r2
 1358 076a 31D0     		beq	.L169
 193:Drivers/STM32F7xx_HAL_Driver/Src/stm32f7xx_hal_dma_ex.c ****     __HAL_DMA_CLEAR_FLAG (hdma, __HAL_DMA_GET_DME_FLAG_INDEX(hdma));
 1359              		.loc 1 193 5 discriminator 30 view .LVU356
 1360 076c 02F58062 		add	r2, r2, #1024
 1361 0770 9342     		cmp	r3, r2
 1362 0772 31D0     		beq	.L170
 193:Drivers/STM32F7xx_HAL_Driver/Src/stm32f7xx_hal_dma_ex.c ****     __HAL_DMA_CLEAR_FLAG (hdma, __HAL_DMA_GET_DME_FLAG_INDEX(hdma));
ARM GAS  /tmp/cc1lRkNS.s 			page 36


 1363              		.loc 1 193 5 discriminator 32 view .LVU357
 1364 0774 A2F56872 		sub	r2, r2, #928
 1365 0778 9342     		cmp	r3, r2
 1366 077a 2FD0     		beq	.L171
 193:Drivers/STM32F7xx_HAL_Driver/Src/stm32f7xx_hal_dma_ex.c ****     __HAL_DMA_CLEAR_FLAG (hdma, __HAL_DMA_GET_DME_FLAG_INDEX(hdma));
 1367              		.loc 1 193 5 discriminator 34 view .LVU358
 1368 077c 02F58062 		add	r2, r2, #1024
 1369 0780 9342     		cmp	r3, r2
 1370 0782 2DD0     		beq	.L172
 193:Drivers/STM32F7xx_HAL_Driver/Src/stm32f7xx_hal_dma_ex.c ****     __HAL_DMA_CLEAR_FLAG (hdma, __HAL_DMA_GET_DME_FLAG_INDEX(hdma));
 1371              		.loc 1 193 5 discriminator 36 view .LVU359
 1372 0784 A2F58962 		sub	r2, r2, #1096
 1373 0788 9342     		cmp	r3, r2
 1374 078a 2BD0     		beq	.L173
 193:Drivers/STM32F7xx_HAL_Driver/Src/stm32f7xx_hal_dma_ex.c ****     __HAL_DMA_CLEAR_FLAG (hdma, __HAL_DMA_GET_DME_FLAG_INDEX(hdma));
 1375              		.loc 1 193 5 discriminator 38 view .LVU360
 1376 078c 02F58062 		add	r2, r2, #1024
 1377 0790 9342     		cmp	r3, r2
 1378 0792 2AD0     		beq	.L174
 193:Drivers/STM32F7xx_HAL_Driver/Src/stm32f7xx_hal_dma_ex.c ****     __HAL_DMA_CLEAR_FLAG (hdma, __HAL_DMA_GET_DME_FLAG_INDEX(hdma));
 1379              		.loc 1 193 5 discriminator 40 view .LVU361
 1380 0794 A2F56872 		sub	r2, r2, #928
 1381 0798 9342     		cmp	r3, r2
 1382 079a 29D0     		beq	.L175
 193:Drivers/STM32F7xx_HAL_Driver/Src/stm32f7xx_hal_dma_ex.c ****     __HAL_DMA_CLEAR_FLAG (hdma, __HAL_DMA_GET_DME_FLAG_INDEX(hdma));
 1383              		.loc 1 193 5 discriminator 42 view .LVU362
 1384 079c 02F58062 		add	r2, r2, #1024
 1385 07a0 9342     		cmp	r3, r2
 1386 07a2 28D0     		beq	.L176
 193:Drivers/STM32F7xx_HAL_Driver/Src/stm32f7xx_hal_dma_ex.c ****     __HAL_DMA_CLEAR_FLAG (hdma, __HAL_DMA_GET_DME_FLAG_INDEX(hdma));
 1387              		.loc 1 193 5 discriminator 44 view .LVU363
 1388 07a4 A2F58962 		sub	r2, r2, #1096
 1389 07a8 9342     		cmp	r3, r2
 1390 07aa 27D0     		beq	.L177
 193:Drivers/STM32F7xx_HAL_Driver/Src/stm32f7xx_hal_dma_ex.c ****     __HAL_DMA_CLEAR_FLAG (hdma, __HAL_DMA_GET_DME_FLAG_INDEX(hdma));
 1391              		.loc 1 193 5 discriminator 46 view .LVU364
 1392 07ac 02F58062 		add	r2, r2, #1024
 1393 07b0 9342     		cmp	r3, r2
 1394 07b2 26D0     		beq	.L178
 193:Drivers/STM32F7xx_HAL_Driver/Src/stm32f7xx_hal_dma_ex.c ****     __HAL_DMA_CLEAR_FLAG (hdma, __HAL_DMA_GET_DME_FLAG_INDEX(hdma));
 1395              		.loc 1 193 5 discriminator 48 view .LVU365
 1396 07b4 A2F56872 		sub	r2, r2, #928
 1397 07b8 9342     		cmp	r3, r2
 1398 07ba 25D0     		beq	.L179
 193:Drivers/STM32F7xx_HAL_Driver/Src/stm32f7xx_hal_dma_ex.c ****     __HAL_DMA_CLEAR_FLAG (hdma, __HAL_DMA_GET_DME_FLAG_INDEX(hdma));
 1399              		.loc 1 193 5 discriminator 50 view .LVU366
 1400 07bc 02F58062 		add	r2, r2, #1024
 1401 07c0 9342     		cmp	r3, r2
 1402 07c2 02D0     		beq	.L314
 193:Drivers/STM32F7xx_HAL_Driver/Src/stm32f7xx_hal_dma_ex.c ****     __HAL_DMA_CLEAR_FLAG (hdma, __HAL_DMA_GET_DME_FLAG_INDEX(hdma));
 1403              		.loc 1 193 5 discriminator 53 view .LVU367
 1404 07c4 4FF00072 		mov	r2, #33554432
 1405 07c8 03E0     		b	.L38
 1406              	.L314:
 193:Drivers/STM32F7xx_HAL_Driver/Src/stm32f7xx_hal_dma_ex.c ****     __HAL_DMA_CLEAR_FLAG (hdma, __HAL_DMA_GET_DME_FLAG_INDEX(hdma));
 1407              		.loc 1 193 5 discriminator 52 view .LVU368
 1408 07ca 4FF40022 		mov	r2, #524288
ARM GAS  /tmp/cc1lRkNS.s 			page 37


 1409 07ce 00E0     		b	.L38
 1410              	.L169:
 193:Drivers/STM32F7xx_HAL_Driver/Src/stm32f7xx_hal_dma_ex.c ****     __HAL_DMA_CLEAR_FLAG (hdma, __HAL_DMA_GET_DME_FLAG_INDEX(hdma));
 1411              		.loc 1 193 5 discriminator 31 view .LVU369
 1412 07d0 0822     		movs	r2, #8
 1413              	.L38:
 193:Drivers/STM32F7xx_HAL_Driver/Src/stm32f7xx_hal_dma_ex.c ****     __HAL_DMA_CLEAR_FLAG (hdma, __HAL_DMA_GET_DME_FLAG_INDEX(hdma));
 1414              		.loc 1 193 5 discriminator 54 view .LVU370
 1415 07d2 3B4B     		ldr	r3, .L329+8
 1416 07d4 9A60     		str	r2, [r3, #8]
 1417 07d6 64E7     		b	.L36
 1418              	.L170:
 193:Drivers/STM32F7xx_HAL_Driver/Src/stm32f7xx_hal_dma_ex.c ****     __HAL_DMA_CLEAR_FLAG (hdma, __HAL_DMA_GET_DME_FLAG_INDEX(hdma));
 1419              		.loc 1 193 5 discriminator 33 view .LVU371
 1420 07d8 0822     		movs	r2, #8
 1421 07da FAE7     		b	.L38
 1422              	.L171:
 193:Drivers/STM32F7xx_HAL_Driver/Src/stm32f7xx_hal_dma_ex.c ****     __HAL_DMA_CLEAR_FLAG (hdma, __HAL_DMA_GET_DME_FLAG_INDEX(hdma));
 1423              		.loc 1 193 5 discriminator 35 view .LVU372
 1424 07dc 0822     		movs	r2, #8
 1425 07de F8E7     		b	.L38
 1426              	.L172:
 193:Drivers/STM32F7xx_HAL_Driver/Src/stm32f7xx_hal_dma_ex.c ****     __HAL_DMA_CLEAR_FLAG (hdma, __HAL_DMA_GET_DME_FLAG_INDEX(hdma));
 1427              		.loc 1 193 5 discriminator 37 view .LVU373
 1428 07e0 0822     		movs	r2, #8
 1429 07e2 F6E7     		b	.L38
 1430              	.L173:
 193:Drivers/STM32F7xx_HAL_Driver/Src/stm32f7xx_hal_dma_ex.c ****     __HAL_DMA_CLEAR_FLAG (hdma, __HAL_DMA_GET_DME_FLAG_INDEX(hdma));
 1431              		.loc 1 193 5 discriminator 39 view .LVU374
 1432 07e4 4FF40072 		mov	r2, #512
 1433 07e8 F3E7     		b	.L38
 1434              	.L174:
 193:Drivers/STM32F7xx_HAL_Driver/Src/stm32f7xx_hal_dma_ex.c ****     __HAL_DMA_CLEAR_FLAG (hdma, __HAL_DMA_GET_DME_FLAG_INDEX(hdma));
 1435              		.loc 1 193 5 discriminator 41 view .LVU375
 1436 07ea 4FF40072 		mov	r2, #512
 1437 07ee F0E7     		b	.L38
 1438              	.L175:
 193:Drivers/STM32F7xx_HAL_Driver/Src/stm32f7xx_hal_dma_ex.c ****     __HAL_DMA_CLEAR_FLAG (hdma, __HAL_DMA_GET_DME_FLAG_INDEX(hdma));
 1439              		.loc 1 193 5 discriminator 43 view .LVU376
 1440 07f0 4FF40072 		mov	r2, #512
 1441 07f4 EDE7     		b	.L38
 1442              	.L176:
 193:Drivers/STM32F7xx_HAL_Driver/Src/stm32f7xx_hal_dma_ex.c ****     __HAL_DMA_CLEAR_FLAG (hdma, __HAL_DMA_GET_DME_FLAG_INDEX(hdma));
 1443              		.loc 1 193 5 discriminator 45 view .LVU377
 1444 07f6 4FF40072 		mov	r2, #512
 1445 07fa EAE7     		b	.L38
 1446              	.L177:
 193:Drivers/STM32F7xx_HAL_Driver/Src/stm32f7xx_hal_dma_ex.c ****     __HAL_DMA_CLEAR_FLAG (hdma, __HAL_DMA_GET_DME_FLAG_INDEX(hdma));
 1447              		.loc 1 193 5 discriminator 47 view .LVU378
 1448 07fc 4FF40022 		mov	r2, #524288
 1449 0800 E7E7     		b	.L38
 1450              	.L178:
 193:Drivers/STM32F7xx_HAL_Driver/Src/stm32f7xx_hal_dma_ex.c ****     __HAL_DMA_CLEAR_FLAG (hdma, __HAL_DMA_GET_DME_FLAG_INDEX(hdma));
 1451              		.loc 1 193 5 discriminator 49 view .LVU379
 1452 0802 4FF40022 		mov	r2, #524288
 1453 0806 E4E7     		b	.L38
 1454              	.L179:
ARM GAS  /tmp/cc1lRkNS.s 			page 38


 193:Drivers/STM32F7xx_HAL_Driver/Src/stm32f7xx_hal_dma_ex.c ****     __HAL_DMA_CLEAR_FLAG (hdma, __HAL_DMA_GET_DME_FLAG_INDEX(hdma));
 1455              		.loc 1 193 5 discriminator 51 view .LVU380
 1456 0808 4FF40022 		mov	r2, #524288
 1457 080c E1E7     		b	.L38
 1458              	.L37:
 193:Drivers/STM32F7xx_HAL_Driver/Src/stm32f7xx_hal_dma_ex.c ****     __HAL_DMA_CLEAR_FLAG (hdma, __HAL_DMA_GET_DME_FLAG_INDEX(hdma));
 1459              		.loc 1 193 5 discriminator 29 view .LVU381
 1460 080e 2F4A     		ldr	r2, .L329+20
 1461 0810 9342     		cmp	r3, r2
 1462 0812 60D9     		bls	.L39
 193:Drivers/STM32F7xx_HAL_Driver/Src/stm32f7xx_hal_dma_ex.c ****     __HAL_DMA_CLEAR_FLAG (hdma, __HAL_DMA_GET_DME_FLAG_INDEX(hdma));
 1463              		.loc 1 193 5 discriminator 55 view .LVU382
 1464 0814 483A     		subs	r2, r2, #72
 1465 0816 9342     		cmp	r3, r2
 1466 0818 31D0     		beq	.L181
 193:Drivers/STM32F7xx_HAL_Driver/Src/stm32f7xx_hal_dma_ex.c ****     __HAL_DMA_CLEAR_FLAG (hdma, __HAL_DMA_GET_DME_FLAG_INDEX(hdma));
 1467              		.loc 1 193 5 discriminator 57 view .LVU383
 1468 081a 02F58062 		add	r2, r2, #1024
 1469 081e 9342     		cmp	r3, r2
 1470 0820 31D0     		beq	.L182
 193:Drivers/STM32F7xx_HAL_Driver/Src/stm32f7xx_hal_dma_ex.c ****     __HAL_DMA_CLEAR_FLAG (hdma, __HAL_DMA_GET_DME_FLAG_INDEX(hdma));
 1471              		.loc 1 193 5 discriminator 59 view .LVU384
 1472 0822 A2F56872 		sub	r2, r2, #928
 1473 0826 9342     		cmp	r3, r2
 1474 0828 2FD0     		beq	.L183
 193:Drivers/STM32F7xx_HAL_Driver/Src/stm32f7xx_hal_dma_ex.c ****     __HAL_DMA_CLEAR_FLAG (hdma, __HAL_DMA_GET_DME_FLAG_INDEX(hdma));
 1475              		.loc 1 193 5 discriminator 61 view .LVU385
 1476 082a 02F58062 		add	r2, r2, #1024
 1477 082e 9342     		cmp	r3, r2
 1478 0830 2DD0     		beq	.L184
 193:Drivers/STM32F7xx_HAL_Driver/Src/stm32f7xx_hal_dma_ex.c ****     __HAL_DMA_CLEAR_FLAG (hdma, __HAL_DMA_GET_DME_FLAG_INDEX(hdma));
 1479              		.loc 1 193 5 discriminator 63 view .LVU386
 1480 0832 A2F58962 		sub	r2, r2, #1096
 1481 0836 9342     		cmp	r3, r2
 1482 0838 2BD0     		beq	.L185
 193:Drivers/STM32F7xx_HAL_Driver/Src/stm32f7xx_hal_dma_ex.c ****     __HAL_DMA_CLEAR_FLAG (hdma, __HAL_DMA_GET_DME_FLAG_INDEX(hdma));
 1483              		.loc 1 193 5 discriminator 65 view .LVU387
 1484 083a 02F58062 		add	r2, r2, #1024
 1485 083e 9342     		cmp	r3, r2
 1486 0840 2AD0     		beq	.L186
 193:Drivers/STM32F7xx_HAL_Driver/Src/stm32f7xx_hal_dma_ex.c ****     __HAL_DMA_CLEAR_FLAG (hdma, __HAL_DMA_GET_DME_FLAG_INDEX(hdma));
 1487              		.loc 1 193 5 discriminator 67 view .LVU388
 1488 0842 A2F56872 		sub	r2, r2, #928
 1489 0846 9342     		cmp	r3, r2
 1490 0848 29D0     		beq	.L187
 193:Drivers/STM32F7xx_HAL_Driver/Src/stm32f7xx_hal_dma_ex.c ****     __HAL_DMA_CLEAR_FLAG (hdma, __HAL_DMA_GET_DME_FLAG_INDEX(hdma));
 1491              		.loc 1 193 5 discriminator 69 view .LVU389
 1492 084a 02F58062 		add	r2, r2, #1024
 1493 084e 9342     		cmp	r3, r2
 1494 0850 28D0     		beq	.L188
 193:Drivers/STM32F7xx_HAL_Driver/Src/stm32f7xx_hal_dma_ex.c ****     __HAL_DMA_CLEAR_FLAG (hdma, __HAL_DMA_GET_DME_FLAG_INDEX(hdma));
 1495              		.loc 1 193 5 discriminator 71 view .LVU390
 1496 0852 A2F58962 		sub	r2, r2, #1096
 1497 0856 9342     		cmp	r3, r2
 1498 0858 27D0     		beq	.L189
 193:Drivers/STM32F7xx_HAL_Driver/Src/stm32f7xx_hal_dma_ex.c ****     __HAL_DMA_CLEAR_FLAG (hdma, __HAL_DMA_GET_DME_FLAG_INDEX(hdma));
 1499              		.loc 1 193 5 discriminator 73 view .LVU391
ARM GAS  /tmp/cc1lRkNS.s 			page 39


 1500 085a 02F58062 		add	r2, r2, #1024
 1501 085e 9342     		cmp	r3, r2
 1502 0860 26D0     		beq	.L190
 193:Drivers/STM32F7xx_HAL_Driver/Src/stm32f7xx_hal_dma_ex.c ****     __HAL_DMA_CLEAR_FLAG (hdma, __HAL_DMA_GET_DME_FLAG_INDEX(hdma));
 1503              		.loc 1 193 5 discriminator 75 view .LVU392
 1504 0862 A2F56872 		sub	r2, r2, #928
 1505 0866 9342     		cmp	r3, r2
 1506 0868 32D0     		beq	.L191
 193:Drivers/STM32F7xx_HAL_Driver/Src/stm32f7xx_hal_dma_ex.c ****     __HAL_DMA_CLEAR_FLAG (hdma, __HAL_DMA_GET_DME_FLAG_INDEX(hdma));
 1507              		.loc 1 193 5 discriminator 77 view .LVU393
 1508 086a 02F58062 		add	r2, r2, #1024
 1509 086e 9342     		cmp	r3, r2
 1510 0870 02D0     		beq	.L315
 193:Drivers/STM32F7xx_HAL_Driver/Src/stm32f7xx_hal_dma_ex.c ****     __HAL_DMA_CLEAR_FLAG (hdma, __HAL_DMA_GET_DME_FLAG_INDEX(hdma));
 1511              		.loc 1 193 5 discriminator 80 view .LVU394
 1512 0872 4FF00073 		mov	r3, #33554432
 1513 0876 03E0     		b	.L40
 1514              	.L315:
 193:Drivers/STM32F7xx_HAL_Driver/Src/stm32f7xx_hal_dma_ex.c ****     __HAL_DMA_CLEAR_FLAG (hdma, __HAL_DMA_GET_DME_FLAG_INDEX(hdma));
 1515              		.loc 1 193 5 discriminator 79 view .LVU395
 1516 0878 4FF40023 		mov	r3, #524288
 1517 087c 00E0     		b	.L40
 1518              	.L181:
 193:Drivers/STM32F7xx_HAL_Driver/Src/stm32f7xx_hal_dma_ex.c ****     __HAL_DMA_CLEAR_FLAG (hdma, __HAL_DMA_GET_DME_FLAG_INDEX(hdma));
 1519              		.loc 1 193 5 discriminator 58 view .LVU396
 1520 087e 0823     		movs	r3, #8
 1521              	.L40:
 193:Drivers/STM32F7xx_HAL_Driver/Src/stm32f7xx_hal_dma_ex.c ****     __HAL_DMA_CLEAR_FLAG (hdma, __HAL_DMA_GET_DME_FLAG_INDEX(hdma));
 1522              		.loc 1 193 5 discriminator 81 view .LVU397
 1523 0880 0E4A     		ldr	r2, .L329+4
 1524 0882 D360     		str	r3, [r2, #12]
 1525 0884 0DE7     		b	.L36
 1526              	.L182:
 193:Drivers/STM32F7xx_HAL_Driver/Src/stm32f7xx_hal_dma_ex.c ****     __HAL_DMA_CLEAR_FLAG (hdma, __HAL_DMA_GET_DME_FLAG_INDEX(hdma));
 1527              		.loc 1 193 5 discriminator 60 view .LVU398
 1528 0886 0823     		movs	r3, #8
 1529 0888 FAE7     		b	.L40
 1530              	.L183:
 193:Drivers/STM32F7xx_HAL_Driver/Src/stm32f7xx_hal_dma_ex.c ****     __HAL_DMA_CLEAR_FLAG (hdma, __HAL_DMA_GET_DME_FLAG_INDEX(hdma));
 1531              		.loc 1 193 5 discriminator 62 view .LVU399
 1532 088a 0823     		movs	r3, #8
 1533 088c F8E7     		b	.L40
 1534              	.L184:
 193:Drivers/STM32F7xx_HAL_Driver/Src/stm32f7xx_hal_dma_ex.c ****     __HAL_DMA_CLEAR_FLAG (hdma, __HAL_DMA_GET_DME_FLAG_INDEX(hdma));
 1535              		.loc 1 193 5 discriminator 64 view .LVU400
 1536 088e 0823     		movs	r3, #8
 1537 0890 F6E7     		b	.L40
 1538              	.L185:
 193:Drivers/STM32F7xx_HAL_Driver/Src/stm32f7xx_hal_dma_ex.c ****     __HAL_DMA_CLEAR_FLAG (hdma, __HAL_DMA_GET_DME_FLAG_INDEX(hdma));
 1539              		.loc 1 193 5 discriminator 66 view .LVU401
 1540 0892 4FF40073 		mov	r3, #512
 1541 0896 F3E7     		b	.L40
 1542              	.L186:
 193:Drivers/STM32F7xx_HAL_Driver/Src/stm32f7xx_hal_dma_ex.c ****     __HAL_DMA_CLEAR_FLAG (hdma, __HAL_DMA_GET_DME_FLAG_INDEX(hdma));
 1543              		.loc 1 193 5 discriminator 68 view .LVU402
 1544 0898 4FF40073 		mov	r3, #512
 1545 089c F0E7     		b	.L40
ARM GAS  /tmp/cc1lRkNS.s 			page 40


 1546              	.L187:
 193:Drivers/STM32F7xx_HAL_Driver/Src/stm32f7xx_hal_dma_ex.c ****     __HAL_DMA_CLEAR_FLAG (hdma, __HAL_DMA_GET_DME_FLAG_INDEX(hdma));
 1547              		.loc 1 193 5 discriminator 70 view .LVU403
 1548 089e 4FF40073 		mov	r3, #512
 1549 08a2 EDE7     		b	.L40
 1550              	.L188:
 193:Drivers/STM32F7xx_HAL_Driver/Src/stm32f7xx_hal_dma_ex.c ****     __HAL_DMA_CLEAR_FLAG (hdma, __HAL_DMA_GET_DME_FLAG_INDEX(hdma));
 1551              		.loc 1 193 5 discriminator 72 view .LVU404
 1552 08a4 4FF40073 		mov	r3, #512
 1553 08a8 EAE7     		b	.L40
 1554              	.L189:
 193:Drivers/STM32F7xx_HAL_Driver/Src/stm32f7xx_hal_dma_ex.c ****     __HAL_DMA_CLEAR_FLAG (hdma, __HAL_DMA_GET_DME_FLAG_INDEX(hdma));
 1555              		.loc 1 193 5 discriminator 74 view .LVU405
 1556 08aa 4FF40023 		mov	r3, #524288
 1557 08ae E7E7     		b	.L40
 1558              	.L190:
 193:Drivers/STM32F7xx_HAL_Driver/Src/stm32f7xx_hal_dma_ex.c ****     __HAL_DMA_CLEAR_FLAG (hdma, __HAL_DMA_GET_DME_FLAG_INDEX(hdma));
 1559              		.loc 1 193 5 discriminator 76 view .LVU406
 1560 08b0 4FF40023 		mov	r3, #524288
 1561 08b4 E4E7     		b	.L40
 1562              	.L330:
 1563 08b6 00BF     		.align	2
 1564              	.L329:
 1565 08b8 10600240 		.word	1073897488
 1566 08bc 00600240 		.word	1073897472
 1567 08c0 00640240 		.word	1073898496
 1568 08c4 58640240 		.word	1073898584
 1569 08c8 B8600240 		.word	1073897656
 1570 08cc 58600240 		.word	1073897560
 1571              	.L191:
 193:Drivers/STM32F7xx_HAL_Driver/Src/stm32f7xx_hal_dma_ex.c ****     __HAL_DMA_CLEAR_FLAG (hdma, __HAL_DMA_GET_DME_FLAG_INDEX(hdma));
 1572              		.loc 1 193 5 discriminator 78 view .LVU407
 1573 08d0 4FF40023 		mov	r3, #524288
 1574 08d4 D4E7     		b	.L40
 1575              	.L39:
 193:Drivers/STM32F7xx_HAL_Driver/Src/stm32f7xx_hal_dma_ex.c ****     __HAL_DMA_CLEAR_FLAG (hdma, __HAL_DMA_GET_DME_FLAG_INDEX(hdma));
 1576              		.loc 1 193 5 discriminator 56 view .LVU408
 1577 08d6 B24A     		ldr	r2, .L331
 1578 08d8 9342     		cmp	r3, r2
 1579 08da 31D0     		beq	.L193
 193:Drivers/STM32F7xx_HAL_Driver/Src/stm32f7xx_hal_dma_ex.c ****     __HAL_DMA_CLEAR_FLAG (hdma, __HAL_DMA_GET_DME_FLAG_INDEX(hdma));
 1580              		.loc 1 193 5 discriminator 82 view .LVU409
 1581 08dc 02F58062 		add	r2, r2, #1024
 1582 08e0 9342     		cmp	r3, r2
 1583 08e2 31D0     		beq	.L194
 193:Drivers/STM32F7xx_HAL_Driver/Src/stm32f7xx_hal_dma_ex.c ****     __HAL_DMA_CLEAR_FLAG (hdma, __HAL_DMA_GET_DME_FLAG_INDEX(hdma));
 1584              		.loc 1 193 5 discriminator 84 view .LVU410
 1585 08e4 A2F56872 		sub	r2, r2, #928
 1586 08e8 9342     		cmp	r3, r2
 1587 08ea 2FD0     		beq	.L195
 193:Drivers/STM32F7xx_HAL_Driver/Src/stm32f7xx_hal_dma_ex.c ****     __HAL_DMA_CLEAR_FLAG (hdma, __HAL_DMA_GET_DME_FLAG_INDEX(hdma));
 1588              		.loc 1 193 5 discriminator 86 view .LVU411
 1589 08ec 02F58062 		add	r2, r2, #1024
 1590 08f0 9342     		cmp	r3, r2
 1591 08f2 2DD0     		beq	.L196
 193:Drivers/STM32F7xx_HAL_Driver/Src/stm32f7xx_hal_dma_ex.c ****     __HAL_DMA_CLEAR_FLAG (hdma, __HAL_DMA_GET_DME_FLAG_INDEX(hdma));
 1592              		.loc 1 193 5 discriminator 88 view .LVU412
ARM GAS  /tmp/cc1lRkNS.s 			page 41


 1593 08f4 A2F58962 		sub	r2, r2, #1096
 1594 08f8 9342     		cmp	r3, r2
 1595 08fa 2BD0     		beq	.L197
 193:Drivers/STM32F7xx_HAL_Driver/Src/stm32f7xx_hal_dma_ex.c ****     __HAL_DMA_CLEAR_FLAG (hdma, __HAL_DMA_GET_DME_FLAG_INDEX(hdma));
 1596              		.loc 1 193 5 discriminator 90 view .LVU413
 1597 08fc 02F58062 		add	r2, r2, #1024
 1598 0900 9342     		cmp	r3, r2
 1599 0902 2AD0     		beq	.L198
 193:Drivers/STM32F7xx_HAL_Driver/Src/stm32f7xx_hal_dma_ex.c ****     __HAL_DMA_CLEAR_FLAG (hdma, __HAL_DMA_GET_DME_FLAG_INDEX(hdma));
 1600              		.loc 1 193 5 discriminator 92 view .LVU414
 1601 0904 A2F56872 		sub	r2, r2, #928
 1602 0908 9342     		cmp	r3, r2
 1603 090a 29D0     		beq	.L199
 193:Drivers/STM32F7xx_HAL_Driver/Src/stm32f7xx_hal_dma_ex.c ****     __HAL_DMA_CLEAR_FLAG (hdma, __HAL_DMA_GET_DME_FLAG_INDEX(hdma));
 1604              		.loc 1 193 5 discriminator 94 view .LVU415
 1605 090c 02F58062 		add	r2, r2, #1024
 1606 0910 9342     		cmp	r3, r2
 1607 0912 28D0     		beq	.L200
 193:Drivers/STM32F7xx_HAL_Driver/Src/stm32f7xx_hal_dma_ex.c ****     __HAL_DMA_CLEAR_FLAG (hdma, __HAL_DMA_GET_DME_FLAG_INDEX(hdma));
 1608              		.loc 1 193 5 discriminator 96 view .LVU416
 1609 0914 A2F58962 		sub	r2, r2, #1096
 1610 0918 9342     		cmp	r3, r2
 1611 091a 27D0     		beq	.L201
 193:Drivers/STM32F7xx_HAL_Driver/Src/stm32f7xx_hal_dma_ex.c ****     __HAL_DMA_CLEAR_FLAG (hdma, __HAL_DMA_GET_DME_FLAG_INDEX(hdma));
 1612              		.loc 1 193 5 discriminator 98 view .LVU417
 1613 091c 02F58062 		add	r2, r2, #1024
 1614 0920 9342     		cmp	r3, r2
 1615 0922 26D0     		beq	.L202
 193:Drivers/STM32F7xx_HAL_Driver/Src/stm32f7xx_hal_dma_ex.c ****     __HAL_DMA_CLEAR_FLAG (hdma, __HAL_DMA_GET_DME_FLAG_INDEX(hdma));
 1616              		.loc 1 193 5 discriminator 100 view .LVU418
 1617 0924 A2F56872 		sub	r2, r2, #928
 1618 0928 9342     		cmp	r3, r2
 1619 092a 25D0     		beq	.L203
 193:Drivers/STM32F7xx_HAL_Driver/Src/stm32f7xx_hal_dma_ex.c ****     __HAL_DMA_CLEAR_FLAG (hdma, __HAL_DMA_GET_DME_FLAG_INDEX(hdma));
 1620              		.loc 1 193 5 discriminator 102 view .LVU419
 1621 092c 02F58062 		add	r2, r2, #1024
 1622 0930 9342     		cmp	r3, r2
 1623 0932 02D0     		beq	.L316
 193:Drivers/STM32F7xx_HAL_Driver/Src/stm32f7xx_hal_dma_ex.c ****     __HAL_DMA_CLEAR_FLAG (hdma, __HAL_DMA_GET_DME_FLAG_INDEX(hdma));
 1624              		.loc 1 193 5 discriminator 105 view .LVU420
 1625 0934 4FF00073 		mov	r3, #33554432
 1626 0938 03E0     		b	.L41
 1627              	.L316:
 193:Drivers/STM32F7xx_HAL_Driver/Src/stm32f7xx_hal_dma_ex.c ****     __HAL_DMA_CLEAR_FLAG (hdma, __HAL_DMA_GET_DME_FLAG_INDEX(hdma));
 1628              		.loc 1 193 5 discriminator 104 view .LVU421
 1629 093a 4FF40023 		mov	r3, #524288
 1630 093e 00E0     		b	.L41
 1631              	.L193:
 193:Drivers/STM32F7xx_HAL_Driver/Src/stm32f7xx_hal_dma_ex.c ****     __HAL_DMA_CLEAR_FLAG (hdma, __HAL_DMA_GET_DME_FLAG_INDEX(hdma));
 1632              		.loc 1 193 5 discriminator 83 view .LVU422
 1633 0940 0823     		movs	r3, #8
 1634              	.L41:
 193:Drivers/STM32F7xx_HAL_Driver/Src/stm32f7xx_hal_dma_ex.c ****     __HAL_DMA_CLEAR_FLAG (hdma, __HAL_DMA_GET_DME_FLAG_INDEX(hdma));
 1635              		.loc 1 193 5 discriminator 106 view .LVU423
 1636 0942 984A     		ldr	r2, .L331+4
 1637 0944 9360     		str	r3, [r2, #8]
 1638 0946 ACE6     		b	.L36
ARM GAS  /tmp/cc1lRkNS.s 			page 42


 1639              	.L194:
 193:Drivers/STM32F7xx_HAL_Driver/Src/stm32f7xx_hal_dma_ex.c ****     __HAL_DMA_CLEAR_FLAG (hdma, __HAL_DMA_GET_DME_FLAG_INDEX(hdma));
 1640              		.loc 1 193 5 discriminator 85 view .LVU424
 1641 0948 0823     		movs	r3, #8
 1642 094a FAE7     		b	.L41
 1643              	.L195:
 193:Drivers/STM32F7xx_HAL_Driver/Src/stm32f7xx_hal_dma_ex.c ****     __HAL_DMA_CLEAR_FLAG (hdma, __HAL_DMA_GET_DME_FLAG_INDEX(hdma));
 1644              		.loc 1 193 5 discriminator 87 view .LVU425
 1645 094c 0823     		movs	r3, #8
 1646 094e F8E7     		b	.L41
 1647              	.L196:
 193:Drivers/STM32F7xx_HAL_Driver/Src/stm32f7xx_hal_dma_ex.c ****     __HAL_DMA_CLEAR_FLAG (hdma, __HAL_DMA_GET_DME_FLAG_INDEX(hdma));
 1648              		.loc 1 193 5 discriminator 89 view .LVU426
 1649 0950 0823     		movs	r3, #8
 1650 0952 F6E7     		b	.L41
 1651              	.L197:
 193:Drivers/STM32F7xx_HAL_Driver/Src/stm32f7xx_hal_dma_ex.c ****     __HAL_DMA_CLEAR_FLAG (hdma, __HAL_DMA_GET_DME_FLAG_INDEX(hdma));
 1652              		.loc 1 193 5 discriminator 91 view .LVU427
 1653 0954 4FF40073 		mov	r3, #512
 1654 0958 F3E7     		b	.L41
 1655              	.L198:
 193:Drivers/STM32F7xx_HAL_Driver/Src/stm32f7xx_hal_dma_ex.c ****     __HAL_DMA_CLEAR_FLAG (hdma, __HAL_DMA_GET_DME_FLAG_INDEX(hdma));
 1656              		.loc 1 193 5 discriminator 93 view .LVU428
 1657 095a 4FF40073 		mov	r3, #512
 1658 095e F0E7     		b	.L41
 1659              	.L199:
 193:Drivers/STM32F7xx_HAL_Driver/Src/stm32f7xx_hal_dma_ex.c ****     __HAL_DMA_CLEAR_FLAG (hdma, __HAL_DMA_GET_DME_FLAG_INDEX(hdma));
 1660              		.loc 1 193 5 discriminator 95 view .LVU429
 1661 0960 4FF40073 		mov	r3, #512
 1662 0964 EDE7     		b	.L41
 1663              	.L200:
 193:Drivers/STM32F7xx_HAL_Driver/Src/stm32f7xx_hal_dma_ex.c ****     __HAL_DMA_CLEAR_FLAG (hdma, __HAL_DMA_GET_DME_FLAG_INDEX(hdma));
 1664              		.loc 1 193 5 discriminator 97 view .LVU430
 1665 0966 4FF40073 		mov	r3, #512
 1666 096a EAE7     		b	.L41
 1667              	.L201:
 193:Drivers/STM32F7xx_HAL_Driver/Src/stm32f7xx_hal_dma_ex.c ****     __HAL_DMA_CLEAR_FLAG (hdma, __HAL_DMA_GET_DME_FLAG_INDEX(hdma));
 1668              		.loc 1 193 5 discriminator 99 view .LVU431
 1669 096c 4FF40023 		mov	r3, #524288
 1670 0970 E7E7     		b	.L41
 1671              	.L202:
 193:Drivers/STM32F7xx_HAL_Driver/Src/stm32f7xx_hal_dma_ex.c ****     __HAL_DMA_CLEAR_FLAG (hdma, __HAL_DMA_GET_DME_FLAG_INDEX(hdma));
 1672              		.loc 1 193 5 discriminator 101 view .LVU432
 1673 0972 4FF40023 		mov	r3, #524288
 1674 0976 E4E7     		b	.L41
 1675              	.L203:
 193:Drivers/STM32F7xx_HAL_Driver/Src/stm32f7xx_hal_dma_ex.c ****     __HAL_DMA_CLEAR_FLAG (hdma, __HAL_DMA_GET_DME_FLAG_INDEX(hdma));
 1676              		.loc 1 193 5 discriminator 103 view .LVU433
 1677 0978 4FF40023 		mov	r3, #524288
 1678 097c E1E7     		b	.L41
 1679              	.L313:
 194:Drivers/STM32F7xx_HAL_Driver/Src/stm32f7xx_hal_dma_ex.c ****     __HAL_DMA_CLEAR_FLAG (hdma, __HAL_DMA_GET_FE_FLAG_INDEX(hdma));
 1680              		.loc 1 194 5 discriminator 25 view .LVU434
 1681 097e 4FF48022 		mov	r2, #262144
 1682 0982 00E0     		b	.L43
 1683              	.L205:
 194:Drivers/STM32F7xx_HAL_Driver/Src/stm32f7xx_hal_dma_ex.c ****     __HAL_DMA_CLEAR_FLAG (hdma, __HAL_DMA_GET_FE_FLAG_INDEX(hdma));
ARM GAS  /tmp/cc1lRkNS.s 			page 43


 1684              		.loc 1 194 5 discriminator 4 view .LVU435
 1685 0984 0422     		movs	r2, #4
 1686              	.L43:
 194:Drivers/STM32F7xx_HAL_Driver/Src/stm32f7xx_hal_dma_ex.c ****     __HAL_DMA_CLEAR_FLAG (hdma, __HAL_DMA_GET_FE_FLAG_INDEX(hdma));
 1687              		.loc 1 194 5 discriminator 27 view .LVU436
 1688 0986 884B     		ldr	r3, .L331+8
 1689 0988 DA60     		str	r2, [r3, #12]
 1690              	.L44:
 195:Drivers/STM32F7xx_HAL_Driver/Src/stm32f7xx_hal_dma_ex.c ****     
 1691              		.loc 1 195 5 is_stmt 1 view .LVU437
 1692 098a 2368     		ldr	r3, [r4]
 1693 098c 874A     		ldr	r2, .L331+12
 1694 098e 9342     		cmp	r3, r2
 1695 0990 40F2A181 		bls	.L50
 195:Drivers/STM32F7xx_HAL_Driver/Src/stm32f7xx_hal_dma_ex.c ****     
 1696              		.loc 1 195 5 is_stmt 0 discriminator 1 view .LVU438
 1697 0994 A2F58962 		sub	r2, r2, #1096
 1698 0998 9342     		cmp	r3, r2
 1699 099a 00F06781 		beq	.L253
 195:Drivers/STM32F7xx_HAL_Driver/Src/stm32f7xx_hal_dma_ex.c ****     
 1700              		.loc 1 195 5 discriminator 3 view .LVU439
 1701 099e 02F58062 		add	r2, r2, #1024
 1702 09a2 9342     		cmp	r3, r2
 1703 09a4 00F08081 		beq	.L254
 195:Drivers/STM32F7xx_HAL_Driver/Src/stm32f7xx_hal_dma_ex.c ****     
 1704              		.loc 1 195 5 discriminator 5 view .LVU440
 1705 09a8 A2F56872 		sub	r2, r2, #928
 1706 09ac 9342     		cmp	r3, r2
 1707 09ae 00F07D81 		beq	.L255
 195:Drivers/STM32F7xx_HAL_Driver/Src/stm32f7xx_hal_dma_ex.c ****     
 1708              		.loc 1 195 5 discriminator 7 view .LVU441
 1709 09b2 02F58062 		add	r2, r2, #1024
 1710 09b6 9342     		cmp	r3, r2
 1711 09b8 00F07A81 		beq	.L256
 195:Drivers/STM32F7xx_HAL_Driver/Src/stm32f7xx_hal_dma_ex.c ****     
 1712              		.loc 1 195 5 discriminator 9 view .LVU442
 1713 09bc A2F58962 		sub	r2, r2, #1096
 1714 09c0 9342     		cmp	r3, r2
 1715 09c2 00F07781 		beq	.L257
 195:Drivers/STM32F7xx_HAL_Driver/Src/stm32f7xx_hal_dma_ex.c ****     
 1716              		.loc 1 195 5 discriminator 11 view .LVU443
 1717 09c6 02F58062 		add	r2, r2, #1024
 1718 09ca 9342     		cmp	r3, r2
 1719 09cc 00F07481 		beq	.L258
 195:Drivers/STM32F7xx_HAL_Driver/Src/stm32f7xx_hal_dma_ex.c ****     
 1720              		.loc 1 195 5 discriminator 13 view .LVU444
 1721 09d0 A2F56872 		sub	r2, r2, #928
 1722 09d4 9342     		cmp	r3, r2
 1723 09d6 00F07181 		beq	.L259
 195:Drivers/STM32F7xx_HAL_Driver/Src/stm32f7xx_hal_dma_ex.c ****     
 1724              		.loc 1 195 5 discriminator 15 view .LVU445
 1725 09da 02F58062 		add	r2, r2, #1024
 1726 09de 9342     		cmp	r3, r2
 1727 09e0 00F06E81 		beq	.L260
 195:Drivers/STM32F7xx_HAL_Driver/Src/stm32f7xx_hal_dma_ex.c ****     
 1728              		.loc 1 195 5 discriminator 17 view .LVU446
 1729 09e4 A2F58962 		sub	r2, r2, #1096
ARM GAS  /tmp/cc1lRkNS.s 			page 44


 1730 09e8 9342     		cmp	r3, r2
 1731 09ea 00F06B81 		beq	.L261
 195:Drivers/STM32F7xx_HAL_Driver/Src/stm32f7xx_hal_dma_ex.c ****     
 1732              		.loc 1 195 5 discriminator 19 view .LVU447
 1733 09ee 02F58062 		add	r2, r2, #1024
 1734 09f2 9342     		cmp	r3, r2
 1735 09f4 00F06981 		beq	.L262
 195:Drivers/STM32F7xx_HAL_Driver/Src/stm32f7xx_hal_dma_ex.c ****     
 1736              		.loc 1 195 5 discriminator 21 view .LVU448
 1737 09f8 A2F56872 		sub	r2, r2, #928
 1738 09fc 9342     		cmp	r3, r2
 1739 09fe 00F06781 		beq	.L263
 195:Drivers/STM32F7xx_HAL_Driver/Src/stm32f7xx_hal_dma_ex.c ****     
 1740              		.loc 1 195 5 discriminator 23 view .LVU449
 1741 0a02 02F58062 		add	r2, r2, #1024
 1742 0a06 9342     		cmp	r3, r2
 1743 0a08 00F02D81 		beq	.L317
 195:Drivers/STM32F7xx_HAL_Driver/Src/stm32f7xx_hal_dma_ex.c ****     
 1744              		.loc 1 195 5 discriminator 26 view .LVU450
 1745 0a0c 4FF48002 		mov	r2, #4194304
 1746 0a10 2DE1     		b	.L51
 1747              	.L206:
 194:Drivers/STM32F7xx_HAL_Driver/Src/stm32f7xx_hal_dma_ex.c ****     __HAL_DMA_CLEAR_FLAG (hdma, __HAL_DMA_GET_FE_FLAG_INDEX(hdma));
 1748              		.loc 1 194 5 discriminator 6 view .LVU451
 1749 0a12 0422     		movs	r2, #4
 1750 0a14 B7E7     		b	.L43
 1751              	.L207:
 194:Drivers/STM32F7xx_HAL_Driver/Src/stm32f7xx_hal_dma_ex.c ****     __HAL_DMA_CLEAR_FLAG (hdma, __HAL_DMA_GET_FE_FLAG_INDEX(hdma));
 1752              		.loc 1 194 5 discriminator 8 view .LVU452
 1753 0a16 0422     		movs	r2, #4
 1754 0a18 B5E7     		b	.L43
 1755              	.L208:
 194:Drivers/STM32F7xx_HAL_Driver/Src/stm32f7xx_hal_dma_ex.c ****     __HAL_DMA_CLEAR_FLAG (hdma, __HAL_DMA_GET_FE_FLAG_INDEX(hdma));
 1756              		.loc 1 194 5 discriminator 10 view .LVU453
 1757 0a1a 0422     		movs	r2, #4
 1758 0a1c B3E7     		b	.L43
 1759              	.L209:
 194:Drivers/STM32F7xx_HAL_Driver/Src/stm32f7xx_hal_dma_ex.c ****     __HAL_DMA_CLEAR_FLAG (hdma, __HAL_DMA_GET_FE_FLAG_INDEX(hdma));
 1760              		.loc 1 194 5 discriminator 12 view .LVU454
 1761 0a1e 4FF48072 		mov	r2, #256
 1762 0a22 B0E7     		b	.L43
 1763              	.L210:
 194:Drivers/STM32F7xx_HAL_Driver/Src/stm32f7xx_hal_dma_ex.c ****     __HAL_DMA_CLEAR_FLAG (hdma, __HAL_DMA_GET_FE_FLAG_INDEX(hdma));
 1764              		.loc 1 194 5 discriminator 14 view .LVU455
 1765 0a24 4FF48072 		mov	r2, #256
 1766 0a28 ADE7     		b	.L43
 1767              	.L211:
 194:Drivers/STM32F7xx_HAL_Driver/Src/stm32f7xx_hal_dma_ex.c ****     __HAL_DMA_CLEAR_FLAG (hdma, __HAL_DMA_GET_FE_FLAG_INDEX(hdma));
 1768              		.loc 1 194 5 discriminator 16 view .LVU456
 1769 0a2a 4FF48072 		mov	r2, #256
 1770 0a2e AAE7     		b	.L43
 1771              	.L212:
 194:Drivers/STM32F7xx_HAL_Driver/Src/stm32f7xx_hal_dma_ex.c ****     __HAL_DMA_CLEAR_FLAG (hdma, __HAL_DMA_GET_FE_FLAG_INDEX(hdma));
 1772              		.loc 1 194 5 discriminator 18 view .LVU457
 1773 0a30 4FF48072 		mov	r2, #256
 1774 0a34 A7E7     		b	.L43
 1775              	.L213:
ARM GAS  /tmp/cc1lRkNS.s 			page 45


 194:Drivers/STM32F7xx_HAL_Driver/Src/stm32f7xx_hal_dma_ex.c ****     __HAL_DMA_CLEAR_FLAG (hdma, __HAL_DMA_GET_FE_FLAG_INDEX(hdma));
 1776              		.loc 1 194 5 discriminator 20 view .LVU458
 1777 0a36 4FF48022 		mov	r2, #262144
 1778 0a3a A4E7     		b	.L43
 1779              	.L214:
 194:Drivers/STM32F7xx_HAL_Driver/Src/stm32f7xx_hal_dma_ex.c ****     __HAL_DMA_CLEAR_FLAG (hdma, __HAL_DMA_GET_FE_FLAG_INDEX(hdma));
 1780              		.loc 1 194 5 discriminator 22 view .LVU459
 1781 0a3c 4FF48022 		mov	r2, #262144
 1782 0a40 A1E7     		b	.L43
 1783              	.L215:
 194:Drivers/STM32F7xx_HAL_Driver/Src/stm32f7xx_hal_dma_ex.c ****     __HAL_DMA_CLEAR_FLAG (hdma, __HAL_DMA_GET_FE_FLAG_INDEX(hdma));
 1784              		.loc 1 194 5 discriminator 24 view .LVU460
 1785 0a42 4FF48022 		mov	r2, #262144
 1786 0a46 9EE7     		b	.L43
 1787              	.L42:
 194:Drivers/STM32F7xx_HAL_Driver/Src/stm32f7xx_hal_dma_ex.c ****     __HAL_DMA_CLEAR_FLAG (hdma, __HAL_DMA_GET_FE_FLAG_INDEX(hdma));
 1788              		.loc 1 194 5 discriminator 2 view .LVU461
 1789 0a48 594A     		ldr	r2, .L331+16
 1790 0a4a 9342     		cmp	r3, r2
 1791 0a4c 53D9     		bls	.L45
 194:Drivers/STM32F7xx_HAL_Driver/Src/stm32f7xx_hal_dma_ex.c ****     __HAL_DMA_CLEAR_FLAG (hdma, __HAL_DMA_GET_FE_FLAG_INDEX(hdma));
 1792              		.loc 1 194 5 discriminator 28 view .LVU462
 1793 0a4e A83A     		subs	r2, r2, #168
 1794 0a50 9342     		cmp	r3, r2
 1795 0a52 31D0     		beq	.L217
 194:Drivers/STM32F7xx_HAL_Driver/Src/stm32f7xx_hal_dma_ex.c ****     __HAL_DMA_CLEAR_FLAG (hdma, __HAL_DMA_GET_FE_FLAG_INDEX(hdma));
 1796              		.loc 1 194 5 discriminator 30 view .LVU463
 1797 0a54 02F58062 		add	r2, r2, #1024
 1798 0a58 9342     		cmp	r3, r2
 1799 0a5a 31D0     		beq	.L218
 194:Drivers/STM32F7xx_HAL_Driver/Src/stm32f7xx_hal_dma_ex.c ****     __HAL_DMA_CLEAR_FLAG (hdma, __HAL_DMA_GET_FE_FLAG_INDEX(hdma));
 1800              		.loc 1 194 5 discriminator 32 view .LVU464
 1801 0a5c A2F56872 		sub	r2, r2, #928
 1802 0a60 9342     		cmp	r3, r2
 1803 0a62 2FD0     		beq	.L219
 194:Drivers/STM32F7xx_HAL_Driver/Src/stm32f7xx_hal_dma_ex.c ****     __HAL_DMA_CLEAR_FLAG (hdma, __HAL_DMA_GET_FE_FLAG_INDEX(hdma));
 1804              		.loc 1 194 5 discriminator 34 view .LVU465
 1805 0a64 02F58062 		add	r2, r2, #1024
 1806 0a68 9342     		cmp	r3, r2
 1807 0a6a 2DD0     		beq	.L220
 194:Drivers/STM32F7xx_HAL_Driver/Src/stm32f7xx_hal_dma_ex.c ****     __HAL_DMA_CLEAR_FLAG (hdma, __HAL_DMA_GET_FE_FLAG_INDEX(hdma));
 1808              		.loc 1 194 5 discriminator 36 view .LVU466
 1809 0a6c A2F58962 		sub	r2, r2, #1096
 1810 0a70 9342     		cmp	r3, r2
 1811 0a72 2BD0     		beq	.L221
 194:Drivers/STM32F7xx_HAL_Driver/Src/stm32f7xx_hal_dma_ex.c ****     __HAL_DMA_CLEAR_FLAG (hdma, __HAL_DMA_GET_FE_FLAG_INDEX(hdma));
 1812              		.loc 1 194 5 discriminator 38 view .LVU467
 1813 0a74 02F58062 		add	r2, r2, #1024
 1814 0a78 9342     		cmp	r3, r2
 1815 0a7a 2AD0     		beq	.L222
 194:Drivers/STM32F7xx_HAL_Driver/Src/stm32f7xx_hal_dma_ex.c ****     __HAL_DMA_CLEAR_FLAG (hdma, __HAL_DMA_GET_FE_FLAG_INDEX(hdma));
 1816              		.loc 1 194 5 discriminator 40 view .LVU468
 1817 0a7c A2F56872 		sub	r2, r2, #928
 1818 0a80 9342     		cmp	r3, r2
 1819 0a82 29D0     		beq	.L223
 194:Drivers/STM32F7xx_HAL_Driver/Src/stm32f7xx_hal_dma_ex.c ****     __HAL_DMA_CLEAR_FLAG (hdma, __HAL_DMA_GET_FE_FLAG_INDEX(hdma));
 1820              		.loc 1 194 5 discriminator 42 view .LVU469
ARM GAS  /tmp/cc1lRkNS.s 			page 46


 1821 0a84 02F58062 		add	r2, r2, #1024
 1822 0a88 9342     		cmp	r3, r2
 1823 0a8a 28D0     		beq	.L224
 194:Drivers/STM32F7xx_HAL_Driver/Src/stm32f7xx_hal_dma_ex.c ****     __HAL_DMA_CLEAR_FLAG (hdma, __HAL_DMA_GET_FE_FLAG_INDEX(hdma));
 1824              		.loc 1 194 5 discriminator 44 view .LVU470
 1825 0a8c A2F58962 		sub	r2, r2, #1096
 1826 0a90 9342     		cmp	r3, r2
 1827 0a92 27D0     		beq	.L225
 194:Drivers/STM32F7xx_HAL_Driver/Src/stm32f7xx_hal_dma_ex.c ****     __HAL_DMA_CLEAR_FLAG (hdma, __HAL_DMA_GET_FE_FLAG_INDEX(hdma));
 1828              		.loc 1 194 5 discriminator 46 view .LVU471
 1829 0a94 02F58062 		add	r2, r2, #1024
 1830 0a98 9342     		cmp	r3, r2
 1831 0a9a 26D0     		beq	.L226
 194:Drivers/STM32F7xx_HAL_Driver/Src/stm32f7xx_hal_dma_ex.c ****     __HAL_DMA_CLEAR_FLAG (hdma, __HAL_DMA_GET_FE_FLAG_INDEX(hdma));
 1832              		.loc 1 194 5 discriminator 48 view .LVU472
 1833 0a9c A2F56872 		sub	r2, r2, #928
 1834 0aa0 9342     		cmp	r3, r2
 1835 0aa2 25D0     		beq	.L227
 194:Drivers/STM32F7xx_HAL_Driver/Src/stm32f7xx_hal_dma_ex.c ****     __HAL_DMA_CLEAR_FLAG (hdma, __HAL_DMA_GET_FE_FLAG_INDEX(hdma));
 1836              		.loc 1 194 5 discriminator 50 view .LVU473
 1837 0aa4 02F58062 		add	r2, r2, #1024
 1838 0aa8 9342     		cmp	r3, r2
 1839 0aaa 02D0     		beq	.L318
 194:Drivers/STM32F7xx_HAL_Driver/Src/stm32f7xx_hal_dma_ex.c ****     __HAL_DMA_CLEAR_FLAG (hdma, __HAL_DMA_GET_FE_FLAG_INDEX(hdma));
 1840              		.loc 1 194 5 discriminator 53 view .LVU474
 1841 0aac 4FF08072 		mov	r2, #16777216
 1842 0ab0 03E0     		b	.L46
 1843              	.L318:
 194:Drivers/STM32F7xx_HAL_Driver/Src/stm32f7xx_hal_dma_ex.c ****     __HAL_DMA_CLEAR_FLAG (hdma, __HAL_DMA_GET_FE_FLAG_INDEX(hdma));
 1844              		.loc 1 194 5 discriminator 52 view .LVU475
 1845 0ab2 4FF48022 		mov	r2, #262144
 1846 0ab6 00E0     		b	.L46
 1847              	.L217:
 194:Drivers/STM32F7xx_HAL_Driver/Src/stm32f7xx_hal_dma_ex.c ****     __HAL_DMA_CLEAR_FLAG (hdma, __HAL_DMA_GET_FE_FLAG_INDEX(hdma));
 1848              		.loc 1 194 5 discriminator 31 view .LVU476
 1849 0ab8 0422     		movs	r2, #4
 1850              	.L46:
 194:Drivers/STM32F7xx_HAL_Driver/Src/stm32f7xx_hal_dma_ex.c ****     __HAL_DMA_CLEAR_FLAG (hdma, __HAL_DMA_GET_FE_FLAG_INDEX(hdma));
 1851              		.loc 1 194 5 discriminator 54 view .LVU477
 1852 0aba 3B4B     		ldr	r3, .L331+8
 1853 0abc 9A60     		str	r2, [r3, #8]
 1854 0abe 64E7     		b	.L44
 1855              	.L218:
 194:Drivers/STM32F7xx_HAL_Driver/Src/stm32f7xx_hal_dma_ex.c ****     __HAL_DMA_CLEAR_FLAG (hdma, __HAL_DMA_GET_FE_FLAG_INDEX(hdma));
 1856              		.loc 1 194 5 discriminator 33 view .LVU478
 1857 0ac0 0422     		movs	r2, #4
 1858 0ac2 FAE7     		b	.L46
 1859              	.L219:
 194:Drivers/STM32F7xx_HAL_Driver/Src/stm32f7xx_hal_dma_ex.c ****     __HAL_DMA_CLEAR_FLAG (hdma, __HAL_DMA_GET_FE_FLAG_INDEX(hdma));
 1860              		.loc 1 194 5 discriminator 35 view .LVU479
 1861 0ac4 0422     		movs	r2, #4
 1862 0ac6 F8E7     		b	.L46
 1863              	.L220:
 194:Drivers/STM32F7xx_HAL_Driver/Src/stm32f7xx_hal_dma_ex.c ****     __HAL_DMA_CLEAR_FLAG (hdma, __HAL_DMA_GET_FE_FLAG_INDEX(hdma));
 1864              		.loc 1 194 5 discriminator 37 view .LVU480
 1865 0ac8 0422     		movs	r2, #4
 1866 0aca F6E7     		b	.L46
ARM GAS  /tmp/cc1lRkNS.s 			page 47


 1867              	.L221:
 194:Drivers/STM32F7xx_HAL_Driver/Src/stm32f7xx_hal_dma_ex.c ****     __HAL_DMA_CLEAR_FLAG (hdma, __HAL_DMA_GET_FE_FLAG_INDEX(hdma));
 1868              		.loc 1 194 5 discriminator 39 view .LVU481
 1869 0acc 4FF48072 		mov	r2, #256
 1870 0ad0 F3E7     		b	.L46
 1871              	.L222:
 194:Drivers/STM32F7xx_HAL_Driver/Src/stm32f7xx_hal_dma_ex.c ****     __HAL_DMA_CLEAR_FLAG (hdma, __HAL_DMA_GET_FE_FLAG_INDEX(hdma));
 1872              		.loc 1 194 5 discriminator 41 view .LVU482
 1873 0ad2 4FF48072 		mov	r2, #256
 1874 0ad6 F0E7     		b	.L46
 1875              	.L223:
 194:Drivers/STM32F7xx_HAL_Driver/Src/stm32f7xx_hal_dma_ex.c ****     __HAL_DMA_CLEAR_FLAG (hdma, __HAL_DMA_GET_FE_FLAG_INDEX(hdma));
 1876              		.loc 1 194 5 discriminator 43 view .LVU483
 1877 0ad8 4FF48072 		mov	r2, #256
 1878 0adc EDE7     		b	.L46
 1879              	.L224:
 194:Drivers/STM32F7xx_HAL_Driver/Src/stm32f7xx_hal_dma_ex.c ****     __HAL_DMA_CLEAR_FLAG (hdma, __HAL_DMA_GET_FE_FLAG_INDEX(hdma));
 1880              		.loc 1 194 5 discriminator 45 view .LVU484
 1881 0ade 4FF48072 		mov	r2, #256
 1882 0ae2 EAE7     		b	.L46
 1883              	.L225:
 194:Drivers/STM32F7xx_HAL_Driver/Src/stm32f7xx_hal_dma_ex.c ****     __HAL_DMA_CLEAR_FLAG (hdma, __HAL_DMA_GET_FE_FLAG_INDEX(hdma));
 1884              		.loc 1 194 5 discriminator 47 view .LVU485
 1885 0ae4 4FF48022 		mov	r2, #262144
 1886 0ae8 E7E7     		b	.L46
 1887              	.L226:
 194:Drivers/STM32F7xx_HAL_Driver/Src/stm32f7xx_hal_dma_ex.c ****     __HAL_DMA_CLEAR_FLAG (hdma, __HAL_DMA_GET_FE_FLAG_INDEX(hdma));
 1888              		.loc 1 194 5 discriminator 49 view .LVU486
 1889 0aea 4FF48022 		mov	r2, #262144
 1890 0aee E4E7     		b	.L46
 1891              	.L227:
 194:Drivers/STM32F7xx_HAL_Driver/Src/stm32f7xx_hal_dma_ex.c ****     __HAL_DMA_CLEAR_FLAG (hdma, __HAL_DMA_GET_FE_FLAG_INDEX(hdma));
 1892              		.loc 1 194 5 discriminator 51 view .LVU487
 1893 0af0 4FF48022 		mov	r2, #262144
 1894 0af4 E1E7     		b	.L46
 1895              	.L45:
 194:Drivers/STM32F7xx_HAL_Driver/Src/stm32f7xx_hal_dma_ex.c ****     __HAL_DMA_CLEAR_FLAG (hdma, __HAL_DMA_GET_FE_FLAG_INDEX(hdma));
 1896              		.loc 1 194 5 discriminator 29 view .LVU488
 1897 0af6 2F4A     		ldr	r2, .L331+20
 1898 0af8 9342     		cmp	r3, r2
 1899 0afa 60D9     		bls	.L47
 194:Drivers/STM32F7xx_HAL_Driver/Src/stm32f7xx_hal_dma_ex.c ****     __HAL_DMA_CLEAR_FLAG (hdma, __HAL_DMA_GET_FE_FLAG_INDEX(hdma));
 1900              		.loc 1 194 5 discriminator 55 view .LVU489
 1901 0afc 483A     		subs	r2, r2, #72
 1902 0afe 9342     		cmp	r3, r2
 1903 0b00 31D0     		beq	.L229
 194:Drivers/STM32F7xx_HAL_Driver/Src/stm32f7xx_hal_dma_ex.c ****     __HAL_DMA_CLEAR_FLAG (hdma, __HAL_DMA_GET_FE_FLAG_INDEX(hdma));
 1904              		.loc 1 194 5 discriminator 57 view .LVU490
 1905 0b02 02F58062 		add	r2, r2, #1024
 1906 0b06 9342     		cmp	r3, r2
 1907 0b08 31D0     		beq	.L230
 194:Drivers/STM32F7xx_HAL_Driver/Src/stm32f7xx_hal_dma_ex.c ****     __HAL_DMA_CLEAR_FLAG (hdma, __HAL_DMA_GET_FE_FLAG_INDEX(hdma));
 1908              		.loc 1 194 5 discriminator 59 view .LVU491
 1909 0b0a A2F56872 		sub	r2, r2, #928
 1910 0b0e 9342     		cmp	r3, r2
 1911 0b10 2FD0     		beq	.L231
 194:Drivers/STM32F7xx_HAL_Driver/Src/stm32f7xx_hal_dma_ex.c ****     __HAL_DMA_CLEAR_FLAG (hdma, __HAL_DMA_GET_FE_FLAG_INDEX(hdma));
ARM GAS  /tmp/cc1lRkNS.s 			page 48


 1912              		.loc 1 194 5 discriminator 61 view .LVU492
 1913 0b12 02F58062 		add	r2, r2, #1024
 1914 0b16 9342     		cmp	r3, r2
 1915 0b18 2DD0     		beq	.L232
 194:Drivers/STM32F7xx_HAL_Driver/Src/stm32f7xx_hal_dma_ex.c ****     __HAL_DMA_CLEAR_FLAG (hdma, __HAL_DMA_GET_FE_FLAG_INDEX(hdma));
 1916              		.loc 1 194 5 discriminator 63 view .LVU493
 1917 0b1a A2F58962 		sub	r2, r2, #1096
 1918 0b1e 9342     		cmp	r3, r2
 1919 0b20 2BD0     		beq	.L233
 194:Drivers/STM32F7xx_HAL_Driver/Src/stm32f7xx_hal_dma_ex.c ****     __HAL_DMA_CLEAR_FLAG (hdma, __HAL_DMA_GET_FE_FLAG_INDEX(hdma));
 1920              		.loc 1 194 5 discriminator 65 view .LVU494
 1921 0b22 02F58062 		add	r2, r2, #1024
 1922 0b26 9342     		cmp	r3, r2
 1923 0b28 2AD0     		beq	.L234
 194:Drivers/STM32F7xx_HAL_Driver/Src/stm32f7xx_hal_dma_ex.c ****     __HAL_DMA_CLEAR_FLAG (hdma, __HAL_DMA_GET_FE_FLAG_INDEX(hdma));
 1924              		.loc 1 194 5 discriminator 67 view .LVU495
 1925 0b2a A2F56872 		sub	r2, r2, #928
 1926 0b2e 9342     		cmp	r3, r2
 1927 0b30 29D0     		beq	.L235
 194:Drivers/STM32F7xx_HAL_Driver/Src/stm32f7xx_hal_dma_ex.c ****     __HAL_DMA_CLEAR_FLAG (hdma, __HAL_DMA_GET_FE_FLAG_INDEX(hdma));
 1928              		.loc 1 194 5 discriminator 69 view .LVU496
 1929 0b32 02F58062 		add	r2, r2, #1024
 1930 0b36 9342     		cmp	r3, r2
 1931 0b38 28D0     		beq	.L236
 194:Drivers/STM32F7xx_HAL_Driver/Src/stm32f7xx_hal_dma_ex.c ****     __HAL_DMA_CLEAR_FLAG (hdma, __HAL_DMA_GET_FE_FLAG_INDEX(hdma));
 1932              		.loc 1 194 5 discriminator 71 view .LVU497
 1933 0b3a A2F58962 		sub	r2, r2, #1096
 1934 0b3e 9342     		cmp	r3, r2
 1935 0b40 27D0     		beq	.L237
 194:Drivers/STM32F7xx_HAL_Driver/Src/stm32f7xx_hal_dma_ex.c ****     __HAL_DMA_CLEAR_FLAG (hdma, __HAL_DMA_GET_FE_FLAG_INDEX(hdma));
 1936              		.loc 1 194 5 discriminator 73 view .LVU498
 1937 0b42 02F58062 		add	r2, r2, #1024
 1938 0b46 9342     		cmp	r3, r2
 1939 0b48 26D0     		beq	.L238
 194:Drivers/STM32F7xx_HAL_Driver/Src/stm32f7xx_hal_dma_ex.c ****     __HAL_DMA_CLEAR_FLAG (hdma, __HAL_DMA_GET_FE_FLAG_INDEX(hdma));
 1940              		.loc 1 194 5 discriminator 75 view .LVU499
 1941 0b4a A2F56872 		sub	r2, r2, #928
 1942 0b4e 9342     		cmp	r3, r2
 1943 0b50 32D0     		beq	.L239
 194:Drivers/STM32F7xx_HAL_Driver/Src/stm32f7xx_hal_dma_ex.c ****     __HAL_DMA_CLEAR_FLAG (hdma, __HAL_DMA_GET_FE_FLAG_INDEX(hdma));
 1944              		.loc 1 194 5 discriminator 77 view .LVU500
 1945 0b52 02F58062 		add	r2, r2, #1024
 1946 0b56 9342     		cmp	r3, r2
 1947 0b58 02D0     		beq	.L319
 194:Drivers/STM32F7xx_HAL_Driver/Src/stm32f7xx_hal_dma_ex.c ****     __HAL_DMA_CLEAR_FLAG (hdma, __HAL_DMA_GET_FE_FLAG_INDEX(hdma));
 1948              		.loc 1 194 5 discriminator 80 view .LVU501
 1949 0b5a 4FF08073 		mov	r3, #16777216
 1950 0b5e 03E0     		b	.L48
 1951              	.L319:
 194:Drivers/STM32F7xx_HAL_Driver/Src/stm32f7xx_hal_dma_ex.c ****     __HAL_DMA_CLEAR_FLAG (hdma, __HAL_DMA_GET_FE_FLAG_INDEX(hdma));
 1952              		.loc 1 194 5 discriminator 79 view .LVU502
 1953 0b60 4FF48023 		mov	r3, #262144
 1954 0b64 00E0     		b	.L48
 1955              	.L229:
 194:Drivers/STM32F7xx_HAL_Driver/Src/stm32f7xx_hal_dma_ex.c ****     __HAL_DMA_CLEAR_FLAG (hdma, __HAL_DMA_GET_FE_FLAG_INDEX(hdma));
 1956              		.loc 1 194 5 discriminator 58 view .LVU503
 1957 0b66 0423     		movs	r3, #4
ARM GAS  /tmp/cc1lRkNS.s 			page 49


 1958              	.L48:
 194:Drivers/STM32F7xx_HAL_Driver/Src/stm32f7xx_hal_dma_ex.c ****     __HAL_DMA_CLEAR_FLAG (hdma, __HAL_DMA_GET_FE_FLAG_INDEX(hdma));
 1959              		.loc 1 194 5 discriminator 81 view .LVU504
 1960 0b68 0E4A     		ldr	r2, .L331+4
 1961 0b6a D360     		str	r3, [r2, #12]
 1962 0b6c 0DE7     		b	.L44
 1963              	.L230:
 194:Drivers/STM32F7xx_HAL_Driver/Src/stm32f7xx_hal_dma_ex.c ****     __HAL_DMA_CLEAR_FLAG (hdma, __HAL_DMA_GET_FE_FLAG_INDEX(hdma));
 1964              		.loc 1 194 5 discriminator 60 view .LVU505
 1965 0b6e 0423     		movs	r3, #4
 1966 0b70 FAE7     		b	.L48
 1967              	.L231:
 194:Drivers/STM32F7xx_HAL_Driver/Src/stm32f7xx_hal_dma_ex.c ****     __HAL_DMA_CLEAR_FLAG (hdma, __HAL_DMA_GET_FE_FLAG_INDEX(hdma));
 1968              		.loc 1 194 5 discriminator 62 view .LVU506
 1969 0b72 0423     		movs	r3, #4
 1970 0b74 F8E7     		b	.L48
 1971              	.L232:
 194:Drivers/STM32F7xx_HAL_Driver/Src/stm32f7xx_hal_dma_ex.c ****     __HAL_DMA_CLEAR_FLAG (hdma, __HAL_DMA_GET_FE_FLAG_INDEX(hdma));
 1972              		.loc 1 194 5 discriminator 64 view .LVU507
 1973 0b76 0423     		movs	r3, #4
 1974 0b78 F6E7     		b	.L48
 1975              	.L233:
 194:Drivers/STM32F7xx_HAL_Driver/Src/stm32f7xx_hal_dma_ex.c ****     __HAL_DMA_CLEAR_FLAG (hdma, __HAL_DMA_GET_FE_FLAG_INDEX(hdma));
 1976              		.loc 1 194 5 discriminator 66 view .LVU508
 1977 0b7a 4FF48073 		mov	r3, #256
 1978 0b7e F3E7     		b	.L48
 1979              	.L234:
 194:Drivers/STM32F7xx_HAL_Driver/Src/stm32f7xx_hal_dma_ex.c ****     __HAL_DMA_CLEAR_FLAG (hdma, __HAL_DMA_GET_FE_FLAG_INDEX(hdma));
 1980              		.loc 1 194 5 discriminator 68 view .LVU509
 1981 0b80 4FF48073 		mov	r3, #256
 1982 0b84 F0E7     		b	.L48
 1983              	.L235:
 194:Drivers/STM32F7xx_HAL_Driver/Src/stm32f7xx_hal_dma_ex.c ****     __HAL_DMA_CLEAR_FLAG (hdma, __HAL_DMA_GET_FE_FLAG_INDEX(hdma));
 1984              		.loc 1 194 5 discriminator 70 view .LVU510
 1985 0b86 4FF48073 		mov	r3, #256
 1986 0b8a EDE7     		b	.L48
 1987              	.L236:
 194:Drivers/STM32F7xx_HAL_Driver/Src/stm32f7xx_hal_dma_ex.c ****     __HAL_DMA_CLEAR_FLAG (hdma, __HAL_DMA_GET_FE_FLAG_INDEX(hdma));
 1988              		.loc 1 194 5 discriminator 72 view .LVU511
 1989 0b8c 4FF48073 		mov	r3, #256
 1990 0b90 EAE7     		b	.L48
 1991              	.L237:
 194:Drivers/STM32F7xx_HAL_Driver/Src/stm32f7xx_hal_dma_ex.c ****     __HAL_DMA_CLEAR_FLAG (hdma, __HAL_DMA_GET_FE_FLAG_INDEX(hdma));
 1992              		.loc 1 194 5 discriminator 74 view .LVU512
 1993 0b92 4FF48023 		mov	r3, #262144
 1994 0b96 E7E7     		b	.L48
 1995              	.L238:
 194:Drivers/STM32F7xx_HAL_Driver/Src/stm32f7xx_hal_dma_ex.c ****     __HAL_DMA_CLEAR_FLAG (hdma, __HAL_DMA_GET_FE_FLAG_INDEX(hdma));
 1996              		.loc 1 194 5 discriminator 76 view .LVU513
 1997 0b98 4FF48023 		mov	r3, #262144
 1998 0b9c E4E7     		b	.L48
 1999              	.L332:
 2000 0b9e 00BF     		.align	2
 2001              	.L331:
 2002 0ba0 10600240 		.word	1073897488
 2003 0ba4 00600240 		.word	1073897472
 2004 0ba8 00640240 		.word	1073898496
ARM GAS  /tmp/cc1lRkNS.s 			page 50


 2005 0bac 58640240 		.word	1073898584
 2006 0bb0 B8600240 		.word	1073897656
 2007 0bb4 58600240 		.word	1073897560
 2008              	.L239:
 194:Drivers/STM32F7xx_HAL_Driver/Src/stm32f7xx_hal_dma_ex.c ****     __HAL_DMA_CLEAR_FLAG (hdma, __HAL_DMA_GET_FE_FLAG_INDEX(hdma));
 2009              		.loc 1 194 5 discriminator 78 view .LVU514
 2010 0bb8 4FF48023 		mov	r3, #262144
 2011 0bbc D4E7     		b	.L48
 2012              	.L47:
 194:Drivers/STM32F7xx_HAL_Driver/Src/stm32f7xx_hal_dma_ex.c ****     __HAL_DMA_CLEAR_FLAG (hdma, __HAL_DMA_GET_FE_FLAG_INDEX(hdma));
 2013              		.loc 1 194 5 discriminator 56 view .LVU515
 2014 0bbe 994A     		ldr	r2, .L333
 2015 0bc0 9342     		cmp	r3, r2
 2016 0bc2 31D0     		beq	.L241
 194:Drivers/STM32F7xx_HAL_Driver/Src/stm32f7xx_hal_dma_ex.c ****     __HAL_DMA_CLEAR_FLAG (hdma, __HAL_DMA_GET_FE_FLAG_INDEX(hdma));
 2017              		.loc 1 194 5 discriminator 82 view .LVU516
 2018 0bc4 02F58062 		add	r2, r2, #1024
 2019 0bc8 9342     		cmp	r3, r2
 2020 0bca 31D0     		beq	.L242
 194:Drivers/STM32F7xx_HAL_Driver/Src/stm32f7xx_hal_dma_ex.c ****     __HAL_DMA_CLEAR_FLAG (hdma, __HAL_DMA_GET_FE_FLAG_INDEX(hdma));
 2021              		.loc 1 194 5 discriminator 84 view .LVU517
 2022 0bcc A2F56872 		sub	r2, r2, #928
 2023 0bd0 9342     		cmp	r3, r2
 2024 0bd2 2FD0     		beq	.L243
 194:Drivers/STM32F7xx_HAL_Driver/Src/stm32f7xx_hal_dma_ex.c ****     __HAL_DMA_CLEAR_FLAG (hdma, __HAL_DMA_GET_FE_FLAG_INDEX(hdma));
 2025              		.loc 1 194 5 discriminator 86 view .LVU518
 2026 0bd4 02F58062 		add	r2, r2, #1024
 2027 0bd8 9342     		cmp	r3, r2
 2028 0bda 2DD0     		beq	.L244
 194:Drivers/STM32F7xx_HAL_Driver/Src/stm32f7xx_hal_dma_ex.c ****     __HAL_DMA_CLEAR_FLAG (hdma, __HAL_DMA_GET_FE_FLAG_INDEX(hdma));
 2029              		.loc 1 194 5 discriminator 88 view .LVU519
 2030 0bdc A2F58962 		sub	r2, r2, #1096
 2031 0be0 9342     		cmp	r3, r2
 2032 0be2 2BD0     		beq	.L245
 194:Drivers/STM32F7xx_HAL_Driver/Src/stm32f7xx_hal_dma_ex.c ****     __HAL_DMA_CLEAR_FLAG (hdma, __HAL_DMA_GET_FE_FLAG_INDEX(hdma));
 2033              		.loc 1 194 5 discriminator 90 view .LVU520
 2034 0be4 02F58062 		add	r2, r2, #1024
 2035 0be8 9342     		cmp	r3, r2
 2036 0bea 2AD0     		beq	.L246
 194:Drivers/STM32F7xx_HAL_Driver/Src/stm32f7xx_hal_dma_ex.c ****     __HAL_DMA_CLEAR_FLAG (hdma, __HAL_DMA_GET_FE_FLAG_INDEX(hdma));
 2037              		.loc 1 194 5 discriminator 92 view .LVU521
 2038 0bec A2F56872 		sub	r2, r2, #928
 2039 0bf0 9342     		cmp	r3, r2
 2040 0bf2 29D0     		beq	.L247
 194:Drivers/STM32F7xx_HAL_Driver/Src/stm32f7xx_hal_dma_ex.c ****     __HAL_DMA_CLEAR_FLAG (hdma, __HAL_DMA_GET_FE_FLAG_INDEX(hdma));
 2041              		.loc 1 194 5 discriminator 94 view .LVU522
 2042 0bf4 02F58062 		add	r2, r2, #1024
 2043 0bf8 9342     		cmp	r3, r2
 2044 0bfa 28D0     		beq	.L248
 194:Drivers/STM32F7xx_HAL_Driver/Src/stm32f7xx_hal_dma_ex.c ****     __HAL_DMA_CLEAR_FLAG (hdma, __HAL_DMA_GET_FE_FLAG_INDEX(hdma));
 2045              		.loc 1 194 5 discriminator 96 view .LVU523
 2046 0bfc A2F58962 		sub	r2, r2, #1096
 2047 0c00 9342     		cmp	r3, r2
 2048 0c02 27D0     		beq	.L249
 194:Drivers/STM32F7xx_HAL_Driver/Src/stm32f7xx_hal_dma_ex.c ****     __HAL_DMA_CLEAR_FLAG (hdma, __HAL_DMA_GET_FE_FLAG_INDEX(hdma));
 2049              		.loc 1 194 5 discriminator 98 view .LVU524
 2050 0c04 02F58062 		add	r2, r2, #1024
ARM GAS  /tmp/cc1lRkNS.s 			page 51


 2051 0c08 9342     		cmp	r3, r2
 2052 0c0a 26D0     		beq	.L250
 194:Drivers/STM32F7xx_HAL_Driver/Src/stm32f7xx_hal_dma_ex.c ****     __HAL_DMA_CLEAR_FLAG (hdma, __HAL_DMA_GET_FE_FLAG_INDEX(hdma));
 2053              		.loc 1 194 5 discriminator 100 view .LVU525
 2054 0c0c A2F56872 		sub	r2, r2, #928
 2055 0c10 9342     		cmp	r3, r2
 2056 0c12 25D0     		beq	.L251
 194:Drivers/STM32F7xx_HAL_Driver/Src/stm32f7xx_hal_dma_ex.c ****     __HAL_DMA_CLEAR_FLAG (hdma, __HAL_DMA_GET_FE_FLAG_INDEX(hdma));
 2057              		.loc 1 194 5 discriminator 102 view .LVU526
 2058 0c14 02F58062 		add	r2, r2, #1024
 2059 0c18 9342     		cmp	r3, r2
 2060 0c1a 02D0     		beq	.L320
 194:Drivers/STM32F7xx_HAL_Driver/Src/stm32f7xx_hal_dma_ex.c ****     __HAL_DMA_CLEAR_FLAG (hdma, __HAL_DMA_GET_FE_FLAG_INDEX(hdma));
 2061              		.loc 1 194 5 discriminator 105 view .LVU527
 2062 0c1c 4FF08073 		mov	r3, #16777216
 2063 0c20 03E0     		b	.L49
 2064              	.L320:
 194:Drivers/STM32F7xx_HAL_Driver/Src/stm32f7xx_hal_dma_ex.c ****     __HAL_DMA_CLEAR_FLAG (hdma, __HAL_DMA_GET_FE_FLAG_INDEX(hdma));
 2065              		.loc 1 194 5 discriminator 104 view .LVU528
 2066 0c22 4FF48023 		mov	r3, #262144
 2067 0c26 00E0     		b	.L49
 2068              	.L241:
 194:Drivers/STM32F7xx_HAL_Driver/Src/stm32f7xx_hal_dma_ex.c ****     __HAL_DMA_CLEAR_FLAG (hdma, __HAL_DMA_GET_FE_FLAG_INDEX(hdma));
 2069              		.loc 1 194 5 discriminator 83 view .LVU529
 2070 0c28 0423     		movs	r3, #4
 2071              	.L49:
 194:Drivers/STM32F7xx_HAL_Driver/Src/stm32f7xx_hal_dma_ex.c ****     __HAL_DMA_CLEAR_FLAG (hdma, __HAL_DMA_GET_FE_FLAG_INDEX(hdma));
 2072              		.loc 1 194 5 discriminator 106 view .LVU530
 2073 0c2a 7F4A     		ldr	r2, .L333+4
 2074 0c2c 9360     		str	r3, [r2, #8]
 2075 0c2e ACE6     		b	.L44
 2076              	.L242:
 194:Drivers/STM32F7xx_HAL_Driver/Src/stm32f7xx_hal_dma_ex.c ****     __HAL_DMA_CLEAR_FLAG (hdma, __HAL_DMA_GET_FE_FLAG_INDEX(hdma));
 2077              		.loc 1 194 5 discriminator 85 view .LVU531
 2078 0c30 0423     		movs	r3, #4
 2079 0c32 FAE7     		b	.L49
 2080              	.L243:
 194:Drivers/STM32F7xx_HAL_Driver/Src/stm32f7xx_hal_dma_ex.c ****     __HAL_DMA_CLEAR_FLAG (hdma, __HAL_DMA_GET_FE_FLAG_INDEX(hdma));
 2081              		.loc 1 194 5 discriminator 87 view .LVU532
 2082 0c34 0423     		movs	r3, #4
 2083 0c36 F8E7     		b	.L49
 2084              	.L244:
 194:Drivers/STM32F7xx_HAL_Driver/Src/stm32f7xx_hal_dma_ex.c ****     __HAL_DMA_CLEAR_FLAG (hdma, __HAL_DMA_GET_FE_FLAG_INDEX(hdma));
 2085              		.loc 1 194 5 discriminator 89 view .LVU533
 2086 0c38 0423     		movs	r3, #4
 2087 0c3a F6E7     		b	.L49
 2088              	.L245:
 194:Drivers/STM32F7xx_HAL_Driver/Src/stm32f7xx_hal_dma_ex.c ****     __HAL_DMA_CLEAR_FLAG (hdma, __HAL_DMA_GET_FE_FLAG_INDEX(hdma));
 2089              		.loc 1 194 5 discriminator 91 view .LVU534
 2090 0c3c 4FF48073 		mov	r3, #256
 2091 0c40 F3E7     		b	.L49
 2092              	.L246:
 194:Drivers/STM32F7xx_HAL_Driver/Src/stm32f7xx_hal_dma_ex.c ****     __HAL_DMA_CLEAR_FLAG (hdma, __HAL_DMA_GET_FE_FLAG_INDEX(hdma));
 2093              		.loc 1 194 5 discriminator 93 view .LVU535
 2094 0c42 4FF48073 		mov	r3, #256
 2095 0c46 F0E7     		b	.L49
 2096              	.L247:
ARM GAS  /tmp/cc1lRkNS.s 			page 52


 194:Drivers/STM32F7xx_HAL_Driver/Src/stm32f7xx_hal_dma_ex.c ****     __HAL_DMA_CLEAR_FLAG (hdma, __HAL_DMA_GET_FE_FLAG_INDEX(hdma));
 2097              		.loc 1 194 5 discriminator 95 view .LVU536
 2098 0c48 4FF48073 		mov	r3, #256
 2099 0c4c EDE7     		b	.L49
 2100              	.L248:
 194:Drivers/STM32F7xx_HAL_Driver/Src/stm32f7xx_hal_dma_ex.c ****     __HAL_DMA_CLEAR_FLAG (hdma, __HAL_DMA_GET_FE_FLAG_INDEX(hdma));
 2101              		.loc 1 194 5 discriminator 97 view .LVU537
 2102 0c4e 4FF48073 		mov	r3, #256
 2103 0c52 EAE7     		b	.L49
 2104              	.L249:
 194:Drivers/STM32F7xx_HAL_Driver/Src/stm32f7xx_hal_dma_ex.c ****     __HAL_DMA_CLEAR_FLAG (hdma, __HAL_DMA_GET_FE_FLAG_INDEX(hdma));
 2105              		.loc 1 194 5 discriminator 99 view .LVU538
 2106 0c54 4FF48023 		mov	r3, #262144
 2107 0c58 E7E7     		b	.L49
 2108              	.L250:
 194:Drivers/STM32F7xx_HAL_Driver/Src/stm32f7xx_hal_dma_ex.c ****     __HAL_DMA_CLEAR_FLAG (hdma, __HAL_DMA_GET_FE_FLAG_INDEX(hdma));
 2109              		.loc 1 194 5 discriminator 101 view .LVU539
 2110 0c5a 4FF48023 		mov	r3, #262144
 2111 0c5e E4E7     		b	.L49
 2112              	.L251:
 194:Drivers/STM32F7xx_HAL_Driver/Src/stm32f7xx_hal_dma_ex.c ****     __HAL_DMA_CLEAR_FLAG (hdma, __HAL_DMA_GET_FE_FLAG_INDEX(hdma));
 2113              		.loc 1 194 5 discriminator 103 view .LVU540
 2114 0c60 4FF48023 		mov	r3, #262144
 2115 0c64 E1E7     		b	.L49
 2116              	.L317:
 195:Drivers/STM32F7xx_HAL_Driver/Src/stm32f7xx_hal_dma_ex.c ****     
 2117              		.loc 1 195 5 discriminator 25 view .LVU541
 2118 0c66 4FF48032 		mov	r2, #65536
 2119 0c6a 00E0     		b	.L51
 2120              	.L253:
 195:Drivers/STM32F7xx_HAL_Driver/Src/stm32f7xx_hal_dma_ex.c ****     
 2121              		.loc 1 195 5 discriminator 4 view .LVU542
 2122 0c6c 0122     		movs	r2, #1
 2123              	.L51:
 195:Drivers/STM32F7xx_HAL_Driver/Src/stm32f7xx_hal_dma_ex.c ****     
 2124              		.loc 1 195 5 discriminator 27 view .LVU543
 2125 0c6e 6F4B     		ldr	r3, .L333+8
 2126 0c70 DA60     		str	r2, [r3, #12]
 2127              	.L52:
 198:Drivers/STM32F7xx_HAL_Driver/Src/stm32f7xx_hal_dma_ex.c ****     hdma->Instance->FCR |= DMA_IT_FE;
 2128              		.loc 1 198 5 is_stmt 1 view .LVU544
 198:Drivers/STM32F7xx_HAL_Driver/Src/stm32f7xx_hal_dma_ex.c ****     hdma->Instance->FCR |= DMA_IT_FE;
 2129              		.loc 1 198 9 is_stmt 0 view .LVU545
 2130 0c72 2268     		ldr	r2, [r4]
 198:Drivers/STM32F7xx_HAL_Driver/Src/stm32f7xx_hal_dma_ex.c ****     hdma->Instance->FCR |= DMA_IT_FE;
 2131              		.loc 1 198 19 view .LVU546
 2132 0c74 1368     		ldr	r3, [r2]
 198:Drivers/STM32F7xx_HAL_Driver/Src/stm32f7xx_hal_dma_ex.c ****     hdma->Instance->FCR |= DMA_IT_FE;
 2133              		.loc 1 198 25 view .LVU547
 2134 0c76 43F01603 		orr	r3, r3, #22
 2135 0c7a 1360     		str	r3, [r2]
 199:Drivers/STM32F7xx_HAL_Driver/Src/stm32f7xx_hal_dma_ex.c ****     
 2136              		.loc 1 199 5 is_stmt 1 view .LVU548
 199:Drivers/STM32F7xx_HAL_Driver/Src/stm32f7xx_hal_dma_ex.c ****     
 2137              		.loc 1 199 9 is_stmt 0 view .LVU549
 2138 0c7c 2268     		ldr	r2, [r4]
 199:Drivers/STM32F7xx_HAL_Driver/Src/stm32f7xx_hal_dma_ex.c ****     
ARM GAS  /tmp/cc1lRkNS.s 			page 53


 2139              		.loc 1 199 19 view .LVU550
 2140 0c7e 5369     		ldr	r3, [r2, #20]
 199:Drivers/STM32F7xx_HAL_Driver/Src/stm32f7xx_hal_dma_ex.c ****     
 2141              		.loc 1 199 25 view .LVU551
 2142 0c80 43F08003 		orr	r3, r3, #128
 2143 0c84 5361     		str	r3, [r2, #20]
 201:Drivers/STM32F7xx_HAL_Driver/Src/stm32f7xx_hal_dma_ex.c ****     {
 2144              		.loc 1 201 5 is_stmt 1 view .LVU552
 201:Drivers/STM32F7xx_HAL_Driver/Src/stm32f7xx_hal_dma_ex.c ****     {
 2145              		.loc 1 201 13 is_stmt 0 view .LVU553
 2146 0c86 236C     		ldr	r3, [r4, #64]
 201:Drivers/STM32F7xx_HAL_Driver/Src/stm32f7xx_hal_dma_ex.c ****     {
 2147              		.loc 1 201 7 view .LVU554
 2148 0c88 002B     		cmp	r3, #0
 2149 0c8a 00F02581 		beq	.L321
 2150              	.L58:
 203:Drivers/STM32F7xx_HAL_Driver/Src/stm32f7xx_hal_dma_ex.c ****     }
 2151              		.loc 1 203 7 is_stmt 1 view .LVU555
 203:Drivers/STM32F7xx_HAL_Driver/Src/stm32f7xx_hal_dma_ex.c ****     }
 2152              		.loc 1 203 11 is_stmt 0 view .LVU556
 2153 0c8e 2268     		ldr	r2, [r4]
 203:Drivers/STM32F7xx_HAL_Driver/Src/stm32f7xx_hal_dma_ex.c ****     }
 2154              		.loc 1 203 21 view .LVU557
 2155 0c90 1368     		ldr	r3, [r2]
 203:Drivers/STM32F7xx_HAL_Driver/Src/stm32f7xx_hal_dma_ex.c ****     }
 2156              		.loc 1 203 27 view .LVU558
 2157 0c92 43F00803 		orr	r3, r3, #8
 2158 0c96 1360     		str	r3, [r2]
 2159              	.L59:
 207:Drivers/STM32F7xx_HAL_Driver/Src/stm32f7xx_hal_dma_ex.c ****   }
 2160              		.loc 1 207 5 is_stmt 1 view .LVU559
 2161 0c98 2268     		ldr	r2, [r4]
 2162 0c9a 1368     		ldr	r3, [r2]
 2163 0c9c 43F00103 		orr	r3, r3, #1
 2164 0ca0 1360     		str	r3, [r2]
 158:Drivers/STM32F7xx_HAL_Driver/Src/stm32f7xx_hal_dma_ex.c ****   
 2165              		.loc 1 158 21 is_stmt 0 view .LVU560
 2166 0ca2 0020     		movs	r0, #0
 2167 0ca4 FFF7C1B9 		b	.L16
 2168              	.L254:
 195:Drivers/STM32F7xx_HAL_Driver/Src/stm32f7xx_hal_dma_ex.c ****     
 2169              		.loc 1 195 5 discriminator 6 view .LVU561
 2170 0ca8 0122     		movs	r2, #1
 2171 0caa E0E7     		b	.L51
 2172              	.L255:
 195:Drivers/STM32F7xx_HAL_Driver/Src/stm32f7xx_hal_dma_ex.c ****     
 2173              		.loc 1 195 5 discriminator 8 view .LVU562
 2174 0cac 0122     		movs	r2, #1
 2175 0cae DEE7     		b	.L51
 2176              	.L256:
 195:Drivers/STM32F7xx_HAL_Driver/Src/stm32f7xx_hal_dma_ex.c ****     
 2177              		.loc 1 195 5 discriminator 10 view .LVU563
 2178 0cb0 0122     		movs	r2, #1
 2179 0cb2 DCE7     		b	.L51
 2180              	.L257:
 195:Drivers/STM32F7xx_HAL_Driver/Src/stm32f7xx_hal_dma_ex.c ****     
 2181              		.loc 1 195 5 discriminator 12 view .LVU564
ARM GAS  /tmp/cc1lRkNS.s 			page 54


 2182 0cb4 4022     		movs	r2, #64
 2183 0cb6 DAE7     		b	.L51
 2184              	.L258:
 195:Drivers/STM32F7xx_HAL_Driver/Src/stm32f7xx_hal_dma_ex.c ****     
 2185              		.loc 1 195 5 discriminator 14 view .LVU565
 2186 0cb8 4022     		movs	r2, #64
 2187 0cba D8E7     		b	.L51
 2188              	.L259:
 195:Drivers/STM32F7xx_HAL_Driver/Src/stm32f7xx_hal_dma_ex.c ****     
 2189              		.loc 1 195 5 discriminator 16 view .LVU566
 2190 0cbc 4022     		movs	r2, #64
 2191 0cbe D6E7     		b	.L51
 2192              	.L260:
 195:Drivers/STM32F7xx_HAL_Driver/Src/stm32f7xx_hal_dma_ex.c ****     
 2193              		.loc 1 195 5 discriminator 18 view .LVU567
 2194 0cc0 4022     		movs	r2, #64
 2195 0cc2 D4E7     		b	.L51
 2196              	.L261:
 195:Drivers/STM32F7xx_HAL_Driver/Src/stm32f7xx_hal_dma_ex.c ****     
 2197              		.loc 1 195 5 discriminator 20 view .LVU568
 2198 0cc4 4FF48032 		mov	r2, #65536
 2199 0cc8 D1E7     		b	.L51
 2200              	.L262:
 195:Drivers/STM32F7xx_HAL_Driver/Src/stm32f7xx_hal_dma_ex.c ****     
 2201              		.loc 1 195 5 discriminator 22 view .LVU569
 2202 0cca 4FF48032 		mov	r2, #65536
 2203 0cce CEE7     		b	.L51
 2204              	.L263:
 195:Drivers/STM32F7xx_HAL_Driver/Src/stm32f7xx_hal_dma_ex.c ****     
 2205              		.loc 1 195 5 discriminator 24 view .LVU570
 2206 0cd0 4FF48032 		mov	r2, #65536
 2207 0cd4 CBE7     		b	.L51
 2208              	.L50:
 195:Drivers/STM32F7xx_HAL_Driver/Src/stm32f7xx_hal_dma_ex.c ****     
 2209              		.loc 1 195 5 discriminator 2 view .LVU571
 2210 0cd6 564A     		ldr	r2, .L333+12
 2211 0cd8 9342     		cmp	r3, r2
 2212 0cda 4FD9     		bls	.L53
 195:Drivers/STM32F7xx_HAL_Driver/Src/stm32f7xx_hal_dma_ex.c ****     
 2213              		.loc 1 195 5 discriminator 28 view .LVU572
 2214 0cdc A83A     		subs	r2, r2, #168
 2215 0cde 9342     		cmp	r3, r2
 2216 0ce0 31D0     		beq	.L265
 195:Drivers/STM32F7xx_HAL_Driver/Src/stm32f7xx_hal_dma_ex.c ****     
 2217              		.loc 1 195 5 discriminator 30 view .LVU573
 2218 0ce2 02F58062 		add	r2, r2, #1024
 2219 0ce6 9342     		cmp	r3, r2
 2220 0ce8 31D0     		beq	.L266
 195:Drivers/STM32F7xx_HAL_Driver/Src/stm32f7xx_hal_dma_ex.c ****     
 2221              		.loc 1 195 5 discriminator 32 view .LVU574
 2222 0cea A2F56872 		sub	r2, r2, #928
 2223 0cee 9342     		cmp	r3, r2
 2224 0cf0 2FD0     		beq	.L267
 195:Drivers/STM32F7xx_HAL_Driver/Src/stm32f7xx_hal_dma_ex.c ****     
 2225              		.loc 1 195 5 discriminator 34 view .LVU575
 2226 0cf2 02F58062 		add	r2, r2, #1024
 2227 0cf6 9342     		cmp	r3, r2
ARM GAS  /tmp/cc1lRkNS.s 			page 55


 2228 0cf8 2DD0     		beq	.L268
 195:Drivers/STM32F7xx_HAL_Driver/Src/stm32f7xx_hal_dma_ex.c ****     
 2229              		.loc 1 195 5 discriminator 36 view .LVU576
 2230 0cfa A2F58962 		sub	r2, r2, #1096
 2231 0cfe 9342     		cmp	r3, r2
 2232 0d00 2BD0     		beq	.L269
 195:Drivers/STM32F7xx_HAL_Driver/Src/stm32f7xx_hal_dma_ex.c ****     
 2233              		.loc 1 195 5 discriminator 38 view .LVU577
 2234 0d02 02F58062 		add	r2, r2, #1024
 2235 0d06 9342     		cmp	r3, r2
 2236 0d08 29D0     		beq	.L270
 195:Drivers/STM32F7xx_HAL_Driver/Src/stm32f7xx_hal_dma_ex.c ****     
 2237              		.loc 1 195 5 discriminator 40 view .LVU578
 2238 0d0a A2F56872 		sub	r2, r2, #928
 2239 0d0e 9342     		cmp	r3, r2
 2240 0d10 27D0     		beq	.L271
 195:Drivers/STM32F7xx_HAL_Driver/Src/stm32f7xx_hal_dma_ex.c ****     
 2241              		.loc 1 195 5 discriminator 42 view .LVU579
 2242 0d12 02F58062 		add	r2, r2, #1024
 2243 0d16 9342     		cmp	r3, r2
 2244 0d18 25D0     		beq	.L272
 195:Drivers/STM32F7xx_HAL_Driver/Src/stm32f7xx_hal_dma_ex.c ****     
 2245              		.loc 1 195 5 discriminator 44 view .LVU580
 2246 0d1a A2F58962 		sub	r2, r2, #1096
 2247 0d1e 9342     		cmp	r3, r2
 2248 0d20 23D0     		beq	.L273
 195:Drivers/STM32F7xx_HAL_Driver/Src/stm32f7xx_hal_dma_ex.c ****     
 2249              		.loc 1 195 5 discriminator 46 view .LVU581
 2250 0d22 02F58062 		add	r2, r2, #1024
 2251 0d26 9342     		cmp	r3, r2
 2252 0d28 22D0     		beq	.L274
 195:Drivers/STM32F7xx_HAL_Driver/Src/stm32f7xx_hal_dma_ex.c ****     
 2253              		.loc 1 195 5 discriminator 48 view .LVU582
 2254 0d2a A2F56872 		sub	r2, r2, #928
 2255 0d2e 9342     		cmp	r3, r2
 2256 0d30 21D0     		beq	.L275
 195:Drivers/STM32F7xx_HAL_Driver/Src/stm32f7xx_hal_dma_ex.c ****     
 2257              		.loc 1 195 5 discriminator 50 view .LVU583
 2258 0d32 02F58062 		add	r2, r2, #1024
 2259 0d36 9342     		cmp	r3, r2
 2260 0d38 02D0     		beq	.L322
 195:Drivers/STM32F7xx_HAL_Driver/Src/stm32f7xx_hal_dma_ex.c ****     
 2261              		.loc 1 195 5 discriminator 53 view .LVU584
 2262 0d3a 4FF48002 		mov	r2, #4194304
 2263 0d3e 03E0     		b	.L54
 2264              	.L322:
 195:Drivers/STM32F7xx_HAL_Driver/Src/stm32f7xx_hal_dma_ex.c ****     
 2265              		.loc 1 195 5 discriminator 52 view .LVU585
 2266 0d40 4FF48032 		mov	r2, #65536
 2267 0d44 00E0     		b	.L54
 2268              	.L265:
 195:Drivers/STM32F7xx_HAL_Driver/Src/stm32f7xx_hal_dma_ex.c ****     
 2269              		.loc 1 195 5 discriminator 31 view .LVU586
 2270 0d46 0122     		movs	r2, #1
 2271              	.L54:
 195:Drivers/STM32F7xx_HAL_Driver/Src/stm32f7xx_hal_dma_ex.c ****     
 2272              		.loc 1 195 5 discriminator 54 view .LVU587
ARM GAS  /tmp/cc1lRkNS.s 			page 56


 2273 0d48 384B     		ldr	r3, .L333+8
 2274 0d4a 9A60     		str	r2, [r3, #8]
 2275 0d4c 91E7     		b	.L52
 2276              	.L266:
 195:Drivers/STM32F7xx_HAL_Driver/Src/stm32f7xx_hal_dma_ex.c ****     
 2277              		.loc 1 195 5 discriminator 33 view .LVU588
 2278 0d4e 0122     		movs	r2, #1
 2279 0d50 FAE7     		b	.L54
 2280              	.L267:
 195:Drivers/STM32F7xx_HAL_Driver/Src/stm32f7xx_hal_dma_ex.c ****     
 2281              		.loc 1 195 5 discriminator 35 view .LVU589
 2282 0d52 0122     		movs	r2, #1
 2283 0d54 F8E7     		b	.L54
 2284              	.L268:
 195:Drivers/STM32F7xx_HAL_Driver/Src/stm32f7xx_hal_dma_ex.c ****     
 2285              		.loc 1 195 5 discriminator 37 view .LVU590
 2286 0d56 0122     		movs	r2, #1
 2287 0d58 F6E7     		b	.L54
 2288              	.L269:
 195:Drivers/STM32F7xx_HAL_Driver/Src/stm32f7xx_hal_dma_ex.c ****     
 2289              		.loc 1 195 5 discriminator 39 view .LVU591
 2290 0d5a 4022     		movs	r2, #64
 2291 0d5c F4E7     		b	.L54
 2292              	.L270:
 195:Drivers/STM32F7xx_HAL_Driver/Src/stm32f7xx_hal_dma_ex.c ****     
 2293              		.loc 1 195 5 discriminator 41 view .LVU592
 2294 0d5e 4022     		movs	r2, #64
 2295 0d60 F2E7     		b	.L54
 2296              	.L271:
 195:Drivers/STM32F7xx_HAL_Driver/Src/stm32f7xx_hal_dma_ex.c ****     
 2297              		.loc 1 195 5 discriminator 43 view .LVU593
 2298 0d62 4022     		movs	r2, #64
 2299 0d64 F0E7     		b	.L54
 2300              	.L272:
 195:Drivers/STM32F7xx_HAL_Driver/Src/stm32f7xx_hal_dma_ex.c ****     
 2301              		.loc 1 195 5 discriminator 45 view .LVU594
 2302 0d66 4022     		movs	r2, #64
 2303 0d68 EEE7     		b	.L54
 2304              	.L273:
 195:Drivers/STM32F7xx_HAL_Driver/Src/stm32f7xx_hal_dma_ex.c ****     
 2305              		.loc 1 195 5 discriminator 47 view .LVU595
 2306 0d6a 4FF48032 		mov	r2, #65536
 2307 0d6e EBE7     		b	.L54
 2308              	.L274:
 195:Drivers/STM32F7xx_HAL_Driver/Src/stm32f7xx_hal_dma_ex.c ****     
 2309              		.loc 1 195 5 discriminator 49 view .LVU596
 2310 0d70 4FF48032 		mov	r2, #65536
 2311 0d74 E8E7     		b	.L54
 2312              	.L275:
 195:Drivers/STM32F7xx_HAL_Driver/Src/stm32f7xx_hal_dma_ex.c ****     
 2313              		.loc 1 195 5 discriminator 51 view .LVU597
 2314 0d76 4FF48032 		mov	r2, #65536
 2315 0d7a E5E7     		b	.L54
 2316              	.L53:
 195:Drivers/STM32F7xx_HAL_Driver/Src/stm32f7xx_hal_dma_ex.c ****     
 2317              		.loc 1 195 5 discriminator 29 view .LVU598
 2318 0d7c 2D4A     		ldr	r2, .L333+16
ARM GAS  /tmp/cc1lRkNS.s 			page 57


 2319 0d7e 9342     		cmp	r3, r2
 2320 0d80 5AD9     		bls	.L55
 195:Drivers/STM32F7xx_HAL_Driver/Src/stm32f7xx_hal_dma_ex.c ****     
 2321              		.loc 1 195 5 discriminator 55 view .LVU599
 2322 0d82 483A     		subs	r2, r2, #72
 2323 0d84 9342     		cmp	r3, r2
 2324 0d86 31D0     		beq	.L277
 195:Drivers/STM32F7xx_HAL_Driver/Src/stm32f7xx_hal_dma_ex.c ****     
 2325              		.loc 1 195 5 discriminator 57 view .LVU600
 2326 0d88 02F58062 		add	r2, r2, #1024
 2327 0d8c 9342     		cmp	r3, r2
 2328 0d8e 31D0     		beq	.L278
 195:Drivers/STM32F7xx_HAL_Driver/Src/stm32f7xx_hal_dma_ex.c ****     
 2329              		.loc 1 195 5 discriminator 59 view .LVU601
 2330 0d90 A2F56872 		sub	r2, r2, #928
 2331 0d94 9342     		cmp	r3, r2
 2332 0d96 2FD0     		beq	.L279
 195:Drivers/STM32F7xx_HAL_Driver/Src/stm32f7xx_hal_dma_ex.c ****     
 2333              		.loc 1 195 5 discriminator 61 view .LVU602
 2334 0d98 02F58062 		add	r2, r2, #1024
 2335 0d9c 9342     		cmp	r3, r2
 2336 0d9e 2DD0     		beq	.L280
 195:Drivers/STM32F7xx_HAL_Driver/Src/stm32f7xx_hal_dma_ex.c ****     
 2337              		.loc 1 195 5 discriminator 63 view .LVU603
 2338 0da0 A2F58962 		sub	r2, r2, #1096
 2339 0da4 9342     		cmp	r3, r2
 2340 0da6 2BD0     		beq	.L281
 195:Drivers/STM32F7xx_HAL_Driver/Src/stm32f7xx_hal_dma_ex.c ****     
 2341              		.loc 1 195 5 discriminator 65 view .LVU604
 2342 0da8 02F58062 		add	r2, r2, #1024
 2343 0dac 9342     		cmp	r3, r2
 2344 0dae 29D0     		beq	.L282
 195:Drivers/STM32F7xx_HAL_Driver/Src/stm32f7xx_hal_dma_ex.c ****     
 2345              		.loc 1 195 5 discriminator 67 view .LVU605
 2346 0db0 A2F56872 		sub	r2, r2, #928
 2347 0db4 9342     		cmp	r3, r2
 2348 0db6 27D0     		beq	.L283
 195:Drivers/STM32F7xx_HAL_Driver/Src/stm32f7xx_hal_dma_ex.c ****     
 2349              		.loc 1 195 5 discriminator 69 view .LVU606
 2350 0db8 02F58062 		add	r2, r2, #1024
 2351 0dbc 9342     		cmp	r3, r2
 2352 0dbe 25D0     		beq	.L284
 195:Drivers/STM32F7xx_HAL_Driver/Src/stm32f7xx_hal_dma_ex.c ****     
 2353              		.loc 1 195 5 discriminator 71 view .LVU607
 2354 0dc0 A2F58962 		sub	r2, r2, #1096
 2355 0dc4 9342     		cmp	r3, r2
 2356 0dc6 23D0     		beq	.L285
 195:Drivers/STM32F7xx_HAL_Driver/Src/stm32f7xx_hal_dma_ex.c ****     
 2357              		.loc 1 195 5 discriminator 73 view .LVU608
 2358 0dc8 02F58062 		add	r2, r2, #1024
 2359 0dcc 9342     		cmp	r3, r2
 2360 0dce 22D0     		beq	.L286
 195:Drivers/STM32F7xx_HAL_Driver/Src/stm32f7xx_hal_dma_ex.c ****     
 2361              		.loc 1 195 5 discriminator 75 view .LVU609
 2362 0dd0 A2F56872 		sub	r2, r2, #928
 2363 0dd4 9342     		cmp	r3, r2
 2364 0dd6 21D0     		beq	.L287
ARM GAS  /tmp/cc1lRkNS.s 			page 58


 195:Drivers/STM32F7xx_HAL_Driver/Src/stm32f7xx_hal_dma_ex.c ****     
 2365              		.loc 1 195 5 discriminator 77 view .LVU610
 2366 0dd8 02F58062 		add	r2, r2, #1024
 2367 0ddc 9342     		cmp	r3, r2
 2368 0dde 02D0     		beq	.L323
 195:Drivers/STM32F7xx_HAL_Driver/Src/stm32f7xx_hal_dma_ex.c ****     
 2369              		.loc 1 195 5 discriminator 80 view .LVU611
 2370 0de0 4FF48003 		mov	r3, #4194304
 2371 0de4 03E0     		b	.L56
 2372              	.L323:
 195:Drivers/STM32F7xx_HAL_Driver/Src/stm32f7xx_hal_dma_ex.c ****     
 2373              		.loc 1 195 5 discriminator 79 view .LVU612
 2374 0de6 4FF48033 		mov	r3, #65536
 2375 0dea 00E0     		b	.L56
 2376              	.L277:
 195:Drivers/STM32F7xx_HAL_Driver/Src/stm32f7xx_hal_dma_ex.c ****     
 2377              		.loc 1 195 5 discriminator 58 view .LVU613
 2378 0dec 0123     		movs	r3, #1
 2379              	.L56:
 195:Drivers/STM32F7xx_HAL_Driver/Src/stm32f7xx_hal_dma_ex.c ****     
 2380              		.loc 1 195 5 discriminator 81 view .LVU614
 2381 0dee 0E4A     		ldr	r2, .L333+4
 2382 0df0 D360     		str	r3, [r2, #12]
 2383 0df2 3EE7     		b	.L52
 2384              	.L278:
 195:Drivers/STM32F7xx_HAL_Driver/Src/stm32f7xx_hal_dma_ex.c ****     
 2385              		.loc 1 195 5 discriminator 60 view .LVU615
 2386 0df4 0123     		movs	r3, #1
 2387 0df6 FAE7     		b	.L56
 2388              	.L279:
 195:Drivers/STM32F7xx_HAL_Driver/Src/stm32f7xx_hal_dma_ex.c ****     
 2389              		.loc 1 195 5 discriminator 62 view .LVU616
 2390 0df8 0123     		movs	r3, #1
 2391 0dfa F8E7     		b	.L56
 2392              	.L280:
 195:Drivers/STM32F7xx_HAL_Driver/Src/stm32f7xx_hal_dma_ex.c ****     
 2393              		.loc 1 195 5 discriminator 64 view .LVU617
 2394 0dfc 0123     		movs	r3, #1
 2395 0dfe F6E7     		b	.L56
 2396              	.L281:
 195:Drivers/STM32F7xx_HAL_Driver/Src/stm32f7xx_hal_dma_ex.c ****     
 2397              		.loc 1 195 5 discriminator 66 view .LVU618
 2398 0e00 4023     		movs	r3, #64
 2399 0e02 F4E7     		b	.L56
 2400              	.L282:
 195:Drivers/STM32F7xx_HAL_Driver/Src/stm32f7xx_hal_dma_ex.c ****     
 2401              		.loc 1 195 5 discriminator 68 view .LVU619
 2402 0e04 4023     		movs	r3, #64
 2403 0e06 F2E7     		b	.L56
 2404              	.L283:
 195:Drivers/STM32F7xx_HAL_Driver/Src/stm32f7xx_hal_dma_ex.c ****     
 2405              		.loc 1 195 5 discriminator 70 view .LVU620
 2406 0e08 4023     		movs	r3, #64
 2407 0e0a F0E7     		b	.L56
 2408              	.L284:
 195:Drivers/STM32F7xx_HAL_Driver/Src/stm32f7xx_hal_dma_ex.c ****     
 2409              		.loc 1 195 5 discriminator 72 view .LVU621
ARM GAS  /tmp/cc1lRkNS.s 			page 59


 2410 0e0c 4023     		movs	r3, #64
 2411 0e0e EEE7     		b	.L56
 2412              	.L285:
 195:Drivers/STM32F7xx_HAL_Driver/Src/stm32f7xx_hal_dma_ex.c ****     
 2413              		.loc 1 195 5 discriminator 74 view .LVU622
 2414 0e10 4FF48033 		mov	r3, #65536
 2415 0e14 EBE7     		b	.L56
 2416              	.L286:
 195:Drivers/STM32F7xx_HAL_Driver/Src/stm32f7xx_hal_dma_ex.c ****     
 2417              		.loc 1 195 5 discriminator 76 view .LVU623
 2418 0e16 4FF48033 		mov	r3, #65536
 2419 0e1a E8E7     		b	.L56
 2420              	.L287:
 195:Drivers/STM32F7xx_HAL_Driver/Src/stm32f7xx_hal_dma_ex.c ****     
 2421              		.loc 1 195 5 discriminator 78 view .LVU624
 2422 0e1c 4FF48033 		mov	r3, #65536
 2423 0e20 E5E7     		b	.L56
 2424              	.L334:
 2425 0e22 00BF     		.align	2
 2426              	.L333:
 2427 0e24 10600240 		.word	1073897488
 2428 0e28 00600240 		.word	1073897472
 2429 0e2c 00640240 		.word	1073898496
 2430 0e30 B8600240 		.word	1073897656
 2431 0e34 58600240 		.word	1073897560
 2432              	.L55:
 195:Drivers/STM32F7xx_HAL_Driver/Src/stm32f7xx_hal_dma_ex.c ****     
 2433              		.loc 1 195 5 discriminator 56 view .LVU625
 2434 0e38 2B4A     		ldr	r2, .L335
 2435 0e3a 9342     		cmp	r3, r2
 2436 0e3c 31D0     		beq	.L289
 195:Drivers/STM32F7xx_HAL_Driver/Src/stm32f7xx_hal_dma_ex.c ****     
 2437              		.loc 1 195 5 discriminator 82 view .LVU626
 2438 0e3e 02F58062 		add	r2, r2, #1024
 2439 0e42 9342     		cmp	r3, r2
 2440 0e44 31D0     		beq	.L290
 195:Drivers/STM32F7xx_HAL_Driver/Src/stm32f7xx_hal_dma_ex.c ****     
 2441              		.loc 1 195 5 discriminator 84 view .LVU627
 2442 0e46 A2F56872 		sub	r2, r2, #928
 2443 0e4a 9342     		cmp	r3, r2
 2444 0e4c 2FD0     		beq	.L291
 195:Drivers/STM32F7xx_HAL_Driver/Src/stm32f7xx_hal_dma_ex.c ****     
 2445              		.loc 1 195 5 discriminator 86 view .LVU628
 2446 0e4e 02F58062 		add	r2, r2, #1024
 2447 0e52 9342     		cmp	r3, r2
 2448 0e54 2DD0     		beq	.L292
 195:Drivers/STM32F7xx_HAL_Driver/Src/stm32f7xx_hal_dma_ex.c ****     
 2449              		.loc 1 195 5 discriminator 88 view .LVU629
 2450 0e56 A2F58962 		sub	r2, r2, #1096
 2451 0e5a 9342     		cmp	r3, r2
 2452 0e5c 2BD0     		beq	.L293
 195:Drivers/STM32F7xx_HAL_Driver/Src/stm32f7xx_hal_dma_ex.c ****     
 2453              		.loc 1 195 5 discriminator 90 view .LVU630
 2454 0e5e 02F58062 		add	r2, r2, #1024
 2455 0e62 9342     		cmp	r3, r2
 2456 0e64 29D0     		beq	.L294
 195:Drivers/STM32F7xx_HAL_Driver/Src/stm32f7xx_hal_dma_ex.c ****     
ARM GAS  /tmp/cc1lRkNS.s 			page 60


 2457              		.loc 1 195 5 discriminator 92 view .LVU631
 2458 0e66 A2F56872 		sub	r2, r2, #928
 2459 0e6a 9342     		cmp	r3, r2
 2460 0e6c 27D0     		beq	.L295
 195:Drivers/STM32F7xx_HAL_Driver/Src/stm32f7xx_hal_dma_ex.c ****     
 2461              		.loc 1 195 5 discriminator 94 view .LVU632
 2462 0e6e 02F58062 		add	r2, r2, #1024
 2463 0e72 9342     		cmp	r3, r2
 2464 0e74 25D0     		beq	.L296
 195:Drivers/STM32F7xx_HAL_Driver/Src/stm32f7xx_hal_dma_ex.c ****     
 2465              		.loc 1 195 5 discriminator 96 view .LVU633
 2466 0e76 A2F58962 		sub	r2, r2, #1096
 2467 0e7a 9342     		cmp	r3, r2
 2468 0e7c 23D0     		beq	.L297
 195:Drivers/STM32F7xx_HAL_Driver/Src/stm32f7xx_hal_dma_ex.c ****     
 2469              		.loc 1 195 5 discriminator 98 view .LVU634
 2470 0e7e 02F58062 		add	r2, r2, #1024
 2471 0e82 9342     		cmp	r3, r2
 2472 0e84 22D0     		beq	.L298
 195:Drivers/STM32F7xx_HAL_Driver/Src/stm32f7xx_hal_dma_ex.c ****     
 2473              		.loc 1 195 5 discriminator 100 view .LVU635
 2474 0e86 A2F56872 		sub	r2, r2, #928
 2475 0e8a 9342     		cmp	r3, r2
 2476 0e8c 21D0     		beq	.L299
 195:Drivers/STM32F7xx_HAL_Driver/Src/stm32f7xx_hal_dma_ex.c ****     
 2477              		.loc 1 195 5 discriminator 102 view .LVU636
 2478 0e8e 02F58062 		add	r2, r2, #1024
 2479 0e92 9342     		cmp	r3, r2
 2480 0e94 02D0     		beq	.L324
 195:Drivers/STM32F7xx_HAL_Driver/Src/stm32f7xx_hal_dma_ex.c ****     
 2481              		.loc 1 195 5 discriminator 105 view .LVU637
 2482 0e96 4FF48003 		mov	r3, #4194304
 2483 0e9a 03E0     		b	.L57
 2484              	.L324:
 195:Drivers/STM32F7xx_HAL_Driver/Src/stm32f7xx_hal_dma_ex.c ****     
 2485              		.loc 1 195 5 discriminator 104 view .LVU638
 2486 0e9c 4FF48033 		mov	r3, #65536
 2487 0ea0 00E0     		b	.L57
 2488              	.L289:
 195:Drivers/STM32F7xx_HAL_Driver/Src/stm32f7xx_hal_dma_ex.c ****     
 2489              		.loc 1 195 5 discriminator 83 view .LVU639
 2490 0ea2 0123     		movs	r3, #1
 2491              	.L57:
 195:Drivers/STM32F7xx_HAL_Driver/Src/stm32f7xx_hal_dma_ex.c ****     
 2492              		.loc 1 195 5 discriminator 106 view .LVU640
 2493 0ea4 114A     		ldr	r2, .L335+4
 2494 0ea6 9360     		str	r3, [r2, #8]
 2495 0ea8 E3E6     		b	.L52
 2496              	.L290:
 195:Drivers/STM32F7xx_HAL_Driver/Src/stm32f7xx_hal_dma_ex.c ****     
 2497              		.loc 1 195 5 discriminator 85 view .LVU641
 2498 0eaa 0123     		movs	r3, #1
 2499 0eac FAE7     		b	.L57
 2500              	.L291:
 195:Drivers/STM32F7xx_HAL_Driver/Src/stm32f7xx_hal_dma_ex.c ****     
 2501              		.loc 1 195 5 discriminator 87 view .LVU642
 2502 0eae 0123     		movs	r3, #1
ARM GAS  /tmp/cc1lRkNS.s 			page 61


 2503 0eb0 F8E7     		b	.L57
 2504              	.L292:
 195:Drivers/STM32F7xx_HAL_Driver/Src/stm32f7xx_hal_dma_ex.c ****     
 2505              		.loc 1 195 5 discriminator 89 view .LVU643
 2506 0eb2 0123     		movs	r3, #1
 2507 0eb4 F6E7     		b	.L57
 2508              	.L293:
 195:Drivers/STM32F7xx_HAL_Driver/Src/stm32f7xx_hal_dma_ex.c ****     
 2509              		.loc 1 195 5 discriminator 91 view .LVU644
 2510 0eb6 4023     		movs	r3, #64
 2511 0eb8 F4E7     		b	.L57
 2512              	.L294:
 195:Drivers/STM32F7xx_HAL_Driver/Src/stm32f7xx_hal_dma_ex.c ****     
 2513              		.loc 1 195 5 discriminator 93 view .LVU645
 2514 0eba 4023     		movs	r3, #64
 2515 0ebc F2E7     		b	.L57
 2516              	.L295:
 195:Drivers/STM32F7xx_HAL_Driver/Src/stm32f7xx_hal_dma_ex.c ****     
 2517              		.loc 1 195 5 discriminator 95 view .LVU646
 2518 0ebe 4023     		movs	r3, #64
 2519 0ec0 F0E7     		b	.L57
 2520              	.L296:
 195:Drivers/STM32F7xx_HAL_Driver/Src/stm32f7xx_hal_dma_ex.c ****     
 2521              		.loc 1 195 5 discriminator 97 view .LVU647
 2522 0ec2 4023     		movs	r3, #64
 2523 0ec4 EEE7     		b	.L57
 2524              	.L297:
 195:Drivers/STM32F7xx_HAL_Driver/Src/stm32f7xx_hal_dma_ex.c ****     
 2525              		.loc 1 195 5 discriminator 99 view .LVU648
 2526 0ec6 4FF48033 		mov	r3, #65536
 2527 0eca EBE7     		b	.L57
 2528              	.L298:
 195:Drivers/STM32F7xx_HAL_Driver/Src/stm32f7xx_hal_dma_ex.c ****     
 2529              		.loc 1 195 5 discriminator 101 view .LVU649
 2530 0ecc 4FF48033 		mov	r3, #65536
 2531 0ed0 E8E7     		b	.L57
 2532              	.L299:
 195:Drivers/STM32F7xx_HAL_Driver/Src/stm32f7xx_hal_dma_ex.c ****     
 2533              		.loc 1 195 5 discriminator 103 view .LVU650
 2534 0ed2 4FF48033 		mov	r3, #65536
 2535 0ed6 E5E7     		b	.L57
 2536              	.L321:
 201:Drivers/STM32F7xx_HAL_Driver/Src/stm32f7xx_hal_dma_ex.c ****     {
 2537              		.loc 1 201 53 discriminator 1 view .LVU651
 2538 0ed8 A36C     		ldr	r3, [r4, #72]
 201:Drivers/STM32F7xx_HAL_Driver/Src/stm32f7xx_hal_dma_ex.c ****     {
 2539              		.loc 1 201 45 discriminator 1 view .LVU652
 2540 0eda 002B     		cmp	r3, #0
 2541 0edc 7FF4D7AE 		bne	.L58
 2542 0ee0 DAE6     		b	.L59
 2543              	.LVL38:
 2544              	.L60:
 171:Drivers/STM32F7xx_HAL_Driver/Src/stm32f7xx_hal_dma_ex.c ****   
 2545              		.loc 1 171 3 discriminator 1 view .LVU653
 2546 0ee2 0220     		movs	r0, #2
 2547 0ee4 FFF7A1B8 		b	.L16
 2548              	.L336:
ARM GAS  /tmp/cc1lRkNS.s 			page 62


 2549              		.align	2
 2550              	.L335:
 2551 0ee8 10600240 		.word	1073897488
 2552 0eec 00600240 		.word	1073897472
 2553              		.cfi_endproc
 2554              	.LFE142:
 2556              		.section	.text.HAL_DMAEx_ChangeMemory,"ax",%progbits
 2557              		.align	1
 2558              		.global	HAL_DMAEx_ChangeMemory
 2559              		.syntax unified
 2560              		.thumb
 2561              		.thumb_func
 2563              	HAL_DMAEx_ChangeMemory:
 2564              	.LVL39:
 2565              	.LFB143:
 235:Drivers/STM32F7xx_HAL_Driver/Src/stm32f7xx_hal_dma_ex.c ****   if(memory == MEMORY0)
 2566              		.loc 1 235 1 is_stmt 1 view -0
 2567              		.cfi_startproc
 2568              		@ args = 0, pretend = 0, frame = 0
 2569              		@ frame_needed = 0, uses_anonymous_args = 0
 2570              		@ link register save eliminated.
 236:Drivers/STM32F7xx_HAL_Driver/Src/stm32f7xx_hal_dma_ex.c ****   {
 2571              		.loc 1 236 3 view .LVU655
 236:Drivers/STM32F7xx_HAL_Driver/Src/stm32f7xx_hal_dma_ex.c ****   {
 2572              		.loc 1 236 5 is_stmt 0 view .LVU656
 2573 0000 1AB9     		cbnz	r2, .L338
 239:Drivers/STM32F7xx_HAL_Driver/Src/stm32f7xx_hal_dma_ex.c ****   }
 2574              		.loc 1 239 5 is_stmt 1 view .LVU657
 239:Drivers/STM32F7xx_HAL_Driver/Src/stm32f7xx_hal_dma_ex.c ****   }
 2575              		.loc 1 239 9 is_stmt 0 view .LVU658
 2576 0002 0368     		ldr	r3, [r0]
 239:Drivers/STM32F7xx_HAL_Driver/Src/stm32f7xx_hal_dma_ex.c ****   }
 2577              		.loc 1 239 26 view .LVU659
 2578 0004 D960     		str	r1, [r3, #12]
 2579              	.L339:
 247:Drivers/STM32F7xx_HAL_Driver/Src/stm32f7xx_hal_dma_ex.c **** }
 2580              		.loc 1 247 3 is_stmt 1 view .LVU660
 248:Drivers/STM32F7xx_HAL_Driver/Src/stm32f7xx_hal_dma_ex.c **** 
 2581              		.loc 1 248 1 is_stmt 0 view .LVU661
 2582 0006 0020     		movs	r0, #0
 2583              	.LVL40:
 248:Drivers/STM32F7xx_HAL_Driver/Src/stm32f7xx_hal_dma_ex.c **** 
 2584              		.loc 1 248 1 view .LVU662
 2585 0008 7047     		bx	lr
 2586              	.LVL41:
 2587              	.L338:
 244:Drivers/STM32F7xx_HAL_Driver/Src/stm32f7xx_hal_dma_ex.c ****   }
 2588              		.loc 1 244 5 is_stmt 1 view .LVU663
 244:Drivers/STM32F7xx_HAL_Driver/Src/stm32f7xx_hal_dma_ex.c ****   }
 2589              		.loc 1 244 9 is_stmt 0 view .LVU664
 2590 000a 0368     		ldr	r3, [r0]
 244:Drivers/STM32F7xx_HAL_Driver/Src/stm32f7xx_hal_dma_ex.c ****   }
 2591              		.loc 1 244 26 view .LVU665
 2592 000c 1961     		str	r1, [r3, #16]
 2593 000e FAE7     		b	.L339
 2594              		.cfi_endproc
 2595              	.LFE143:
ARM GAS  /tmp/cc1lRkNS.s 			page 63


 2597              		.text
 2598              	.Letext0:
 2599              		.file 2 "/usr/arm-none-eabi/include/machine/_default_types.h"
 2600              		.file 3 "/usr/arm-none-eabi/include/sys/_stdint.h"
 2601              		.file 4 "Drivers/CMSIS/Device/ST/STM32F7xx/Include/stm32f767xx.h"
 2602              		.file 5 "Drivers/STM32F7xx_HAL_Driver/Inc/stm32f7xx_hal_def.h"
 2603              		.file 6 "Drivers/STM32F7xx_HAL_Driver/Inc/stm32f7xx_hal_dma.h"
 2604              		.file 7 "Drivers/STM32F7xx_HAL_Driver/Inc/stm32f7xx_hal_dma_ex.h"
ARM GAS  /tmp/cc1lRkNS.s 			page 64

