ARM GAS  C:\Users\frees\AppData\Local\Temp\ccAseSOz.s 			page 1


   1              		.cpu cortex-m7
   2              		.arch armv7e-m
   3              		.fpu fpv5-d16
   4              		.eabi_attribute 28, 1
   5              		.eabi_attribute 20, 1
   6              		.eabi_attribute 21, 1
   7              		.eabi_attribute 23, 3
   8              		.eabi_attribute 24, 1
   9              		.eabi_attribute 25, 1
  10              		.eabi_attribute 26, 1
  11              		.eabi_attribute 30, 1
  12              		.eabi_attribute 34, 1
  13              		.eabi_attribute 18, 4
  14              		.file	"timers.c"
  15              		.text
  16              	.Ltext0:
  17              		.cfi_sections	.debug_frame
  18              		.file 1 "Middlewares/Third_Party/FreeRTOS/Source/timers.c"
  19              		.section	.text.prvGetNextExpireTime,"ax",%progbits
  20              		.align	1
  21              		.syntax unified
  22              		.thumb
  23              		.thumb_func
  25              	prvGetNextExpireTime:
  26              	.LVL0:
  27              	.LFB17:
   1:Middlewares/Third_Party/FreeRTOS/Source/timers.c **** /*
   2:Middlewares/Third_Party/FreeRTOS/Source/timers.c ****  * FreeRTOS Kernel V10.2.1
   3:Middlewares/Third_Party/FreeRTOS/Source/timers.c ****  * Copyright (C) 2019 Amazon.com, Inc. or its affiliates.  All Rights Reserved.
   4:Middlewares/Third_Party/FreeRTOS/Source/timers.c ****  *
   5:Middlewares/Third_Party/FreeRTOS/Source/timers.c ****  * Permission is hereby granted, free of charge, to any person obtaining a copy of
   6:Middlewares/Third_Party/FreeRTOS/Source/timers.c ****  * this software and associated documentation files (the "Software"), to deal in
   7:Middlewares/Third_Party/FreeRTOS/Source/timers.c ****  * the Software without restriction, including without limitation the rights to
   8:Middlewares/Third_Party/FreeRTOS/Source/timers.c ****  * use, copy, modify, merge, publish, distribute, sublicense, and/or sell copies of
   9:Middlewares/Third_Party/FreeRTOS/Source/timers.c ****  * the Software, and to permit persons to whom the Software is furnished to do so,
  10:Middlewares/Third_Party/FreeRTOS/Source/timers.c ****  * subject to the following conditions:
  11:Middlewares/Third_Party/FreeRTOS/Source/timers.c ****  *
  12:Middlewares/Third_Party/FreeRTOS/Source/timers.c ****  * The above copyright notice and this permission notice shall be included in all
  13:Middlewares/Third_Party/FreeRTOS/Source/timers.c ****  * copies or substantial portions of the Software.
  14:Middlewares/Third_Party/FreeRTOS/Source/timers.c ****  *
  15:Middlewares/Third_Party/FreeRTOS/Source/timers.c ****  * THE SOFTWARE IS PROVIDED "AS IS", WITHOUT WARRANTY OF ANY KIND, EXPRESS OR
  16:Middlewares/Third_Party/FreeRTOS/Source/timers.c ****  * IMPLIED, INCLUDING BUT NOT LIMITED TO THE WARRANTIES OF MERCHANTABILITY, FITNESS
  17:Middlewares/Third_Party/FreeRTOS/Source/timers.c ****  * FOR A PARTICULAR PURPOSE AND NONINFRINGEMENT. IN NO EVENT SHALL THE AUTHORS OR
  18:Middlewares/Third_Party/FreeRTOS/Source/timers.c ****  * COPYRIGHT HOLDERS BE LIABLE FOR ANY CLAIM, DAMAGES OR OTHER LIABILITY, WHETHER
  19:Middlewares/Third_Party/FreeRTOS/Source/timers.c ****  * IN AN ACTION OF CONTRACT, TORT OR OTHERWISE, ARISING FROM, OUT OF OR IN
  20:Middlewares/Third_Party/FreeRTOS/Source/timers.c ****  * CONNECTION WITH THE SOFTWARE OR THE USE OR OTHER DEALINGS IN THE SOFTWARE.
  21:Middlewares/Third_Party/FreeRTOS/Source/timers.c ****  *
  22:Middlewares/Third_Party/FreeRTOS/Source/timers.c ****  * http://www.FreeRTOS.org
  23:Middlewares/Third_Party/FreeRTOS/Source/timers.c ****  * http://aws.amazon.com/freertos
  24:Middlewares/Third_Party/FreeRTOS/Source/timers.c ****  *
  25:Middlewares/Third_Party/FreeRTOS/Source/timers.c ****  * 1 tab == 4 spaces!
  26:Middlewares/Third_Party/FreeRTOS/Source/timers.c ****  */
  27:Middlewares/Third_Party/FreeRTOS/Source/timers.c **** 
  28:Middlewares/Third_Party/FreeRTOS/Source/timers.c **** /* Standard includes. */
  29:Middlewares/Third_Party/FreeRTOS/Source/timers.c **** #include <stdlib.h>
  30:Middlewares/Third_Party/FreeRTOS/Source/timers.c **** 
  31:Middlewares/Third_Party/FreeRTOS/Source/timers.c **** /* Defining MPU_WRAPPERS_INCLUDED_FROM_API_FILE prevents task.h from redefining
ARM GAS  C:\Users\frees\AppData\Local\Temp\ccAseSOz.s 			page 2


  32:Middlewares/Third_Party/FreeRTOS/Source/timers.c **** all the API functions to use the MPU wrappers.  That should only be done when
  33:Middlewares/Third_Party/FreeRTOS/Source/timers.c **** task.h is included from an application file. */
  34:Middlewares/Third_Party/FreeRTOS/Source/timers.c **** #define MPU_WRAPPERS_INCLUDED_FROM_API_FILE
  35:Middlewares/Third_Party/FreeRTOS/Source/timers.c **** 
  36:Middlewares/Third_Party/FreeRTOS/Source/timers.c **** #include "FreeRTOS.h"
  37:Middlewares/Third_Party/FreeRTOS/Source/timers.c **** #include "task.h"
  38:Middlewares/Third_Party/FreeRTOS/Source/timers.c **** #include "queue.h"
  39:Middlewares/Third_Party/FreeRTOS/Source/timers.c **** #include "timers.h"
  40:Middlewares/Third_Party/FreeRTOS/Source/timers.c **** 
  41:Middlewares/Third_Party/FreeRTOS/Source/timers.c **** #if ( INCLUDE_xTimerPendFunctionCall == 1 ) && ( configUSE_TIMERS == 0 )
  42:Middlewares/Third_Party/FreeRTOS/Source/timers.c **** 	#error configUSE_TIMERS must be set to 1 to make the xTimerPendFunctionCall() function available.
  43:Middlewares/Third_Party/FreeRTOS/Source/timers.c **** #endif
  44:Middlewares/Third_Party/FreeRTOS/Source/timers.c **** 
  45:Middlewares/Third_Party/FreeRTOS/Source/timers.c **** /* Lint e9021, e961 and e750 are suppressed as a MISRA exception justified
  46:Middlewares/Third_Party/FreeRTOS/Source/timers.c **** because the MPU ports require MPU_WRAPPERS_INCLUDED_FROM_API_FILE to be defined
  47:Middlewares/Third_Party/FreeRTOS/Source/timers.c **** for the header files above, but not in this file, in order to generate the
  48:Middlewares/Third_Party/FreeRTOS/Source/timers.c **** correct privileged Vs unprivileged linkage and placement. */
  49:Middlewares/Third_Party/FreeRTOS/Source/timers.c **** #undef MPU_WRAPPERS_INCLUDED_FROM_API_FILE /*lint !e9021 !e961 !e750. */
  50:Middlewares/Third_Party/FreeRTOS/Source/timers.c **** 
  51:Middlewares/Third_Party/FreeRTOS/Source/timers.c **** 
  52:Middlewares/Third_Party/FreeRTOS/Source/timers.c **** /* This entire source file will be skipped if the application is not configured
  53:Middlewares/Third_Party/FreeRTOS/Source/timers.c **** to include software timer functionality.  This #if is closed at the very bottom
  54:Middlewares/Third_Party/FreeRTOS/Source/timers.c **** of this file.  If you want to include software timer functionality then ensure
  55:Middlewares/Third_Party/FreeRTOS/Source/timers.c **** configUSE_TIMERS is set to 1 in FreeRTOSConfig.h. */
  56:Middlewares/Third_Party/FreeRTOS/Source/timers.c **** #if ( configUSE_TIMERS == 1 )
  57:Middlewares/Third_Party/FreeRTOS/Source/timers.c **** 
  58:Middlewares/Third_Party/FreeRTOS/Source/timers.c **** /* Misc definitions. */
  59:Middlewares/Third_Party/FreeRTOS/Source/timers.c **** #define tmrNO_DELAY		( TickType_t ) 0U
  60:Middlewares/Third_Party/FreeRTOS/Source/timers.c **** 
  61:Middlewares/Third_Party/FreeRTOS/Source/timers.c **** /* The name assigned to the timer service task.  This can be overridden by
  62:Middlewares/Third_Party/FreeRTOS/Source/timers.c **** defining trmTIMER_SERVICE_TASK_NAME in FreeRTOSConfig.h. */
  63:Middlewares/Third_Party/FreeRTOS/Source/timers.c **** #ifndef configTIMER_SERVICE_TASK_NAME
  64:Middlewares/Third_Party/FreeRTOS/Source/timers.c **** 	#define configTIMER_SERVICE_TASK_NAME "Tmr Svc"
  65:Middlewares/Third_Party/FreeRTOS/Source/timers.c **** #endif
  66:Middlewares/Third_Party/FreeRTOS/Source/timers.c **** 
  67:Middlewares/Third_Party/FreeRTOS/Source/timers.c **** /* Bit definitions used in the ucStatus member of a timer structure. */
  68:Middlewares/Third_Party/FreeRTOS/Source/timers.c **** #define tmrSTATUS_IS_ACTIVE					( ( uint8_t ) 0x01 )
  69:Middlewares/Third_Party/FreeRTOS/Source/timers.c **** #define tmrSTATUS_IS_STATICALLY_ALLOCATED	( ( uint8_t ) 0x02 )
  70:Middlewares/Third_Party/FreeRTOS/Source/timers.c **** #define tmrSTATUS_IS_AUTORELOAD				( ( uint8_t ) 0x04 )
  71:Middlewares/Third_Party/FreeRTOS/Source/timers.c **** 
  72:Middlewares/Third_Party/FreeRTOS/Source/timers.c **** /* The definition of the timers themselves. */
  73:Middlewares/Third_Party/FreeRTOS/Source/timers.c **** typedef struct tmrTimerControl /* The old naming convention is used to prevent breaking kernel awar
  74:Middlewares/Third_Party/FreeRTOS/Source/timers.c **** {
  75:Middlewares/Third_Party/FreeRTOS/Source/timers.c **** 	const char				*pcTimerName;		/*<< Text name.  This is not used by the kernel, it is included simpl
  76:Middlewares/Third_Party/FreeRTOS/Source/timers.c **** 	ListItem_t				xTimerListItem;		/*<< Standard linked list item as used by all kernel features for e
  77:Middlewares/Third_Party/FreeRTOS/Source/timers.c **** 	TickType_t				xTimerPeriodInTicks;/*<< How quickly and often the timer expires. */
  78:Middlewares/Third_Party/FreeRTOS/Source/timers.c **** 	void 					*pvTimerID;			/*<< An ID to identify the timer.  This allows the timer to be identified 
  79:Middlewares/Third_Party/FreeRTOS/Source/timers.c **** 	TimerCallbackFunction_t	pxCallbackFunction;	/*<< The function that will be called when the timer e
  80:Middlewares/Third_Party/FreeRTOS/Source/timers.c **** 	#if( configUSE_TRACE_FACILITY == 1 )
  81:Middlewares/Third_Party/FreeRTOS/Source/timers.c **** 		UBaseType_t			uxTimerNumber;		/*<< An ID assigned by trace tools such as FreeRTOS+Trace */
  82:Middlewares/Third_Party/FreeRTOS/Source/timers.c **** 	#endif
  83:Middlewares/Third_Party/FreeRTOS/Source/timers.c **** 	uint8_t 				ucStatus;			/*<< Holds bits to say if the timer was statically allocated or not, and i
  84:Middlewares/Third_Party/FreeRTOS/Source/timers.c **** } xTIMER;
  85:Middlewares/Third_Party/FreeRTOS/Source/timers.c **** 
  86:Middlewares/Third_Party/FreeRTOS/Source/timers.c **** /* The old xTIMER name is maintained above then typedefed to the new Timer_t
  87:Middlewares/Third_Party/FreeRTOS/Source/timers.c **** name below to enable the use of older kernel aware debuggers. */
  88:Middlewares/Third_Party/FreeRTOS/Source/timers.c **** typedef xTIMER Timer_t;
ARM GAS  C:\Users\frees\AppData\Local\Temp\ccAseSOz.s 			page 3


  89:Middlewares/Third_Party/FreeRTOS/Source/timers.c **** 
  90:Middlewares/Third_Party/FreeRTOS/Source/timers.c **** /* The definition of messages that can be sent and received on the timer queue.
  91:Middlewares/Third_Party/FreeRTOS/Source/timers.c **** Two types of message can be queued - messages that manipulate a software timer,
  92:Middlewares/Third_Party/FreeRTOS/Source/timers.c **** and messages that request the execution of a non-timer related callback.  The
  93:Middlewares/Third_Party/FreeRTOS/Source/timers.c **** two message types are defined in two separate structures, xTimerParametersType
  94:Middlewares/Third_Party/FreeRTOS/Source/timers.c **** and xCallbackParametersType respectively. */
  95:Middlewares/Third_Party/FreeRTOS/Source/timers.c **** typedef struct tmrTimerParameters
  96:Middlewares/Third_Party/FreeRTOS/Source/timers.c **** {
  97:Middlewares/Third_Party/FreeRTOS/Source/timers.c **** 	TickType_t			xMessageValue;		/*<< An optional value used by a subset of commands, for example, whe
  98:Middlewares/Third_Party/FreeRTOS/Source/timers.c **** 	Timer_t *			pxTimer;			/*<< The timer to which the command will be applied. */
  99:Middlewares/Third_Party/FreeRTOS/Source/timers.c **** } TimerParameter_t;
 100:Middlewares/Third_Party/FreeRTOS/Source/timers.c **** 
 101:Middlewares/Third_Party/FreeRTOS/Source/timers.c **** 
 102:Middlewares/Third_Party/FreeRTOS/Source/timers.c **** typedef struct tmrCallbackParameters
 103:Middlewares/Third_Party/FreeRTOS/Source/timers.c **** {
 104:Middlewares/Third_Party/FreeRTOS/Source/timers.c **** 	PendedFunction_t	pxCallbackFunction;	/* << The callback function to execute. */
 105:Middlewares/Third_Party/FreeRTOS/Source/timers.c **** 	void *pvParameter1;						/* << The value that will be used as the callback functions first paramet
 106:Middlewares/Third_Party/FreeRTOS/Source/timers.c **** 	uint32_t ulParameter2;					/* << The value that will be used as the callback functions second para
 107:Middlewares/Third_Party/FreeRTOS/Source/timers.c **** } CallbackParameters_t;
 108:Middlewares/Third_Party/FreeRTOS/Source/timers.c **** 
 109:Middlewares/Third_Party/FreeRTOS/Source/timers.c **** /* The structure that contains the two message types, along with an identifier
 110:Middlewares/Third_Party/FreeRTOS/Source/timers.c **** that is used to determine which message type is valid. */
 111:Middlewares/Third_Party/FreeRTOS/Source/timers.c **** typedef struct tmrTimerQueueMessage
 112:Middlewares/Third_Party/FreeRTOS/Source/timers.c **** {
 113:Middlewares/Third_Party/FreeRTOS/Source/timers.c **** 	BaseType_t			xMessageID;			/*<< The command being sent to the timer service task. */
 114:Middlewares/Third_Party/FreeRTOS/Source/timers.c **** 	union
 115:Middlewares/Third_Party/FreeRTOS/Source/timers.c **** 	{
 116:Middlewares/Third_Party/FreeRTOS/Source/timers.c **** 		TimerParameter_t xTimerParameters;
 117:Middlewares/Third_Party/FreeRTOS/Source/timers.c **** 
 118:Middlewares/Third_Party/FreeRTOS/Source/timers.c **** 		/* Don't include xCallbackParameters if it is not going to be used as
 119:Middlewares/Third_Party/FreeRTOS/Source/timers.c **** 		it makes the structure (and therefore the timer queue) larger. */
 120:Middlewares/Third_Party/FreeRTOS/Source/timers.c **** 		#if ( INCLUDE_xTimerPendFunctionCall == 1 )
 121:Middlewares/Third_Party/FreeRTOS/Source/timers.c **** 			CallbackParameters_t xCallbackParameters;
 122:Middlewares/Third_Party/FreeRTOS/Source/timers.c **** 		#endif /* INCLUDE_xTimerPendFunctionCall */
 123:Middlewares/Third_Party/FreeRTOS/Source/timers.c **** 	} u;
 124:Middlewares/Third_Party/FreeRTOS/Source/timers.c **** } DaemonTaskMessage_t;
 125:Middlewares/Third_Party/FreeRTOS/Source/timers.c **** 
 126:Middlewares/Third_Party/FreeRTOS/Source/timers.c **** /*lint -save -e956 A manual analysis and inspection has been used to determine
 127:Middlewares/Third_Party/FreeRTOS/Source/timers.c **** which static variables must be declared volatile. */
 128:Middlewares/Third_Party/FreeRTOS/Source/timers.c **** 
 129:Middlewares/Third_Party/FreeRTOS/Source/timers.c **** /* The list in which active timers are stored.  Timers are referenced in expire
 130:Middlewares/Third_Party/FreeRTOS/Source/timers.c **** time order, with the nearest expiry time at the front of the list.  Only the
 131:Middlewares/Third_Party/FreeRTOS/Source/timers.c **** timer service task is allowed to access these lists.
 132:Middlewares/Third_Party/FreeRTOS/Source/timers.c **** xActiveTimerList1 and xActiveTimerList2 could be at function scope but that
 133:Middlewares/Third_Party/FreeRTOS/Source/timers.c **** breaks some kernel aware debuggers, and debuggers that reply on removing the
 134:Middlewares/Third_Party/FreeRTOS/Source/timers.c **** static qualifier. */
 135:Middlewares/Third_Party/FreeRTOS/Source/timers.c **** PRIVILEGED_DATA static List_t xActiveTimerList1 = { 0 };
 136:Middlewares/Third_Party/FreeRTOS/Source/timers.c **** PRIVILEGED_DATA static List_t xActiveTimerList2 = { 0 };
 137:Middlewares/Third_Party/FreeRTOS/Source/timers.c **** PRIVILEGED_DATA static List_t *pxCurrentTimerList = NULL;
 138:Middlewares/Third_Party/FreeRTOS/Source/timers.c **** PRIVILEGED_DATA static List_t *pxOverflowTimerList = NULL;
 139:Middlewares/Third_Party/FreeRTOS/Source/timers.c **** 
 140:Middlewares/Third_Party/FreeRTOS/Source/timers.c **** /* A queue that is used to send commands to the timer service task. */
 141:Middlewares/Third_Party/FreeRTOS/Source/timers.c **** PRIVILEGED_DATA static QueueHandle_t xTimerQueue = NULL;
 142:Middlewares/Third_Party/FreeRTOS/Source/timers.c **** PRIVILEGED_DATA static TaskHandle_t xTimerTaskHandle = NULL;
 143:Middlewares/Third_Party/FreeRTOS/Source/timers.c **** 
 144:Middlewares/Third_Party/FreeRTOS/Source/timers.c **** /*lint -restore */
 145:Middlewares/Third_Party/FreeRTOS/Source/timers.c **** 
ARM GAS  C:\Users\frees\AppData\Local\Temp\ccAseSOz.s 			page 4


 146:Middlewares/Third_Party/FreeRTOS/Source/timers.c **** /*-----------------------------------------------------------*/
 147:Middlewares/Third_Party/FreeRTOS/Source/timers.c **** 
 148:Middlewares/Third_Party/FreeRTOS/Source/timers.c **** #if( configSUPPORT_STATIC_ALLOCATION == 1 )
 149:Middlewares/Third_Party/FreeRTOS/Source/timers.c **** 
 150:Middlewares/Third_Party/FreeRTOS/Source/timers.c **** 	/* If static allocation is supported then the application must provide the
 151:Middlewares/Third_Party/FreeRTOS/Source/timers.c **** 	following callback function - which enables the application to optionally
 152:Middlewares/Third_Party/FreeRTOS/Source/timers.c **** 	provide the memory that will be used by the timer task as the task's stack
 153:Middlewares/Third_Party/FreeRTOS/Source/timers.c **** 	and TCB. */
 154:Middlewares/Third_Party/FreeRTOS/Source/timers.c **** 	extern void vApplicationGetTimerTaskMemory( StaticTask_t **ppxTimerTaskTCBBuffer, StackType_t **pp
 155:Middlewares/Third_Party/FreeRTOS/Source/timers.c **** 
 156:Middlewares/Third_Party/FreeRTOS/Source/timers.c **** #endif
 157:Middlewares/Third_Party/FreeRTOS/Source/timers.c **** 
 158:Middlewares/Third_Party/FreeRTOS/Source/timers.c **** /*
 159:Middlewares/Third_Party/FreeRTOS/Source/timers.c ****  * Initialise the infrastructure used by the timer service task if it has not
 160:Middlewares/Third_Party/FreeRTOS/Source/timers.c ****  * been initialised already.
 161:Middlewares/Third_Party/FreeRTOS/Source/timers.c ****  */
 162:Middlewares/Third_Party/FreeRTOS/Source/timers.c **** static void prvCheckForValidListAndQueue( void ) PRIVILEGED_FUNCTION;
 163:Middlewares/Third_Party/FreeRTOS/Source/timers.c **** 
 164:Middlewares/Third_Party/FreeRTOS/Source/timers.c **** /*
 165:Middlewares/Third_Party/FreeRTOS/Source/timers.c ****  * The timer service task (daemon).  Timer functionality is controlled by this
 166:Middlewares/Third_Party/FreeRTOS/Source/timers.c ****  * task.  Other tasks communicate with the timer service task using the
 167:Middlewares/Third_Party/FreeRTOS/Source/timers.c ****  * xTimerQueue queue.
 168:Middlewares/Third_Party/FreeRTOS/Source/timers.c ****  */
 169:Middlewares/Third_Party/FreeRTOS/Source/timers.c **** static portTASK_FUNCTION_PROTO( prvTimerTask, pvParameters ) PRIVILEGED_FUNCTION;
 170:Middlewares/Third_Party/FreeRTOS/Source/timers.c **** 
 171:Middlewares/Third_Party/FreeRTOS/Source/timers.c **** /*
 172:Middlewares/Third_Party/FreeRTOS/Source/timers.c ****  * Called by the timer service task to interpret and process a command it
 173:Middlewares/Third_Party/FreeRTOS/Source/timers.c ****  * received on the timer queue.
 174:Middlewares/Third_Party/FreeRTOS/Source/timers.c ****  */
 175:Middlewares/Third_Party/FreeRTOS/Source/timers.c **** static void prvProcessReceivedCommands( void ) PRIVILEGED_FUNCTION;
 176:Middlewares/Third_Party/FreeRTOS/Source/timers.c **** 
 177:Middlewares/Third_Party/FreeRTOS/Source/timers.c **** /*
 178:Middlewares/Third_Party/FreeRTOS/Source/timers.c ****  * Insert the timer into either xActiveTimerList1, or xActiveTimerList2,
 179:Middlewares/Third_Party/FreeRTOS/Source/timers.c ****  * depending on if the expire time causes a timer counter overflow.
 180:Middlewares/Third_Party/FreeRTOS/Source/timers.c ****  */
 181:Middlewares/Third_Party/FreeRTOS/Source/timers.c **** static BaseType_t prvInsertTimerInActiveList( Timer_t * const pxTimer, const TickType_t xNextExpiry
 182:Middlewares/Third_Party/FreeRTOS/Source/timers.c **** 
 183:Middlewares/Third_Party/FreeRTOS/Source/timers.c **** /*
 184:Middlewares/Third_Party/FreeRTOS/Source/timers.c ****  * An active timer has reached its expire time.  Reload the timer if it is an
 185:Middlewares/Third_Party/FreeRTOS/Source/timers.c ****  * auto reload timer, then call its callback.
 186:Middlewares/Third_Party/FreeRTOS/Source/timers.c ****  */
 187:Middlewares/Third_Party/FreeRTOS/Source/timers.c **** static void prvProcessExpiredTimer( const TickType_t xNextExpireTime, const TickType_t xTimeNow ) P
 188:Middlewares/Third_Party/FreeRTOS/Source/timers.c **** 
 189:Middlewares/Third_Party/FreeRTOS/Source/timers.c **** /*
 190:Middlewares/Third_Party/FreeRTOS/Source/timers.c ****  * The tick count has overflowed.  Switch the timer lists after ensuring the
 191:Middlewares/Third_Party/FreeRTOS/Source/timers.c ****  * current timer list does not still reference some timers.
 192:Middlewares/Third_Party/FreeRTOS/Source/timers.c ****  */
 193:Middlewares/Third_Party/FreeRTOS/Source/timers.c **** static void prvSwitchTimerLists( void ) PRIVILEGED_FUNCTION;
 194:Middlewares/Third_Party/FreeRTOS/Source/timers.c **** 
 195:Middlewares/Third_Party/FreeRTOS/Source/timers.c **** /*
 196:Middlewares/Third_Party/FreeRTOS/Source/timers.c ****  * Obtain the current tick count, setting *pxTimerListsWereSwitched to pdTRUE
 197:Middlewares/Third_Party/FreeRTOS/Source/timers.c ****  * if a tick count overflow occurred since prvSampleTimeNow() was last called.
 198:Middlewares/Third_Party/FreeRTOS/Source/timers.c ****  */
 199:Middlewares/Third_Party/FreeRTOS/Source/timers.c **** static TickType_t prvSampleTimeNow( BaseType_t * const pxTimerListsWereSwitched ) PRIVILEGED_FUNCTI
 200:Middlewares/Third_Party/FreeRTOS/Source/timers.c **** 
 201:Middlewares/Third_Party/FreeRTOS/Source/timers.c **** /*
 202:Middlewares/Third_Party/FreeRTOS/Source/timers.c ****  * If the timer list contains any active timers then return the expire time of
ARM GAS  C:\Users\frees\AppData\Local\Temp\ccAseSOz.s 			page 5


 203:Middlewares/Third_Party/FreeRTOS/Source/timers.c ****  * the timer that will expire first and set *pxListWasEmpty to false.  If the
 204:Middlewares/Third_Party/FreeRTOS/Source/timers.c ****  * timer list does not contain any timers then return 0 and set *pxListWasEmpty
 205:Middlewares/Third_Party/FreeRTOS/Source/timers.c ****  * to pdTRUE.
 206:Middlewares/Third_Party/FreeRTOS/Source/timers.c ****  */
 207:Middlewares/Third_Party/FreeRTOS/Source/timers.c **** static TickType_t prvGetNextExpireTime( BaseType_t * const pxListWasEmpty ) PRIVILEGED_FUNCTION;
 208:Middlewares/Third_Party/FreeRTOS/Source/timers.c **** 
 209:Middlewares/Third_Party/FreeRTOS/Source/timers.c **** /*
 210:Middlewares/Third_Party/FreeRTOS/Source/timers.c ****  * If a timer has expired, process it.  Otherwise, block the timer service task
 211:Middlewares/Third_Party/FreeRTOS/Source/timers.c ****  * until either a timer does expire or a command is received.
 212:Middlewares/Third_Party/FreeRTOS/Source/timers.c ****  */
 213:Middlewares/Third_Party/FreeRTOS/Source/timers.c **** static void prvProcessTimerOrBlockTask( const TickType_t xNextExpireTime, BaseType_t xListWasEmpty 
 214:Middlewares/Third_Party/FreeRTOS/Source/timers.c **** 
 215:Middlewares/Third_Party/FreeRTOS/Source/timers.c **** /*
 216:Middlewares/Third_Party/FreeRTOS/Source/timers.c ****  * Called after a Timer_t structure has been allocated either statically or
 217:Middlewares/Third_Party/FreeRTOS/Source/timers.c ****  * dynamically to fill in the structure's members.
 218:Middlewares/Third_Party/FreeRTOS/Source/timers.c ****  */
 219:Middlewares/Third_Party/FreeRTOS/Source/timers.c **** static void prvInitialiseNewTimer(	const char * const pcTimerName,			/*lint !e971 Unqualified char 
 220:Middlewares/Third_Party/FreeRTOS/Source/timers.c **** 									const TickType_t xTimerPeriodInTicks,
 221:Middlewares/Third_Party/FreeRTOS/Source/timers.c **** 									const UBaseType_t uxAutoReload,
 222:Middlewares/Third_Party/FreeRTOS/Source/timers.c **** 									void * const pvTimerID,
 223:Middlewares/Third_Party/FreeRTOS/Source/timers.c **** 									TimerCallbackFunction_t pxCallbackFunction,
 224:Middlewares/Third_Party/FreeRTOS/Source/timers.c **** 									Timer_t *pxNewTimer ) PRIVILEGED_FUNCTION;
 225:Middlewares/Third_Party/FreeRTOS/Source/timers.c **** /*-----------------------------------------------------------*/
 226:Middlewares/Third_Party/FreeRTOS/Source/timers.c **** 
 227:Middlewares/Third_Party/FreeRTOS/Source/timers.c **** BaseType_t xTimerCreateTimerTask( void )
 228:Middlewares/Third_Party/FreeRTOS/Source/timers.c **** {
 229:Middlewares/Third_Party/FreeRTOS/Source/timers.c **** BaseType_t xReturn = pdFAIL;
 230:Middlewares/Third_Party/FreeRTOS/Source/timers.c **** 
 231:Middlewares/Third_Party/FreeRTOS/Source/timers.c **** 	/* This function is called when the scheduler is started if
 232:Middlewares/Third_Party/FreeRTOS/Source/timers.c **** 	configUSE_TIMERS is set to 1.  Check that the infrastructure used by the
 233:Middlewares/Third_Party/FreeRTOS/Source/timers.c **** 	timer service task has been created/initialised.  If timers have already
 234:Middlewares/Third_Party/FreeRTOS/Source/timers.c **** 	been created then the initialisation will already have been performed. */
 235:Middlewares/Third_Party/FreeRTOS/Source/timers.c **** 	prvCheckForValidListAndQueue();
 236:Middlewares/Third_Party/FreeRTOS/Source/timers.c **** 
 237:Middlewares/Third_Party/FreeRTOS/Source/timers.c **** 	if( xTimerQueue != NULL )
 238:Middlewares/Third_Party/FreeRTOS/Source/timers.c **** 	{
 239:Middlewares/Third_Party/FreeRTOS/Source/timers.c **** 		#if( configSUPPORT_STATIC_ALLOCATION == 1 )
 240:Middlewares/Third_Party/FreeRTOS/Source/timers.c **** 		{
 241:Middlewares/Third_Party/FreeRTOS/Source/timers.c **** 			StaticTask_t *pxTimerTaskTCBBuffer = NULL;
 242:Middlewares/Third_Party/FreeRTOS/Source/timers.c **** 			StackType_t *pxTimerTaskStackBuffer = NULL;
 243:Middlewares/Third_Party/FreeRTOS/Source/timers.c **** 			uint32_t ulTimerTaskStackSize;
 244:Middlewares/Third_Party/FreeRTOS/Source/timers.c **** 
 245:Middlewares/Third_Party/FreeRTOS/Source/timers.c **** 			vApplicationGetTimerTaskMemory( &pxTimerTaskTCBBuffer, &pxTimerTaskStackBuffer, &ulTimerTaskStac
 246:Middlewares/Third_Party/FreeRTOS/Source/timers.c **** 			xTimerTaskHandle = xTaskCreateStatic(	prvTimerTask,
 247:Middlewares/Third_Party/FreeRTOS/Source/timers.c **** 													configTIMER_SERVICE_TASK_NAME,
 248:Middlewares/Third_Party/FreeRTOS/Source/timers.c **** 													ulTimerTaskStackSize,
 249:Middlewares/Third_Party/FreeRTOS/Source/timers.c **** 													NULL,
 250:Middlewares/Third_Party/FreeRTOS/Source/timers.c **** 													( ( UBaseType_t ) configTIMER_TASK_PRIORITY ) | portPRIVILEGE_BIT,
 251:Middlewares/Third_Party/FreeRTOS/Source/timers.c **** 													pxTimerTaskStackBuffer,
 252:Middlewares/Third_Party/FreeRTOS/Source/timers.c **** 													pxTimerTaskTCBBuffer );
 253:Middlewares/Third_Party/FreeRTOS/Source/timers.c **** 
 254:Middlewares/Third_Party/FreeRTOS/Source/timers.c **** 			if( xTimerTaskHandle != NULL )
 255:Middlewares/Third_Party/FreeRTOS/Source/timers.c **** 			{
 256:Middlewares/Third_Party/FreeRTOS/Source/timers.c **** 				xReturn = pdPASS;
 257:Middlewares/Third_Party/FreeRTOS/Source/timers.c **** 			}
 258:Middlewares/Third_Party/FreeRTOS/Source/timers.c **** 		}
 259:Middlewares/Third_Party/FreeRTOS/Source/timers.c **** 		#else
ARM GAS  C:\Users\frees\AppData\Local\Temp\ccAseSOz.s 			page 6


 260:Middlewares/Third_Party/FreeRTOS/Source/timers.c **** 		{
 261:Middlewares/Third_Party/FreeRTOS/Source/timers.c **** 			xReturn = xTaskCreate(	prvTimerTask,
 262:Middlewares/Third_Party/FreeRTOS/Source/timers.c **** 									configTIMER_SERVICE_TASK_NAME,
 263:Middlewares/Third_Party/FreeRTOS/Source/timers.c **** 									configTIMER_TASK_STACK_DEPTH,
 264:Middlewares/Third_Party/FreeRTOS/Source/timers.c **** 									NULL,
 265:Middlewares/Third_Party/FreeRTOS/Source/timers.c **** 									( ( UBaseType_t ) configTIMER_TASK_PRIORITY ) | portPRIVILEGE_BIT,
 266:Middlewares/Third_Party/FreeRTOS/Source/timers.c **** 									&xTimerTaskHandle );
 267:Middlewares/Third_Party/FreeRTOS/Source/timers.c **** 		}
 268:Middlewares/Third_Party/FreeRTOS/Source/timers.c **** 		#endif /* configSUPPORT_STATIC_ALLOCATION */
 269:Middlewares/Third_Party/FreeRTOS/Source/timers.c **** 	}
 270:Middlewares/Third_Party/FreeRTOS/Source/timers.c **** 	else
 271:Middlewares/Third_Party/FreeRTOS/Source/timers.c **** 	{
 272:Middlewares/Third_Party/FreeRTOS/Source/timers.c **** 		mtCOVERAGE_TEST_MARKER();
 273:Middlewares/Third_Party/FreeRTOS/Source/timers.c **** 	}
 274:Middlewares/Third_Party/FreeRTOS/Source/timers.c **** 
 275:Middlewares/Third_Party/FreeRTOS/Source/timers.c **** 	configASSERT( xReturn );
 276:Middlewares/Third_Party/FreeRTOS/Source/timers.c **** 	return xReturn;
 277:Middlewares/Third_Party/FreeRTOS/Source/timers.c **** }
 278:Middlewares/Third_Party/FreeRTOS/Source/timers.c **** /*-----------------------------------------------------------*/
 279:Middlewares/Third_Party/FreeRTOS/Source/timers.c **** 
 280:Middlewares/Third_Party/FreeRTOS/Source/timers.c **** #if( configSUPPORT_DYNAMIC_ALLOCATION == 1 )
 281:Middlewares/Third_Party/FreeRTOS/Source/timers.c **** 
 282:Middlewares/Third_Party/FreeRTOS/Source/timers.c **** 	TimerHandle_t xTimerCreate(	const char * const pcTimerName,			/*lint !e971 Unqualified char types 
 283:Middlewares/Third_Party/FreeRTOS/Source/timers.c **** 								const TickType_t xTimerPeriodInTicks,
 284:Middlewares/Third_Party/FreeRTOS/Source/timers.c **** 								const UBaseType_t uxAutoReload,
 285:Middlewares/Third_Party/FreeRTOS/Source/timers.c **** 								void * const pvTimerID,
 286:Middlewares/Third_Party/FreeRTOS/Source/timers.c **** 								TimerCallbackFunction_t pxCallbackFunction )
 287:Middlewares/Third_Party/FreeRTOS/Source/timers.c **** 	{
 288:Middlewares/Third_Party/FreeRTOS/Source/timers.c **** 	Timer_t *pxNewTimer;
 289:Middlewares/Third_Party/FreeRTOS/Source/timers.c **** 
 290:Middlewares/Third_Party/FreeRTOS/Source/timers.c **** 		pxNewTimer = ( Timer_t * ) pvPortMalloc( sizeof( Timer_t ) ); /*lint !e9087 !e9079 All values ret
 291:Middlewares/Third_Party/FreeRTOS/Source/timers.c **** 
 292:Middlewares/Third_Party/FreeRTOS/Source/timers.c **** 		if( pxNewTimer != NULL )
 293:Middlewares/Third_Party/FreeRTOS/Source/timers.c **** 		{
 294:Middlewares/Third_Party/FreeRTOS/Source/timers.c **** 			/* Status is thus far zero as the timer is not created statically
 295:Middlewares/Third_Party/FreeRTOS/Source/timers.c **** 			and has not been started.  The autoreload bit may get set in
 296:Middlewares/Third_Party/FreeRTOS/Source/timers.c **** 			prvInitialiseNewTimer. */
 297:Middlewares/Third_Party/FreeRTOS/Source/timers.c **** 			pxNewTimer->ucStatus = 0x00;
 298:Middlewares/Third_Party/FreeRTOS/Source/timers.c **** 			prvInitialiseNewTimer( pcTimerName, xTimerPeriodInTicks, uxAutoReload, pvTimerID, pxCallbackFunc
 299:Middlewares/Third_Party/FreeRTOS/Source/timers.c **** 		}
 300:Middlewares/Third_Party/FreeRTOS/Source/timers.c **** 
 301:Middlewares/Third_Party/FreeRTOS/Source/timers.c **** 		return pxNewTimer;
 302:Middlewares/Third_Party/FreeRTOS/Source/timers.c **** 	}
 303:Middlewares/Third_Party/FreeRTOS/Source/timers.c **** 
 304:Middlewares/Third_Party/FreeRTOS/Source/timers.c **** #endif /* configSUPPORT_DYNAMIC_ALLOCATION */
 305:Middlewares/Third_Party/FreeRTOS/Source/timers.c **** /*-----------------------------------------------------------*/
 306:Middlewares/Third_Party/FreeRTOS/Source/timers.c **** 
 307:Middlewares/Third_Party/FreeRTOS/Source/timers.c **** #if( configSUPPORT_STATIC_ALLOCATION == 1 )
 308:Middlewares/Third_Party/FreeRTOS/Source/timers.c **** 
 309:Middlewares/Third_Party/FreeRTOS/Source/timers.c **** 	TimerHandle_t xTimerCreateStatic(	const char * const pcTimerName,		/*lint !e971 Unqualified char t
 310:Middlewares/Third_Party/FreeRTOS/Source/timers.c **** 										const TickType_t xTimerPeriodInTicks,
 311:Middlewares/Third_Party/FreeRTOS/Source/timers.c **** 										const UBaseType_t uxAutoReload,
 312:Middlewares/Third_Party/FreeRTOS/Source/timers.c **** 										void * const pvTimerID,
 313:Middlewares/Third_Party/FreeRTOS/Source/timers.c **** 										TimerCallbackFunction_t pxCallbackFunction,
 314:Middlewares/Third_Party/FreeRTOS/Source/timers.c **** 										StaticTimer_t *pxTimerBuffer )
 315:Middlewares/Third_Party/FreeRTOS/Source/timers.c **** 	{
 316:Middlewares/Third_Party/FreeRTOS/Source/timers.c **** 	Timer_t *pxNewTimer;
ARM GAS  C:\Users\frees\AppData\Local\Temp\ccAseSOz.s 			page 7


 317:Middlewares/Third_Party/FreeRTOS/Source/timers.c **** 
 318:Middlewares/Third_Party/FreeRTOS/Source/timers.c **** 		#if( configASSERT_DEFINED == 1 )
 319:Middlewares/Third_Party/FreeRTOS/Source/timers.c **** 		{
 320:Middlewares/Third_Party/FreeRTOS/Source/timers.c **** 			/* Sanity check that the size of the structure used to declare a
 321:Middlewares/Third_Party/FreeRTOS/Source/timers.c **** 			variable of type StaticTimer_t equals the size of the real timer
 322:Middlewares/Third_Party/FreeRTOS/Source/timers.c **** 			structure. */
 323:Middlewares/Third_Party/FreeRTOS/Source/timers.c **** 			volatile size_t xSize = sizeof( StaticTimer_t );
 324:Middlewares/Third_Party/FreeRTOS/Source/timers.c **** 			configASSERT( xSize == sizeof( Timer_t ) );
 325:Middlewares/Third_Party/FreeRTOS/Source/timers.c **** 			( void ) xSize; /* Keeps lint quiet when configASSERT() is not defined. */
 326:Middlewares/Third_Party/FreeRTOS/Source/timers.c **** 		}
 327:Middlewares/Third_Party/FreeRTOS/Source/timers.c **** 		#endif /* configASSERT_DEFINED */
 328:Middlewares/Third_Party/FreeRTOS/Source/timers.c **** 
 329:Middlewares/Third_Party/FreeRTOS/Source/timers.c **** 		/* A pointer to a StaticTimer_t structure MUST be provided, use it. */
 330:Middlewares/Third_Party/FreeRTOS/Source/timers.c **** 		configASSERT( pxTimerBuffer );
 331:Middlewares/Third_Party/FreeRTOS/Source/timers.c **** 		pxNewTimer = ( Timer_t * ) pxTimerBuffer; /*lint !e740 !e9087 StaticTimer_t is a pointer to a Tim
 332:Middlewares/Third_Party/FreeRTOS/Source/timers.c **** 
 333:Middlewares/Third_Party/FreeRTOS/Source/timers.c **** 		if( pxNewTimer != NULL )
 334:Middlewares/Third_Party/FreeRTOS/Source/timers.c **** 		{
 335:Middlewares/Third_Party/FreeRTOS/Source/timers.c **** 			/* Timers can be created statically or dynamically so note this
 336:Middlewares/Third_Party/FreeRTOS/Source/timers.c **** 			timer was created statically in case it is later deleted.  The
 337:Middlewares/Third_Party/FreeRTOS/Source/timers.c **** 			autoreload bit may get set in prvInitialiseNewTimer(). */
 338:Middlewares/Third_Party/FreeRTOS/Source/timers.c **** 			pxNewTimer->ucStatus = tmrSTATUS_IS_STATICALLY_ALLOCATED;
 339:Middlewares/Third_Party/FreeRTOS/Source/timers.c **** 
 340:Middlewares/Third_Party/FreeRTOS/Source/timers.c **** 			prvInitialiseNewTimer( pcTimerName, xTimerPeriodInTicks, uxAutoReload, pvTimerID, pxCallbackFunc
 341:Middlewares/Third_Party/FreeRTOS/Source/timers.c **** 		}
 342:Middlewares/Third_Party/FreeRTOS/Source/timers.c **** 
 343:Middlewares/Third_Party/FreeRTOS/Source/timers.c **** 		return pxNewTimer;
 344:Middlewares/Third_Party/FreeRTOS/Source/timers.c **** 	}
 345:Middlewares/Third_Party/FreeRTOS/Source/timers.c **** 
 346:Middlewares/Third_Party/FreeRTOS/Source/timers.c **** #endif /* configSUPPORT_STATIC_ALLOCATION */
 347:Middlewares/Third_Party/FreeRTOS/Source/timers.c **** /*-----------------------------------------------------------*/
 348:Middlewares/Third_Party/FreeRTOS/Source/timers.c **** 
 349:Middlewares/Third_Party/FreeRTOS/Source/timers.c **** static void prvInitialiseNewTimer(	const char * const pcTimerName,			/*lint !e971 Unqualified char 
 350:Middlewares/Third_Party/FreeRTOS/Source/timers.c **** 									const TickType_t xTimerPeriodInTicks,
 351:Middlewares/Third_Party/FreeRTOS/Source/timers.c **** 									const UBaseType_t uxAutoReload,
 352:Middlewares/Third_Party/FreeRTOS/Source/timers.c **** 									void * const pvTimerID,
 353:Middlewares/Third_Party/FreeRTOS/Source/timers.c **** 									TimerCallbackFunction_t pxCallbackFunction,
 354:Middlewares/Third_Party/FreeRTOS/Source/timers.c **** 									Timer_t *pxNewTimer )
 355:Middlewares/Third_Party/FreeRTOS/Source/timers.c **** {
 356:Middlewares/Third_Party/FreeRTOS/Source/timers.c **** 	/* 0 is not a valid value for xTimerPeriodInTicks. */
 357:Middlewares/Third_Party/FreeRTOS/Source/timers.c **** 	configASSERT( ( xTimerPeriodInTicks > 0 ) );
 358:Middlewares/Third_Party/FreeRTOS/Source/timers.c **** 
 359:Middlewares/Third_Party/FreeRTOS/Source/timers.c **** 	if( pxNewTimer != NULL )
 360:Middlewares/Third_Party/FreeRTOS/Source/timers.c **** 	{
 361:Middlewares/Third_Party/FreeRTOS/Source/timers.c **** 		/* Ensure the infrastructure used by the timer service task has been
 362:Middlewares/Third_Party/FreeRTOS/Source/timers.c **** 		created/initialised. */
 363:Middlewares/Third_Party/FreeRTOS/Source/timers.c **** 		prvCheckForValidListAndQueue();
 364:Middlewares/Third_Party/FreeRTOS/Source/timers.c **** 
 365:Middlewares/Third_Party/FreeRTOS/Source/timers.c **** 		/* Initialise the timer structure members using the function
 366:Middlewares/Third_Party/FreeRTOS/Source/timers.c **** 		parameters. */
 367:Middlewares/Third_Party/FreeRTOS/Source/timers.c **** 		pxNewTimer->pcTimerName = pcTimerName;
 368:Middlewares/Third_Party/FreeRTOS/Source/timers.c **** 		pxNewTimer->xTimerPeriodInTicks = xTimerPeriodInTicks;
 369:Middlewares/Third_Party/FreeRTOS/Source/timers.c **** 		pxNewTimer->pvTimerID = pvTimerID;
 370:Middlewares/Third_Party/FreeRTOS/Source/timers.c **** 		pxNewTimer->pxCallbackFunction = pxCallbackFunction;
 371:Middlewares/Third_Party/FreeRTOS/Source/timers.c **** 		vListInitialiseItem( &( pxNewTimer->xTimerListItem ) );
 372:Middlewares/Third_Party/FreeRTOS/Source/timers.c **** 		if( uxAutoReload != pdFALSE )
 373:Middlewares/Third_Party/FreeRTOS/Source/timers.c **** 		{
ARM GAS  C:\Users\frees\AppData\Local\Temp\ccAseSOz.s 			page 8


 374:Middlewares/Third_Party/FreeRTOS/Source/timers.c **** 			pxNewTimer->ucStatus |= tmrSTATUS_IS_AUTORELOAD;
 375:Middlewares/Third_Party/FreeRTOS/Source/timers.c **** 		}
 376:Middlewares/Third_Party/FreeRTOS/Source/timers.c **** 		traceTIMER_CREATE( pxNewTimer );
 377:Middlewares/Third_Party/FreeRTOS/Source/timers.c **** 	}
 378:Middlewares/Third_Party/FreeRTOS/Source/timers.c **** }
 379:Middlewares/Third_Party/FreeRTOS/Source/timers.c **** /*-----------------------------------------------------------*/
 380:Middlewares/Third_Party/FreeRTOS/Source/timers.c **** 
 381:Middlewares/Third_Party/FreeRTOS/Source/timers.c **** BaseType_t xTimerGenericCommand( TimerHandle_t xTimer, const BaseType_t xCommandID, const TickType_
 382:Middlewares/Third_Party/FreeRTOS/Source/timers.c **** {
 383:Middlewares/Third_Party/FreeRTOS/Source/timers.c **** BaseType_t xReturn = pdFAIL;
 384:Middlewares/Third_Party/FreeRTOS/Source/timers.c **** DaemonTaskMessage_t xMessage;
 385:Middlewares/Third_Party/FreeRTOS/Source/timers.c **** 
 386:Middlewares/Third_Party/FreeRTOS/Source/timers.c **** 	configASSERT( xTimer );
 387:Middlewares/Third_Party/FreeRTOS/Source/timers.c **** 
 388:Middlewares/Third_Party/FreeRTOS/Source/timers.c **** 	/* Send a message to the timer service task to perform a particular action
 389:Middlewares/Third_Party/FreeRTOS/Source/timers.c **** 	on a particular timer definition. */
 390:Middlewares/Third_Party/FreeRTOS/Source/timers.c **** 	if( xTimerQueue != NULL )
 391:Middlewares/Third_Party/FreeRTOS/Source/timers.c **** 	{
 392:Middlewares/Third_Party/FreeRTOS/Source/timers.c **** 		/* Send a command to the timer service task to start the xTimer timer. */
 393:Middlewares/Third_Party/FreeRTOS/Source/timers.c **** 		xMessage.xMessageID = xCommandID;
 394:Middlewares/Third_Party/FreeRTOS/Source/timers.c **** 		xMessage.u.xTimerParameters.xMessageValue = xOptionalValue;
 395:Middlewares/Third_Party/FreeRTOS/Source/timers.c **** 		xMessage.u.xTimerParameters.pxTimer = xTimer;
 396:Middlewares/Third_Party/FreeRTOS/Source/timers.c **** 
 397:Middlewares/Third_Party/FreeRTOS/Source/timers.c **** 		if( xCommandID < tmrFIRST_FROM_ISR_COMMAND )
 398:Middlewares/Third_Party/FreeRTOS/Source/timers.c **** 		{
 399:Middlewares/Third_Party/FreeRTOS/Source/timers.c **** 			if( xTaskGetSchedulerState() == taskSCHEDULER_RUNNING )
 400:Middlewares/Third_Party/FreeRTOS/Source/timers.c **** 			{
 401:Middlewares/Third_Party/FreeRTOS/Source/timers.c **** 				xReturn = xQueueSendToBack( xTimerQueue, &xMessage, xTicksToWait );
 402:Middlewares/Third_Party/FreeRTOS/Source/timers.c **** 			}
 403:Middlewares/Third_Party/FreeRTOS/Source/timers.c **** 			else
 404:Middlewares/Third_Party/FreeRTOS/Source/timers.c **** 			{
 405:Middlewares/Third_Party/FreeRTOS/Source/timers.c **** 				xReturn = xQueueSendToBack( xTimerQueue, &xMessage, tmrNO_DELAY );
 406:Middlewares/Third_Party/FreeRTOS/Source/timers.c **** 			}
 407:Middlewares/Third_Party/FreeRTOS/Source/timers.c **** 		}
 408:Middlewares/Third_Party/FreeRTOS/Source/timers.c **** 		else
 409:Middlewares/Third_Party/FreeRTOS/Source/timers.c **** 		{
 410:Middlewares/Third_Party/FreeRTOS/Source/timers.c **** 			xReturn = xQueueSendToBackFromISR( xTimerQueue, &xMessage, pxHigherPriorityTaskWoken );
 411:Middlewares/Third_Party/FreeRTOS/Source/timers.c **** 		}
 412:Middlewares/Third_Party/FreeRTOS/Source/timers.c **** 
 413:Middlewares/Third_Party/FreeRTOS/Source/timers.c **** 		traceTIMER_COMMAND_SEND( xTimer, xCommandID, xOptionalValue, xReturn );
 414:Middlewares/Third_Party/FreeRTOS/Source/timers.c **** 	}
 415:Middlewares/Third_Party/FreeRTOS/Source/timers.c **** 	else
 416:Middlewares/Third_Party/FreeRTOS/Source/timers.c **** 	{
 417:Middlewares/Third_Party/FreeRTOS/Source/timers.c **** 		mtCOVERAGE_TEST_MARKER();
 418:Middlewares/Third_Party/FreeRTOS/Source/timers.c **** 	}
 419:Middlewares/Third_Party/FreeRTOS/Source/timers.c **** 
 420:Middlewares/Third_Party/FreeRTOS/Source/timers.c **** 	return xReturn;
 421:Middlewares/Third_Party/FreeRTOS/Source/timers.c **** }
 422:Middlewares/Third_Party/FreeRTOS/Source/timers.c **** /*-----------------------------------------------------------*/
 423:Middlewares/Third_Party/FreeRTOS/Source/timers.c **** 
 424:Middlewares/Third_Party/FreeRTOS/Source/timers.c **** TaskHandle_t xTimerGetTimerDaemonTaskHandle( void )
 425:Middlewares/Third_Party/FreeRTOS/Source/timers.c **** {
 426:Middlewares/Third_Party/FreeRTOS/Source/timers.c **** 	/* If xTimerGetTimerDaemonTaskHandle() is called before the scheduler has been
 427:Middlewares/Third_Party/FreeRTOS/Source/timers.c **** 	started, then xTimerTaskHandle will be NULL. */
 428:Middlewares/Third_Party/FreeRTOS/Source/timers.c **** 	configASSERT( ( xTimerTaskHandle != NULL ) );
 429:Middlewares/Third_Party/FreeRTOS/Source/timers.c **** 	return xTimerTaskHandle;
 430:Middlewares/Third_Party/FreeRTOS/Source/timers.c **** }
ARM GAS  C:\Users\frees\AppData\Local\Temp\ccAseSOz.s 			page 9


 431:Middlewares/Third_Party/FreeRTOS/Source/timers.c **** /*-----------------------------------------------------------*/
 432:Middlewares/Third_Party/FreeRTOS/Source/timers.c **** 
 433:Middlewares/Third_Party/FreeRTOS/Source/timers.c **** TickType_t xTimerGetPeriod( TimerHandle_t xTimer )
 434:Middlewares/Third_Party/FreeRTOS/Source/timers.c **** {
 435:Middlewares/Third_Party/FreeRTOS/Source/timers.c **** Timer_t *pxTimer = xTimer;
 436:Middlewares/Third_Party/FreeRTOS/Source/timers.c **** 
 437:Middlewares/Third_Party/FreeRTOS/Source/timers.c **** 	configASSERT( xTimer );
 438:Middlewares/Third_Party/FreeRTOS/Source/timers.c **** 	return pxTimer->xTimerPeriodInTicks;
 439:Middlewares/Third_Party/FreeRTOS/Source/timers.c **** }
 440:Middlewares/Third_Party/FreeRTOS/Source/timers.c **** /*-----------------------------------------------------------*/
 441:Middlewares/Third_Party/FreeRTOS/Source/timers.c **** 
 442:Middlewares/Third_Party/FreeRTOS/Source/timers.c **** void vTimerSetReloadMode( TimerHandle_t xTimer, const UBaseType_t uxAutoReload )
 443:Middlewares/Third_Party/FreeRTOS/Source/timers.c **** {
 444:Middlewares/Third_Party/FreeRTOS/Source/timers.c **** Timer_t * pxTimer =  xTimer;
 445:Middlewares/Third_Party/FreeRTOS/Source/timers.c **** 
 446:Middlewares/Third_Party/FreeRTOS/Source/timers.c **** 	configASSERT( xTimer );
 447:Middlewares/Third_Party/FreeRTOS/Source/timers.c **** 	taskENTER_CRITICAL();
 448:Middlewares/Third_Party/FreeRTOS/Source/timers.c **** 	{
 449:Middlewares/Third_Party/FreeRTOS/Source/timers.c **** 		if( uxAutoReload != pdFALSE )
 450:Middlewares/Third_Party/FreeRTOS/Source/timers.c **** 		{
 451:Middlewares/Third_Party/FreeRTOS/Source/timers.c **** 			pxTimer->ucStatus |= tmrSTATUS_IS_AUTORELOAD;
 452:Middlewares/Third_Party/FreeRTOS/Source/timers.c **** 		}
 453:Middlewares/Third_Party/FreeRTOS/Source/timers.c **** 		else
 454:Middlewares/Third_Party/FreeRTOS/Source/timers.c **** 		{
 455:Middlewares/Third_Party/FreeRTOS/Source/timers.c **** 			pxTimer->ucStatus &= ~tmrSTATUS_IS_AUTORELOAD;
 456:Middlewares/Third_Party/FreeRTOS/Source/timers.c **** 		}
 457:Middlewares/Third_Party/FreeRTOS/Source/timers.c **** 	}
 458:Middlewares/Third_Party/FreeRTOS/Source/timers.c **** 	taskEXIT_CRITICAL();
 459:Middlewares/Third_Party/FreeRTOS/Source/timers.c **** }
 460:Middlewares/Third_Party/FreeRTOS/Source/timers.c **** /*-----------------------------------------------------------*/
 461:Middlewares/Third_Party/FreeRTOS/Source/timers.c **** 
 462:Middlewares/Third_Party/FreeRTOS/Source/timers.c **** TickType_t xTimerGetExpiryTime( TimerHandle_t xTimer )
 463:Middlewares/Third_Party/FreeRTOS/Source/timers.c **** {
 464:Middlewares/Third_Party/FreeRTOS/Source/timers.c **** Timer_t * pxTimer =  xTimer;
 465:Middlewares/Third_Party/FreeRTOS/Source/timers.c **** TickType_t xReturn;
 466:Middlewares/Third_Party/FreeRTOS/Source/timers.c **** 
 467:Middlewares/Third_Party/FreeRTOS/Source/timers.c **** 	configASSERT( xTimer );
 468:Middlewares/Third_Party/FreeRTOS/Source/timers.c **** 	xReturn = listGET_LIST_ITEM_VALUE( &( pxTimer->xTimerListItem ) );
 469:Middlewares/Third_Party/FreeRTOS/Source/timers.c **** 	return xReturn;
 470:Middlewares/Third_Party/FreeRTOS/Source/timers.c **** }
 471:Middlewares/Third_Party/FreeRTOS/Source/timers.c **** /*-----------------------------------------------------------*/
 472:Middlewares/Third_Party/FreeRTOS/Source/timers.c **** 
 473:Middlewares/Third_Party/FreeRTOS/Source/timers.c **** const char * pcTimerGetName( TimerHandle_t xTimer ) /*lint !e971 Unqualified char types are allowed
 474:Middlewares/Third_Party/FreeRTOS/Source/timers.c **** {
 475:Middlewares/Third_Party/FreeRTOS/Source/timers.c **** Timer_t *pxTimer = xTimer;
 476:Middlewares/Third_Party/FreeRTOS/Source/timers.c **** 
 477:Middlewares/Third_Party/FreeRTOS/Source/timers.c **** 	configASSERT( xTimer );
 478:Middlewares/Third_Party/FreeRTOS/Source/timers.c **** 	return pxTimer->pcTimerName;
 479:Middlewares/Third_Party/FreeRTOS/Source/timers.c **** }
 480:Middlewares/Third_Party/FreeRTOS/Source/timers.c **** /*-----------------------------------------------------------*/
 481:Middlewares/Third_Party/FreeRTOS/Source/timers.c **** 
 482:Middlewares/Third_Party/FreeRTOS/Source/timers.c **** static void prvProcessExpiredTimer( const TickType_t xNextExpireTime, const TickType_t xTimeNow )
 483:Middlewares/Third_Party/FreeRTOS/Source/timers.c **** {
 484:Middlewares/Third_Party/FreeRTOS/Source/timers.c **** BaseType_t xResult;
 485:Middlewares/Third_Party/FreeRTOS/Source/timers.c **** Timer_t * const pxTimer = ( Timer_t * ) listGET_OWNER_OF_HEAD_ENTRY( pxCurrentTimerList ); /*lint !
 486:Middlewares/Third_Party/FreeRTOS/Source/timers.c **** 
 487:Middlewares/Third_Party/FreeRTOS/Source/timers.c **** 	/* Remove the timer from the list of active timers.  A check has already
ARM GAS  C:\Users\frees\AppData\Local\Temp\ccAseSOz.s 			page 10


 488:Middlewares/Third_Party/FreeRTOS/Source/timers.c **** 	been performed to ensure the list is not empty. */
 489:Middlewares/Third_Party/FreeRTOS/Source/timers.c **** 	( void ) uxListRemove( &( pxTimer->xTimerListItem ) );
 490:Middlewares/Third_Party/FreeRTOS/Source/timers.c **** 	traceTIMER_EXPIRED( pxTimer );
 491:Middlewares/Third_Party/FreeRTOS/Source/timers.c **** 
 492:Middlewares/Third_Party/FreeRTOS/Source/timers.c **** 	/* If the timer is an auto reload timer then calculate the next
 493:Middlewares/Third_Party/FreeRTOS/Source/timers.c **** 	expiry time and re-insert the timer in the list of active timers. */
 494:Middlewares/Third_Party/FreeRTOS/Source/timers.c **** 	if( ( pxTimer->ucStatus & tmrSTATUS_IS_AUTORELOAD ) != 0 )
 495:Middlewares/Third_Party/FreeRTOS/Source/timers.c **** 	{
 496:Middlewares/Third_Party/FreeRTOS/Source/timers.c **** 		/* The timer is inserted into a list using a time relative to anything
 497:Middlewares/Third_Party/FreeRTOS/Source/timers.c **** 		other than the current time.  It will therefore be inserted into the
 498:Middlewares/Third_Party/FreeRTOS/Source/timers.c **** 		correct list relative to the time this task thinks it is now. */
 499:Middlewares/Third_Party/FreeRTOS/Source/timers.c **** 		if( prvInsertTimerInActiveList( pxTimer, ( xNextExpireTime + pxTimer->xTimerPeriodInTicks ), xTim
 500:Middlewares/Third_Party/FreeRTOS/Source/timers.c **** 		{
 501:Middlewares/Third_Party/FreeRTOS/Source/timers.c **** 			/* The timer expired before it was added to the active timer
 502:Middlewares/Third_Party/FreeRTOS/Source/timers.c **** 			list.  Reload it now.  */
 503:Middlewares/Third_Party/FreeRTOS/Source/timers.c **** 			xResult = xTimerGenericCommand( pxTimer, tmrCOMMAND_START_DONT_TRACE, xNextExpireTime, NULL, tmr
 504:Middlewares/Third_Party/FreeRTOS/Source/timers.c **** 			configASSERT( xResult );
 505:Middlewares/Third_Party/FreeRTOS/Source/timers.c **** 			( void ) xResult;
 506:Middlewares/Third_Party/FreeRTOS/Source/timers.c **** 		}
 507:Middlewares/Third_Party/FreeRTOS/Source/timers.c **** 		else
 508:Middlewares/Third_Party/FreeRTOS/Source/timers.c **** 		{
 509:Middlewares/Third_Party/FreeRTOS/Source/timers.c **** 			mtCOVERAGE_TEST_MARKER();
 510:Middlewares/Third_Party/FreeRTOS/Source/timers.c **** 		}
 511:Middlewares/Third_Party/FreeRTOS/Source/timers.c **** 	}
 512:Middlewares/Third_Party/FreeRTOS/Source/timers.c **** 	else
 513:Middlewares/Third_Party/FreeRTOS/Source/timers.c **** 	{
 514:Middlewares/Third_Party/FreeRTOS/Source/timers.c **** 		pxTimer->ucStatus &= ~tmrSTATUS_IS_ACTIVE;
 515:Middlewares/Third_Party/FreeRTOS/Source/timers.c **** 		mtCOVERAGE_TEST_MARKER();
 516:Middlewares/Third_Party/FreeRTOS/Source/timers.c **** 	}
 517:Middlewares/Third_Party/FreeRTOS/Source/timers.c **** 
 518:Middlewares/Third_Party/FreeRTOS/Source/timers.c **** 	/* Call the timer callback. */
 519:Middlewares/Third_Party/FreeRTOS/Source/timers.c **** 	pxTimer->pxCallbackFunction( ( TimerHandle_t ) pxTimer );
 520:Middlewares/Third_Party/FreeRTOS/Source/timers.c **** }
 521:Middlewares/Third_Party/FreeRTOS/Source/timers.c **** /*-----------------------------------------------------------*/
 522:Middlewares/Third_Party/FreeRTOS/Source/timers.c **** 
 523:Middlewares/Third_Party/FreeRTOS/Source/timers.c **** static portTASK_FUNCTION( prvTimerTask, pvParameters )
 524:Middlewares/Third_Party/FreeRTOS/Source/timers.c **** {
 525:Middlewares/Third_Party/FreeRTOS/Source/timers.c **** TickType_t xNextExpireTime;
 526:Middlewares/Third_Party/FreeRTOS/Source/timers.c **** BaseType_t xListWasEmpty;
 527:Middlewares/Third_Party/FreeRTOS/Source/timers.c **** 
 528:Middlewares/Third_Party/FreeRTOS/Source/timers.c **** 	/* Just to avoid compiler warnings. */
 529:Middlewares/Third_Party/FreeRTOS/Source/timers.c **** 	( void ) pvParameters;
 530:Middlewares/Third_Party/FreeRTOS/Source/timers.c **** 
 531:Middlewares/Third_Party/FreeRTOS/Source/timers.c **** 	#if( configUSE_DAEMON_TASK_STARTUP_HOOK == 1 )
 532:Middlewares/Third_Party/FreeRTOS/Source/timers.c **** 	{
 533:Middlewares/Third_Party/FreeRTOS/Source/timers.c **** 		extern void vApplicationDaemonTaskStartupHook( void );
 534:Middlewares/Third_Party/FreeRTOS/Source/timers.c **** 
 535:Middlewares/Third_Party/FreeRTOS/Source/timers.c **** 		/* Allow the application writer to execute some code in the context of
 536:Middlewares/Third_Party/FreeRTOS/Source/timers.c **** 		this task at the point the task starts executing.  This is useful if the
 537:Middlewares/Third_Party/FreeRTOS/Source/timers.c **** 		application includes initialisation code that would benefit from
 538:Middlewares/Third_Party/FreeRTOS/Source/timers.c **** 		executing after the scheduler has been started. */
 539:Middlewares/Third_Party/FreeRTOS/Source/timers.c **** 		vApplicationDaemonTaskStartupHook();
 540:Middlewares/Third_Party/FreeRTOS/Source/timers.c **** 	}
 541:Middlewares/Third_Party/FreeRTOS/Source/timers.c **** 	#endif /* configUSE_DAEMON_TASK_STARTUP_HOOK */
 542:Middlewares/Third_Party/FreeRTOS/Source/timers.c **** 
 543:Middlewares/Third_Party/FreeRTOS/Source/timers.c **** 	for( ;; )
 544:Middlewares/Third_Party/FreeRTOS/Source/timers.c **** 	{
ARM GAS  C:\Users\frees\AppData\Local\Temp\ccAseSOz.s 			page 11


 545:Middlewares/Third_Party/FreeRTOS/Source/timers.c **** 		/* Query the timers list to see if it contains any timers, and if so,
 546:Middlewares/Third_Party/FreeRTOS/Source/timers.c **** 		obtain the time at which the next timer will expire. */
 547:Middlewares/Third_Party/FreeRTOS/Source/timers.c **** 		xNextExpireTime = prvGetNextExpireTime( &xListWasEmpty );
 548:Middlewares/Third_Party/FreeRTOS/Source/timers.c **** 
 549:Middlewares/Third_Party/FreeRTOS/Source/timers.c **** 		/* If a timer has expired, process it.  Otherwise, block this task
 550:Middlewares/Third_Party/FreeRTOS/Source/timers.c **** 		until either a timer does expire, or a command is received. */
 551:Middlewares/Third_Party/FreeRTOS/Source/timers.c **** 		prvProcessTimerOrBlockTask( xNextExpireTime, xListWasEmpty );
 552:Middlewares/Third_Party/FreeRTOS/Source/timers.c **** 
 553:Middlewares/Third_Party/FreeRTOS/Source/timers.c **** 		/* Empty the command queue. */
 554:Middlewares/Third_Party/FreeRTOS/Source/timers.c **** 		prvProcessReceivedCommands();
 555:Middlewares/Third_Party/FreeRTOS/Source/timers.c **** 	}
 556:Middlewares/Third_Party/FreeRTOS/Source/timers.c **** }
 557:Middlewares/Third_Party/FreeRTOS/Source/timers.c **** /*-----------------------------------------------------------*/
 558:Middlewares/Third_Party/FreeRTOS/Source/timers.c **** 
 559:Middlewares/Third_Party/FreeRTOS/Source/timers.c **** static void prvProcessTimerOrBlockTask( const TickType_t xNextExpireTime, BaseType_t xListWasEmpty 
 560:Middlewares/Third_Party/FreeRTOS/Source/timers.c **** {
 561:Middlewares/Third_Party/FreeRTOS/Source/timers.c **** TickType_t xTimeNow;
 562:Middlewares/Third_Party/FreeRTOS/Source/timers.c **** BaseType_t xTimerListsWereSwitched;
 563:Middlewares/Third_Party/FreeRTOS/Source/timers.c **** 
 564:Middlewares/Third_Party/FreeRTOS/Source/timers.c **** 	vTaskSuspendAll();
 565:Middlewares/Third_Party/FreeRTOS/Source/timers.c **** 	{
 566:Middlewares/Third_Party/FreeRTOS/Source/timers.c **** 		/* Obtain the time now to make an assessment as to whether the timer
 567:Middlewares/Third_Party/FreeRTOS/Source/timers.c **** 		has expired or not.  If obtaining the time causes the lists to switch
 568:Middlewares/Third_Party/FreeRTOS/Source/timers.c **** 		then don't process this timer as any timers that remained in the list
 569:Middlewares/Third_Party/FreeRTOS/Source/timers.c **** 		when the lists were switched will have been processed within the
 570:Middlewares/Third_Party/FreeRTOS/Source/timers.c **** 		prvSampleTimeNow() function. */
 571:Middlewares/Third_Party/FreeRTOS/Source/timers.c **** 		xTimeNow = prvSampleTimeNow( &xTimerListsWereSwitched );
 572:Middlewares/Third_Party/FreeRTOS/Source/timers.c **** 		if( xTimerListsWereSwitched == pdFALSE )
 573:Middlewares/Third_Party/FreeRTOS/Source/timers.c **** 		{
 574:Middlewares/Third_Party/FreeRTOS/Source/timers.c **** 			/* The tick count has not overflowed, has the timer expired? */
 575:Middlewares/Third_Party/FreeRTOS/Source/timers.c **** 			if( ( xListWasEmpty == pdFALSE ) && ( xNextExpireTime <= xTimeNow ) )
 576:Middlewares/Third_Party/FreeRTOS/Source/timers.c **** 			{
 577:Middlewares/Third_Party/FreeRTOS/Source/timers.c **** 				( void ) xTaskResumeAll();
 578:Middlewares/Third_Party/FreeRTOS/Source/timers.c **** 				prvProcessExpiredTimer( xNextExpireTime, xTimeNow );
 579:Middlewares/Third_Party/FreeRTOS/Source/timers.c **** 			}
 580:Middlewares/Third_Party/FreeRTOS/Source/timers.c **** 			else
 581:Middlewares/Third_Party/FreeRTOS/Source/timers.c **** 			{
 582:Middlewares/Third_Party/FreeRTOS/Source/timers.c **** 				/* The tick count has not overflowed, and the next expire
 583:Middlewares/Third_Party/FreeRTOS/Source/timers.c **** 				time has not been reached yet.  This task should therefore
 584:Middlewares/Third_Party/FreeRTOS/Source/timers.c **** 				block to wait for the next expire time or a command to be
 585:Middlewares/Third_Party/FreeRTOS/Source/timers.c **** 				received - whichever comes first.  The following line cannot
 586:Middlewares/Third_Party/FreeRTOS/Source/timers.c **** 				be reached unless xNextExpireTime > xTimeNow, except in the
 587:Middlewares/Third_Party/FreeRTOS/Source/timers.c **** 				case when the current timer list is empty. */
 588:Middlewares/Third_Party/FreeRTOS/Source/timers.c **** 				if( xListWasEmpty != pdFALSE )
 589:Middlewares/Third_Party/FreeRTOS/Source/timers.c **** 				{
 590:Middlewares/Third_Party/FreeRTOS/Source/timers.c **** 					/* The current timer list is empty - is the overflow list
 591:Middlewares/Third_Party/FreeRTOS/Source/timers.c **** 					also empty? */
 592:Middlewares/Third_Party/FreeRTOS/Source/timers.c **** 					xListWasEmpty = listLIST_IS_EMPTY( pxOverflowTimerList );
 593:Middlewares/Third_Party/FreeRTOS/Source/timers.c **** 				}
 594:Middlewares/Third_Party/FreeRTOS/Source/timers.c **** 
 595:Middlewares/Third_Party/FreeRTOS/Source/timers.c **** 				vQueueWaitForMessageRestricted( xTimerQueue, ( xNextExpireTime - xTimeNow ), xListWasEmpty );
 596:Middlewares/Third_Party/FreeRTOS/Source/timers.c **** 
 597:Middlewares/Third_Party/FreeRTOS/Source/timers.c **** 				if( xTaskResumeAll() == pdFALSE )
 598:Middlewares/Third_Party/FreeRTOS/Source/timers.c **** 				{
 599:Middlewares/Third_Party/FreeRTOS/Source/timers.c **** 					/* Yield to wait for either a command to arrive, or the
 600:Middlewares/Third_Party/FreeRTOS/Source/timers.c **** 					block time to expire.  If a command arrived between the
 601:Middlewares/Third_Party/FreeRTOS/Source/timers.c **** 					critical section being exited and this yield then the yield
ARM GAS  C:\Users\frees\AppData\Local\Temp\ccAseSOz.s 			page 12


 602:Middlewares/Third_Party/FreeRTOS/Source/timers.c **** 					will not cause the task to block. */
 603:Middlewares/Third_Party/FreeRTOS/Source/timers.c **** 					portYIELD_WITHIN_API();
 604:Middlewares/Third_Party/FreeRTOS/Source/timers.c **** 				}
 605:Middlewares/Third_Party/FreeRTOS/Source/timers.c **** 				else
 606:Middlewares/Third_Party/FreeRTOS/Source/timers.c **** 				{
 607:Middlewares/Third_Party/FreeRTOS/Source/timers.c **** 					mtCOVERAGE_TEST_MARKER();
 608:Middlewares/Third_Party/FreeRTOS/Source/timers.c **** 				}
 609:Middlewares/Third_Party/FreeRTOS/Source/timers.c **** 			}
 610:Middlewares/Third_Party/FreeRTOS/Source/timers.c **** 		}
 611:Middlewares/Third_Party/FreeRTOS/Source/timers.c **** 		else
 612:Middlewares/Third_Party/FreeRTOS/Source/timers.c **** 		{
 613:Middlewares/Third_Party/FreeRTOS/Source/timers.c **** 			( void ) xTaskResumeAll();
 614:Middlewares/Third_Party/FreeRTOS/Source/timers.c **** 		}
 615:Middlewares/Third_Party/FreeRTOS/Source/timers.c **** 	}
 616:Middlewares/Third_Party/FreeRTOS/Source/timers.c **** }
 617:Middlewares/Third_Party/FreeRTOS/Source/timers.c **** /*-----------------------------------------------------------*/
 618:Middlewares/Third_Party/FreeRTOS/Source/timers.c **** 
 619:Middlewares/Third_Party/FreeRTOS/Source/timers.c **** static TickType_t prvGetNextExpireTime( BaseType_t * const pxListWasEmpty )
 620:Middlewares/Third_Party/FreeRTOS/Source/timers.c **** {
  28              		.loc 1 620 1 view -0
  29              		.cfi_startproc
  30              		@ args = 0, pretend = 0, frame = 0
  31              		@ frame_needed = 0, uses_anonymous_args = 0
  32              		@ link register save eliminated.
 621:Middlewares/Third_Party/FreeRTOS/Source/timers.c **** TickType_t xNextExpireTime;
  33              		.loc 1 621 1 view .LVU1
 622:Middlewares/Third_Party/FreeRTOS/Source/timers.c **** 
 623:Middlewares/Third_Party/FreeRTOS/Source/timers.c **** 	/* Timers are listed in expiry time order, with the head of the list
 624:Middlewares/Third_Party/FreeRTOS/Source/timers.c **** 	referencing the task that will expire first.  Obtain the time at which
 625:Middlewares/Third_Party/FreeRTOS/Source/timers.c **** 	the timer with the nearest expiry time will expire.  If there are no
 626:Middlewares/Third_Party/FreeRTOS/Source/timers.c **** 	active timers then just set the next expire time to 0.  That will cause
 627:Middlewares/Third_Party/FreeRTOS/Source/timers.c **** 	this task to unblock when the tick count overflows, at which point the
 628:Middlewares/Third_Party/FreeRTOS/Source/timers.c **** 	timer lists will be switched and the next expiry time can be
 629:Middlewares/Third_Party/FreeRTOS/Source/timers.c **** 	re-assessed.  */
 630:Middlewares/Third_Party/FreeRTOS/Source/timers.c **** 	*pxListWasEmpty = listLIST_IS_EMPTY( pxCurrentTimerList );
  34              		.loc 1 630 2 view .LVU2
  35              		.loc 1 630 20 is_stmt 0 view .LVU3
  36 0000 064B     		ldr	r3, .L6
  37 0002 1A68     		ldr	r2, [r3]
  38 0004 1368     		ldr	r3, [r2]
  39 0006 2BB9     		cbnz	r3, .L4
  40              		.loc 1 630 20 discriminator 1 view .LVU4
  41 0008 0123     		movs	r3, #1
  42              	.L2:
  43              		.loc 1 630 18 discriminator 4 view .LVU5
  44 000a 0360     		str	r3, [r0]
 631:Middlewares/Third_Party/FreeRTOS/Source/timers.c **** 	if( *pxListWasEmpty == pdFALSE )
  45              		.loc 1 631 2 is_stmt 1 view .LVU6
  46              		.loc 1 631 4 is_stmt 0 view .LVU7
  47 000c 23B9     		cbnz	r3, .L5
 632:Middlewares/Third_Party/FreeRTOS/Source/timers.c **** 	{
 633:Middlewares/Third_Party/FreeRTOS/Source/timers.c **** 		xNextExpireTime = listGET_ITEM_VALUE_OF_HEAD_ENTRY( pxCurrentTimerList );
  48              		.loc 1 633 3 is_stmt 1 view .LVU8
  49              		.loc 1 633 21 is_stmt 0 view .LVU9
  50 000e D368     		ldr	r3, [r2, #12]
  51              		.loc 1 633 19 view .LVU10
  52 0010 1868     		ldr	r0, [r3]
ARM GAS  C:\Users\frees\AppData\Local\Temp\ccAseSOz.s 			page 13


  53              	.LVL1:
  54              		.loc 1 633 19 view .LVU11
  55 0012 7047     		bx	lr
  56              	.LVL2:
  57              	.L4:
 630:Middlewares/Third_Party/FreeRTOS/Source/timers.c **** 	if( *pxListWasEmpty == pdFALSE )
  58              		.loc 1 630 20 discriminator 2 view .LVU12
  59 0014 0023     		movs	r3, #0
  60 0016 F8E7     		b	.L2
  61              	.L5:
 634:Middlewares/Third_Party/FreeRTOS/Source/timers.c **** 	}
 635:Middlewares/Third_Party/FreeRTOS/Source/timers.c **** 	else
 636:Middlewares/Third_Party/FreeRTOS/Source/timers.c **** 	{
 637:Middlewares/Third_Party/FreeRTOS/Source/timers.c **** 		/* Ensure the task unblocks when the tick count rolls over. */
 638:Middlewares/Third_Party/FreeRTOS/Source/timers.c **** 		xNextExpireTime = ( TickType_t ) 0U;
  62              		.loc 1 638 19 view .LVU13
  63 0018 0020     		movs	r0, #0
  64              	.LVL3:
 639:Middlewares/Third_Party/FreeRTOS/Source/timers.c **** 	}
 640:Middlewares/Third_Party/FreeRTOS/Source/timers.c **** 
 641:Middlewares/Third_Party/FreeRTOS/Source/timers.c **** 	return xNextExpireTime;
  65              		.loc 1 641 2 is_stmt 1 view .LVU14
 642:Middlewares/Third_Party/FreeRTOS/Source/timers.c **** }
  66              		.loc 1 642 1 is_stmt 0 view .LVU15
  67 001a 7047     		bx	lr
  68              	.L7:
  69              		.align	2
  70              	.L6:
  71 001c 00000000 		.word	pxCurrentTimerList
  72              		.cfi_endproc
  73              	.LFE17:
  75              		.section	.text.prvInsertTimerInActiveList,"ax",%progbits
  76              		.align	1
  77              		.syntax unified
  78              		.thumb
  79              		.thumb_func
  81              	prvInsertTimerInActiveList:
  82              	.LVL4:
  83              	.LFB19:
 643:Middlewares/Third_Party/FreeRTOS/Source/timers.c **** /*-----------------------------------------------------------*/
 644:Middlewares/Third_Party/FreeRTOS/Source/timers.c **** 
 645:Middlewares/Third_Party/FreeRTOS/Source/timers.c **** static TickType_t prvSampleTimeNow( BaseType_t * const pxTimerListsWereSwitched )
 646:Middlewares/Third_Party/FreeRTOS/Source/timers.c **** {
 647:Middlewares/Third_Party/FreeRTOS/Source/timers.c **** TickType_t xTimeNow;
 648:Middlewares/Third_Party/FreeRTOS/Source/timers.c **** PRIVILEGED_DATA static TickType_t xLastTime = ( TickType_t ) 0U; /*lint !e956 Variable is only acce
 649:Middlewares/Third_Party/FreeRTOS/Source/timers.c **** 
 650:Middlewares/Third_Party/FreeRTOS/Source/timers.c **** 	xTimeNow = xTaskGetTickCount();
 651:Middlewares/Third_Party/FreeRTOS/Source/timers.c **** 
 652:Middlewares/Third_Party/FreeRTOS/Source/timers.c **** 	if( xTimeNow < xLastTime )
 653:Middlewares/Third_Party/FreeRTOS/Source/timers.c **** 	{
 654:Middlewares/Third_Party/FreeRTOS/Source/timers.c **** 		prvSwitchTimerLists();
 655:Middlewares/Third_Party/FreeRTOS/Source/timers.c **** 		*pxTimerListsWereSwitched = pdTRUE;
 656:Middlewares/Third_Party/FreeRTOS/Source/timers.c **** 	}
 657:Middlewares/Third_Party/FreeRTOS/Source/timers.c **** 	else
 658:Middlewares/Third_Party/FreeRTOS/Source/timers.c **** 	{
 659:Middlewares/Third_Party/FreeRTOS/Source/timers.c **** 		*pxTimerListsWereSwitched = pdFALSE;
 660:Middlewares/Third_Party/FreeRTOS/Source/timers.c **** 	}
ARM GAS  C:\Users\frees\AppData\Local\Temp\ccAseSOz.s 			page 14


 661:Middlewares/Third_Party/FreeRTOS/Source/timers.c **** 
 662:Middlewares/Third_Party/FreeRTOS/Source/timers.c **** 	xLastTime = xTimeNow;
 663:Middlewares/Third_Party/FreeRTOS/Source/timers.c **** 
 664:Middlewares/Third_Party/FreeRTOS/Source/timers.c **** 	return xTimeNow;
 665:Middlewares/Third_Party/FreeRTOS/Source/timers.c **** }
 666:Middlewares/Third_Party/FreeRTOS/Source/timers.c **** /*-----------------------------------------------------------*/
 667:Middlewares/Third_Party/FreeRTOS/Source/timers.c **** 
 668:Middlewares/Third_Party/FreeRTOS/Source/timers.c **** static BaseType_t prvInsertTimerInActiveList( Timer_t * const pxTimer, const TickType_t xNextExpiry
 669:Middlewares/Third_Party/FreeRTOS/Source/timers.c **** {
  84              		.loc 1 669 1 is_stmt 1 view -0
  85              		.cfi_startproc
  86              		@ args = 0, pretend = 0, frame = 0
  87              		@ frame_needed = 0, uses_anonymous_args = 0
  88              		.loc 1 669 1 is_stmt 0 view .LVU17
  89 0000 08B5     		push	{r3, lr}
  90              	.LCFI0:
  91              		.cfi_def_cfa_offset 8
  92              		.cfi_offset 3, -8
  93              		.cfi_offset 14, -4
 670:Middlewares/Third_Party/FreeRTOS/Source/timers.c **** BaseType_t xProcessTimerNow = pdFALSE;
  94              		.loc 1 670 1 is_stmt 1 view .LVU18
  95              	.LVL5:
 671:Middlewares/Third_Party/FreeRTOS/Source/timers.c **** 
 672:Middlewares/Third_Party/FreeRTOS/Source/timers.c **** 	listSET_LIST_ITEM_VALUE( &( pxTimer->xTimerListItem ), xNextExpiryTime );
  96              		.loc 1 672 2 view .LVU19
  97 0002 4160     		str	r1, [r0, #4]
 673:Middlewares/Third_Party/FreeRTOS/Source/timers.c **** 	listSET_LIST_ITEM_OWNER( &( pxTimer->xTimerListItem ), pxTimer );
  98              		.loc 1 673 2 view .LVU20
  99 0004 0061     		str	r0, [r0, #16]
 674:Middlewares/Third_Party/FreeRTOS/Source/timers.c **** 
 675:Middlewares/Third_Party/FreeRTOS/Source/timers.c **** 	if( xNextExpiryTime <= xTimeNow )
 100              		.loc 1 675 2 view .LVU21
 101              		.loc 1 675 4 is_stmt 0 view .LVU22
 102 0006 9142     		cmp	r1, r2
 103 0008 0CD8     		bhi	.L9
 676:Middlewares/Third_Party/FreeRTOS/Source/timers.c **** 	{
 677:Middlewares/Third_Party/FreeRTOS/Source/timers.c **** 		/* Has the expiry time elapsed between the command to start/reset a
 678:Middlewares/Third_Party/FreeRTOS/Source/timers.c **** 		timer was issued, and the time the command was processed? */
 679:Middlewares/Third_Party/FreeRTOS/Source/timers.c **** 		if( ( ( TickType_t ) ( xTimeNow - xCommandTime ) ) >= pxTimer->xTimerPeriodInTicks ) /*lint !e961
 104              		.loc 1 679 3 is_stmt 1 view .LVU23
 105              		.loc 1 679 35 is_stmt 0 view .LVU24
 106 000a D21A     		subs	r2, r2, r3
 107              	.LVL6:
 108              		.loc 1 679 64 view .LVU25
 109 000c 8369     		ldr	r3, [r0, #24]
 110              	.LVL7:
 111              		.loc 1 679 5 view .LVU26
 112 000e 9A42     		cmp	r2, r3
 113 0010 01D3     		bcc	.L14
 680:Middlewares/Third_Party/FreeRTOS/Source/timers.c **** 		{
 681:Middlewares/Third_Party/FreeRTOS/Source/timers.c **** 			/* The time between a command being issued and the command being
 682:Middlewares/Third_Party/FreeRTOS/Source/timers.c **** 			processed actually exceeds the timers period.  */
 683:Middlewares/Third_Party/FreeRTOS/Source/timers.c **** 			xProcessTimerNow = pdTRUE;
 114              		.loc 1 683 21 view .LVU27
 115 0012 0120     		movs	r0, #1
 116              	.LVL8:
 117              	.L8:
ARM GAS  C:\Users\frees\AppData\Local\Temp\ccAseSOz.s 			page 15


 684:Middlewares/Third_Party/FreeRTOS/Source/timers.c **** 		}
 685:Middlewares/Third_Party/FreeRTOS/Source/timers.c **** 		else
 686:Middlewares/Third_Party/FreeRTOS/Source/timers.c **** 		{
 687:Middlewares/Third_Party/FreeRTOS/Source/timers.c **** 			vListInsert( pxOverflowTimerList, &( pxTimer->xTimerListItem ) );
 688:Middlewares/Third_Party/FreeRTOS/Source/timers.c **** 		}
 689:Middlewares/Third_Party/FreeRTOS/Source/timers.c **** 	}
 690:Middlewares/Third_Party/FreeRTOS/Source/timers.c **** 	else
 691:Middlewares/Third_Party/FreeRTOS/Source/timers.c **** 	{
 692:Middlewares/Third_Party/FreeRTOS/Source/timers.c **** 		if( ( xTimeNow < xCommandTime ) && ( xNextExpiryTime >= xCommandTime ) )
 693:Middlewares/Third_Party/FreeRTOS/Source/timers.c **** 		{
 694:Middlewares/Third_Party/FreeRTOS/Source/timers.c **** 			/* If, since the command was issued, the tick count has overflowed
 695:Middlewares/Third_Party/FreeRTOS/Source/timers.c **** 			but the expiry time has not, then the timer must have already passed
 696:Middlewares/Third_Party/FreeRTOS/Source/timers.c **** 			its expiry time and should be processed immediately. */
 697:Middlewares/Third_Party/FreeRTOS/Source/timers.c **** 			xProcessTimerNow = pdTRUE;
 698:Middlewares/Third_Party/FreeRTOS/Source/timers.c **** 		}
 699:Middlewares/Third_Party/FreeRTOS/Source/timers.c **** 		else
 700:Middlewares/Third_Party/FreeRTOS/Source/timers.c **** 		{
 701:Middlewares/Third_Party/FreeRTOS/Source/timers.c **** 			vListInsert( pxCurrentTimerList, &( pxTimer->xTimerListItem ) );
 702:Middlewares/Third_Party/FreeRTOS/Source/timers.c **** 		}
 703:Middlewares/Third_Party/FreeRTOS/Source/timers.c **** 	}
 704:Middlewares/Third_Party/FreeRTOS/Source/timers.c **** 
 705:Middlewares/Third_Party/FreeRTOS/Source/timers.c **** 	return xProcessTimerNow;
 706:Middlewares/Third_Party/FreeRTOS/Source/timers.c **** }
 118              		.loc 1 706 1 view .LVU28
 119 0014 08BD     		pop	{r3, pc}
 120              	.LVL9:
 121              	.L14:
 687:Middlewares/Third_Party/FreeRTOS/Source/timers.c **** 		}
 122              		.loc 1 687 4 is_stmt 1 view .LVU29
 123 0016 011D     		adds	r1, r0, #4
 124              	.LVL10:
 687:Middlewares/Third_Party/FreeRTOS/Source/timers.c **** 		}
 125              		.loc 1 687 4 is_stmt 0 view .LVU30
 126 0018 0B4B     		ldr	r3, .L16
 127 001a 1868     		ldr	r0, [r3]
 128              	.LVL11:
 687:Middlewares/Third_Party/FreeRTOS/Source/timers.c **** 		}
 129              		.loc 1 687 4 view .LVU31
 130 001c FFF7FEFF 		bl	vListInsert
 131              	.LVL12:
 670:Middlewares/Third_Party/FreeRTOS/Source/timers.c **** 
 132              		.loc 1 670 12 view .LVU32
 133 0020 0020     		movs	r0, #0
 134 0022 F7E7     		b	.L8
 135              	.LVL13:
 136              	.L9:
 692:Middlewares/Third_Party/FreeRTOS/Source/timers.c **** 		{
 137              		.loc 1 692 3 is_stmt 1 view .LVU33
 692:Middlewares/Third_Party/FreeRTOS/Source/timers.c **** 		{
 138              		.loc 1 692 35 is_stmt 0 view .LVU34
 139 0024 9A42     		cmp	r2, r3
 140 0026 2CBF     		ite	cs
 141 0028 0022     		movcs	r2, #0
 142              	.LVL14:
 692:Middlewares/Third_Party/FreeRTOS/Source/timers.c **** 		{
 143              		.loc 1 692 35 view .LVU35
 144 002a 0122     		movcc	r2, #1
ARM GAS  C:\Users\frees\AppData\Local\Temp\ccAseSOz.s 			page 16


 145 002c 9942     		cmp	r1, r3
 146 002e 38BF     		it	cc
 147 0030 0022     		movcc	r2, #0
 692:Middlewares/Third_Party/FreeRTOS/Source/timers.c **** 		{
 148              		.loc 1 692 5 view .LVU36
 149 0032 0AB1     		cbz	r2, .L15
 697:Middlewares/Third_Party/FreeRTOS/Source/timers.c **** 		}
 150              		.loc 1 697 21 view .LVU37
 151 0034 0120     		movs	r0, #1
 152              	.LVL15:
 705:Middlewares/Third_Party/FreeRTOS/Source/timers.c **** }
 153              		.loc 1 705 2 is_stmt 1 view .LVU38
 705:Middlewares/Third_Party/FreeRTOS/Source/timers.c **** }
 154              		.loc 1 705 9 is_stmt 0 view .LVU39
 155 0036 EDE7     		b	.L8
 156              	.LVL16:
 157              	.L15:
 701:Middlewares/Third_Party/FreeRTOS/Source/timers.c **** 		}
 158              		.loc 1 701 4 is_stmt 1 view .LVU40
 159 0038 011D     		adds	r1, r0, #4
 160              	.LVL17:
 701:Middlewares/Third_Party/FreeRTOS/Source/timers.c **** 		}
 161              		.loc 1 701 4 is_stmt 0 view .LVU41
 162 003a 044B     		ldr	r3, .L16+4
 163              	.LVL18:
 701:Middlewares/Third_Party/FreeRTOS/Source/timers.c **** 		}
 164              		.loc 1 701 4 view .LVU42
 165 003c 1868     		ldr	r0, [r3]
 166              	.LVL19:
 701:Middlewares/Third_Party/FreeRTOS/Source/timers.c **** 		}
 167              		.loc 1 701 4 view .LVU43
 168 003e FFF7FEFF 		bl	vListInsert
 169              	.LVL20:
 670:Middlewares/Third_Party/FreeRTOS/Source/timers.c **** 
 170              		.loc 1 670 12 view .LVU44
 171 0042 0020     		movs	r0, #0
 172 0044 E6E7     		b	.L8
 173              	.L17:
 174 0046 00BF     		.align	2
 175              	.L16:
 176 0048 00000000 		.word	pxOverflowTimerList
 177 004c 00000000 		.word	pxCurrentTimerList
 178              		.cfi_endproc
 179              	.LFE19:
 181              		.section	.rodata.prvCheckForValidListAndQueue.str1.4,"aMS",%progbits,1
 182              		.align	2
 183              	.LC0:
 184 0000 546D7251 		.ascii	"TmrQ\000"
 184      00
 185              		.section	.text.prvCheckForValidListAndQueue,"ax",%progbits
 186              		.align	1
 187              		.syntax unified
 188              		.thumb
 189              		.thumb_func
 191              	prvCheckForValidListAndQueue:
 192              	.LFB22:
 707:Middlewares/Third_Party/FreeRTOS/Source/timers.c **** /*-----------------------------------------------------------*/
ARM GAS  C:\Users\frees\AppData\Local\Temp\ccAseSOz.s 			page 17


 708:Middlewares/Third_Party/FreeRTOS/Source/timers.c **** 
 709:Middlewares/Third_Party/FreeRTOS/Source/timers.c **** static void	prvProcessReceivedCommands( void )
 710:Middlewares/Third_Party/FreeRTOS/Source/timers.c **** {
 711:Middlewares/Third_Party/FreeRTOS/Source/timers.c **** DaemonTaskMessage_t xMessage;
 712:Middlewares/Third_Party/FreeRTOS/Source/timers.c **** Timer_t *pxTimer;
 713:Middlewares/Third_Party/FreeRTOS/Source/timers.c **** BaseType_t xTimerListsWereSwitched, xResult;
 714:Middlewares/Third_Party/FreeRTOS/Source/timers.c **** TickType_t xTimeNow;
 715:Middlewares/Third_Party/FreeRTOS/Source/timers.c **** 
 716:Middlewares/Third_Party/FreeRTOS/Source/timers.c **** 	while( xQueueReceive( xTimerQueue, &xMessage, tmrNO_DELAY ) != pdFAIL ) /*lint !e603 xMessage does
 717:Middlewares/Third_Party/FreeRTOS/Source/timers.c **** 	{
 718:Middlewares/Third_Party/FreeRTOS/Source/timers.c **** 		#if ( INCLUDE_xTimerPendFunctionCall == 1 )
 719:Middlewares/Third_Party/FreeRTOS/Source/timers.c **** 		{
 720:Middlewares/Third_Party/FreeRTOS/Source/timers.c **** 			/* Negative commands are pended function calls rather than timer
 721:Middlewares/Third_Party/FreeRTOS/Source/timers.c **** 			commands. */
 722:Middlewares/Third_Party/FreeRTOS/Source/timers.c **** 			if( xMessage.xMessageID < ( BaseType_t ) 0 )
 723:Middlewares/Third_Party/FreeRTOS/Source/timers.c **** 			{
 724:Middlewares/Third_Party/FreeRTOS/Source/timers.c **** 				const CallbackParameters_t * const pxCallback = &( xMessage.u.xCallbackParameters );
 725:Middlewares/Third_Party/FreeRTOS/Source/timers.c **** 
 726:Middlewares/Third_Party/FreeRTOS/Source/timers.c **** 				/* The timer uses the xCallbackParameters member to request a
 727:Middlewares/Third_Party/FreeRTOS/Source/timers.c **** 				callback be executed.  Check the callback is not NULL. */
 728:Middlewares/Third_Party/FreeRTOS/Source/timers.c **** 				configASSERT( pxCallback );
 729:Middlewares/Third_Party/FreeRTOS/Source/timers.c **** 
 730:Middlewares/Third_Party/FreeRTOS/Source/timers.c **** 				/* Call the function. */
 731:Middlewares/Third_Party/FreeRTOS/Source/timers.c **** 				pxCallback->pxCallbackFunction( pxCallback->pvParameter1, pxCallback->ulParameter2 );
 732:Middlewares/Third_Party/FreeRTOS/Source/timers.c **** 			}
 733:Middlewares/Third_Party/FreeRTOS/Source/timers.c **** 			else
 734:Middlewares/Third_Party/FreeRTOS/Source/timers.c **** 			{
 735:Middlewares/Third_Party/FreeRTOS/Source/timers.c **** 				mtCOVERAGE_TEST_MARKER();
 736:Middlewares/Third_Party/FreeRTOS/Source/timers.c **** 			}
 737:Middlewares/Third_Party/FreeRTOS/Source/timers.c **** 		}
 738:Middlewares/Third_Party/FreeRTOS/Source/timers.c **** 		#endif /* INCLUDE_xTimerPendFunctionCall */
 739:Middlewares/Third_Party/FreeRTOS/Source/timers.c **** 
 740:Middlewares/Third_Party/FreeRTOS/Source/timers.c **** 		/* Commands that are positive are timer commands rather than pended
 741:Middlewares/Third_Party/FreeRTOS/Source/timers.c **** 		function calls. */
 742:Middlewares/Third_Party/FreeRTOS/Source/timers.c **** 		if( xMessage.xMessageID >= ( BaseType_t ) 0 )
 743:Middlewares/Third_Party/FreeRTOS/Source/timers.c **** 		{
 744:Middlewares/Third_Party/FreeRTOS/Source/timers.c **** 			/* The messages uses the xTimerParameters member to work on a
 745:Middlewares/Third_Party/FreeRTOS/Source/timers.c **** 			software timer. */
 746:Middlewares/Third_Party/FreeRTOS/Source/timers.c **** 			pxTimer = xMessage.u.xTimerParameters.pxTimer;
 747:Middlewares/Third_Party/FreeRTOS/Source/timers.c **** 
 748:Middlewares/Third_Party/FreeRTOS/Source/timers.c **** 			if( listIS_CONTAINED_WITHIN( NULL, &( pxTimer->xTimerListItem ) ) == pdFALSE ) /*lint !e961. The
 749:Middlewares/Third_Party/FreeRTOS/Source/timers.c **** 			{
 750:Middlewares/Third_Party/FreeRTOS/Source/timers.c **** 				/* The timer is in a list, remove it. */
 751:Middlewares/Third_Party/FreeRTOS/Source/timers.c **** 				( void ) uxListRemove( &( pxTimer->xTimerListItem ) );
 752:Middlewares/Third_Party/FreeRTOS/Source/timers.c **** 			}
 753:Middlewares/Third_Party/FreeRTOS/Source/timers.c **** 			else
 754:Middlewares/Third_Party/FreeRTOS/Source/timers.c **** 			{
 755:Middlewares/Third_Party/FreeRTOS/Source/timers.c **** 				mtCOVERAGE_TEST_MARKER();
 756:Middlewares/Third_Party/FreeRTOS/Source/timers.c **** 			}
 757:Middlewares/Third_Party/FreeRTOS/Source/timers.c **** 
 758:Middlewares/Third_Party/FreeRTOS/Source/timers.c **** 			traceTIMER_COMMAND_RECEIVED( pxTimer, xMessage.xMessageID, xMessage.u.xTimerParameters.xMessageV
 759:Middlewares/Third_Party/FreeRTOS/Source/timers.c **** 
 760:Middlewares/Third_Party/FreeRTOS/Source/timers.c **** 			/* In this case the xTimerListsWereSwitched parameter is not used, but
 761:Middlewares/Third_Party/FreeRTOS/Source/timers.c **** 			it must be present in the function call.  prvSampleTimeNow() must be
 762:Middlewares/Third_Party/FreeRTOS/Source/timers.c **** 			called after the message is received from xTimerQueue so there is no
 763:Middlewares/Third_Party/FreeRTOS/Source/timers.c **** 			possibility of a higher priority task adding a message to the message
 764:Middlewares/Third_Party/FreeRTOS/Source/timers.c **** 			queue with a time that is ahead of the timer daemon task (because it
ARM GAS  C:\Users\frees\AppData\Local\Temp\ccAseSOz.s 			page 18


 765:Middlewares/Third_Party/FreeRTOS/Source/timers.c **** 			pre-empted the timer daemon task after the xTimeNow value was set). */
 766:Middlewares/Third_Party/FreeRTOS/Source/timers.c **** 			xTimeNow = prvSampleTimeNow( &xTimerListsWereSwitched );
 767:Middlewares/Third_Party/FreeRTOS/Source/timers.c **** 
 768:Middlewares/Third_Party/FreeRTOS/Source/timers.c **** 			switch( xMessage.xMessageID )
 769:Middlewares/Third_Party/FreeRTOS/Source/timers.c **** 			{
 770:Middlewares/Third_Party/FreeRTOS/Source/timers.c **** 				case tmrCOMMAND_START :
 771:Middlewares/Third_Party/FreeRTOS/Source/timers.c **** 				case tmrCOMMAND_START_FROM_ISR :
 772:Middlewares/Third_Party/FreeRTOS/Source/timers.c **** 				case tmrCOMMAND_RESET :
 773:Middlewares/Third_Party/FreeRTOS/Source/timers.c **** 				case tmrCOMMAND_RESET_FROM_ISR :
 774:Middlewares/Third_Party/FreeRTOS/Source/timers.c **** 				case tmrCOMMAND_START_DONT_TRACE :
 775:Middlewares/Third_Party/FreeRTOS/Source/timers.c **** 					/* Start or restart a timer. */
 776:Middlewares/Third_Party/FreeRTOS/Source/timers.c **** 					pxTimer->ucStatus |= tmrSTATUS_IS_ACTIVE;
 777:Middlewares/Third_Party/FreeRTOS/Source/timers.c **** 					if( prvInsertTimerInActiveList( pxTimer,  xMessage.u.xTimerParameters.xMessageValue + pxTimer-
 778:Middlewares/Third_Party/FreeRTOS/Source/timers.c **** 					{
 779:Middlewares/Third_Party/FreeRTOS/Source/timers.c **** 						/* The timer expired before it was added to the active
 780:Middlewares/Third_Party/FreeRTOS/Source/timers.c **** 						timer list.  Process it now. */
 781:Middlewares/Third_Party/FreeRTOS/Source/timers.c **** 						pxTimer->pxCallbackFunction( ( TimerHandle_t ) pxTimer );
 782:Middlewares/Third_Party/FreeRTOS/Source/timers.c **** 						traceTIMER_EXPIRED( pxTimer );
 783:Middlewares/Third_Party/FreeRTOS/Source/timers.c **** 
 784:Middlewares/Third_Party/FreeRTOS/Source/timers.c **** 						if( ( pxTimer->ucStatus & tmrSTATUS_IS_AUTORELOAD ) != 0 )
 785:Middlewares/Third_Party/FreeRTOS/Source/timers.c **** 						{
 786:Middlewares/Third_Party/FreeRTOS/Source/timers.c **** 							xResult = xTimerGenericCommand( pxTimer, tmrCOMMAND_START_DONT_TRACE, xMessage.u.xTimerParam
 787:Middlewares/Third_Party/FreeRTOS/Source/timers.c **** 							configASSERT( xResult );
 788:Middlewares/Third_Party/FreeRTOS/Source/timers.c **** 							( void ) xResult;
 789:Middlewares/Third_Party/FreeRTOS/Source/timers.c **** 						}
 790:Middlewares/Third_Party/FreeRTOS/Source/timers.c **** 						else
 791:Middlewares/Third_Party/FreeRTOS/Source/timers.c **** 						{
 792:Middlewares/Third_Party/FreeRTOS/Source/timers.c **** 							mtCOVERAGE_TEST_MARKER();
 793:Middlewares/Third_Party/FreeRTOS/Source/timers.c **** 						}
 794:Middlewares/Third_Party/FreeRTOS/Source/timers.c **** 					}
 795:Middlewares/Third_Party/FreeRTOS/Source/timers.c **** 					else
 796:Middlewares/Third_Party/FreeRTOS/Source/timers.c **** 					{
 797:Middlewares/Third_Party/FreeRTOS/Source/timers.c **** 						mtCOVERAGE_TEST_MARKER();
 798:Middlewares/Third_Party/FreeRTOS/Source/timers.c **** 					}
 799:Middlewares/Third_Party/FreeRTOS/Source/timers.c **** 					break;
 800:Middlewares/Third_Party/FreeRTOS/Source/timers.c **** 
 801:Middlewares/Third_Party/FreeRTOS/Source/timers.c **** 				case tmrCOMMAND_STOP :
 802:Middlewares/Third_Party/FreeRTOS/Source/timers.c **** 				case tmrCOMMAND_STOP_FROM_ISR :
 803:Middlewares/Third_Party/FreeRTOS/Source/timers.c **** 					/* The timer has already been removed from the active list. */
 804:Middlewares/Third_Party/FreeRTOS/Source/timers.c **** 					pxTimer->ucStatus &= ~tmrSTATUS_IS_ACTIVE;
 805:Middlewares/Third_Party/FreeRTOS/Source/timers.c **** 					break;
 806:Middlewares/Third_Party/FreeRTOS/Source/timers.c **** 
 807:Middlewares/Third_Party/FreeRTOS/Source/timers.c **** 				case tmrCOMMAND_CHANGE_PERIOD :
 808:Middlewares/Third_Party/FreeRTOS/Source/timers.c **** 				case tmrCOMMAND_CHANGE_PERIOD_FROM_ISR :
 809:Middlewares/Third_Party/FreeRTOS/Source/timers.c **** 					pxTimer->ucStatus |= tmrSTATUS_IS_ACTIVE;
 810:Middlewares/Third_Party/FreeRTOS/Source/timers.c **** 					pxTimer->xTimerPeriodInTicks = xMessage.u.xTimerParameters.xMessageValue;
 811:Middlewares/Third_Party/FreeRTOS/Source/timers.c **** 					configASSERT( ( pxTimer->xTimerPeriodInTicks > 0 ) );
 812:Middlewares/Third_Party/FreeRTOS/Source/timers.c **** 
 813:Middlewares/Third_Party/FreeRTOS/Source/timers.c **** 					/* The new period does not really have a reference, and can
 814:Middlewares/Third_Party/FreeRTOS/Source/timers.c **** 					be longer or shorter than the old one.  The command time is
 815:Middlewares/Third_Party/FreeRTOS/Source/timers.c **** 					therefore set to the current time, and as the period cannot
 816:Middlewares/Third_Party/FreeRTOS/Source/timers.c **** 					be zero the next expiry time can only be in the future,
 817:Middlewares/Third_Party/FreeRTOS/Source/timers.c **** 					meaning (unlike for the xTimerStart() case above) there is
 818:Middlewares/Third_Party/FreeRTOS/Source/timers.c **** 					no fail case that needs to be handled here. */
 819:Middlewares/Third_Party/FreeRTOS/Source/timers.c **** 					( void ) prvInsertTimerInActiveList( pxTimer, ( xTimeNow + pxTimer->xTimerPeriodInTicks ), xTi
 820:Middlewares/Third_Party/FreeRTOS/Source/timers.c **** 					break;
 821:Middlewares/Third_Party/FreeRTOS/Source/timers.c **** 
ARM GAS  C:\Users\frees\AppData\Local\Temp\ccAseSOz.s 			page 19


 822:Middlewares/Third_Party/FreeRTOS/Source/timers.c **** 				case tmrCOMMAND_DELETE :
 823:Middlewares/Third_Party/FreeRTOS/Source/timers.c **** 					#if ( configSUPPORT_DYNAMIC_ALLOCATION == 1 )
 824:Middlewares/Third_Party/FreeRTOS/Source/timers.c **** 					{
 825:Middlewares/Third_Party/FreeRTOS/Source/timers.c **** 						/* The timer has already been removed from the active list,
 826:Middlewares/Third_Party/FreeRTOS/Source/timers.c **** 						just free up the memory if the memory was dynamically
 827:Middlewares/Third_Party/FreeRTOS/Source/timers.c **** 						allocated. */
 828:Middlewares/Third_Party/FreeRTOS/Source/timers.c **** 						if( ( pxTimer->ucStatus & tmrSTATUS_IS_STATICALLY_ALLOCATED ) == ( uint8_t ) 0 )
 829:Middlewares/Third_Party/FreeRTOS/Source/timers.c **** 						{
 830:Middlewares/Third_Party/FreeRTOS/Source/timers.c **** 							vPortFree( pxTimer );
 831:Middlewares/Third_Party/FreeRTOS/Source/timers.c **** 						}
 832:Middlewares/Third_Party/FreeRTOS/Source/timers.c **** 						else
 833:Middlewares/Third_Party/FreeRTOS/Source/timers.c **** 						{
 834:Middlewares/Third_Party/FreeRTOS/Source/timers.c **** 							pxTimer->ucStatus &= ~tmrSTATUS_IS_ACTIVE;
 835:Middlewares/Third_Party/FreeRTOS/Source/timers.c **** 						}
 836:Middlewares/Third_Party/FreeRTOS/Source/timers.c **** 					}
 837:Middlewares/Third_Party/FreeRTOS/Source/timers.c **** 					#else
 838:Middlewares/Third_Party/FreeRTOS/Source/timers.c **** 					{
 839:Middlewares/Third_Party/FreeRTOS/Source/timers.c **** 						/* If dynamic allocation is not enabled, the memory
 840:Middlewares/Third_Party/FreeRTOS/Source/timers.c **** 						could not have been dynamically allocated. So there is
 841:Middlewares/Third_Party/FreeRTOS/Source/timers.c **** 						no need to free the memory - just mark the timer as
 842:Middlewares/Third_Party/FreeRTOS/Source/timers.c **** 						"not active". */
 843:Middlewares/Third_Party/FreeRTOS/Source/timers.c **** 						pxTimer->ucStatus &= ~tmrSTATUS_IS_ACTIVE;
 844:Middlewares/Third_Party/FreeRTOS/Source/timers.c **** 					}
 845:Middlewares/Third_Party/FreeRTOS/Source/timers.c **** 					#endif /* configSUPPORT_DYNAMIC_ALLOCATION */
 846:Middlewares/Third_Party/FreeRTOS/Source/timers.c **** 					break;
 847:Middlewares/Third_Party/FreeRTOS/Source/timers.c **** 
 848:Middlewares/Third_Party/FreeRTOS/Source/timers.c **** 				default	:
 849:Middlewares/Third_Party/FreeRTOS/Source/timers.c **** 					/* Don't expect to get here. */
 850:Middlewares/Third_Party/FreeRTOS/Source/timers.c **** 					break;
 851:Middlewares/Third_Party/FreeRTOS/Source/timers.c **** 			}
 852:Middlewares/Third_Party/FreeRTOS/Source/timers.c **** 		}
 853:Middlewares/Third_Party/FreeRTOS/Source/timers.c **** 	}
 854:Middlewares/Third_Party/FreeRTOS/Source/timers.c **** }
 855:Middlewares/Third_Party/FreeRTOS/Source/timers.c **** /*-----------------------------------------------------------*/
 856:Middlewares/Third_Party/FreeRTOS/Source/timers.c **** 
 857:Middlewares/Third_Party/FreeRTOS/Source/timers.c **** static void prvSwitchTimerLists( void )
 858:Middlewares/Third_Party/FreeRTOS/Source/timers.c **** {
 859:Middlewares/Third_Party/FreeRTOS/Source/timers.c **** TickType_t xNextExpireTime, xReloadTime;
 860:Middlewares/Third_Party/FreeRTOS/Source/timers.c **** List_t *pxTemp;
 861:Middlewares/Third_Party/FreeRTOS/Source/timers.c **** Timer_t *pxTimer;
 862:Middlewares/Third_Party/FreeRTOS/Source/timers.c **** BaseType_t xResult;
 863:Middlewares/Third_Party/FreeRTOS/Source/timers.c **** 
 864:Middlewares/Third_Party/FreeRTOS/Source/timers.c **** 	/* The tick count has overflowed.  The timer lists must be switched.
 865:Middlewares/Third_Party/FreeRTOS/Source/timers.c **** 	If there are any timers still referenced from the current timer list
 866:Middlewares/Third_Party/FreeRTOS/Source/timers.c **** 	then they must have expired and should be processed before the lists
 867:Middlewares/Third_Party/FreeRTOS/Source/timers.c **** 	are switched. */
 868:Middlewares/Third_Party/FreeRTOS/Source/timers.c **** 	while( listLIST_IS_EMPTY( pxCurrentTimerList ) == pdFALSE )
 869:Middlewares/Third_Party/FreeRTOS/Source/timers.c **** 	{
 870:Middlewares/Third_Party/FreeRTOS/Source/timers.c **** 		xNextExpireTime = listGET_ITEM_VALUE_OF_HEAD_ENTRY( pxCurrentTimerList );
 871:Middlewares/Third_Party/FreeRTOS/Source/timers.c **** 
 872:Middlewares/Third_Party/FreeRTOS/Source/timers.c **** 		/* Remove the timer from the list. */
 873:Middlewares/Third_Party/FreeRTOS/Source/timers.c **** 		pxTimer = ( Timer_t * ) listGET_OWNER_OF_HEAD_ENTRY( pxCurrentTimerList ); /*lint !e9087 !e9079 v
 874:Middlewares/Third_Party/FreeRTOS/Source/timers.c **** 		( void ) uxListRemove( &( pxTimer->xTimerListItem ) );
 875:Middlewares/Third_Party/FreeRTOS/Source/timers.c **** 		traceTIMER_EXPIRED( pxTimer );
 876:Middlewares/Third_Party/FreeRTOS/Source/timers.c **** 
 877:Middlewares/Third_Party/FreeRTOS/Source/timers.c **** 		/* Execute its callback, then send a command to restart the timer if
 878:Middlewares/Third_Party/FreeRTOS/Source/timers.c **** 		it is an auto-reload timer.  It cannot be restarted here as the lists
ARM GAS  C:\Users\frees\AppData\Local\Temp\ccAseSOz.s 			page 20


 879:Middlewares/Third_Party/FreeRTOS/Source/timers.c **** 		have not yet been switched. */
 880:Middlewares/Third_Party/FreeRTOS/Source/timers.c **** 		pxTimer->pxCallbackFunction( ( TimerHandle_t ) pxTimer );
 881:Middlewares/Third_Party/FreeRTOS/Source/timers.c **** 
 882:Middlewares/Third_Party/FreeRTOS/Source/timers.c **** 		if( ( pxTimer->ucStatus & tmrSTATUS_IS_AUTORELOAD ) != 0 )
 883:Middlewares/Third_Party/FreeRTOS/Source/timers.c **** 		{
 884:Middlewares/Third_Party/FreeRTOS/Source/timers.c **** 			/* Calculate the reload value, and if the reload value results in
 885:Middlewares/Third_Party/FreeRTOS/Source/timers.c **** 			the timer going into the same timer list then it has already expired
 886:Middlewares/Third_Party/FreeRTOS/Source/timers.c **** 			and the timer should be re-inserted into the current list so it is
 887:Middlewares/Third_Party/FreeRTOS/Source/timers.c **** 			processed again within this loop.  Otherwise a command should be sent
 888:Middlewares/Third_Party/FreeRTOS/Source/timers.c **** 			to restart the timer to ensure it is only inserted into a list after
 889:Middlewares/Third_Party/FreeRTOS/Source/timers.c **** 			the lists have been swapped. */
 890:Middlewares/Third_Party/FreeRTOS/Source/timers.c **** 			xReloadTime = ( xNextExpireTime + pxTimer->xTimerPeriodInTicks );
 891:Middlewares/Third_Party/FreeRTOS/Source/timers.c **** 			if( xReloadTime > xNextExpireTime )
 892:Middlewares/Third_Party/FreeRTOS/Source/timers.c **** 			{
 893:Middlewares/Third_Party/FreeRTOS/Source/timers.c **** 				listSET_LIST_ITEM_VALUE( &( pxTimer->xTimerListItem ), xReloadTime );
 894:Middlewares/Third_Party/FreeRTOS/Source/timers.c **** 				listSET_LIST_ITEM_OWNER( &( pxTimer->xTimerListItem ), pxTimer );
 895:Middlewares/Third_Party/FreeRTOS/Source/timers.c **** 				vListInsert( pxCurrentTimerList, &( pxTimer->xTimerListItem ) );
 896:Middlewares/Third_Party/FreeRTOS/Source/timers.c **** 			}
 897:Middlewares/Third_Party/FreeRTOS/Source/timers.c **** 			else
 898:Middlewares/Third_Party/FreeRTOS/Source/timers.c **** 			{
 899:Middlewares/Third_Party/FreeRTOS/Source/timers.c **** 				xResult = xTimerGenericCommand( pxTimer, tmrCOMMAND_START_DONT_TRACE, xNextExpireTime, NULL, tm
 900:Middlewares/Third_Party/FreeRTOS/Source/timers.c **** 				configASSERT( xResult );
 901:Middlewares/Third_Party/FreeRTOS/Source/timers.c **** 				( void ) xResult;
 902:Middlewares/Third_Party/FreeRTOS/Source/timers.c **** 			}
 903:Middlewares/Third_Party/FreeRTOS/Source/timers.c **** 		}
 904:Middlewares/Third_Party/FreeRTOS/Source/timers.c **** 		else
 905:Middlewares/Third_Party/FreeRTOS/Source/timers.c **** 		{
 906:Middlewares/Third_Party/FreeRTOS/Source/timers.c **** 			mtCOVERAGE_TEST_MARKER();
 907:Middlewares/Third_Party/FreeRTOS/Source/timers.c **** 		}
 908:Middlewares/Third_Party/FreeRTOS/Source/timers.c **** 	}
 909:Middlewares/Third_Party/FreeRTOS/Source/timers.c **** 
 910:Middlewares/Third_Party/FreeRTOS/Source/timers.c **** 	pxTemp = pxCurrentTimerList;
 911:Middlewares/Third_Party/FreeRTOS/Source/timers.c **** 	pxCurrentTimerList = pxOverflowTimerList;
 912:Middlewares/Third_Party/FreeRTOS/Source/timers.c **** 	pxOverflowTimerList = pxTemp;
 913:Middlewares/Third_Party/FreeRTOS/Source/timers.c **** }
 914:Middlewares/Third_Party/FreeRTOS/Source/timers.c **** /*-----------------------------------------------------------*/
 915:Middlewares/Third_Party/FreeRTOS/Source/timers.c **** 
 916:Middlewares/Third_Party/FreeRTOS/Source/timers.c **** static void prvCheckForValidListAndQueue( void )
 917:Middlewares/Third_Party/FreeRTOS/Source/timers.c **** {
 193              		.loc 1 917 1 is_stmt 1 view -0
 194              		.cfi_startproc
 195              		@ args = 0, pretend = 0, frame = 0
 196              		@ frame_needed = 0, uses_anonymous_args = 0
 197 0000 30B5     		push	{r4, r5, lr}
 198              	.LCFI1:
 199              		.cfi_def_cfa_offset 12
 200              		.cfi_offset 4, -12
 201              		.cfi_offset 5, -8
 202              		.cfi_offset 14, -4
 203 0002 83B0     		sub	sp, sp, #12
 204              	.LCFI2:
 205              		.cfi_def_cfa_offset 24
 918:Middlewares/Third_Party/FreeRTOS/Source/timers.c **** 	/* Check that the list from which active timers are referenced, and the
 919:Middlewares/Third_Party/FreeRTOS/Source/timers.c **** 	queue used to communicate with the timer service, have been
 920:Middlewares/Third_Party/FreeRTOS/Source/timers.c **** 	initialised. */
 921:Middlewares/Third_Party/FreeRTOS/Source/timers.c **** 	taskENTER_CRITICAL();
 206              		.loc 1 921 2 view .LVU46
ARM GAS  C:\Users\frees\AppData\Local\Temp\ccAseSOz.s 			page 21


 207 0004 FFF7FEFF 		bl	vPortEnterCritical
 208              	.LVL21:
 922:Middlewares/Third_Party/FreeRTOS/Source/timers.c **** 	{
 923:Middlewares/Third_Party/FreeRTOS/Source/timers.c **** 		if( xTimerQueue == NULL )
 209              		.loc 1 923 3 view .LVU47
 210              		.loc 1 923 19 is_stmt 0 view .LVU48
 211 0008 114B     		ldr	r3, .L22
 212 000a 1B68     		ldr	r3, [r3]
 213              		.loc 1 923 5 view .LVU49
 214 000c 1BB1     		cbz	r3, .L21
 215              	.L19:
 924:Middlewares/Third_Party/FreeRTOS/Source/timers.c **** 		{
 925:Middlewares/Third_Party/FreeRTOS/Source/timers.c **** 			vListInitialise( &xActiveTimerList1 );
 926:Middlewares/Third_Party/FreeRTOS/Source/timers.c **** 			vListInitialise( &xActiveTimerList2 );
 927:Middlewares/Third_Party/FreeRTOS/Source/timers.c **** 			pxCurrentTimerList = &xActiveTimerList1;
 928:Middlewares/Third_Party/FreeRTOS/Source/timers.c **** 			pxOverflowTimerList = &xActiveTimerList2;
 929:Middlewares/Third_Party/FreeRTOS/Source/timers.c **** 
 930:Middlewares/Third_Party/FreeRTOS/Source/timers.c **** 			#if( configSUPPORT_STATIC_ALLOCATION == 1 )
 931:Middlewares/Third_Party/FreeRTOS/Source/timers.c **** 			{
 932:Middlewares/Third_Party/FreeRTOS/Source/timers.c **** 				/* The timer queue is allocated statically in case
 933:Middlewares/Third_Party/FreeRTOS/Source/timers.c **** 				configSUPPORT_DYNAMIC_ALLOCATION is 0. */
 934:Middlewares/Third_Party/FreeRTOS/Source/timers.c **** 				static StaticQueue_t xStaticTimerQueue; /*lint !e956 Ok to declare in this manner to prevent ad
 935:Middlewares/Third_Party/FreeRTOS/Source/timers.c **** 				static uint8_t ucStaticTimerQueueStorage[ ( size_t ) configTIMER_QUEUE_LENGTH * sizeof( DaemonT
 936:Middlewares/Third_Party/FreeRTOS/Source/timers.c **** 
 937:Middlewares/Third_Party/FreeRTOS/Source/timers.c **** 				xTimerQueue = xQueueCreateStatic( ( UBaseType_t ) configTIMER_QUEUE_LENGTH, ( UBaseType_t ) siz
 938:Middlewares/Third_Party/FreeRTOS/Source/timers.c **** 			}
 939:Middlewares/Third_Party/FreeRTOS/Source/timers.c **** 			#else
 940:Middlewares/Third_Party/FreeRTOS/Source/timers.c **** 			{
 941:Middlewares/Third_Party/FreeRTOS/Source/timers.c **** 				xTimerQueue = xQueueCreate( ( UBaseType_t ) configTIMER_QUEUE_LENGTH, sizeof( DaemonTaskMessage
 942:Middlewares/Third_Party/FreeRTOS/Source/timers.c **** 			}
 943:Middlewares/Third_Party/FreeRTOS/Source/timers.c **** 			#endif
 944:Middlewares/Third_Party/FreeRTOS/Source/timers.c **** 
 945:Middlewares/Third_Party/FreeRTOS/Source/timers.c **** 			#if ( configQUEUE_REGISTRY_SIZE > 0 )
 946:Middlewares/Third_Party/FreeRTOS/Source/timers.c **** 			{
 947:Middlewares/Third_Party/FreeRTOS/Source/timers.c **** 				if( xTimerQueue != NULL )
 948:Middlewares/Third_Party/FreeRTOS/Source/timers.c **** 				{
 949:Middlewares/Third_Party/FreeRTOS/Source/timers.c **** 					vQueueAddToRegistry( xTimerQueue, "TmrQ" );
 950:Middlewares/Third_Party/FreeRTOS/Source/timers.c **** 				}
 951:Middlewares/Third_Party/FreeRTOS/Source/timers.c **** 				else
 952:Middlewares/Third_Party/FreeRTOS/Source/timers.c **** 				{
 953:Middlewares/Third_Party/FreeRTOS/Source/timers.c **** 					mtCOVERAGE_TEST_MARKER();
 954:Middlewares/Third_Party/FreeRTOS/Source/timers.c **** 				}
 955:Middlewares/Third_Party/FreeRTOS/Source/timers.c **** 			}
 956:Middlewares/Third_Party/FreeRTOS/Source/timers.c **** 			#endif /* configQUEUE_REGISTRY_SIZE */
 957:Middlewares/Third_Party/FreeRTOS/Source/timers.c **** 		}
 958:Middlewares/Third_Party/FreeRTOS/Source/timers.c **** 		else
 959:Middlewares/Third_Party/FreeRTOS/Source/timers.c **** 		{
 960:Middlewares/Third_Party/FreeRTOS/Source/timers.c **** 			mtCOVERAGE_TEST_MARKER();
 216              		.loc 1 960 28 is_stmt 1 view .LVU50
 961:Middlewares/Third_Party/FreeRTOS/Source/timers.c **** 		}
 962:Middlewares/Third_Party/FreeRTOS/Source/timers.c **** 	}
 963:Middlewares/Third_Party/FreeRTOS/Source/timers.c **** 	taskEXIT_CRITICAL();
 217              		.loc 1 963 2 view .LVU51
 218 000e FFF7FEFF 		bl	vPortExitCritical
 219              	.LVL22:
 964:Middlewares/Third_Party/FreeRTOS/Source/timers.c **** }
 220              		.loc 1 964 1 is_stmt 0 view .LVU52
ARM GAS  C:\Users\frees\AppData\Local\Temp\ccAseSOz.s 			page 22


 221 0012 03B0     		add	sp, sp, #12
 222              	.LCFI3:
 223              		.cfi_remember_state
 224              		.cfi_def_cfa_offset 12
 225              		@ sp needed
 226 0014 30BD     		pop	{r4, r5, pc}
 227              	.L21:
 228              	.LCFI4:
 229              		.cfi_restore_state
 925:Middlewares/Third_Party/FreeRTOS/Source/timers.c **** 			vListInitialise( &xActiveTimerList2 );
 230              		.loc 1 925 4 is_stmt 1 view .LVU53
 231 0016 0F4D     		ldr	r5, .L22+4
 232 0018 2846     		mov	r0, r5
 233 001a FFF7FEFF 		bl	vListInitialise
 234              	.LVL23:
 926:Middlewares/Third_Party/FreeRTOS/Source/timers.c **** 			pxCurrentTimerList = &xActiveTimerList1;
 235              		.loc 1 926 4 view .LVU54
 236 001e 0E4C     		ldr	r4, .L22+8
 237 0020 2046     		mov	r0, r4
 238 0022 FFF7FEFF 		bl	vListInitialise
 239              	.LVL24:
 927:Middlewares/Third_Party/FreeRTOS/Source/timers.c **** 			pxOverflowTimerList = &xActiveTimerList2;
 240              		.loc 1 927 4 view .LVU55
 927:Middlewares/Third_Party/FreeRTOS/Source/timers.c **** 			pxOverflowTimerList = &xActiveTimerList2;
 241              		.loc 1 927 23 is_stmt 0 view .LVU56
 242 0026 0D4B     		ldr	r3, .L22+12
 243 0028 1D60     		str	r5, [r3]
 928:Middlewares/Third_Party/FreeRTOS/Source/timers.c **** 
 244              		.loc 1 928 4 is_stmt 1 view .LVU57
 928:Middlewares/Third_Party/FreeRTOS/Source/timers.c **** 
 245              		.loc 1 928 24 is_stmt 0 view .LVU58
 246 002a 0D4B     		ldr	r3, .L22+16
 247 002c 1C60     		str	r4, [r3]
 248              	.LBB43:
 934:Middlewares/Third_Party/FreeRTOS/Source/timers.c **** 				static uint8_t ucStaticTimerQueueStorage[ ( size_t ) configTIMER_QUEUE_LENGTH * sizeof( DaemonT
 249              		.loc 1 934 5 is_stmt 1 view .LVU59
 935:Middlewares/Third_Party/FreeRTOS/Source/timers.c **** 
 250              		.loc 1 935 5 view .LVU60
 937:Middlewares/Third_Party/FreeRTOS/Source/timers.c **** 			}
 251              		.loc 1 937 5 view .LVU61
 937:Middlewares/Third_Party/FreeRTOS/Source/timers.c **** 			}
 252              		.loc 1 937 19 is_stmt 0 view .LVU62
 253 002e 0023     		movs	r3, #0
 254 0030 0093     		str	r3, [sp]
 255 0032 0C4B     		ldr	r3, .L22+20
 256 0034 0C4A     		ldr	r2, .L22+24
 257 0036 1021     		movs	r1, #16
 258 0038 0A20     		movs	r0, #10
 259 003a FFF7FEFF 		bl	xQueueGenericCreateStatic
 260              	.LVL25:
 937:Middlewares/Third_Party/FreeRTOS/Source/timers.c **** 			}
 261              		.loc 1 937 17 discriminator 1 view .LVU63
 262 003e 044B     		ldr	r3, .L22
 263 0040 1860     		str	r0, [r3]
 264              	.LBE43:
 947:Middlewares/Third_Party/FreeRTOS/Source/timers.c **** 				{
 265              		.loc 1 947 5 is_stmt 1 view .LVU64
ARM GAS  C:\Users\frees\AppData\Local\Temp\ccAseSOz.s 			page 23


 947:Middlewares/Third_Party/FreeRTOS/Source/timers.c **** 				{
 266              		.loc 1 947 7 is_stmt 0 view .LVU65
 267 0042 0028     		cmp	r0, #0
 268 0044 E3D0     		beq	.L19
 949:Middlewares/Third_Party/FreeRTOS/Source/timers.c **** 				}
 269              		.loc 1 949 6 is_stmt 1 view .LVU66
 270 0046 0949     		ldr	r1, .L22+28
 271 0048 FFF7FEFF 		bl	vQueueAddToRegistry
 272              	.LVL26:
 273 004c DFE7     		b	.L19
 274              	.L23:
 275 004e 00BF     		.align	2
 276              	.L22:
 277 0050 00000000 		.word	xTimerQueue
 278 0054 00000000 		.word	xActiveTimerList1
 279 0058 00000000 		.word	xActiveTimerList2
 280 005c 00000000 		.word	pxCurrentTimerList
 281 0060 00000000 		.word	pxOverflowTimerList
 282 0064 00000000 		.word	xStaticTimerQueue.0
 283 0068 00000000 		.word	ucStaticTimerQueueStorage.1
 284 006c 00000000 		.word	.LC0
 285              		.cfi_endproc
 286              	.LFE22:
 288              		.section	.text.prvInitialiseNewTimer,"ax",%progbits
 289              		.align	1
 290              		.syntax unified
 291              		.thumb
 292              		.thumb_func
 294              	prvInitialiseNewTimer:
 295              	.LVL27:
 296              	.LFB7:
 355:Middlewares/Third_Party/FreeRTOS/Source/timers.c **** 	/* 0 is not a valid value for xTimerPeriodInTicks. */
 297              		.loc 1 355 1 view -0
 298              		.cfi_startproc
 299              		@ args = 8, pretend = 0, frame = 0
 300              		@ frame_needed = 0, uses_anonymous_args = 0
 355:Middlewares/Third_Party/FreeRTOS/Source/timers.c **** 	/* 0 is not a valid value for xTimerPeriodInTicks. */
 301              		.loc 1 355 1 is_stmt 0 view .LVU68
 302 0000 2DE9F041 		push	{r4, r5, r6, r7, r8, lr}
 303              	.LCFI5:
 304              		.cfi_def_cfa_offset 24
 305              		.cfi_offset 4, -24
 306              		.cfi_offset 5, -20
 307              		.cfi_offset 6, -16
 308              		.cfi_offset 7, -12
 309              		.cfi_offset 8, -8
 310              		.cfi_offset 14, -4
 311 0004 079F     		ldr	r7, [sp, #28]
 357:Middlewares/Third_Party/FreeRTOS/Source/timers.c **** 
 312              		.loc 1 357 2 is_stmt 1 view .LVU69
 313 0006 51B9     		cbnz	r1, .L25
 357:Middlewares/Third_Party/FreeRTOS/Source/timers.c **** 
 314              		.loc 1 357 2 discriminator 1 view .LVU70
 315              	.LBB44:
 316              	.LBI44:
 317              		.file 2 "Middlewares/Third_Party/FreeRTOS/Source/portable/GCC/ARM_CM7/r0p1/portmacro.h"
   1:Middlewares/Third_Party/FreeRTOS/Source/portable/GCC/ARM_CM7/r0p1/portmacro.h **** /*
ARM GAS  C:\Users\frees\AppData\Local\Temp\ccAseSOz.s 			page 24


   2:Middlewares/Third_Party/FreeRTOS/Source/portable/GCC/ARM_CM7/r0p1/portmacro.h ****  * FreeRTOS Kernel V10.2.1
   3:Middlewares/Third_Party/FreeRTOS/Source/portable/GCC/ARM_CM7/r0p1/portmacro.h ****  * Copyright (C) 2019 Amazon.com, Inc. or its affiliates.  All Rights Reserved.
   4:Middlewares/Third_Party/FreeRTOS/Source/portable/GCC/ARM_CM7/r0p1/portmacro.h ****  *
   5:Middlewares/Third_Party/FreeRTOS/Source/portable/GCC/ARM_CM7/r0p1/portmacro.h ****  * Permission is hereby granted, free of charge, to any person obtaining a copy of
   6:Middlewares/Third_Party/FreeRTOS/Source/portable/GCC/ARM_CM7/r0p1/portmacro.h ****  * this software and associated documentation files (the "Software"), to deal in
   7:Middlewares/Third_Party/FreeRTOS/Source/portable/GCC/ARM_CM7/r0p1/portmacro.h ****  * the Software without restriction, including without limitation the rights to
   8:Middlewares/Third_Party/FreeRTOS/Source/portable/GCC/ARM_CM7/r0p1/portmacro.h ****  * use, copy, modify, merge, publish, distribute, sublicense, and/or sell copies of
   9:Middlewares/Third_Party/FreeRTOS/Source/portable/GCC/ARM_CM7/r0p1/portmacro.h ****  * the Software, and to permit persons to whom the Software is furnished to do so,
  10:Middlewares/Third_Party/FreeRTOS/Source/portable/GCC/ARM_CM7/r0p1/portmacro.h ****  * subject to the following conditions:
  11:Middlewares/Third_Party/FreeRTOS/Source/portable/GCC/ARM_CM7/r0p1/portmacro.h ****  *
  12:Middlewares/Third_Party/FreeRTOS/Source/portable/GCC/ARM_CM7/r0p1/portmacro.h ****  * The above copyright notice and this permission notice shall be included in all
  13:Middlewares/Third_Party/FreeRTOS/Source/portable/GCC/ARM_CM7/r0p1/portmacro.h ****  * copies or substantial portions of the Software.
  14:Middlewares/Third_Party/FreeRTOS/Source/portable/GCC/ARM_CM7/r0p1/portmacro.h ****  *
  15:Middlewares/Third_Party/FreeRTOS/Source/portable/GCC/ARM_CM7/r0p1/portmacro.h ****  * THE SOFTWARE IS PROVIDED "AS IS", WITHOUT WARRANTY OF ANY KIND, EXPRESS OR
  16:Middlewares/Third_Party/FreeRTOS/Source/portable/GCC/ARM_CM7/r0p1/portmacro.h ****  * IMPLIED, INCLUDING BUT NOT LIMITED TO THE WARRANTIES OF MERCHANTABILITY, FITNESS
  17:Middlewares/Third_Party/FreeRTOS/Source/portable/GCC/ARM_CM7/r0p1/portmacro.h ****  * FOR A PARTICULAR PURPOSE AND NONINFRINGEMENT. IN NO EVENT SHALL THE AUTHORS OR
  18:Middlewares/Third_Party/FreeRTOS/Source/portable/GCC/ARM_CM7/r0p1/portmacro.h ****  * COPYRIGHT HOLDERS BE LIABLE FOR ANY CLAIM, DAMAGES OR OTHER LIABILITY, WHETHER
  19:Middlewares/Third_Party/FreeRTOS/Source/portable/GCC/ARM_CM7/r0p1/portmacro.h ****  * IN AN ACTION OF CONTRACT, TORT OR OTHERWISE, ARISING FROM, OUT OF OR IN
  20:Middlewares/Third_Party/FreeRTOS/Source/portable/GCC/ARM_CM7/r0p1/portmacro.h ****  * CONNECTION WITH THE SOFTWARE OR THE USE OR OTHER DEALINGS IN THE SOFTWARE.
  21:Middlewares/Third_Party/FreeRTOS/Source/portable/GCC/ARM_CM7/r0p1/portmacro.h ****  *
  22:Middlewares/Third_Party/FreeRTOS/Source/portable/GCC/ARM_CM7/r0p1/portmacro.h ****  * http://www.FreeRTOS.org
  23:Middlewares/Third_Party/FreeRTOS/Source/portable/GCC/ARM_CM7/r0p1/portmacro.h ****  * http://aws.amazon.com/freertos
  24:Middlewares/Third_Party/FreeRTOS/Source/portable/GCC/ARM_CM7/r0p1/portmacro.h ****  *
  25:Middlewares/Third_Party/FreeRTOS/Source/portable/GCC/ARM_CM7/r0p1/portmacro.h ****  * 1 tab == 4 spaces!
  26:Middlewares/Third_Party/FreeRTOS/Source/portable/GCC/ARM_CM7/r0p1/portmacro.h ****  */
  27:Middlewares/Third_Party/FreeRTOS/Source/portable/GCC/ARM_CM7/r0p1/portmacro.h **** 
  28:Middlewares/Third_Party/FreeRTOS/Source/portable/GCC/ARM_CM7/r0p1/portmacro.h **** 
  29:Middlewares/Third_Party/FreeRTOS/Source/portable/GCC/ARM_CM7/r0p1/portmacro.h **** #ifndef PORTMACRO_H
  30:Middlewares/Third_Party/FreeRTOS/Source/portable/GCC/ARM_CM7/r0p1/portmacro.h **** #define PORTMACRO_H
  31:Middlewares/Third_Party/FreeRTOS/Source/portable/GCC/ARM_CM7/r0p1/portmacro.h **** 
  32:Middlewares/Third_Party/FreeRTOS/Source/portable/GCC/ARM_CM7/r0p1/portmacro.h **** #ifdef __cplusplus
  33:Middlewares/Third_Party/FreeRTOS/Source/portable/GCC/ARM_CM7/r0p1/portmacro.h **** extern "C" {
  34:Middlewares/Third_Party/FreeRTOS/Source/portable/GCC/ARM_CM7/r0p1/portmacro.h **** #endif
  35:Middlewares/Third_Party/FreeRTOS/Source/portable/GCC/ARM_CM7/r0p1/portmacro.h **** 
  36:Middlewares/Third_Party/FreeRTOS/Source/portable/GCC/ARM_CM7/r0p1/portmacro.h **** /*-----------------------------------------------------------
  37:Middlewares/Third_Party/FreeRTOS/Source/portable/GCC/ARM_CM7/r0p1/portmacro.h ****  * Port specific definitions.
  38:Middlewares/Third_Party/FreeRTOS/Source/portable/GCC/ARM_CM7/r0p1/portmacro.h ****  *
  39:Middlewares/Third_Party/FreeRTOS/Source/portable/GCC/ARM_CM7/r0p1/portmacro.h ****  * The settings in this file configure FreeRTOS correctly for the
  40:Middlewares/Third_Party/FreeRTOS/Source/portable/GCC/ARM_CM7/r0p1/portmacro.h ****  * given hardware and compiler.
  41:Middlewares/Third_Party/FreeRTOS/Source/portable/GCC/ARM_CM7/r0p1/portmacro.h ****  *
  42:Middlewares/Third_Party/FreeRTOS/Source/portable/GCC/ARM_CM7/r0p1/portmacro.h ****  * These settings should not be altered.
  43:Middlewares/Third_Party/FreeRTOS/Source/portable/GCC/ARM_CM7/r0p1/portmacro.h ****  *-----------------------------------------------------------
  44:Middlewares/Third_Party/FreeRTOS/Source/portable/GCC/ARM_CM7/r0p1/portmacro.h ****  */
  45:Middlewares/Third_Party/FreeRTOS/Source/portable/GCC/ARM_CM7/r0p1/portmacro.h **** 
  46:Middlewares/Third_Party/FreeRTOS/Source/portable/GCC/ARM_CM7/r0p1/portmacro.h **** /* Type definitions. */
  47:Middlewares/Third_Party/FreeRTOS/Source/portable/GCC/ARM_CM7/r0p1/portmacro.h **** #define portCHAR		char
  48:Middlewares/Third_Party/FreeRTOS/Source/portable/GCC/ARM_CM7/r0p1/portmacro.h **** #define portFLOAT		float
  49:Middlewares/Third_Party/FreeRTOS/Source/portable/GCC/ARM_CM7/r0p1/portmacro.h **** #define portDOUBLE		double
  50:Middlewares/Third_Party/FreeRTOS/Source/portable/GCC/ARM_CM7/r0p1/portmacro.h **** #define portLONG		long
  51:Middlewares/Third_Party/FreeRTOS/Source/portable/GCC/ARM_CM7/r0p1/portmacro.h **** #define portSHORT		short
  52:Middlewares/Third_Party/FreeRTOS/Source/portable/GCC/ARM_CM7/r0p1/portmacro.h **** #define portSTACK_TYPE	uint32_t
  53:Middlewares/Third_Party/FreeRTOS/Source/portable/GCC/ARM_CM7/r0p1/portmacro.h **** #define portBASE_TYPE	long
  54:Middlewares/Third_Party/FreeRTOS/Source/portable/GCC/ARM_CM7/r0p1/portmacro.h **** 
  55:Middlewares/Third_Party/FreeRTOS/Source/portable/GCC/ARM_CM7/r0p1/portmacro.h **** typedef portSTACK_TYPE StackType_t;
  56:Middlewares/Third_Party/FreeRTOS/Source/portable/GCC/ARM_CM7/r0p1/portmacro.h **** typedef long BaseType_t;
  57:Middlewares/Third_Party/FreeRTOS/Source/portable/GCC/ARM_CM7/r0p1/portmacro.h **** typedef unsigned long UBaseType_t;
  58:Middlewares/Third_Party/FreeRTOS/Source/portable/GCC/ARM_CM7/r0p1/portmacro.h **** 
ARM GAS  C:\Users\frees\AppData\Local\Temp\ccAseSOz.s 			page 25


  59:Middlewares/Third_Party/FreeRTOS/Source/portable/GCC/ARM_CM7/r0p1/portmacro.h **** #if( configUSE_16_BIT_TICKS == 1 )
  60:Middlewares/Third_Party/FreeRTOS/Source/portable/GCC/ARM_CM7/r0p1/portmacro.h **** 	typedef uint16_t TickType_t;
  61:Middlewares/Third_Party/FreeRTOS/Source/portable/GCC/ARM_CM7/r0p1/portmacro.h **** 	#define portMAX_DELAY ( TickType_t ) 0xffff
  62:Middlewares/Third_Party/FreeRTOS/Source/portable/GCC/ARM_CM7/r0p1/portmacro.h **** #else
  63:Middlewares/Third_Party/FreeRTOS/Source/portable/GCC/ARM_CM7/r0p1/portmacro.h **** 	typedef uint32_t TickType_t;
  64:Middlewares/Third_Party/FreeRTOS/Source/portable/GCC/ARM_CM7/r0p1/portmacro.h **** 	#define portMAX_DELAY ( TickType_t ) 0xffffffffUL
  65:Middlewares/Third_Party/FreeRTOS/Source/portable/GCC/ARM_CM7/r0p1/portmacro.h **** 
  66:Middlewares/Third_Party/FreeRTOS/Source/portable/GCC/ARM_CM7/r0p1/portmacro.h **** 	/* 32-bit tick type on a 32-bit architecture, so reads of the tick count do
  67:Middlewares/Third_Party/FreeRTOS/Source/portable/GCC/ARM_CM7/r0p1/portmacro.h **** 	not need to be guarded with a critical section. */
  68:Middlewares/Third_Party/FreeRTOS/Source/portable/GCC/ARM_CM7/r0p1/portmacro.h **** 	#define portTICK_TYPE_IS_ATOMIC 1
  69:Middlewares/Third_Party/FreeRTOS/Source/portable/GCC/ARM_CM7/r0p1/portmacro.h **** #endif
  70:Middlewares/Third_Party/FreeRTOS/Source/portable/GCC/ARM_CM7/r0p1/portmacro.h **** /*-----------------------------------------------------------*/
  71:Middlewares/Third_Party/FreeRTOS/Source/portable/GCC/ARM_CM7/r0p1/portmacro.h **** 
  72:Middlewares/Third_Party/FreeRTOS/Source/portable/GCC/ARM_CM7/r0p1/portmacro.h **** /* Architecture specifics. */
  73:Middlewares/Third_Party/FreeRTOS/Source/portable/GCC/ARM_CM7/r0p1/portmacro.h **** #define portSTACK_GROWTH			( -1 )
  74:Middlewares/Third_Party/FreeRTOS/Source/portable/GCC/ARM_CM7/r0p1/portmacro.h **** #define portTICK_PERIOD_MS			( ( TickType_t ) 1000 / configTICK_RATE_HZ )
  75:Middlewares/Third_Party/FreeRTOS/Source/portable/GCC/ARM_CM7/r0p1/portmacro.h **** #define portBYTE_ALIGNMENT			8
  76:Middlewares/Third_Party/FreeRTOS/Source/portable/GCC/ARM_CM7/r0p1/portmacro.h **** /*-----------------------------------------------------------*/
  77:Middlewares/Third_Party/FreeRTOS/Source/portable/GCC/ARM_CM7/r0p1/portmacro.h **** 
  78:Middlewares/Third_Party/FreeRTOS/Source/portable/GCC/ARM_CM7/r0p1/portmacro.h **** /* Scheduler utilities. */
  79:Middlewares/Third_Party/FreeRTOS/Source/portable/GCC/ARM_CM7/r0p1/portmacro.h **** #define portYIELD() 															\
  80:Middlewares/Third_Party/FreeRTOS/Source/portable/GCC/ARM_CM7/r0p1/portmacro.h **** {																				\
  81:Middlewares/Third_Party/FreeRTOS/Source/portable/GCC/ARM_CM7/r0p1/portmacro.h **** 	/* Set a PendSV to request a context switch. */								\
  82:Middlewares/Third_Party/FreeRTOS/Source/portable/GCC/ARM_CM7/r0p1/portmacro.h **** 	portNVIC_INT_CTRL_REG = portNVIC_PENDSVSET_BIT;								\
  83:Middlewares/Third_Party/FreeRTOS/Source/portable/GCC/ARM_CM7/r0p1/portmacro.h **** 																				\
  84:Middlewares/Third_Party/FreeRTOS/Source/portable/GCC/ARM_CM7/r0p1/portmacro.h **** 	/* Barriers are normally not required but do ensure the code is completely	\
  85:Middlewares/Third_Party/FreeRTOS/Source/portable/GCC/ARM_CM7/r0p1/portmacro.h **** 	within the specified behaviour for the architecture. */						\
  86:Middlewares/Third_Party/FreeRTOS/Source/portable/GCC/ARM_CM7/r0p1/portmacro.h **** 	__asm volatile( "dsb" ::: "memory" );										\
  87:Middlewares/Third_Party/FreeRTOS/Source/portable/GCC/ARM_CM7/r0p1/portmacro.h **** 	__asm volatile( "isb" );													\
  88:Middlewares/Third_Party/FreeRTOS/Source/portable/GCC/ARM_CM7/r0p1/portmacro.h **** }
  89:Middlewares/Third_Party/FreeRTOS/Source/portable/GCC/ARM_CM7/r0p1/portmacro.h **** 
  90:Middlewares/Third_Party/FreeRTOS/Source/portable/GCC/ARM_CM7/r0p1/portmacro.h **** #define portNVIC_INT_CTRL_REG		( * ( ( volatile uint32_t * ) 0xe000ed04 ) )
  91:Middlewares/Third_Party/FreeRTOS/Source/portable/GCC/ARM_CM7/r0p1/portmacro.h **** #define portNVIC_PENDSVSET_BIT		( 1UL << 28UL )
  92:Middlewares/Third_Party/FreeRTOS/Source/portable/GCC/ARM_CM7/r0p1/portmacro.h **** #define portEND_SWITCHING_ISR( xSwitchRequired ) if( xSwitchRequired != pdFALSE ) portYIELD()
  93:Middlewares/Third_Party/FreeRTOS/Source/portable/GCC/ARM_CM7/r0p1/portmacro.h **** #define portYIELD_FROM_ISR( x ) portEND_SWITCHING_ISR( x )
  94:Middlewares/Third_Party/FreeRTOS/Source/portable/GCC/ARM_CM7/r0p1/portmacro.h **** /*-----------------------------------------------------------*/
  95:Middlewares/Third_Party/FreeRTOS/Source/portable/GCC/ARM_CM7/r0p1/portmacro.h **** 
  96:Middlewares/Third_Party/FreeRTOS/Source/portable/GCC/ARM_CM7/r0p1/portmacro.h **** /* Critical section management. */
  97:Middlewares/Third_Party/FreeRTOS/Source/portable/GCC/ARM_CM7/r0p1/portmacro.h **** extern void vPortEnterCritical( void );
  98:Middlewares/Third_Party/FreeRTOS/Source/portable/GCC/ARM_CM7/r0p1/portmacro.h **** extern void vPortExitCritical( void );
  99:Middlewares/Third_Party/FreeRTOS/Source/portable/GCC/ARM_CM7/r0p1/portmacro.h **** #define portSET_INTERRUPT_MASK_FROM_ISR()		ulPortRaiseBASEPRI()
 100:Middlewares/Third_Party/FreeRTOS/Source/portable/GCC/ARM_CM7/r0p1/portmacro.h **** #define portCLEAR_INTERRUPT_MASK_FROM_ISR(x)	vPortSetBASEPRI(x)
 101:Middlewares/Third_Party/FreeRTOS/Source/portable/GCC/ARM_CM7/r0p1/portmacro.h **** #define portDISABLE_INTERRUPTS()				vPortRaiseBASEPRI()
 102:Middlewares/Third_Party/FreeRTOS/Source/portable/GCC/ARM_CM7/r0p1/portmacro.h **** #define portENABLE_INTERRUPTS()					vPortSetBASEPRI(0)
 103:Middlewares/Third_Party/FreeRTOS/Source/portable/GCC/ARM_CM7/r0p1/portmacro.h **** #define portENTER_CRITICAL()					vPortEnterCritical()
 104:Middlewares/Third_Party/FreeRTOS/Source/portable/GCC/ARM_CM7/r0p1/portmacro.h **** #define portEXIT_CRITICAL()						vPortExitCritical()
 105:Middlewares/Third_Party/FreeRTOS/Source/portable/GCC/ARM_CM7/r0p1/portmacro.h **** 
 106:Middlewares/Third_Party/FreeRTOS/Source/portable/GCC/ARM_CM7/r0p1/portmacro.h **** /*-----------------------------------------------------------*/
 107:Middlewares/Third_Party/FreeRTOS/Source/portable/GCC/ARM_CM7/r0p1/portmacro.h **** 
 108:Middlewares/Third_Party/FreeRTOS/Source/portable/GCC/ARM_CM7/r0p1/portmacro.h **** /* Task function macros as described on the FreeRTOS.org WEB site.  These are
 109:Middlewares/Third_Party/FreeRTOS/Source/portable/GCC/ARM_CM7/r0p1/portmacro.h **** not necessary for to use this port.  They are defined so the common demo files
 110:Middlewares/Third_Party/FreeRTOS/Source/portable/GCC/ARM_CM7/r0p1/portmacro.h **** (which build with all the ports) will build. */
 111:Middlewares/Third_Party/FreeRTOS/Source/portable/GCC/ARM_CM7/r0p1/portmacro.h **** #define portTASK_FUNCTION_PROTO( vFunction, pvParameters ) void vFunction( void *pvParameters )
 112:Middlewares/Third_Party/FreeRTOS/Source/portable/GCC/ARM_CM7/r0p1/portmacro.h **** #define portTASK_FUNCTION( vFunction, pvParameters ) void vFunction( void *pvParameters )
 113:Middlewares/Third_Party/FreeRTOS/Source/portable/GCC/ARM_CM7/r0p1/portmacro.h **** /*-----------------------------------------------------------*/
 114:Middlewares/Third_Party/FreeRTOS/Source/portable/GCC/ARM_CM7/r0p1/portmacro.h **** 
 115:Middlewares/Third_Party/FreeRTOS/Source/portable/GCC/ARM_CM7/r0p1/portmacro.h **** /* Tickless idle/low power functionality. */
ARM GAS  C:\Users\frees\AppData\Local\Temp\ccAseSOz.s 			page 26


 116:Middlewares/Third_Party/FreeRTOS/Source/portable/GCC/ARM_CM7/r0p1/portmacro.h **** #ifndef portSUPPRESS_TICKS_AND_SLEEP
 117:Middlewares/Third_Party/FreeRTOS/Source/portable/GCC/ARM_CM7/r0p1/portmacro.h **** 	extern void vPortSuppressTicksAndSleep( TickType_t xExpectedIdleTime );
 118:Middlewares/Third_Party/FreeRTOS/Source/portable/GCC/ARM_CM7/r0p1/portmacro.h **** 	#define portSUPPRESS_TICKS_AND_SLEEP( xExpectedIdleTime ) vPortSuppressTicksAndSleep( xExpectedIdl
 119:Middlewares/Third_Party/FreeRTOS/Source/portable/GCC/ARM_CM7/r0p1/portmacro.h **** #endif
 120:Middlewares/Third_Party/FreeRTOS/Source/portable/GCC/ARM_CM7/r0p1/portmacro.h **** /*-----------------------------------------------------------*/
 121:Middlewares/Third_Party/FreeRTOS/Source/portable/GCC/ARM_CM7/r0p1/portmacro.h **** 
 122:Middlewares/Third_Party/FreeRTOS/Source/portable/GCC/ARM_CM7/r0p1/portmacro.h **** /* Architecture specific optimisations. */
 123:Middlewares/Third_Party/FreeRTOS/Source/portable/GCC/ARM_CM7/r0p1/portmacro.h **** #ifndef configUSE_PORT_OPTIMISED_TASK_SELECTION
 124:Middlewares/Third_Party/FreeRTOS/Source/portable/GCC/ARM_CM7/r0p1/portmacro.h **** 	#define configUSE_PORT_OPTIMISED_TASK_SELECTION 1
 125:Middlewares/Third_Party/FreeRTOS/Source/portable/GCC/ARM_CM7/r0p1/portmacro.h **** #endif
 126:Middlewares/Third_Party/FreeRTOS/Source/portable/GCC/ARM_CM7/r0p1/portmacro.h **** 
 127:Middlewares/Third_Party/FreeRTOS/Source/portable/GCC/ARM_CM7/r0p1/portmacro.h **** #if configUSE_PORT_OPTIMISED_TASK_SELECTION == 1
 128:Middlewares/Third_Party/FreeRTOS/Source/portable/GCC/ARM_CM7/r0p1/portmacro.h **** 
 129:Middlewares/Third_Party/FreeRTOS/Source/portable/GCC/ARM_CM7/r0p1/portmacro.h **** 	/* Generic helper function. */
 130:Middlewares/Third_Party/FreeRTOS/Source/portable/GCC/ARM_CM7/r0p1/portmacro.h **** 	__attribute__( ( always_inline ) ) static inline uint8_t ucPortCountLeadingZeros( uint32_t ulBitma
 131:Middlewares/Third_Party/FreeRTOS/Source/portable/GCC/ARM_CM7/r0p1/portmacro.h **** 	{
 132:Middlewares/Third_Party/FreeRTOS/Source/portable/GCC/ARM_CM7/r0p1/portmacro.h **** 	uint8_t ucReturn;
 133:Middlewares/Third_Party/FreeRTOS/Source/portable/GCC/ARM_CM7/r0p1/portmacro.h **** 
 134:Middlewares/Third_Party/FreeRTOS/Source/portable/GCC/ARM_CM7/r0p1/portmacro.h **** 		__asm volatile ( "clz %0, %1" : "=r" ( ucReturn ) : "r" ( ulBitmap ) : "memory" );
 135:Middlewares/Third_Party/FreeRTOS/Source/portable/GCC/ARM_CM7/r0p1/portmacro.h **** 		return ucReturn;
 136:Middlewares/Third_Party/FreeRTOS/Source/portable/GCC/ARM_CM7/r0p1/portmacro.h **** 	}
 137:Middlewares/Third_Party/FreeRTOS/Source/portable/GCC/ARM_CM7/r0p1/portmacro.h **** 
 138:Middlewares/Third_Party/FreeRTOS/Source/portable/GCC/ARM_CM7/r0p1/portmacro.h **** 	/* Check the configuration. */
 139:Middlewares/Third_Party/FreeRTOS/Source/portable/GCC/ARM_CM7/r0p1/portmacro.h **** 	#if( configMAX_PRIORITIES > 32 )
 140:Middlewares/Third_Party/FreeRTOS/Source/portable/GCC/ARM_CM7/r0p1/portmacro.h **** 		#error configUSE_PORT_OPTIMISED_TASK_SELECTION can only be set to 1 when configMAX_PRIORITIES is 
 141:Middlewares/Third_Party/FreeRTOS/Source/portable/GCC/ARM_CM7/r0p1/portmacro.h **** 	#endif
 142:Middlewares/Third_Party/FreeRTOS/Source/portable/GCC/ARM_CM7/r0p1/portmacro.h **** 
 143:Middlewares/Third_Party/FreeRTOS/Source/portable/GCC/ARM_CM7/r0p1/portmacro.h **** 	/* Store/clear the ready priorities in a bit map. */
 144:Middlewares/Third_Party/FreeRTOS/Source/portable/GCC/ARM_CM7/r0p1/portmacro.h **** 	#define portRECORD_READY_PRIORITY( uxPriority, uxReadyPriorities ) ( uxReadyPriorities ) |= ( 1UL 
 145:Middlewares/Third_Party/FreeRTOS/Source/portable/GCC/ARM_CM7/r0p1/portmacro.h **** 	#define portRESET_READY_PRIORITY( uxPriority, uxReadyPriorities ) ( uxReadyPriorities ) &= ~( 1UL 
 146:Middlewares/Third_Party/FreeRTOS/Source/portable/GCC/ARM_CM7/r0p1/portmacro.h **** 
 147:Middlewares/Third_Party/FreeRTOS/Source/portable/GCC/ARM_CM7/r0p1/portmacro.h **** 	/*-----------------------------------------------------------*/
 148:Middlewares/Third_Party/FreeRTOS/Source/portable/GCC/ARM_CM7/r0p1/portmacro.h **** 
 149:Middlewares/Third_Party/FreeRTOS/Source/portable/GCC/ARM_CM7/r0p1/portmacro.h **** 	#define portGET_HIGHEST_PRIORITY( uxTopPriority, uxReadyPriorities ) uxTopPriority = ( 31UL - ( ui
 150:Middlewares/Third_Party/FreeRTOS/Source/portable/GCC/ARM_CM7/r0p1/portmacro.h **** 
 151:Middlewares/Third_Party/FreeRTOS/Source/portable/GCC/ARM_CM7/r0p1/portmacro.h **** #endif /* configUSE_PORT_OPTIMISED_TASK_SELECTION */
 152:Middlewares/Third_Party/FreeRTOS/Source/portable/GCC/ARM_CM7/r0p1/portmacro.h **** 
 153:Middlewares/Third_Party/FreeRTOS/Source/portable/GCC/ARM_CM7/r0p1/portmacro.h **** /*-----------------------------------------------------------*/
 154:Middlewares/Third_Party/FreeRTOS/Source/portable/GCC/ARM_CM7/r0p1/portmacro.h **** 
 155:Middlewares/Third_Party/FreeRTOS/Source/portable/GCC/ARM_CM7/r0p1/portmacro.h **** #ifdef configASSERT
 156:Middlewares/Third_Party/FreeRTOS/Source/portable/GCC/ARM_CM7/r0p1/portmacro.h **** 	void vPortValidateInterruptPriority( void );
 157:Middlewares/Third_Party/FreeRTOS/Source/portable/GCC/ARM_CM7/r0p1/portmacro.h **** 	#define portASSERT_IF_INTERRUPT_PRIORITY_INVALID() 	vPortValidateInterruptPriority()
 158:Middlewares/Third_Party/FreeRTOS/Source/portable/GCC/ARM_CM7/r0p1/portmacro.h **** #endif
 159:Middlewares/Third_Party/FreeRTOS/Source/portable/GCC/ARM_CM7/r0p1/portmacro.h **** 
 160:Middlewares/Third_Party/FreeRTOS/Source/portable/GCC/ARM_CM7/r0p1/portmacro.h **** /* portNOP() is not required by this port. */
 161:Middlewares/Third_Party/FreeRTOS/Source/portable/GCC/ARM_CM7/r0p1/portmacro.h **** #define portNOP()
 162:Middlewares/Third_Party/FreeRTOS/Source/portable/GCC/ARM_CM7/r0p1/portmacro.h **** 
 163:Middlewares/Third_Party/FreeRTOS/Source/portable/GCC/ARM_CM7/r0p1/portmacro.h **** #define portINLINE	__inline
 164:Middlewares/Third_Party/FreeRTOS/Source/portable/GCC/ARM_CM7/r0p1/portmacro.h **** 
 165:Middlewares/Third_Party/FreeRTOS/Source/portable/GCC/ARM_CM7/r0p1/portmacro.h **** #ifndef portFORCE_INLINE
 166:Middlewares/Third_Party/FreeRTOS/Source/portable/GCC/ARM_CM7/r0p1/portmacro.h **** 	#define portFORCE_INLINE inline __attribute__(( always_inline))
 167:Middlewares/Third_Party/FreeRTOS/Source/portable/GCC/ARM_CM7/r0p1/portmacro.h **** #endif
 168:Middlewares/Third_Party/FreeRTOS/Source/portable/GCC/ARM_CM7/r0p1/portmacro.h **** 
 169:Middlewares/Third_Party/FreeRTOS/Source/portable/GCC/ARM_CM7/r0p1/portmacro.h **** portFORCE_INLINE static BaseType_t xPortIsInsideInterrupt( void )
 170:Middlewares/Third_Party/FreeRTOS/Source/portable/GCC/ARM_CM7/r0p1/portmacro.h **** {
 171:Middlewares/Third_Party/FreeRTOS/Source/portable/GCC/ARM_CM7/r0p1/portmacro.h **** uint32_t ulCurrentInterrupt;
 172:Middlewares/Third_Party/FreeRTOS/Source/portable/GCC/ARM_CM7/r0p1/portmacro.h **** BaseType_t xReturn;
ARM GAS  C:\Users\frees\AppData\Local\Temp\ccAseSOz.s 			page 27


 173:Middlewares/Third_Party/FreeRTOS/Source/portable/GCC/ARM_CM7/r0p1/portmacro.h **** 
 174:Middlewares/Third_Party/FreeRTOS/Source/portable/GCC/ARM_CM7/r0p1/portmacro.h **** 	/* Obtain the number of the currently executing interrupt. */
 175:Middlewares/Third_Party/FreeRTOS/Source/portable/GCC/ARM_CM7/r0p1/portmacro.h **** 	__asm volatile( "mrs %0, ipsr" : "=r"( ulCurrentInterrupt ) :: "memory" );
 176:Middlewares/Third_Party/FreeRTOS/Source/portable/GCC/ARM_CM7/r0p1/portmacro.h **** 
 177:Middlewares/Third_Party/FreeRTOS/Source/portable/GCC/ARM_CM7/r0p1/portmacro.h **** 	if( ulCurrentInterrupt == 0 )
 178:Middlewares/Third_Party/FreeRTOS/Source/portable/GCC/ARM_CM7/r0p1/portmacro.h **** 	{
 179:Middlewares/Third_Party/FreeRTOS/Source/portable/GCC/ARM_CM7/r0p1/portmacro.h **** 		xReturn = pdFALSE;
 180:Middlewares/Third_Party/FreeRTOS/Source/portable/GCC/ARM_CM7/r0p1/portmacro.h **** 	}
 181:Middlewares/Third_Party/FreeRTOS/Source/portable/GCC/ARM_CM7/r0p1/portmacro.h **** 	else
 182:Middlewares/Third_Party/FreeRTOS/Source/portable/GCC/ARM_CM7/r0p1/portmacro.h **** 	{
 183:Middlewares/Third_Party/FreeRTOS/Source/portable/GCC/ARM_CM7/r0p1/portmacro.h **** 		xReturn = pdTRUE;
 184:Middlewares/Third_Party/FreeRTOS/Source/portable/GCC/ARM_CM7/r0p1/portmacro.h **** 	}
 185:Middlewares/Third_Party/FreeRTOS/Source/portable/GCC/ARM_CM7/r0p1/portmacro.h **** 
 186:Middlewares/Third_Party/FreeRTOS/Source/portable/GCC/ARM_CM7/r0p1/portmacro.h **** 	return xReturn;
 187:Middlewares/Third_Party/FreeRTOS/Source/portable/GCC/ARM_CM7/r0p1/portmacro.h **** }
 188:Middlewares/Third_Party/FreeRTOS/Source/portable/GCC/ARM_CM7/r0p1/portmacro.h **** 
 189:Middlewares/Third_Party/FreeRTOS/Source/portable/GCC/ARM_CM7/r0p1/portmacro.h **** /*-----------------------------------------------------------*/
 190:Middlewares/Third_Party/FreeRTOS/Source/portable/GCC/ARM_CM7/r0p1/portmacro.h **** 
 191:Middlewares/Third_Party/FreeRTOS/Source/portable/GCC/ARM_CM7/r0p1/portmacro.h **** portFORCE_INLINE static void vPortRaiseBASEPRI( void )
 318              		.loc 2 191 30 view .LVU71
 319              	.LBB45:
 192:Middlewares/Third_Party/FreeRTOS/Source/portable/GCC/ARM_CM7/r0p1/portmacro.h **** {
 193:Middlewares/Third_Party/FreeRTOS/Source/portable/GCC/ARM_CM7/r0p1/portmacro.h **** uint32_t ulNewBASEPRI;
 320              		.loc 2 193 1 view .LVU72
 194:Middlewares/Third_Party/FreeRTOS/Source/portable/GCC/ARM_CM7/r0p1/portmacro.h **** 
 195:Middlewares/Third_Party/FreeRTOS/Source/portable/GCC/ARM_CM7/r0p1/portmacro.h **** 	__asm volatile
 321              		.loc 2 195 2 view .LVU73
 322              		.syntax unified
 323              	@ 195 "Middlewares/Third_Party/FreeRTOS/Source/portable/GCC/ARM_CM7/r0p1/portmacro.h" 1
 324 0008 4FF05003 			mov r3, #80												
 325 000c 72B6     		cpsid i													
 326 000e 83F31188 		msr basepri, r3											
 327 0012 BFF36F8F 		isb														
 328 0016 BFF34F8F 		dsb														
 329 001a 62B6     		cpsie i													
 330              	
 331              	@ 0 "" 2
 332              	.LVL28:
 333              		.thumb
 334              		.syntax unified
 335              	.L26:
 336              		.loc 2 195 2 is_stmt 0 view .LVU74
 337              	.LBE45:
 338              	.LBE44:
 357:Middlewares/Third_Party/FreeRTOS/Source/timers.c **** 
 339              		.loc 1 357 2 is_stmt 1 discriminator 3 view .LVU75
 357:Middlewares/Third_Party/FreeRTOS/Source/timers.c **** 
 340              		.loc 1 357 2 discriminator 3 view .LVU76
 341 001c FEE7     		b	.L26
 342              	.LVL29:
 343              	.L25:
 357:Middlewares/Third_Party/FreeRTOS/Source/timers.c **** 
 344              		.loc 1 357 2 is_stmt 0 discriminator 3 view .LVU77
 345 001e 0646     		mov	r6, r0
 346 0020 1446     		mov	r4, r2
 347 0022 1D46     		mov	r5, r3
 348 0024 8846     		mov	r8, r1
ARM GAS  C:\Users\frees\AppData\Local\Temp\ccAseSOz.s 			page 28


 357:Middlewares/Third_Party/FreeRTOS/Source/timers.c **** 
 349              		.loc 1 357 45 is_stmt 1 discriminator 2 view .LVU78
 359:Middlewares/Third_Party/FreeRTOS/Source/timers.c **** 	{
 350              		.loc 1 359 2 view .LVU79
 359:Middlewares/Third_Party/FreeRTOS/Source/timers.c **** 	{
 351              		.loc 1 359 4 is_stmt 0 view .LVU80
 352 0026 8FB1     		cbz	r7, .L24
 363:Middlewares/Third_Party/FreeRTOS/Source/timers.c **** 
 353              		.loc 1 363 3 is_stmt 1 view .LVU81
 354 0028 FFF7FEFF 		bl	prvCheckForValidListAndQueue
 355              	.LVL30:
 367:Middlewares/Third_Party/FreeRTOS/Source/timers.c **** 		pxNewTimer->xTimerPeriodInTicks = xTimerPeriodInTicks;
 356              		.loc 1 367 3 view .LVU82
 367:Middlewares/Third_Party/FreeRTOS/Source/timers.c **** 		pxNewTimer->xTimerPeriodInTicks = xTimerPeriodInTicks;
 357              		.loc 1 367 27 is_stmt 0 view .LVU83
 358 002c 3E60     		str	r6, [r7]
 368:Middlewares/Third_Party/FreeRTOS/Source/timers.c **** 		pxNewTimer->pvTimerID = pvTimerID;
 359              		.loc 1 368 3 is_stmt 1 view .LVU84
 368:Middlewares/Third_Party/FreeRTOS/Source/timers.c **** 		pxNewTimer->pvTimerID = pvTimerID;
 360              		.loc 1 368 35 is_stmt 0 view .LVU85
 361 002e C7F81880 		str	r8, [r7, #24]
 369:Middlewares/Third_Party/FreeRTOS/Source/timers.c **** 		pxNewTimer->pxCallbackFunction = pxCallbackFunction;
 362              		.loc 1 369 3 is_stmt 1 view .LVU86
 369:Middlewares/Third_Party/FreeRTOS/Source/timers.c **** 		pxNewTimer->pxCallbackFunction = pxCallbackFunction;
 363              		.loc 1 369 25 is_stmt 0 view .LVU87
 364 0032 FD61     		str	r5, [r7, #28]
 370:Middlewares/Third_Party/FreeRTOS/Source/timers.c **** 		vListInitialiseItem( &( pxNewTimer->xTimerListItem ) );
 365              		.loc 1 370 3 is_stmt 1 view .LVU88
 370:Middlewares/Third_Party/FreeRTOS/Source/timers.c **** 		vListInitialiseItem( &( pxNewTimer->xTimerListItem ) );
 366              		.loc 1 370 34 is_stmt 0 view .LVU89
 367 0034 069B     		ldr	r3, [sp, #24]
 368 0036 3B62     		str	r3, [r7, #32]
 371:Middlewares/Third_Party/FreeRTOS/Source/timers.c **** 		if( uxAutoReload != pdFALSE )
 369              		.loc 1 371 3 is_stmt 1 view .LVU90
 370 0038 381D     		adds	r0, r7, #4
 371 003a FFF7FEFF 		bl	vListInitialiseItem
 372              	.LVL31:
 372:Middlewares/Third_Party/FreeRTOS/Source/timers.c **** 		{
 373              		.loc 1 372 3 view .LVU91
 372:Middlewares/Third_Party/FreeRTOS/Source/timers.c **** 		{
 374              		.loc 1 372 5 is_stmt 0 view .LVU92
 375 003e 2CB1     		cbz	r4, .L24
 374:Middlewares/Third_Party/FreeRTOS/Source/timers.c **** 		}
 376              		.loc 1 374 4 is_stmt 1 view .LVU93
 374:Middlewares/Third_Party/FreeRTOS/Source/timers.c **** 		}
 377              		.loc 1 374 14 is_stmt 0 view .LVU94
 378 0040 97F82830 		ldrb	r3, [r7, #40]	@ zero_extendqisi2
 374:Middlewares/Third_Party/FreeRTOS/Source/timers.c **** 		}
 379              		.loc 1 374 25 view .LVU95
 380 0044 43F00403 		orr	r3, r3, #4
 381 0048 87F82830 		strb	r3, [r7, #40]
 376:Middlewares/Third_Party/FreeRTOS/Source/timers.c **** 	}
 382              		.loc 1 376 34 is_stmt 1 view .LVU96
 383              	.L24:
 378:Middlewares/Third_Party/FreeRTOS/Source/timers.c **** /*-----------------------------------------------------------*/
 384              		.loc 1 378 1 is_stmt 0 view .LVU97
 385 004c BDE8F081 		pop	{r4, r5, r6, r7, r8, pc}
ARM GAS  C:\Users\frees\AppData\Local\Temp\ccAseSOz.s 			page 29


 378:Middlewares/Third_Party/FreeRTOS/Source/timers.c **** /*-----------------------------------------------------------*/
 386              		.loc 1 378 1 view .LVU98
 387              		.cfi_endproc
 388              	.LFE7:
 390              		.section	.rodata.xTimerCreateTimerTask.str1.4,"aMS",%progbits,1
 391              		.align	2
 392              	.LC1:
 393 0000 546D7220 		.ascii	"Tmr Svc\000"
 393      53766300 
 394              		.section	.text.xTimerCreateTimerTask,"ax",%progbits
 395              		.align	1
 396              		.global	xTimerCreateTimerTask
 397              		.syntax unified
 398              		.thumb
 399              		.thumb_func
 401              	xTimerCreateTimerTask:
 402              	.LFB4:
 228:Middlewares/Third_Party/FreeRTOS/Source/timers.c **** BaseType_t xReturn = pdFAIL;
 403              		.loc 1 228 1 is_stmt 1 view -0
 404              		.cfi_startproc
 405              		@ args = 0, pretend = 0, frame = 16
 406              		@ frame_needed = 0, uses_anonymous_args = 0
 407 0000 10B5     		push	{r4, lr}
 408              	.LCFI6:
 409              		.cfi_def_cfa_offset 8
 410              		.cfi_offset 4, -8
 411              		.cfi_offset 14, -4
 412 0002 88B0     		sub	sp, sp, #32
 413              	.LCFI7:
 414              		.cfi_def_cfa_offset 40
 229:Middlewares/Third_Party/FreeRTOS/Source/timers.c **** 
 415              		.loc 1 229 1 view .LVU100
 416              	.LVL32:
 235:Middlewares/Third_Party/FreeRTOS/Source/timers.c **** 
 417              		.loc 1 235 2 view .LVU101
 418 0004 FFF7FEFF 		bl	prvCheckForValidListAndQueue
 419              	.LVL33:
 237:Middlewares/Third_Party/FreeRTOS/Source/timers.c **** 	{
 420              		.loc 1 237 2 view .LVU102
 237:Middlewares/Third_Party/FreeRTOS/Source/timers.c **** 	{
 421              		.loc 1 237 18 is_stmt 0 view .LVU103
 422 0008 134B     		ldr	r3, .L35
 423 000a 1B68     		ldr	r3, [r3]
 237:Middlewares/Third_Party/FreeRTOS/Source/timers.c **** 	{
 424              		.loc 1 237 4 view .LVU104
 425 000c CBB1     		cbz	r3, .L30
 426              	.LBB46:
 241:Middlewares/Third_Party/FreeRTOS/Source/timers.c **** 			StackType_t *pxTimerTaskStackBuffer = NULL;
 427              		.loc 1 241 4 is_stmt 1 view .LVU105
 241:Middlewares/Third_Party/FreeRTOS/Source/timers.c **** 			StackType_t *pxTimerTaskStackBuffer = NULL;
 428              		.loc 1 241 18 is_stmt 0 view .LVU106
 429 000e 0024     		movs	r4, #0
 430 0010 0594     		str	r4, [sp, #20]
 242:Middlewares/Third_Party/FreeRTOS/Source/timers.c **** 			uint32_t ulTimerTaskStackSize;
 431              		.loc 1 242 4 is_stmt 1 view .LVU107
 242:Middlewares/Third_Party/FreeRTOS/Source/timers.c **** 			uint32_t ulTimerTaskStackSize;
 432              		.loc 1 242 17 is_stmt 0 view .LVU108
ARM GAS  C:\Users\frees\AppData\Local\Temp\ccAseSOz.s 			page 30


 433 0012 0694     		str	r4, [sp, #24]
 243:Middlewares/Third_Party/FreeRTOS/Source/timers.c **** 
 434              		.loc 1 243 4 is_stmt 1 view .LVU109
 245:Middlewares/Third_Party/FreeRTOS/Source/timers.c **** 			xTimerTaskHandle = xTaskCreateStatic(	prvTimerTask,
 435              		.loc 1 245 4 view .LVU110
 436 0014 07AA     		add	r2, sp, #28
 437 0016 06A9     		add	r1, sp, #24
 438 0018 05A8     		add	r0, sp, #20
 439 001a FFF7FEFF 		bl	vApplicationGetTimerTaskMemory
 440              	.LVL34:
 246:Middlewares/Third_Party/FreeRTOS/Source/timers.c **** 													configTIMER_SERVICE_TASK_NAME,
 441              		.loc 1 246 4 view .LVU111
 246:Middlewares/Third_Party/FreeRTOS/Source/timers.c **** 													configTIMER_SERVICE_TASK_NAME,
 442              		.loc 1 246 23 is_stmt 0 view .LVU112
 443 001e 059B     		ldr	r3, [sp, #20]
 444 0020 0293     		str	r3, [sp, #8]
 445 0022 069B     		ldr	r3, [sp, #24]
 446 0024 0193     		str	r3, [sp, #4]
 447 0026 0223     		movs	r3, #2
 448 0028 0093     		str	r3, [sp]
 449 002a 2346     		mov	r3, r4
 450 002c 079A     		ldr	r2, [sp, #28]
 451 002e 0B49     		ldr	r1, .L35+4
 452 0030 0B48     		ldr	r0, .L35+8
 453 0032 FFF7FEFF 		bl	xTaskCreateStatic
 454              	.LVL35:
 246:Middlewares/Third_Party/FreeRTOS/Source/timers.c **** 													configTIMER_SERVICE_TASK_NAME,
 455              		.loc 1 246 21 discriminator 1 view .LVU113
 456 0036 0B4B     		ldr	r3, .L35+12
 457 0038 1860     		str	r0, [r3]
 254:Middlewares/Third_Party/FreeRTOS/Source/timers.c **** 			{
 458              		.loc 1 254 4 is_stmt 1 view .LVU114
 254:Middlewares/Third_Party/FreeRTOS/Source/timers.c **** 			{
 459              		.loc 1 254 6 is_stmt 0 view .LVU115
 460 003a 10B1     		cbz	r0, .L30
 461              	.LBE46:
 277:Middlewares/Third_Party/FreeRTOS/Source/timers.c **** /*-----------------------------------------------------------*/
 462              		.loc 1 277 1 view .LVU116
 463 003c 0120     		movs	r0, #1
 464 003e 08B0     		add	sp, sp, #32
 465              	.LCFI8:
 466              		.cfi_remember_state
 467              		.cfi_def_cfa_offset 8
 468              		@ sp needed
 469 0040 10BD     		pop	{r4, pc}
 470              	.L30:
 471              	.LCFI9:
 472              		.cfi_restore_state
 473              	.LVL36:
 275:Middlewares/Third_Party/FreeRTOS/Source/timers.c **** 	return xReturn;
 474              		.loc 1 275 2 is_stmt 1 discriminator 1 view .LVU117
 475              	.LBB47:
 476              	.LBI47:
 191:Middlewares/Third_Party/FreeRTOS/Source/portable/GCC/ARM_CM7/r0p1/portmacro.h **** {
 477              		.loc 2 191 30 view .LVU118
 478              	.LBB48:
 193:Middlewares/Third_Party/FreeRTOS/Source/portable/GCC/ARM_CM7/r0p1/portmacro.h **** 
ARM GAS  C:\Users\frees\AppData\Local\Temp\ccAseSOz.s 			page 31


 479              		.loc 2 193 1 view .LVU119
 480              		.loc 2 195 2 view .LVU120
 481              		.syntax unified
 482              	@ 195 "Middlewares/Third_Party/FreeRTOS/Source/portable/GCC/ARM_CM7/r0p1/portmacro.h" 1
 483 0042 4FF05003 			mov r3, #80												
 484 0046 72B6     		cpsid i													
 485 0048 83F31188 		msr basepri, r3											
 486 004c BFF36F8F 		isb														
 487 0050 BFF34F8F 		dsb														
 488 0054 62B6     		cpsie i													
 489              	
 490              	@ 0 "" 2
 491              		.thumb
 492              		.syntax unified
 493              	.L32:
 494              	.LBE48:
 495              	.LBE47:
 275:Middlewares/Third_Party/FreeRTOS/Source/timers.c **** 	return xReturn;
 496              		.loc 1 275 2 discriminator 3 view .LVU121
 275:Middlewares/Third_Party/FreeRTOS/Source/timers.c **** 	return xReturn;
 497              		.loc 1 275 2 discriminator 3 view .LVU122
 498 0056 FEE7     		b	.L32
 499              	.L36:
 500              		.align	2
 501              	.L35:
 502 0058 00000000 		.word	xTimerQueue
 503 005c 00000000 		.word	.LC1
 504 0060 00000000 		.word	prvTimerTask
 505 0064 00000000 		.word	xTimerTaskHandle
 506              		.cfi_endproc
 507              	.LFE4:
 509              		.section	.text.xTimerCreate,"ax",%progbits
 510              		.align	1
 511              		.global	xTimerCreate
 512              		.syntax unified
 513              		.thumb
 514              		.thumb_func
 516              	xTimerCreate:
 517              	.LVL37:
 518              	.LFB5:
 287:Middlewares/Third_Party/FreeRTOS/Source/timers.c **** 	Timer_t *pxNewTimer;
 519              		.loc 1 287 2 view -0
 520              		.cfi_startproc
 521              		@ args = 4, pretend = 0, frame = 0
 522              		@ frame_needed = 0, uses_anonymous_args = 0
 287:Middlewares/Third_Party/FreeRTOS/Source/timers.c **** 	Timer_t *pxNewTimer;
 523              		.loc 1 287 2 is_stmt 0 view .LVU124
 524 0000 2DE9F041 		push	{r4, r5, r6, r7, r8, lr}
 525              	.LCFI10:
 526              		.cfi_def_cfa_offset 24
 527              		.cfi_offset 4, -24
 528              		.cfi_offset 5, -20
 529              		.cfi_offset 6, -16
 530              		.cfi_offset 7, -12
 531              		.cfi_offset 8, -8
 532              		.cfi_offset 14, -4
 533 0004 82B0     		sub	sp, sp, #8
ARM GAS  C:\Users\frees\AppData\Local\Temp\ccAseSOz.s 			page 32


 534              	.LCFI11:
 535              		.cfi_def_cfa_offset 32
 536 0006 0446     		mov	r4, r0
 537 0008 8846     		mov	r8, r1
 538 000a 1746     		mov	r7, r2
 539 000c 1D46     		mov	r5, r3
 288:Middlewares/Third_Party/FreeRTOS/Source/timers.c **** 
 540              		.loc 1 288 2 is_stmt 1 view .LVU125
 290:Middlewares/Third_Party/FreeRTOS/Source/timers.c **** 
 541              		.loc 1 290 3 view .LVU126
 290:Middlewares/Third_Party/FreeRTOS/Source/timers.c **** 
 542              		.loc 1 290 30 is_stmt 0 view .LVU127
 543 000e 2C20     		movs	r0, #44
 544              	.LVL38:
 290:Middlewares/Third_Party/FreeRTOS/Source/timers.c **** 
 545              		.loc 1 290 30 view .LVU128
 546 0010 FFF7FEFF 		bl	pvPortMalloc
 547              	.LVL39:
 292:Middlewares/Third_Party/FreeRTOS/Source/timers.c **** 		{
 548              		.loc 1 292 3 is_stmt 1 view .LVU129
 292:Middlewares/Third_Party/FreeRTOS/Source/timers.c **** 		{
 549              		.loc 1 292 5 is_stmt 0 view .LVU130
 550 0014 0646     		mov	r6, r0
 551 0016 58B1     		cbz	r0, .L37
 297:Middlewares/Third_Party/FreeRTOS/Source/timers.c **** 			prvInitialiseNewTimer( pcTimerName, xTimerPeriodInTicks, uxAutoReload, pvTimerID, pxCallbackFunc
 552              		.loc 1 297 4 is_stmt 1 view .LVU131
 297:Middlewares/Third_Party/FreeRTOS/Source/timers.c **** 			prvInitialiseNewTimer( pcTimerName, xTimerPeriodInTicks, uxAutoReload, pvTimerID, pxCallbackFunc
 553              		.loc 1 297 25 is_stmt 0 view .LVU132
 554 0018 0023     		movs	r3, #0
 555 001a 80F82830 		strb	r3, [r0, #40]
 298:Middlewares/Third_Party/FreeRTOS/Source/timers.c **** 		}
 556              		.loc 1 298 4 is_stmt 1 view .LVU133
 557 001e 0190     		str	r0, [sp, #4]
 558 0020 089B     		ldr	r3, [sp, #32]
 559 0022 0093     		str	r3, [sp]
 560 0024 2B46     		mov	r3, r5
 561 0026 3A46     		mov	r2, r7
 562 0028 4146     		mov	r1, r8
 563 002a 2046     		mov	r0, r4
 564              	.LVL40:
 298:Middlewares/Third_Party/FreeRTOS/Source/timers.c **** 		}
 565              		.loc 1 298 4 is_stmt 0 view .LVU134
 566 002c FFF7FEFF 		bl	prvInitialiseNewTimer
 567              	.LVL41:
 301:Middlewares/Third_Party/FreeRTOS/Source/timers.c **** 	}
 568              		.loc 1 301 3 is_stmt 1 view .LVU135
 569              	.L37:
 302:Middlewares/Third_Party/FreeRTOS/Source/timers.c **** 
 570              		.loc 1 302 2 is_stmt 0 view .LVU136
 571 0030 3046     		mov	r0, r6
 572 0032 02B0     		add	sp, sp, #8
 573              	.LCFI12:
 574              		.cfi_def_cfa_offset 24
 575              		@ sp needed
 576 0034 BDE8F081 		pop	{r4, r5, r6, r7, r8, pc}
 302:Middlewares/Third_Party/FreeRTOS/Source/timers.c **** 
 577              		.loc 1 302 2 view .LVU137
ARM GAS  C:\Users\frees\AppData\Local\Temp\ccAseSOz.s 			page 33


 578              		.cfi_endproc
 579              	.LFE5:
 581              		.section	.text.xTimerCreateStatic,"ax",%progbits
 582              		.align	1
 583              		.global	xTimerCreateStatic
 584              		.syntax unified
 585              		.thumb
 586              		.thumb_func
 588              	xTimerCreateStatic:
 589              	.LVL42:
 590              	.LFB6:
 315:Middlewares/Third_Party/FreeRTOS/Source/timers.c **** 	Timer_t *pxNewTimer;
 591              		.loc 1 315 2 is_stmt 1 view -0
 592              		.cfi_startproc
 593              		@ args = 8, pretend = 0, frame = 8
 594              		@ frame_needed = 0, uses_anonymous_args = 0
 315:Middlewares/Third_Party/FreeRTOS/Source/timers.c **** 	Timer_t *pxNewTimer;
 595              		.loc 1 315 2 is_stmt 0 view .LVU139
 596 0000 10B5     		push	{r4, lr}
 597              	.LCFI13:
 598              		.cfi_def_cfa_offset 8
 599              		.cfi_offset 4, -8
 600              		.cfi_offset 14, -4
 601 0002 84B0     		sub	sp, sp, #16
 602              	.LCFI14:
 603              		.cfi_def_cfa_offset 24
 604 0004 8446     		mov	ip, r0
 316:Middlewares/Third_Party/FreeRTOS/Source/timers.c **** 
 605              		.loc 1 316 2 is_stmt 1 view .LVU140
 606              	.LBB49:
 323:Middlewares/Third_Party/FreeRTOS/Source/timers.c **** 			configASSERT( xSize == sizeof( Timer_t ) );
 607              		.loc 1 323 4 view .LVU141
 323:Middlewares/Third_Party/FreeRTOS/Source/timers.c **** 			configASSERT( xSize == sizeof( Timer_t ) );
 608              		.loc 1 323 20 is_stmt 0 view .LVU142
 609 0006 2C20     		movs	r0, #44
 610              	.LVL43:
 323:Middlewares/Third_Party/FreeRTOS/Source/timers.c **** 			configASSERT( xSize == sizeof( Timer_t ) );
 611              		.loc 1 323 20 view .LVU143
 612 0008 0390     		str	r0, [sp, #12]
 324:Middlewares/Third_Party/FreeRTOS/Source/timers.c **** 			( void ) xSize; /* Keeps lint quiet when configASSERT() is not defined. */
 613              		.loc 1 324 4 is_stmt 1 view .LVU144
 614 000a 0398     		ldr	r0, [sp, #12]
 615 000c 2C28     		cmp	r0, #44
 616 000e 0AD0     		beq	.L41
 324:Middlewares/Third_Party/FreeRTOS/Source/timers.c **** 			( void ) xSize; /* Keeps lint quiet when configASSERT() is not defined. */
 617              		.loc 1 324 4 discriminator 1 view .LVU145
 618              	.LBB50:
 619              	.LBI50:
 191:Middlewares/Third_Party/FreeRTOS/Source/portable/GCC/ARM_CM7/r0p1/portmacro.h **** {
 620              		.loc 2 191 30 view .LVU146
 621              	.LBB51:
 193:Middlewares/Third_Party/FreeRTOS/Source/portable/GCC/ARM_CM7/r0p1/portmacro.h **** 
 622              		.loc 2 193 1 view .LVU147
 623              		.loc 2 195 2 view .LVU148
 624              		.syntax unified
 625              	@ 195 "Middlewares/Third_Party/FreeRTOS/Source/portable/GCC/ARM_CM7/r0p1/portmacro.h" 1
 626 0010 4FF05003 			mov r3, #80												
ARM GAS  C:\Users\frees\AppData\Local\Temp\ccAseSOz.s 			page 34


 627 0014 72B6     		cpsid i													
 628 0016 83F31188 		msr basepri, r3											
 629 001a BFF36F8F 		isb														
 630 001e BFF34F8F 		dsb														
 631 0022 62B6     		cpsie i													
 632              	
 633              	@ 0 "" 2
 634              	.LVL44:
 635              		.thumb
 636              		.syntax unified
 637              	.L42:
 638              		.loc 2 195 2 is_stmt 0 view .LVU149
 639              	.LBE51:
 640              	.LBE50:
 324:Middlewares/Third_Party/FreeRTOS/Source/timers.c **** 			( void ) xSize; /* Keeps lint quiet when configASSERT() is not defined. */
 641              		.loc 1 324 4 is_stmt 1 discriminator 3 view .LVU150
 324:Middlewares/Third_Party/FreeRTOS/Source/timers.c **** 			( void ) xSize; /* Keeps lint quiet when configASSERT() is not defined. */
 642              		.loc 1 324 4 discriminator 3 view .LVU151
 643 0024 FEE7     		b	.L42
 644              	.LVL45:
 645              	.L41:
 324:Middlewares/Third_Party/FreeRTOS/Source/timers.c **** 			( void ) xSize; /* Keeps lint quiet when configASSERT() is not defined. */
 646              		.loc 1 324 46 discriminator 2 view .LVU152
 325:Middlewares/Third_Party/FreeRTOS/Source/timers.c **** 		}
 647              		.loc 1 325 4 view .LVU153
 648 0026 0398     		ldr	r0, [sp, #12]
 649              	.LBE49:
 330:Middlewares/Third_Party/FreeRTOS/Source/timers.c **** 		pxNewTimer = ( Timer_t * ) pxTimerBuffer; /*lint !e740 !e9087 StaticTimer_t is a pointer to a Tim
 650              		.loc 1 330 3 view .LVU154
 651 0028 0798     		ldr	r0, [sp, #28]
 652 002a 60B1     		cbz	r0, .L46
 330:Middlewares/Third_Party/FreeRTOS/Source/timers.c **** 		pxNewTimer = ( Timer_t * ) pxTimerBuffer; /*lint !e740 !e9087 StaticTimer_t is a pointer to a Tim
 653              		.loc 1 330 32 discriminator 2 view .LVU155
 331:Middlewares/Third_Party/FreeRTOS/Source/timers.c **** 
 654              		.loc 1 331 3 view .LVU156
 655              	.LVL46:
 333:Middlewares/Third_Party/FreeRTOS/Source/timers.c **** 		{
 656              		.loc 1 333 3 view .LVU157
 338:Middlewares/Third_Party/FreeRTOS/Source/timers.c **** 
 657              		.loc 1 338 4 view .LVU158
 338:Middlewares/Third_Party/FreeRTOS/Source/timers.c **** 
 658              		.loc 1 338 25 is_stmt 0 view .LVU159
 659 002c 0220     		movs	r0, #2
 660              	.LVL47:
 338:Middlewares/Third_Party/FreeRTOS/Source/timers.c **** 
 661              		.loc 1 338 25 view .LVU160
 662 002e 079C     		ldr	r4, [sp, #28]
 663 0030 84F82800 		strb	r0, [r4, #40]
 340:Middlewares/Third_Party/FreeRTOS/Source/timers.c **** 		}
 664              		.loc 1 340 4 is_stmt 1 view .LVU161
 665 0034 0194     		str	r4, [sp, #4]
 666 0036 0698     		ldr	r0, [sp, #24]
 667 0038 0090     		str	r0, [sp]
 668 003a 6046     		mov	r0, ip
 669 003c FFF7FEFF 		bl	prvInitialiseNewTimer
 670              	.LVL48:
 343:Middlewares/Third_Party/FreeRTOS/Source/timers.c **** 	}
ARM GAS  C:\Users\frees\AppData\Local\Temp\ccAseSOz.s 			page 35


 671              		.loc 1 343 3 view .LVU162
 344:Middlewares/Third_Party/FreeRTOS/Source/timers.c **** 
 672              		.loc 1 344 2 is_stmt 0 view .LVU163
 673 0040 0798     		ldr	r0, [sp, #28]
 674 0042 04B0     		add	sp, sp, #16
 675              	.LCFI15:
 676              		.cfi_remember_state
 677              		.cfi_def_cfa_offset 8
 678              		@ sp needed
 679 0044 10BD     		pop	{r4, pc}
 680              	.LVL49:
 681              	.L46:
 682              	.LCFI16:
 683              		.cfi_restore_state
 330:Middlewares/Third_Party/FreeRTOS/Source/timers.c **** 		pxNewTimer = ( Timer_t * ) pxTimerBuffer; /*lint !e740 !e9087 StaticTimer_t is a pointer to a Tim
 684              		.loc 1 330 3 is_stmt 1 discriminator 1 view .LVU164
 685              	.LBB52:
 686              	.LBI52:
 191:Middlewares/Third_Party/FreeRTOS/Source/portable/GCC/ARM_CM7/r0p1/portmacro.h **** {
 687              		.loc 2 191 30 view .LVU165
 688              	.LBB53:
 193:Middlewares/Third_Party/FreeRTOS/Source/portable/GCC/ARM_CM7/r0p1/portmacro.h **** 
 689              		.loc 2 193 1 view .LVU166
 690              		.loc 2 195 2 view .LVU167
 691              		.syntax unified
 692              	@ 195 "Middlewares/Third_Party/FreeRTOS/Source/portable/GCC/ARM_CM7/r0p1/portmacro.h" 1
 693 0046 4FF05003 			mov r3, #80												
 694 004a 72B6     		cpsid i													
 695 004c 83F31188 		msr basepri, r3											
 696 0050 BFF36F8F 		isb														
 697 0054 BFF34F8F 		dsb														
 698 0058 62B6     		cpsie i													
 699              	
 700              	@ 0 "" 2
 701              	.LVL50:
 702              		.thumb
 703              		.syntax unified
 704              	.L44:
 705              		.loc 2 195 2 is_stmt 0 view .LVU168
 706              	.LBE53:
 707              	.LBE52:
 330:Middlewares/Third_Party/FreeRTOS/Source/timers.c **** 		pxNewTimer = ( Timer_t * ) pxTimerBuffer; /*lint !e740 !e9087 StaticTimer_t is a pointer to a Tim
 708              		.loc 1 330 3 is_stmt 1 discriminator 3 view .LVU169
 330:Middlewares/Third_Party/FreeRTOS/Source/timers.c **** 		pxNewTimer = ( Timer_t * ) pxTimerBuffer; /*lint !e740 !e9087 StaticTimer_t is a pointer to a Tim
 709              		.loc 1 330 3 discriminator 3 view .LVU170
 710 005a FEE7     		b	.L44
 711              		.cfi_endproc
 712              	.LFE6:
 714              		.section	.text.xTimerGenericCommand,"ax",%progbits
 715              		.align	1
 716              		.global	xTimerGenericCommand
 717              		.syntax unified
 718              		.thumb
 719              		.thumb_func
 721              	xTimerGenericCommand:
 722              	.LVL51:
 723              	.LFB8:
ARM GAS  C:\Users\frees\AppData\Local\Temp\ccAseSOz.s 			page 36


 382:Middlewares/Third_Party/FreeRTOS/Source/timers.c **** BaseType_t xReturn = pdFAIL;
 724              		.loc 1 382 1 view -0
 725              		.cfi_startproc
 726              		@ args = 4, pretend = 0, frame = 16
 727              		@ frame_needed = 0, uses_anonymous_args = 0
 383:Middlewares/Third_Party/FreeRTOS/Source/timers.c **** DaemonTaskMessage_t xMessage;
 728              		.loc 1 383 1 view .LVU172
 384:Middlewares/Third_Party/FreeRTOS/Source/timers.c **** 
 729              		.loc 1 384 1 view .LVU173
 386:Middlewares/Third_Party/FreeRTOS/Source/timers.c **** 
 730              		.loc 1 386 2 view .LVU174
 731 0000 B8B1     		cbz	r0, .L58
 732 0002 9C46     		mov	ip, r3
 733 0004 0346     		mov	r3, r0
 734              	.LVL52:
 386:Middlewares/Third_Party/FreeRTOS/Source/timers.c **** 
 735              		.loc 1 386 24 discriminator 2 view .LVU175
 390:Middlewares/Third_Party/FreeRTOS/Source/timers.c **** 	{
 736              		.loc 1 390 2 view .LVU176
 390:Middlewares/Third_Party/FreeRTOS/Source/timers.c **** 	{
 737              		.loc 1 390 18 is_stmt 0 view .LVU177
 738 0006 1948     		ldr	r0, .L60
 739              	.LVL53:
 390:Middlewares/Third_Party/FreeRTOS/Source/timers.c **** 	{
 740              		.loc 1 390 18 view .LVU178
 741 0008 0068     		ldr	r0, [r0]
 390:Middlewares/Third_Party/FreeRTOS/Source/timers.c **** 	{
 742              		.loc 1 390 4 view .LVU179
 743 000a 68B3     		cbz	r0, .L53
 382:Middlewares/Third_Party/FreeRTOS/Source/timers.c **** BaseType_t xReturn = pdFAIL;
 744              		.loc 1 382 1 view .LVU180
 745 000c 00B5     		push	{lr}
 746              	.LCFI17:
 747              		.cfi_def_cfa_offset 4
 748              		.cfi_offset 14, -4
 749 000e 85B0     		sub	sp, sp, #20
 750              	.LCFI18:
 751              		.cfi_def_cfa_offset 24
 393:Middlewares/Third_Party/FreeRTOS/Source/timers.c **** 		xMessage.u.xTimerParameters.xMessageValue = xOptionalValue;
 752              		.loc 1 393 3 is_stmt 1 view .LVU181
 393:Middlewares/Third_Party/FreeRTOS/Source/timers.c **** 		xMessage.u.xTimerParameters.xMessageValue = xOptionalValue;
 753              		.loc 1 393 23 is_stmt 0 view .LVU182
 754 0010 0091     		str	r1, [sp]
 394:Middlewares/Third_Party/FreeRTOS/Source/timers.c **** 		xMessage.u.xTimerParameters.pxTimer = xTimer;
 755              		.loc 1 394 3 is_stmt 1 view .LVU183
 394:Middlewares/Third_Party/FreeRTOS/Source/timers.c **** 		xMessage.u.xTimerParameters.pxTimer = xTimer;
 756              		.loc 1 394 45 is_stmt 0 view .LVU184
 757 0012 0192     		str	r2, [sp, #4]
 395:Middlewares/Third_Party/FreeRTOS/Source/timers.c **** 
 758              		.loc 1 395 3 is_stmt 1 view .LVU185
 395:Middlewares/Third_Party/FreeRTOS/Source/timers.c **** 
 759              		.loc 1 395 39 is_stmt 0 view .LVU186
 760 0014 0293     		str	r3, [sp, #8]
 397:Middlewares/Third_Party/FreeRTOS/Source/timers.c **** 		{
 761              		.loc 1 397 3 is_stmt 1 view .LVU187
 397:Middlewares/Third_Party/FreeRTOS/Source/timers.c **** 		{
 762              		.loc 1 397 5 is_stmt 0 view .LVU188
ARM GAS  C:\Users\frees\AppData\Local\Temp\ccAseSOz.s 			page 37


 763 0016 0529     		cmp	r1, #5
 764 0018 1EDC     		bgt	.L51
 399:Middlewares/Third_Party/FreeRTOS/Source/timers.c **** 			{
 765              		.loc 1 399 4 is_stmt 1 view .LVU189
 399:Middlewares/Third_Party/FreeRTOS/Source/timers.c **** 			{
 766              		.loc 1 399 8 is_stmt 0 view .LVU190
 767 001a FFF7FEFF 		bl	xTaskGetSchedulerState
 768              	.LVL54:
 399:Middlewares/Third_Party/FreeRTOS/Source/timers.c **** 			{
 769              		.loc 1 399 6 discriminator 1 view .LVU191
 770 001e 0228     		cmp	r0, #2
 771 0020 12D0     		beq	.L59
 405:Middlewares/Third_Party/FreeRTOS/Source/timers.c **** 			}
 772              		.loc 1 405 5 is_stmt 1 view .LVU192
 405:Middlewares/Third_Party/FreeRTOS/Source/timers.c **** 			}
 773              		.loc 1 405 15 is_stmt 0 view .LVU193
 774 0022 0023     		movs	r3, #0
 775 0024 1A46     		mov	r2, r3
 776 0026 6946     		mov	r1, sp
 777 0028 1048     		ldr	r0, .L60
 778 002a 0068     		ldr	r0, [r0]
 779 002c FFF7FEFF 		bl	xQueueGenericSend
 780              	.LVL55:
 405:Middlewares/Third_Party/FreeRTOS/Source/timers.c **** 			}
 781              		.loc 1 405 15 view .LVU194
 782 0030 17E0     		b	.L47
 783              	.LVL56:
 784              	.L58:
 785              	.LCFI19:
 786              		.cfi_def_cfa_offset 0
 787              		.cfi_restore 14
 386:Middlewares/Third_Party/FreeRTOS/Source/timers.c **** 
 788              		.loc 1 386 2 is_stmt 1 discriminator 1 view .LVU195
 789              	.LBB54:
 790              	.LBI54:
 191:Middlewares/Third_Party/FreeRTOS/Source/portable/GCC/ARM_CM7/r0p1/portmacro.h **** {
 791              		.loc 2 191 30 view .LVU196
 792              	.LBB55:
 193:Middlewares/Third_Party/FreeRTOS/Source/portable/GCC/ARM_CM7/r0p1/portmacro.h **** 
 793              		.loc 2 193 1 view .LVU197
 794              		.loc 2 195 2 view .LVU198
 795              		.syntax unified
 796              	@ 195 "Middlewares/Third_Party/FreeRTOS/Source/portable/GCC/ARM_CM7/r0p1/portmacro.h" 1
 797 0032 4FF05003 			mov r3, #80												
 798 0036 72B6     		cpsid i													
 799 0038 83F31188 		msr basepri, r3											
 800 003c BFF36F8F 		isb														
 801 0040 BFF34F8F 		dsb														
 802 0044 62B6     		cpsie i													
 803              	
 804              	@ 0 "" 2
 805              	.LVL57:
 806              		.thumb
 807              		.syntax unified
 808              	.L49:
 809              		.loc 2 195 2 is_stmt 0 view .LVU199
 810              	.LBE55:
ARM GAS  C:\Users\frees\AppData\Local\Temp\ccAseSOz.s 			page 38


 811              	.LBE54:
 386:Middlewares/Third_Party/FreeRTOS/Source/timers.c **** 
 812              		.loc 1 386 2 is_stmt 1 discriminator 3 view .LVU200
 386:Middlewares/Third_Party/FreeRTOS/Source/timers.c **** 
 813              		.loc 1 386 2 discriminator 3 view .LVU201
 814 0046 FEE7     		b	.L49
 815              	.LVL58:
 816              	.L59:
 817              	.LCFI20:
 818              		.cfi_def_cfa_offset 24
 819              		.cfi_offset 14, -4
 401:Middlewares/Third_Party/FreeRTOS/Source/timers.c **** 			}
 820              		.loc 1 401 5 view .LVU202
 401:Middlewares/Third_Party/FreeRTOS/Source/timers.c **** 			}
 821              		.loc 1 401 15 is_stmt 0 view .LVU203
 822 0048 0023     		movs	r3, #0
 823 004a 069A     		ldr	r2, [sp, #24]
 824 004c 6946     		mov	r1, sp
 825 004e 0748     		ldr	r0, .L60
 826 0050 0068     		ldr	r0, [r0]
 827 0052 FFF7FEFF 		bl	xQueueGenericSend
 828              	.LVL59:
 401:Middlewares/Third_Party/FreeRTOS/Source/timers.c **** 			}
 829              		.loc 1 401 15 view .LVU204
 830 0056 04E0     		b	.L47
 831              	.LVL60:
 832              	.L51:
 410:Middlewares/Third_Party/FreeRTOS/Source/timers.c **** 		}
 833              		.loc 1 410 4 is_stmt 1 view .LVU205
 410:Middlewares/Third_Party/FreeRTOS/Source/timers.c **** 		}
 834              		.loc 1 410 14 is_stmt 0 view .LVU206
 835 0058 0023     		movs	r3, #0
 836              	.LVL61:
 410:Middlewares/Third_Party/FreeRTOS/Source/timers.c **** 		}
 837              		.loc 1 410 14 view .LVU207
 838 005a 6246     		mov	r2, ip
 839              	.LVL62:
 410:Middlewares/Third_Party/FreeRTOS/Source/timers.c **** 		}
 840              		.loc 1 410 14 view .LVU208
 841 005c 6946     		mov	r1, sp
 842              	.LVL63:
 410:Middlewares/Third_Party/FreeRTOS/Source/timers.c **** 		}
 843              		.loc 1 410 14 view .LVU209
 844 005e FFF7FEFF 		bl	xQueueGenericSendFromISR
 845              	.LVL64:
 846              	.L47:
 421:Middlewares/Third_Party/FreeRTOS/Source/timers.c **** /*-----------------------------------------------------------*/
 847              		.loc 1 421 1 view .LVU210
 848 0062 05B0     		add	sp, sp, #20
 849              	.LCFI21:
 850              		.cfi_def_cfa_offset 4
 851              		@ sp needed
 852 0064 5DF804FB 		ldr	pc, [sp], #4
 853              	.LVL65:
 854              	.L53:
 855              	.LCFI22:
 856              		.cfi_def_cfa_offset 0
ARM GAS  C:\Users\frees\AppData\Local\Temp\ccAseSOz.s 			page 39


 857              		.cfi_restore 14
 383:Middlewares/Third_Party/FreeRTOS/Source/timers.c **** DaemonTaskMessage_t xMessage;
 858              		.loc 1 383 12 view .LVU211
 859 0068 0020     		movs	r0, #0
 417:Middlewares/Third_Party/FreeRTOS/Source/timers.c **** 	}
 860              		.loc 1 417 27 is_stmt 1 view .LVU212
 420:Middlewares/Third_Party/FreeRTOS/Source/timers.c **** }
 861              		.loc 1 420 2 view .LVU213
 421:Middlewares/Third_Party/FreeRTOS/Source/timers.c **** /*-----------------------------------------------------------*/
 862              		.loc 1 421 1 is_stmt 0 view .LVU214
 863 006a 7047     		bx	lr
 864              	.L61:
 865              		.align	2
 866              	.L60:
 867 006c 00000000 		.word	xTimerQueue
 868              		.cfi_endproc
 869              	.LFE8:
 871              		.section	.text.prvSwitchTimerLists,"ax",%progbits
 872              		.align	1
 873              		.syntax unified
 874              		.thumb
 875              		.thumb_func
 877              	prvSwitchTimerLists:
 878              	.LFB21:
 858:Middlewares/Third_Party/FreeRTOS/Source/timers.c **** TickType_t xNextExpireTime, xReloadTime;
 879              		.loc 1 858 1 is_stmt 1 view -0
 880              		.cfi_startproc
 881              		@ args = 0, pretend = 0, frame = 0
 882              		@ frame_needed = 0, uses_anonymous_args = 0
 883 0000 70B5     		push	{r4, r5, r6, lr}
 884              	.LCFI23:
 885              		.cfi_def_cfa_offset 16
 886              		.cfi_offset 4, -16
 887              		.cfi_offset 5, -12
 888              		.cfi_offset 6, -8
 889              		.cfi_offset 14, -4
 890 0002 82B0     		sub	sp, sp, #8
 891              	.LCFI24:
 892              		.cfi_def_cfa_offset 24
 859:Middlewares/Third_Party/FreeRTOS/Source/timers.c **** List_t *pxTemp;
 893              		.loc 1 859 1 view .LVU216
 860:Middlewares/Third_Party/FreeRTOS/Source/timers.c **** Timer_t *pxTimer;
 894              		.loc 1 860 1 view .LVU217
 861:Middlewares/Third_Party/FreeRTOS/Source/timers.c **** BaseType_t xResult;
 895              		.loc 1 861 1 view .LVU218
 862:Middlewares/Third_Party/FreeRTOS/Source/timers.c **** 
 896              		.loc 1 862 1 view .LVU219
 868:Middlewares/Third_Party/FreeRTOS/Source/timers.c **** 	{
 897              		.loc 1 868 2 view .LVU220
 898              	.L64:
 906:Middlewares/Third_Party/FreeRTOS/Source/timers.c **** 		}
 899              		.loc 1 906 28 view .LVU221
 868:Middlewares/Third_Party/FreeRTOS/Source/timers.c **** 	{
 900              		.loc 1 868 49 view .LVU222
 868:Middlewares/Third_Party/FreeRTOS/Source/timers.c **** 	{
 901              		.loc 1 868 9 is_stmt 0 view .LVU223
 902 0004 1C4B     		ldr	r3, .L71
ARM GAS  C:\Users\frees\AppData\Local\Temp\ccAseSOz.s 			page 40


 903 0006 1B68     		ldr	r3, [r3]
 904 0008 1A68     		ldr	r2, [r3]
 868:Middlewares/Third_Party/FreeRTOS/Source/timers.c **** 	{
 905              		.loc 1 868 49 view .LVU224
 906 000a 72B3     		cbz	r2, .L70
 870:Middlewares/Third_Party/FreeRTOS/Source/timers.c **** 
 907              		.loc 1 870 3 is_stmt 1 view .LVU225
 870:Middlewares/Third_Party/FreeRTOS/Source/timers.c **** 
 908              		.loc 1 870 21 is_stmt 0 view .LVU226
 909 000c DB68     		ldr	r3, [r3, #12]
 870:Middlewares/Third_Party/FreeRTOS/Source/timers.c **** 
 910              		.loc 1 870 19 view .LVU227
 911 000e 1E68     		ldr	r6, [r3]
 912              	.LVL66:
 873:Middlewares/Third_Party/FreeRTOS/Source/timers.c **** 		( void ) uxListRemove( &( pxTimer->xTimerListItem ) );
 913              		.loc 1 873 3 is_stmt 1 view .LVU228
 873:Middlewares/Third_Party/FreeRTOS/Source/timers.c **** 		( void ) uxListRemove( &( pxTimer->xTimerListItem ) );
 914              		.loc 1 873 11 is_stmt 0 view .LVU229
 915 0010 DC68     		ldr	r4, [r3, #12]
 916              	.LVL67:
 874:Middlewares/Third_Party/FreeRTOS/Source/timers.c **** 		traceTIMER_EXPIRED( pxTimer );
 917              		.loc 1 874 3 is_stmt 1 view .LVU230
 874:Middlewares/Third_Party/FreeRTOS/Source/timers.c **** 		traceTIMER_EXPIRED( pxTimer );
 918              		.loc 1 874 12 is_stmt 0 view .LVU231
 919 0012 251D     		adds	r5, r4, #4
 920 0014 2846     		mov	r0, r5
 921 0016 FFF7FEFF 		bl	uxListRemove
 922              	.LVL68:
 875:Middlewares/Third_Party/FreeRTOS/Source/timers.c **** 
 923              		.loc 1 875 32 is_stmt 1 view .LVU232
 880:Middlewares/Third_Party/FreeRTOS/Source/timers.c **** 
 924              		.loc 1 880 3 view .LVU233
 880:Middlewares/Third_Party/FreeRTOS/Source/timers.c **** 
 925              		.loc 1 880 10 is_stmt 0 view .LVU234
 926 001a 236A     		ldr	r3, [r4, #32]
 880:Middlewares/Third_Party/FreeRTOS/Source/timers.c **** 
 927              		.loc 1 880 3 view .LVU235
 928 001c 2046     		mov	r0, r4
 929 001e 9847     		blx	r3
 930              	.LVL69:
 882:Middlewares/Third_Party/FreeRTOS/Source/timers.c **** 		{
 931              		.loc 1 882 3 is_stmt 1 view .LVU236
 882:Middlewares/Third_Party/FreeRTOS/Source/timers.c **** 		{
 932              		.loc 1 882 16 is_stmt 0 view .LVU237
 933 0020 94F82830 		ldrb	r3, [r4, #40]	@ zero_extendqisi2
 882:Middlewares/Third_Party/FreeRTOS/Source/timers.c **** 		{
 934              		.loc 1 882 5 view .LVU238
 935 0024 13F0040F 		tst	r3, #4
 936 0028 ECD0     		beq	.L64
 890:Middlewares/Third_Party/FreeRTOS/Source/timers.c **** 			if( xReloadTime > xNextExpireTime )
 937              		.loc 1 890 4 is_stmt 1 view .LVU239
 890:Middlewares/Third_Party/FreeRTOS/Source/timers.c **** 			if( xReloadTime > xNextExpireTime )
 938              		.loc 1 890 45 is_stmt 0 view .LVU240
 939 002a A369     		ldr	r3, [r4, #24]
 890:Middlewares/Third_Party/FreeRTOS/Source/timers.c **** 			if( xReloadTime > xNextExpireTime )
 940              		.loc 1 890 16 view .LVU241
 941 002c 3344     		add	r3, r3, r6
ARM GAS  C:\Users\frees\AppData\Local\Temp\ccAseSOz.s 			page 41


 942              	.LVL70:
 891:Middlewares/Third_Party/FreeRTOS/Source/timers.c **** 			{
 943              		.loc 1 891 4 is_stmt 1 view .LVU242
 891:Middlewares/Third_Party/FreeRTOS/Source/timers.c **** 			{
 944              		.loc 1 891 6 is_stmt 0 view .LVU243
 945 002e 9E42     		cmp	r6, r3
 946 0030 07D2     		bcs	.L65
 893:Middlewares/Third_Party/FreeRTOS/Source/timers.c **** 				listSET_LIST_ITEM_OWNER( &( pxTimer->xTimerListItem ), pxTimer );
 947              		.loc 1 893 5 is_stmt 1 view .LVU244
 948 0032 6360     		str	r3, [r4, #4]
 894:Middlewares/Third_Party/FreeRTOS/Source/timers.c **** 				vListInsert( pxCurrentTimerList, &( pxTimer->xTimerListItem ) );
 949              		.loc 1 894 5 view .LVU245
 950 0034 2461     		str	r4, [r4, #16]
 895:Middlewares/Third_Party/FreeRTOS/Source/timers.c **** 			}
 951              		.loc 1 895 5 view .LVU246
 952 0036 2946     		mov	r1, r5
 953 0038 0F4B     		ldr	r3, .L71
 954              	.LVL71:
 895:Middlewares/Third_Party/FreeRTOS/Source/timers.c **** 			}
 955              		.loc 1 895 5 is_stmt 0 view .LVU247
 956 003a 1868     		ldr	r0, [r3]
 957 003c FFF7FEFF 		bl	vListInsert
 958              	.LVL72:
 895:Middlewares/Third_Party/FreeRTOS/Source/timers.c **** 			}
 959              		.loc 1 895 5 view .LVU248
 960 0040 E0E7     		b	.L64
 961              	.LVL73:
 962              	.L65:
 899:Middlewares/Third_Party/FreeRTOS/Source/timers.c **** 				configASSERT( xResult );
 963              		.loc 1 899 5 is_stmt 1 view .LVU249
 899:Middlewares/Third_Party/FreeRTOS/Source/timers.c **** 				configASSERT( xResult );
 964              		.loc 1 899 15 is_stmt 0 view .LVU250
 965 0042 0021     		movs	r1, #0
 966 0044 0091     		str	r1, [sp]
 967 0046 0B46     		mov	r3, r1
 968              	.LVL74:
 899:Middlewares/Third_Party/FreeRTOS/Source/timers.c **** 				configASSERT( xResult );
 969              		.loc 1 899 15 view .LVU251
 970 0048 3246     		mov	r2, r6
 971 004a 2046     		mov	r0, r4
 972 004c FFF7FEFF 		bl	xTimerGenericCommand
 973              	.LVL75:
 900:Middlewares/Third_Party/FreeRTOS/Source/timers.c **** 				( void ) xResult;
 974              		.loc 1 900 5 is_stmt 1 view .LVU252
 975 0050 0028     		cmp	r0, #0
 976 0052 D7D1     		bne	.L64
 900:Middlewares/Third_Party/FreeRTOS/Source/timers.c **** 				( void ) xResult;
 977              		.loc 1 900 5 discriminator 1 view .LVU253
 978              	.LBB56:
 979              	.LBI56:
 191:Middlewares/Third_Party/FreeRTOS/Source/portable/GCC/ARM_CM7/r0p1/portmacro.h **** {
 980              		.loc 2 191 30 view .LVU254
 981              	.LBB57:
 193:Middlewares/Third_Party/FreeRTOS/Source/portable/GCC/ARM_CM7/r0p1/portmacro.h **** 
 982              		.loc 2 193 1 view .LVU255
 983              		.loc 2 195 2 view .LVU256
 984              		.syntax unified
ARM GAS  C:\Users\frees\AppData\Local\Temp\ccAseSOz.s 			page 42


 985              	@ 195 "Middlewares/Third_Party/FreeRTOS/Source/portable/GCC/ARM_CM7/r0p1/portmacro.h" 1
 986 0054 4FF05003 			mov r3, #80												
 987 0058 72B6     		cpsid i													
 988 005a 83F31188 		msr basepri, r3											
 989 005e BFF36F8F 		isb														
 990 0062 BFF34F8F 		dsb														
 991 0066 62B6     		cpsie i													
 992              	
 993              	@ 0 "" 2
 994              		.thumb
 995              		.syntax unified
 996              	.L67:
 997              	.LBE57:
 998              	.LBE56:
 900:Middlewares/Third_Party/FreeRTOS/Source/timers.c **** 				( void ) xResult;
 999              		.loc 1 900 5 discriminator 3 view .LVU257
 900:Middlewares/Third_Party/FreeRTOS/Source/timers.c **** 				( void ) xResult;
 1000              		.loc 1 900 5 discriminator 3 view .LVU258
 1001 0068 FEE7     		b	.L67
 1002              	.LVL76:
 1003              	.L70:
 910:Middlewares/Third_Party/FreeRTOS/Source/timers.c **** 	pxCurrentTimerList = pxOverflowTimerList;
 1004              		.loc 1 910 2 view .LVU259
 911:Middlewares/Third_Party/FreeRTOS/Source/timers.c **** 	pxOverflowTimerList = pxTemp;
 1005              		.loc 1 911 2 view .LVU260
 911:Middlewares/Third_Party/FreeRTOS/Source/timers.c **** 	pxOverflowTimerList = pxTemp;
 1006              		.loc 1 911 21 is_stmt 0 view .LVU261
 1007 006a 044A     		ldr	r2, .L71+4
 1008 006c 1068     		ldr	r0, [r2]
 1009 006e 0249     		ldr	r1, .L71
 1010 0070 0860     		str	r0, [r1]
 912:Middlewares/Third_Party/FreeRTOS/Source/timers.c **** }
 1011              		.loc 1 912 2 is_stmt 1 view .LVU262
 912:Middlewares/Third_Party/FreeRTOS/Source/timers.c **** }
 1012              		.loc 1 912 22 is_stmt 0 view .LVU263
 1013 0072 1360     		str	r3, [r2]
 913:Middlewares/Third_Party/FreeRTOS/Source/timers.c **** /*-----------------------------------------------------------*/
 1014              		.loc 1 913 1 view .LVU264
 1015 0074 02B0     		add	sp, sp, #8
 1016              	.LCFI25:
 1017              		.cfi_def_cfa_offset 16
 1018              		@ sp needed
 1019 0076 70BD     		pop	{r4, r5, r6, pc}
 1020              	.L72:
 1021              		.align	2
 1022              	.L71:
 1023 0078 00000000 		.word	pxCurrentTimerList
 1024 007c 00000000 		.word	pxOverflowTimerList
 1025              		.cfi_endproc
 1026              	.LFE21:
 1028              		.section	.text.prvSampleTimeNow,"ax",%progbits
 1029              		.align	1
 1030              		.syntax unified
 1031              		.thumb
 1032              		.thumb_func
 1034              	prvSampleTimeNow:
 1035              	.LVL77:
ARM GAS  C:\Users\frees\AppData\Local\Temp\ccAseSOz.s 			page 43


 1036              	.LFB18:
 646:Middlewares/Third_Party/FreeRTOS/Source/timers.c **** TickType_t xTimeNow;
 1037              		.loc 1 646 1 is_stmt 1 view -0
 1038              		.cfi_startproc
 1039              		@ args = 0, pretend = 0, frame = 0
 1040              		@ frame_needed = 0, uses_anonymous_args = 0
 646:Middlewares/Third_Party/FreeRTOS/Source/timers.c **** TickType_t xTimeNow;
 1041              		.loc 1 646 1 is_stmt 0 view .LVU266
 1042 0000 38B5     		push	{r3, r4, r5, lr}
 1043              	.LCFI26:
 1044              		.cfi_def_cfa_offset 16
 1045              		.cfi_offset 3, -16
 1046              		.cfi_offset 4, -12
 1047              		.cfi_offset 5, -8
 1048              		.cfi_offset 14, -4
 1049 0002 0546     		mov	r5, r0
 647:Middlewares/Third_Party/FreeRTOS/Source/timers.c **** PRIVILEGED_DATA static TickType_t xLastTime = ( TickType_t ) 0U; /*lint !e956 Variable is only acce
 1050              		.loc 1 647 1 is_stmt 1 view .LVU267
 648:Middlewares/Third_Party/FreeRTOS/Source/timers.c **** 
 1051              		.loc 1 648 17 view .LVU268
 650:Middlewares/Third_Party/FreeRTOS/Source/timers.c **** 
 1052              		.loc 1 650 2 view .LVU269
 650:Middlewares/Third_Party/FreeRTOS/Source/timers.c **** 
 1053              		.loc 1 650 13 is_stmt 0 view .LVU270
 1054 0004 FFF7FEFF 		bl	xTaskGetTickCount
 1055              	.LVL78:
 650:Middlewares/Third_Party/FreeRTOS/Source/timers.c **** 
 1056              		.loc 1 650 13 view .LVU271
 1057 0008 0446     		mov	r4, r0
 1058              	.LVL79:
 652:Middlewares/Third_Party/FreeRTOS/Source/timers.c **** 	{
 1059              		.loc 1 652 2 is_stmt 1 view .LVU272
 652:Middlewares/Third_Party/FreeRTOS/Source/timers.c **** 	{
 1060              		.loc 1 652 15 is_stmt 0 view .LVU273
 1061 000a 074B     		ldr	r3, .L78
 1062 000c 1B68     		ldr	r3, [r3]
 652:Middlewares/Third_Party/FreeRTOS/Source/timers.c **** 	{
 1063              		.loc 1 652 4 view .LVU274
 1064 000e 8342     		cmp	r3, r0
 1065 0010 05D8     		bhi	.L77
 659:Middlewares/Third_Party/FreeRTOS/Source/timers.c **** 	}
 1066              		.loc 1 659 3 is_stmt 1 view .LVU275
 659:Middlewares/Third_Party/FreeRTOS/Source/timers.c **** 	}
 1067              		.loc 1 659 29 is_stmt 0 view .LVU276
 1068 0012 0023     		movs	r3, #0
 1069 0014 2B60     		str	r3, [r5]
 1070              	.LVL80:
 1071              	.L75:
 662:Middlewares/Third_Party/FreeRTOS/Source/timers.c **** 
 1072              		.loc 1 662 2 is_stmt 1 view .LVU277
 662:Middlewares/Third_Party/FreeRTOS/Source/timers.c **** 
 1073              		.loc 1 662 12 is_stmt 0 view .LVU278
 1074 0016 044B     		ldr	r3, .L78
 1075 0018 1C60     		str	r4, [r3]
 664:Middlewares/Third_Party/FreeRTOS/Source/timers.c **** }
 1076              		.loc 1 664 2 is_stmt 1 view .LVU279
 665:Middlewares/Third_Party/FreeRTOS/Source/timers.c **** /*-----------------------------------------------------------*/
ARM GAS  C:\Users\frees\AppData\Local\Temp\ccAseSOz.s 			page 44


 1077              		.loc 1 665 1 is_stmt 0 view .LVU280
 1078 001a 2046     		mov	r0, r4
 1079 001c 38BD     		pop	{r3, r4, r5, pc}
 1080              	.LVL81:
 1081              	.L77:
 654:Middlewares/Third_Party/FreeRTOS/Source/timers.c **** 		*pxTimerListsWereSwitched = pdTRUE;
 1082              		.loc 1 654 3 is_stmt 1 view .LVU281
 1083 001e FFF7FEFF 		bl	prvSwitchTimerLists
 1084              	.LVL82:
 655:Middlewares/Third_Party/FreeRTOS/Source/timers.c **** 	}
 1085              		.loc 1 655 3 view .LVU282
 655:Middlewares/Third_Party/FreeRTOS/Source/timers.c **** 	}
 1086              		.loc 1 655 29 is_stmt 0 view .LVU283
 1087 0022 0123     		movs	r3, #1
 1088 0024 2B60     		str	r3, [r5]
 1089 0026 F6E7     		b	.L75
 1090              	.L79:
 1091              		.align	2
 1092              	.L78:
 1093 0028 00000000 		.word	xLastTime.2
 1094              		.cfi_endproc
 1095              	.LFE18:
 1097              		.section	.text.prvProcessExpiredTimer,"ax",%progbits
 1098              		.align	1
 1099              		.syntax unified
 1100              		.thumb
 1101              		.thumb_func
 1103              	prvProcessExpiredTimer:
 1104              	.LVL83:
 1105              	.LFB14:
 483:Middlewares/Third_Party/FreeRTOS/Source/timers.c **** BaseType_t xResult;
 1106              		.loc 1 483 1 is_stmt 1 view -0
 1107              		.cfi_startproc
 1108              		@ args = 0, pretend = 0, frame = 0
 1109              		@ frame_needed = 0, uses_anonymous_args = 0
 483:Middlewares/Third_Party/FreeRTOS/Source/timers.c **** BaseType_t xResult;
 1110              		.loc 1 483 1 is_stmt 0 view .LVU285
 1111 0000 70B5     		push	{r4, r5, r6, lr}
 1112              	.LCFI27:
 1113              		.cfi_def_cfa_offset 16
 1114              		.cfi_offset 4, -16
 1115              		.cfi_offset 5, -12
 1116              		.cfi_offset 6, -8
 1117              		.cfi_offset 14, -4
 1118 0002 82B0     		sub	sp, sp, #8
 1119              	.LCFI28:
 1120              		.cfi_def_cfa_offset 24
 1121 0004 0646     		mov	r6, r0
 1122 0006 0D46     		mov	r5, r1
 484:Middlewares/Third_Party/FreeRTOS/Source/timers.c **** Timer_t * const pxTimer = ( Timer_t * ) listGET_OWNER_OF_HEAD_ENTRY( pxCurrentTimerList ); /*lint !
 1123              		.loc 1 484 1 is_stmt 1 view .LVU286
 485:Middlewares/Third_Party/FreeRTOS/Source/timers.c **** 
 1124              		.loc 1 485 1 view .LVU287
 485:Middlewares/Third_Party/FreeRTOS/Source/timers.c **** 
 1125              		.loc 1 485 41 is_stmt 0 view .LVU288
 1126 0008 1849     		ldr	r1, .L86
 1127              	.LVL84:
ARM GAS  C:\Users\frees\AppData\Local\Temp\ccAseSOz.s 			page 45


 485:Middlewares/Third_Party/FreeRTOS/Source/timers.c **** 
 1128              		.loc 1 485 41 view .LVU289
 1129 000a 0968     		ldr	r1, [r1]
 1130 000c C968     		ldr	r1, [r1, #12]
 485:Middlewares/Third_Party/FreeRTOS/Source/timers.c **** 
 1131              		.loc 1 485 17 view .LVU290
 1132 000e CC68     		ldr	r4, [r1, #12]
 1133              	.LVL85:
 489:Middlewares/Third_Party/FreeRTOS/Source/timers.c **** 	traceTIMER_EXPIRED( pxTimer );
 1134              		.loc 1 489 2 is_stmt 1 view .LVU291
 489:Middlewares/Third_Party/FreeRTOS/Source/timers.c **** 	traceTIMER_EXPIRED( pxTimer );
 1135              		.loc 1 489 11 is_stmt 0 view .LVU292
 1136 0010 201D     		adds	r0, r4, #4
 1137              	.LVL86:
 489:Middlewares/Third_Party/FreeRTOS/Source/timers.c **** 	traceTIMER_EXPIRED( pxTimer );
 1138              		.loc 1 489 11 view .LVU293
 1139 0012 FFF7FEFF 		bl	uxListRemove
 1140              	.LVL87:
 490:Middlewares/Third_Party/FreeRTOS/Source/timers.c **** 
 1141              		.loc 1 490 31 is_stmt 1 view .LVU294
 494:Middlewares/Third_Party/FreeRTOS/Source/timers.c **** 	{
 1142              		.loc 1 494 2 view .LVU295
 494:Middlewares/Third_Party/FreeRTOS/Source/timers.c **** 	{
 1143              		.loc 1 494 15 is_stmt 0 view .LVU296
 1144 0016 94F828C0 		ldrb	ip, [r4, #40]	@ zero_extendqisi2
 494:Middlewares/Third_Party/FreeRTOS/Source/timers.c **** 	{
 1145              		.loc 1 494 4 view .LVU297
 1146 001a 1CF0040F 		tst	ip, #4
 1147 001e 08D1     		bne	.L85
 514:Middlewares/Third_Party/FreeRTOS/Source/timers.c **** 		mtCOVERAGE_TEST_MARKER();
 1148              		.loc 1 514 3 is_stmt 1 view .LVU298
 514:Middlewares/Third_Party/FreeRTOS/Source/timers.c **** 		mtCOVERAGE_TEST_MARKER();
 1149              		.loc 1 514 21 is_stmt 0 view .LVU299
 1150 0020 2CF0010C 		bic	ip, ip, #1
 1151 0024 84F828C0 		strb	ip, [r4, #40]
 1152              	.L82:
 515:Middlewares/Third_Party/FreeRTOS/Source/timers.c **** 	}
 1153              		.loc 1 515 27 is_stmt 1 view .LVU300
 519:Middlewares/Third_Party/FreeRTOS/Source/timers.c **** }
 1154              		.loc 1 519 2 view .LVU301
 519:Middlewares/Third_Party/FreeRTOS/Source/timers.c **** }
 1155              		.loc 1 519 9 is_stmt 0 view .LVU302
 1156 0028 236A     		ldr	r3, [r4, #32]
 519:Middlewares/Third_Party/FreeRTOS/Source/timers.c **** }
 1157              		.loc 1 519 2 view .LVU303
 1158 002a 2046     		mov	r0, r4
 1159 002c 9847     		blx	r3
 1160              	.LVL88:
 520:Middlewares/Third_Party/FreeRTOS/Source/timers.c **** /*-----------------------------------------------------------*/
 1161              		.loc 1 520 1 view .LVU304
 1162 002e 02B0     		add	sp, sp, #8
 1163              	.LCFI29:
 1164              		.cfi_remember_state
 1165              		.cfi_def_cfa_offset 16
 1166              		@ sp needed
 1167 0030 70BD     		pop	{r4, r5, r6, pc}
 1168              	.LVL89:
ARM GAS  C:\Users\frees\AppData\Local\Temp\ccAseSOz.s 			page 46


 1169              	.L85:
 1170              	.LCFI30:
 1171              		.cfi_restore_state
 499:Middlewares/Third_Party/FreeRTOS/Source/timers.c **** 		{
 1172              		.loc 1 499 3 is_stmt 1 view .LVU305
 499:Middlewares/Third_Party/FreeRTOS/Source/timers.c **** 		{
 1173              		.loc 1 499 71 is_stmt 0 view .LVU306
 1174 0032 A169     		ldr	r1, [r4, #24]
 499:Middlewares/Third_Party/FreeRTOS/Source/timers.c **** 		{
 1175              		.loc 1 499 7 view .LVU307
 1176 0034 3346     		mov	r3, r6
 1177 0036 2A46     		mov	r2, r5
 1178 0038 3144     		add	r1, r1, r6
 1179 003a 2046     		mov	r0, r4
 1180 003c FFF7FEFF 		bl	prvInsertTimerInActiveList
 1181              	.LVL90:
 499:Middlewares/Third_Party/FreeRTOS/Source/timers.c **** 		{
 1182              		.loc 1 499 5 discriminator 1 view .LVU308
 1183 0040 0028     		cmp	r0, #0
 1184 0042 F1D0     		beq	.L82
 503:Middlewares/Third_Party/FreeRTOS/Source/timers.c **** 			configASSERT( xResult );
 1185              		.loc 1 503 4 is_stmt 1 view .LVU309
 503:Middlewares/Third_Party/FreeRTOS/Source/timers.c **** 			configASSERT( xResult );
 1186              		.loc 1 503 14 is_stmt 0 view .LVU310
 1187 0044 0021     		movs	r1, #0
 1188 0046 0091     		str	r1, [sp]
 1189 0048 0B46     		mov	r3, r1
 1190 004a 3246     		mov	r2, r6
 1191 004c 2046     		mov	r0, r4
 1192 004e FFF7FEFF 		bl	xTimerGenericCommand
 1193              	.LVL91:
 504:Middlewares/Third_Party/FreeRTOS/Source/timers.c **** 			( void ) xResult;
 1194              		.loc 1 504 4 is_stmt 1 view .LVU311
 1195 0052 0028     		cmp	r0, #0
 1196 0054 E8D1     		bne	.L82
 504:Middlewares/Third_Party/FreeRTOS/Source/timers.c **** 			( void ) xResult;
 1197              		.loc 1 504 4 discriminator 1 view .LVU312
 1198              	.LBB58:
 1199              	.LBI58:
 191:Middlewares/Third_Party/FreeRTOS/Source/portable/GCC/ARM_CM7/r0p1/portmacro.h **** {
 1200              		.loc 2 191 30 view .LVU313
 1201              	.LBB59:
 193:Middlewares/Third_Party/FreeRTOS/Source/portable/GCC/ARM_CM7/r0p1/portmacro.h **** 
 1202              		.loc 2 193 1 view .LVU314
 1203              		.loc 2 195 2 view .LVU315
 1204              		.syntax unified
 1205              	@ 195 "Middlewares/Third_Party/FreeRTOS/Source/portable/GCC/ARM_CM7/r0p1/portmacro.h" 1
 1206 0056 4FF05003 			mov r3, #80												
 1207 005a 72B6     		cpsid i													
 1208 005c 83F31188 		msr basepri, r3											
 1209 0060 BFF36F8F 		isb														
 1210 0064 BFF34F8F 		dsb														
 1211 0068 62B6     		cpsie i													
 1212              	
 1213              	@ 0 "" 2
 1214              		.thumb
 1215              		.syntax unified
ARM GAS  C:\Users\frees\AppData\Local\Temp\ccAseSOz.s 			page 47


 1216              	.L83:
 1217              	.LBE59:
 1218              	.LBE58:
 504:Middlewares/Third_Party/FreeRTOS/Source/timers.c **** 			( void ) xResult;
 1219              		.loc 1 504 4 discriminator 3 view .LVU316
 504:Middlewares/Third_Party/FreeRTOS/Source/timers.c **** 			( void ) xResult;
 1220              		.loc 1 504 4 discriminator 3 view .LVU317
 1221 006a FEE7     		b	.L83
 1222              	.L87:
 1223              		.align	2
 1224              	.L86:
 1225 006c 00000000 		.word	pxCurrentTimerList
 1226              		.cfi_endproc
 1227              	.LFE14:
 1229              		.section	.text.prvProcessTimerOrBlockTask,"ax",%progbits
 1230              		.align	1
 1231              		.syntax unified
 1232              		.thumb
 1233              		.thumb_func
 1235              	prvProcessTimerOrBlockTask:
 1236              	.LVL92:
 1237              	.LFB16:
 560:Middlewares/Third_Party/FreeRTOS/Source/timers.c **** TickType_t xTimeNow;
 1238              		.loc 1 560 1 view -0
 1239              		.cfi_startproc
 1240              		@ args = 0, pretend = 0, frame = 8
 1241              		@ frame_needed = 0, uses_anonymous_args = 0
 560:Middlewares/Third_Party/FreeRTOS/Source/timers.c **** TickType_t xTimeNow;
 1242              		.loc 1 560 1 is_stmt 0 view .LVU319
 1243 0000 70B5     		push	{r4, r5, r6, lr}
 1244              	.LCFI31:
 1245              		.cfi_def_cfa_offset 16
 1246              		.cfi_offset 4, -16
 1247              		.cfi_offset 5, -12
 1248              		.cfi_offset 6, -8
 1249              		.cfi_offset 14, -4
 1250 0002 82B0     		sub	sp, sp, #8
 1251              	.LCFI32:
 1252              		.cfi_def_cfa_offset 24
 1253 0004 0646     		mov	r6, r0
 1254 0006 0C46     		mov	r4, r1
 561:Middlewares/Third_Party/FreeRTOS/Source/timers.c **** BaseType_t xTimerListsWereSwitched;
 1255              		.loc 1 561 1 is_stmt 1 view .LVU320
 562:Middlewares/Third_Party/FreeRTOS/Source/timers.c **** 
 1256              		.loc 1 562 1 view .LVU321
 564:Middlewares/Third_Party/FreeRTOS/Source/timers.c **** 	{
 1257              		.loc 1 564 2 view .LVU322
 1258 0008 FFF7FEFF 		bl	vTaskSuspendAll
 1259              	.LVL93:
 571:Middlewares/Third_Party/FreeRTOS/Source/timers.c **** 		if( xTimerListsWereSwitched == pdFALSE )
 1260              		.loc 1 571 3 view .LVU323
 571:Middlewares/Third_Party/FreeRTOS/Source/timers.c **** 		if( xTimerListsWereSwitched == pdFALSE )
 1261              		.loc 1 571 14 is_stmt 0 view .LVU324
 1262 000c 01A8     		add	r0, sp, #4
 1263 000e FFF7FEFF 		bl	prvSampleTimeNow
 1264              	.LVL94:
 572:Middlewares/Third_Party/FreeRTOS/Source/timers.c **** 		{
ARM GAS  C:\Users\frees\AppData\Local\Temp\ccAseSOz.s 			page 48


 1265              		.loc 1 572 3 is_stmt 1 view .LVU325
 572:Middlewares/Third_Party/FreeRTOS/Source/timers.c **** 		{
 1266              		.loc 1 572 31 is_stmt 0 view .LVU326
 1267 0012 019B     		ldr	r3, [sp, #4]
 572:Middlewares/Third_Party/FreeRTOS/Source/timers.c **** 		{
 1268              		.loc 1 572 5 view .LVU327
 1269 0014 3BBB     		cbnz	r3, .L89
 1270 0016 0546     		mov	r5, r0
 575:Middlewares/Third_Party/FreeRTOS/Source/timers.c **** 			{
 1271              		.loc 1 575 4 is_stmt 1 view .LVU328
 575:Middlewares/Third_Party/FreeRTOS/Source/timers.c **** 			{
 1272              		.loc 1 575 6 is_stmt 0 view .LVU329
 1273 0018 B042     		cmp	r0, r6
 1274 001a 28BF     		it	cs
 1275 001c 002C     		cmpcs	r4, #0
 1276 001e 19D0     		beq	.L95
 588:Middlewares/Third_Party/FreeRTOS/Source/timers.c **** 				{
 1277              		.loc 1 588 5 is_stmt 1 view .LVU330
 588:Middlewares/Third_Party/FreeRTOS/Source/timers.c **** 				{
 1278              		.loc 1 588 7 is_stmt 0 view .LVU331
 1279 0020 24B1     		cbz	r4, .L92
 592:Middlewares/Third_Party/FreeRTOS/Source/timers.c **** 				}
 1280              		.loc 1 592 6 is_stmt 1 view .LVU332
 592:Middlewares/Third_Party/FreeRTOS/Source/timers.c **** 				}
 1281              		.loc 1 592 22 is_stmt 0 view .LVU333
 1282 0022 134A     		ldr	r2, .L96
 1283 0024 1268     		ldr	r2, [r2]
 1284 0026 1268     		ldr	r2, [r2]
 1285 0028 DAB9     		cbnz	r2, .L93
 592:Middlewares/Third_Party/FreeRTOS/Source/timers.c **** 				}
 1286              		.loc 1 592 22 discriminator 1 view .LVU334
 1287 002a 0124     		movs	r4, #1
 1288              	.LVL95:
 1289              	.L92:
 595:Middlewares/Third_Party/FreeRTOS/Source/timers.c **** 
 1290              		.loc 1 595 5 is_stmt 1 view .LVU335
 1291 002c 2246     		mov	r2, r4
 1292 002e 711B     		subs	r1, r6, r5
 1293 0030 104B     		ldr	r3, .L96+4
 1294 0032 1868     		ldr	r0, [r3]
 1295              	.LVL96:
 595:Middlewares/Third_Party/FreeRTOS/Source/timers.c **** 
 1296              		.loc 1 595 5 is_stmt 0 view .LVU336
 1297 0034 FFF7FEFF 		bl	vQueueWaitForMessageRestricted
 1298              	.LVL97:
 597:Middlewares/Third_Party/FreeRTOS/Source/timers.c **** 				{
 1299              		.loc 1 597 5 is_stmt 1 view .LVU337
 597:Middlewares/Third_Party/FreeRTOS/Source/timers.c **** 				{
 1300              		.loc 1 597 9 is_stmt 0 view .LVU338
 1301 0038 FFF7FEFF 		bl	xTaskResumeAll
 1302              	.LVL98:
 597:Middlewares/Third_Party/FreeRTOS/Source/timers.c **** 				{
 1303              		.loc 1 597 7 discriminator 1 view .LVU339
 1304 003c A8B9     		cbnz	r0, .L88
 603:Middlewares/Third_Party/FreeRTOS/Source/timers.c **** 				}
 1305              		.loc 1 603 6 is_stmt 1 view .LVU340
 1306 003e 4FF0E023 		mov	r3, #-536813568
ARM GAS  C:\Users\frees\AppData\Local\Temp\ccAseSOz.s 			page 49


 1307 0042 4FF08052 		mov	r2, #268435456
 1308 0046 C3F8042D 		str	r2, [r3, #3332]
 603:Middlewares/Third_Party/FreeRTOS/Source/timers.c **** 				}
 1309              		.loc 1 603 6 view .LVU341
 1310              		.syntax unified
 1311              	@ 603 "Middlewares/Third_Party/FreeRTOS/Source/timers.c" 1
 1312 004a BFF34F8F 		dsb
 1313              	@ 0 "" 2
 603:Middlewares/Third_Party/FreeRTOS/Source/timers.c **** 				}
 1314              		.loc 1 603 6 view .LVU342
 1315              	@ 603 "Middlewares/Third_Party/FreeRTOS/Source/timers.c" 1
 1316 004e BFF36F8F 		isb
 1317              	@ 0 "" 2
 603:Middlewares/Third_Party/FreeRTOS/Source/timers.c **** 				}
 1318              		.loc 1 603 28 view .LVU343
 1319              		.thumb
 1320              		.syntax unified
 1321 0052 0AE0     		b	.L88
 1322              	.LVL99:
 1323              	.L95:
 577:Middlewares/Third_Party/FreeRTOS/Source/timers.c **** 				prvProcessExpiredTimer( xNextExpireTime, xTimeNow );
 1324              		.loc 1 577 5 view .LVU344
 577:Middlewares/Third_Party/FreeRTOS/Source/timers.c **** 				prvProcessExpiredTimer( xNextExpireTime, xTimeNow );
 1325              		.loc 1 577 14 is_stmt 0 view .LVU345
 1326 0054 FFF7FEFF 		bl	xTaskResumeAll
 1327              	.LVL100:
 578:Middlewares/Third_Party/FreeRTOS/Source/timers.c **** 			}
 1328              		.loc 1 578 5 is_stmt 1 view .LVU346
 1329 0058 2946     		mov	r1, r5
 1330 005a 3046     		mov	r0, r6
 1331 005c FFF7FEFF 		bl	prvProcessExpiredTimer
 1332              	.LVL101:
 1333 0060 03E0     		b	.L88
 1334              	.LVL102:
 1335              	.L93:
 592:Middlewares/Third_Party/FreeRTOS/Source/timers.c **** 				}
 1336              		.loc 1 592 22 is_stmt 0 discriminator 2 view .LVU347
 1337 0062 1C46     		mov	r4, r3
 1338              	.LVL103:
 592:Middlewares/Third_Party/FreeRTOS/Source/timers.c **** 				}
 1339              		.loc 1 592 22 discriminator 2 view .LVU348
 1340 0064 E2E7     		b	.L92
 1341              	.LVL104:
 1342              	.L89:
 613:Middlewares/Third_Party/FreeRTOS/Source/timers.c **** 		}
 1343              		.loc 1 613 4 is_stmt 1 view .LVU349
 613:Middlewares/Third_Party/FreeRTOS/Source/timers.c **** 		}
 1344              		.loc 1 613 13 is_stmt 0 view .LVU350
 1345 0066 FFF7FEFF 		bl	xTaskResumeAll
 1346              	.LVL105:
 1347              	.L88:
 616:Middlewares/Third_Party/FreeRTOS/Source/timers.c **** /*-----------------------------------------------------------*/
 1348              		.loc 1 616 1 view .LVU351
 1349 006a 02B0     		add	sp, sp, #8
 1350              	.LCFI33:
 1351              		.cfi_def_cfa_offset 16
 1352              		@ sp needed
ARM GAS  C:\Users\frees\AppData\Local\Temp\ccAseSOz.s 			page 50


 1353 006c 70BD     		pop	{r4, r5, r6, pc}
 1354              	.LVL106:
 1355              	.L97:
 616:Middlewares/Third_Party/FreeRTOS/Source/timers.c **** /*-----------------------------------------------------------*/
 1356              		.loc 1 616 1 view .LVU352
 1357 006e 00BF     		.align	2
 1358              	.L96:
 1359 0070 00000000 		.word	pxOverflowTimerList
 1360 0074 00000000 		.word	xTimerQueue
 1361              		.cfi_endproc
 1362              	.LFE16:
 1364              		.section	.text.prvProcessReceivedCommands,"ax",%progbits
 1365              		.align	1
 1366              		.syntax unified
 1367              		.thumb
 1368              		.thumb_func
 1370              	prvProcessReceivedCommands:
 1371              	.LFB20:
 710:Middlewares/Third_Party/FreeRTOS/Source/timers.c **** DaemonTaskMessage_t xMessage;
 1372              		.loc 1 710 1 is_stmt 1 view -0
 1373              		.cfi_startproc
 1374              		@ args = 0, pretend = 0, frame = 24
 1375              		@ frame_needed = 0, uses_anonymous_args = 0
 1376 0000 10B5     		push	{r4, lr}
 1377              	.LCFI34:
 1378              		.cfi_def_cfa_offset 8
 1379              		.cfi_offset 4, -8
 1380              		.cfi_offset 14, -4
 1381 0002 88B0     		sub	sp, sp, #32
 1382              	.LCFI35:
 1383              		.cfi_def_cfa_offset 40
 711:Middlewares/Third_Party/FreeRTOS/Source/timers.c **** Timer_t *pxTimer;
 1384              		.loc 1 711 1 view .LVU354
 712:Middlewares/Third_Party/FreeRTOS/Source/timers.c **** BaseType_t xTimerListsWereSwitched, xResult;
 1385              		.loc 1 712 1 view .LVU355
 713:Middlewares/Third_Party/FreeRTOS/Source/timers.c **** TickType_t xTimeNow;
 1386              		.loc 1 713 1 view .LVU356
 714:Middlewares/Third_Party/FreeRTOS/Source/timers.c **** 
 1387              		.loc 1 714 1 view .LVU357
 716:Middlewares/Third_Party/FreeRTOS/Source/timers.c **** 	{
 1388              		.loc 1 716 2 view .LVU358
 716:Middlewares/Third_Party/FreeRTOS/Source/timers.c **** 	{
 1389              		.loc 1 716 7 is_stmt 0 view .LVU359
 1390 0004 02E0     		b	.L101
 1391              	.L100:
 735:Middlewares/Third_Party/FreeRTOS/Source/timers.c **** 			}
 1392              		.loc 1 735 29 is_stmt 1 view .LVU360
 742:Middlewares/Third_Party/FreeRTOS/Source/timers.c **** 		{
 1393              		.loc 1 742 3 view .LVU361
 742:Middlewares/Third_Party/FreeRTOS/Source/timers.c **** 		{
 1394              		.loc 1 742 15 is_stmt 0 view .LVU362
 1395 0006 049B     		ldr	r3, [sp, #16]
 742:Middlewares/Third_Party/FreeRTOS/Source/timers.c **** 		{
 1396              		.loc 1 742 5 view .LVU363
 1397 0008 002B     		cmp	r3, #0
 1398 000a 0FDA     		bge	.L117
 1399              	.L101:
ARM GAS  C:\Users\frees\AppData\Local\Temp\ccAseSOz.s 			page 51


 716:Middlewares/Third_Party/FreeRTOS/Source/timers.c **** 	{
 1400              		.loc 1 716 62 is_stmt 1 view .LVU364
 716:Middlewares/Third_Party/FreeRTOS/Source/timers.c **** 	{
 1401              		.loc 1 716 9 is_stmt 0 view .LVU365
 1402 000c 0022     		movs	r2, #0
 1403 000e 04A9     		add	r1, sp, #16
 1404 0010 3F4B     		ldr	r3, .L121
 1405 0012 1868     		ldr	r0, [r3]
 1406 0014 FFF7FEFF 		bl	xQueueReceive
 1407              	.LVL107:
 716:Middlewares/Third_Party/FreeRTOS/Source/timers.c **** 	{
 1408              		.loc 1 716 62 discriminator 1 view .LVU366
 1409 0018 0028     		cmp	r0, #0
 1410 001a 77D0     		beq	.L118
 722:Middlewares/Third_Party/FreeRTOS/Source/timers.c **** 			{
 1411              		.loc 1 722 4 is_stmt 1 view .LVU367
 722:Middlewares/Third_Party/FreeRTOS/Source/timers.c **** 			{
 1412              		.loc 1 722 16 is_stmt 0 view .LVU368
 1413 001c 049B     		ldr	r3, [sp, #16]
 722:Middlewares/Third_Party/FreeRTOS/Source/timers.c **** 			{
 1414              		.loc 1 722 6 view .LVU369
 1415 001e 002B     		cmp	r3, #0
 1416 0020 F1DA     		bge	.L100
 1417              	.LBB60:
 724:Middlewares/Third_Party/FreeRTOS/Source/timers.c **** 
 1418              		.loc 1 724 5 is_stmt 1 view .LVU370
 1419              	.LVL108:
 728:Middlewares/Third_Party/FreeRTOS/Source/timers.c **** 
 1420              		.loc 1 728 5 view .LVU371
 728:Middlewares/Third_Party/FreeRTOS/Source/timers.c **** 
 1421              		.loc 1 728 31 discriminator 2 view .LVU372
 731:Middlewares/Third_Party/FreeRTOS/Source/timers.c **** 			}
 1422              		.loc 1 731 5 view .LVU373
 1423 0022 0799     		ldr	r1, [sp, #28]
 1424 0024 0698     		ldr	r0, [sp, #24]
 1425 0026 059B     		ldr	r3, [sp, #20]
 1426 0028 9847     		blx	r3
 1427              	.LVL109:
 1428              	.LBE60:
 1429 002a ECE7     		b	.L100
 1430              	.LVL110:
 1431              	.L117:
 746:Middlewares/Third_Party/FreeRTOS/Source/timers.c **** 
 1432              		.loc 1 746 4 view .LVU374
 746:Middlewares/Third_Party/FreeRTOS/Source/timers.c **** 
 1433              		.loc 1 746 12 is_stmt 0 view .LVU375
 1434 002c 069C     		ldr	r4, [sp, #24]
 1435              	.LVL111:
 748:Middlewares/Third_Party/FreeRTOS/Source/timers.c **** 			{
 1436              		.loc 1 748 4 is_stmt 1 view .LVU376
 748:Middlewares/Third_Party/FreeRTOS/Source/timers.c **** 			{
 1437              		.loc 1 748 8 is_stmt 0 view .LVU377
 1438 002e 6369     		ldr	r3, [r4, #20]
 748:Middlewares/Third_Party/FreeRTOS/Source/timers.c **** 			{
 1439              		.loc 1 748 6 view .LVU378
 1440 0030 13B1     		cbz	r3, .L102
 751:Middlewares/Third_Party/FreeRTOS/Source/timers.c **** 			}
ARM GAS  C:\Users\frees\AppData\Local\Temp\ccAseSOz.s 			page 52


 1441              		.loc 1 751 5 is_stmt 1 view .LVU379
 751:Middlewares/Third_Party/FreeRTOS/Source/timers.c **** 			}
 1442              		.loc 1 751 14 is_stmt 0 view .LVU380
 1443 0032 201D     		adds	r0, r4, #4
 1444 0034 FFF7FEFF 		bl	uxListRemove
 1445              	.LVL112:
 1446              	.L102:
 755:Middlewares/Third_Party/FreeRTOS/Source/timers.c **** 			}
 1447              		.loc 1 755 29 is_stmt 1 view .LVU381
 758:Middlewares/Third_Party/FreeRTOS/Source/timers.c **** 
 1448              		.loc 1 758 106 view .LVU382
 766:Middlewares/Third_Party/FreeRTOS/Source/timers.c **** 
 1449              		.loc 1 766 4 view .LVU383
 766:Middlewares/Third_Party/FreeRTOS/Source/timers.c **** 
 1450              		.loc 1 766 15 is_stmt 0 view .LVU384
 1451 0038 03A8     		add	r0, sp, #12
 1452 003a FFF7FEFF 		bl	prvSampleTimeNow
 1453              	.LVL113:
 768:Middlewares/Third_Party/FreeRTOS/Source/timers.c **** 			{
 1454              		.loc 1 768 4 is_stmt 1 view .LVU385
 768:Middlewares/Third_Party/FreeRTOS/Source/timers.c **** 			{
 1455              		.loc 1 768 20 is_stmt 0 view .LVU386
 1456 003e 049B     		ldr	r3, [sp, #16]
 768:Middlewares/Third_Party/FreeRTOS/Source/timers.c **** 			{
 1457              		.loc 1 768 4 view .LVU387
 1458 0040 092B     		cmp	r3, #9
 1459 0042 E3D8     		bhi	.L101
 1460 0044 DFE803F0 		tbb	[pc, r3]
 1461              	.L105:
 1462 0048 05       		.byte	(.L107-.L105)/2
 1463 0049 05       		.byte	(.L107-.L105)/2
 1464 004a 05       		.byte	(.L107-.L105)/2
 1465 004b 32       		.byte	(.L106-.L105)/2
 1466 004c 39       		.byte	(.L104-.L105)/2
 1467 004d 54       		.byte	(.L108-.L105)/2
 1468 004e 05       		.byte	(.L107-.L105)/2
 1469 004f 05       		.byte	(.L107-.L105)/2
 1470 0050 32       		.byte	(.L106-.L105)/2
 1471 0051 39       		.byte	(.L104-.L105)/2
 1472              		.p2align 1
 1473              	.L107:
 776:Middlewares/Third_Party/FreeRTOS/Source/timers.c **** 					if( prvInsertTimerInActiveList( pxTimer,  xMessage.u.xTimerParameters.xMessageValue + pxTimer-
 1474              		.loc 1 776 6 is_stmt 1 view .LVU388
 776:Middlewares/Third_Party/FreeRTOS/Source/timers.c **** 					if( prvInsertTimerInActiveList( pxTimer,  xMessage.u.xTimerParameters.xMessageValue + pxTimer-
 1475              		.loc 1 776 13 is_stmt 0 view .LVU389
 1476 0052 94F82830 		ldrb	r3, [r4, #40]	@ zero_extendqisi2
 776:Middlewares/Third_Party/FreeRTOS/Source/timers.c **** 					if( prvInsertTimerInActiveList( pxTimer,  xMessage.u.xTimerParameters.xMessageValue + pxTimer-
 1477              		.loc 1 776 24 view .LVU390
 1478 0056 43F00103 		orr	r3, r3, #1
 1479 005a 84F82830 		strb	r3, [r4, #40]
 777:Middlewares/Third_Party/FreeRTOS/Source/timers.c **** 					{
 1480              		.loc 1 777 6 is_stmt 1 view .LVU391
 777:Middlewares/Third_Party/FreeRTOS/Source/timers.c **** 					{
 1481              		.loc 1 777 75 is_stmt 0 view .LVU392
 1482 005e 059B     		ldr	r3, [sp, #20]
 777:Middlewares/Third_Party/FreeRTOS/Source/timers.c **** 					{
 1483              		.loc 1 777 99 view .LVU393
ARM GAS  C:\Users\frees\AppData\Local\Temp\ccAseSOz.s 			page 53


 1484 0060 A169     		ldr	r1, [r4, #24]
 777:Middlewares/Third_Party/FreeRTOS/Source/timers.c **** 					{
 1485              		.loc 1 777 10 view .LVU394
 1486 0062 0246     		mov	r2, r0
 1487 0064 1944     		add	r1, r1, r3
 1488 0066 2046     		mov	r0, r4
 1489              	.LVL114:
 777:Middlewares/Third_Party/FreeRTOS/Source/timers.c **** 					{
 1490              		.loc 1 777 10 view .LVU395
 1491 0068 FFF7FEFF 		bl	prvInsertTimerInActiveList
 1492              	.LVL115:
 777:Middlewares/Third_Party/FreeRTOS/Source/timers.c **** 					{
 1493              		.loc 1 777 8 discriminator 1 view .LVU396
 1494 006c 0028     		cmp	r0, #0
 1495 006e CDD0     		beq	.L101
 781:Middlewares/Third_Party/FreeRTOS/Source/timers.c **** 						traceTIMER_EXPIRED( pxTimer );
 1496              		.loc 1 781 7 is_stmt 1 view .LVU397
 781:Middlewares/Third_Party/FreeRTOS/Source/timers.c **** 						traceTIMER_EXPIRED( pxTimer );
 1497              		.loc 1 781 14 is_stmt 0 view .LVU398
 1498 0070 236A     		ldr	r3, [r4, #32]
 781:Middlewares/Third_Party/FreeRTOS/Source/timers.c **** 						traceTIMER_EXPIRED( pxTimer );
 1499              		.loc 1 781 7 view .LVU399
 1500 0072 2046     		mov	r0, r4
 1501 0074 9847     		blx	r3
 1502              	.LVL116:
 782:Middlewares/Third_Party/FreeRTOS/Source/timers.c **** 
 1503              		.loc 1 782 36 is_stmt 1 view .LVU400
 784:Middlewares/Third_Party/FreeRTOS/Source/timers.c **** 						{
 1504              		.loc 1 784 7 view .LVU401
 784:Middlewares/Third_Party/FreeRTOS/Source/timers.c **** 						{
 1505              		.loc 1 784 20 is_stmt 0 view .LVU402
 1506 0076 94F82830 		ldrb	r3, [r4, #40]	@ zero_extendqisi2
 784:Middlewares/Third_Party/FreeRTOS/Source/timers.c **** 						{
 1507              		.loc 1 784 9 view .LVU403
 1508 007a 13F0040F 		tst	r3, #4
 1509 007e C5D0     		beq	.L101
 786:Middlewares/Third_Party/FreeRTOS/Source/timers.c **** 							configASSERT( xResult );
 1510              		.loc 1 786 8 is_stmt 1 view .LVU404
 786:Middlewares/Third_Party/FreeRTOS/Source/timers.c **** 							configASSERT( xResult );
 1511              		.loc 1 786 129 is_stmt 0 view .LVU405
 1512 0080 A269     		ldr	r2, [r4, #24]
 786:Middlewares/Third_Party/FreeRTOS/Source/timers.c **** 							configASSERT( xResult );
 1513              		.loc 1 786 18 view .LVU406
 1514 0082 0021     		movs	r1, #0
 1515 0084 0091     		str	r1, [sp]
 1516 0086 0B46     		mov	r3, r1
 1517 0088 0598     		ldr	r0, [sp, #20]
 1518 008a 0244     		add	r2, r2, r0
 1519 008c 2046     		mov	r0, r4
 1520 008e FFF7FEFF 		bl	xTimerGenericCommand
 1521              	.LVL117:
 787:Middlewares/Third_Party/FreeRTOS/Source/timers.c **** 							( void ) xResult;
 1522              		.loc 1 787 8 is_stmt 1 view .LVU407
 1523 0092 0028     		cmp	r0, #0
 1524 0094 BAD1     		bne	.L101
 787:Middlewares/Third_Party/FreeRTOS/Source/timers.c **** 							( void ) xResult;
 1525              		.loc 1 787 8 discriminator 1 view .LVU408
ARM GAS  C:\Users\frees\AppData\Local\Temp\ccAseSOz.s 			page 54


 1526              	.LBB61:
 1527              	.LBI61:
 191:Middlewares/Third_Party/FreeRTOS/Source/portable/GCC/ARM_CM7/r0p1/portmacro.h **** {
 1528              		.loc 2 191 30 view .LVU409
 1529              	.LBB62:
 193:Middlewares/Third_Party/FreeRTOS/Source/portable/GCC/ARM_CM7/r0p1/portmacro.h **** 
 1530              		.loc 2 193 1 view .LVU410
 1531              		.loc 2 195 2 view .LVU411
 1532              		.syntax unified
 1533              	@ 195 "Middlewares/Third_Party/FreeRTOS/Source/portable/GCC/ARM_CM7/r0p1/portmacro.h" 1
 1534 0096 4FF05003 			mov r3, #80												
 1535 009a 72B6     		cpsid i													
 1536 009c 83F31188 		msr basepri, r3											
 1537 00a0 BFF36F8F 		isb														
 1538 00a4 BFF34F8F 		dsb														
 1539 00a8 62B6     		cpsie i													
 1540              	
 1541              	@ 0 "" 2
 1542              		.thumb
 1543              		.syntax unified
 1544              	.L110:
 1545              	.LBE62:
 1546              	.LBE61:
 787:Middlewares/Third_Party/FreeRTOS/Source/timers.c **** 							( void ) xResult;
 1547              		.loc 1 787 8 discriminator 3 view .LVU412
 787:Middlewares/Third_Party/FreeRTOS/Source/timers.c **** 							( void ) xResult;
 1548              		.loc 1 787 8 discriminator 3 view .LVU413
 1549 00aa FEE7     		b	.L110
 1550              	.LVL118:
 1551              	.L106:
 804:Middlewares/Third_Party/FreeRTOS/Source/timers.c **** 					break;
 1552              		.loc 1 804 6 view .LVU414
 804:Middlewares/Third_Party/FreeRTOS/Source/timers.c **** 					break;
 1553              		.loc 1 804 13 is_stmt 0 view .LVU415
 1554 00ac 94F82830 		ldrb	r3, [r4, #40]	@ zero_extendqisi2
 804:Middlewares/Third_Party/FreeRTOS/Source/timers.c **** 					break;
 1555              		.loc 1 804 24 view .LVU416
 1556 00b0 23F00103 		bic	r3, r3, #1
 1557 00b4 84F82830 		strb	r3, [r4, #40]
 805:Middlewares/Third_Party/FreeRTOS/Source/timers.c **** 
 1558              		.loc 1 805 6 is_stmt 1 view .LVU417
 1559 00b8 A8E7     		b	.L101
 1560              	.L104:
 809:Middlewares/Third_Party/FreeRTOS/Source/timers.c **** 					pxTimer->xTimerPeriodInTicks = xMessage.u.xTimerParameters.xMessageValue;
 1561              		.loc 1 809 6 view .LVU418
 809:Middlewares/Third_Party/FreeRTOS/Source/timers.c **** 					pxTimer->xTimerPeriodInTicks = xMessage.u.xTimerParameters.xMessageValue;
 1562              		.loc 1 809 13 is_stmt 0 view .LVU419
 1563 00ba 94F82830 		ldrb	r3, [r4, #40]	@ zero_extendqisi2
 809:Middlewares/Third_Party/FreeRTOS/Source/timers.c **** 					pxTimer->xTimerPeriodInTicks = xMessage.u.xTimerParameters.xMessageValue;
 1564              		.loc 1 809 24 view .LVU420
 1565 00be 43F00103 		orr	r3, r3, #1
 1566 00c2 84F82830 		strb	r3, [r4, #40]
 810:Middlewares/Third_Party/FreeRTOS/Source/timers.c **** 					configASSERT( ( pxTimer->xTimerPeriodInTicks > 0 ) );
 1567              		.loc 1 810 6 is_stmt 1 view .LVU421
 810:Middlewares/Third_Party/FreeRTOS/Source/timers.c **** 					configASSERT( ( pxTimer->xTimerPeriodInTicks > 0 ) );
 1568              		.loc 1 810 64 is_stmt 0 view .LVU422
 1569 00c6 0599     		ldr	r1, [sp, #20]
ARM GAS  C:\Users\frees\AppData\Local\Temp\ccAseSOz.s 			page 55


 810:Middlewares/Third_Party/FreeRTOS/Source/timers.c **** 					configASSERT( ( pxTimer->xTimerPeriodInTicks > 0 ) );
 1570              		.loc 1 810 35 view .LVU423
 1571 00c8 A161     		str	r1, [r4, #24]
 811:Middlewares/Third_Party/FreeRTOS/Source/timers.c **** 
 1572              		.loc 1 811 6 is_stmt 1 view .LVU424
 1573 00ca 31B1     		cbz	r1, .L119
 811:Middlewares/Third_Party/FreeRTOS/Source/timers.c **** 
 1574              		.loc 1 811 58 discriminator 2 view .LVU425
 819:Middlewares/Third_Party/FreeRTOS/Source/timers.c **** 					break;
 1575              		.loc 1 819 6 view .LVU426
 819:Middlewares/Third_Party/FreeRTOS/Source/timers.c **** 					break;
 1576              		.loc 1 819 15 is_stmt 0 view .LVU427
 1577 00cc 0346     		mov	r3, r0
 1578 00ce 0246     		mov	r2, r0
 1579 00d0 0144     		add	r1, r1, r0
 1580 00d2 2046     		mov	r0, r4
 1581              	.LVL119:
 819:Middlewares/Third_Party/FreeRTOS/Source/timers.c **** 					break;
 1582              		.loc 1 819 15 view .LVU428
 1583 00d4 FFF7FEFF 		bl	prvInsertTimerInActiveList
 1584              	.LVL120:
 820:Middlewares/Third_Party/FreeRTOS/Source/timers.c **** 
 1585              		.loc 1 820 6 is_stmt 1 view .LVU429
 1586 00d8 98E7     		b	.L101
 1587              	.LVL121:
 1588              	.L119:
 811:Middlewares/Third_Party/FreeRTOS/Source/timers.c **** 
 1589              		.loc 1 811 6 discriminator 1 view .LVU430
 1590              	.LBB63:
 1591              	.LBI63:
 191:Middlewares/Third_Party/FreeRTOS/Source/portable/GCC/ARM_CM7/r0p1/portmacro.h **** {
 1592              		.loc 2 191 30 view .LVU431
 1593              	.LBB64:
 193:Middlewares/Third_Party/FreeRTOS/Source/portable/GCC/ARM_CM7/r0p1/portmacro.h **** 
 1594              		.loc 2 193 1 view .LVU432
 1595              		.loc 2 195 2 view .LVU433
 1596              		.syntax unified
 1597              	@ 195 "Middlewares/Third_Party/FreeRTOS/Source/portable/GCC/ARM_CM7/r0p1/portmacro.h" 1
 1598 00da 4FF05003 			mov r3, #80												
 1599 00de 72B6     		cpsid i													
 1600 00e0 83F31188 		msr basepri, r3											
 1601 00e4 BFF36F8F 		isb														
 1602 00e8 BFF34F8F 		dsb														
 1603 00ec 62B6     		cpsie i													
 1604              	
 1605              	@ 0 "" 2
 1606              		.thumb
 1607              		.syntax unified
 1608              	.L112:
 1609              	.LBE64:
 1610              	.LBE63:
 811:Middlewares/Third_Party/FreeRTOS/Source/timers.c **** 
 1611              		.loc 1 811 6 discriminator 3 view .LVU434
 811:Middlewares/Third_Party/FreeRTOS/Source/timers.c **** 
 1612              		.loc 1 811 6 discriminator 3 view .LVU435
 1613 00ee FEE7     		b	.L112
 1614              	.L108:
ARM GAS  C:\Users\frees\AppData\Local\Temp\ccAseSOz.s 			page 56


 828:Middlewares/Third_Party/FreeRTOS/Source/timers.c **** 						{
 1615              		.loc 1 828 7 view .LVU436
 828:Middlewares/Third_Party/FreeRTOS/Source/timers.c **** 						{
 1616              		.loc 1 828 20 is_stmt 0 view .LVU437
 1617 00f0 94F82830 		ldrb	r3, [r4, #40]	@ zero_extendqisi2
 828:Middlewares/Third_Party/FreeRTOS/Source/timers.c **** 						{
 1618              		.loc 1 828 9 view .LVU438
 1619 00f4 13F0020F 		tst	r3, #2
 1620 00f8 04D0     		beq	.L120
 834:Middlewares/Third_Party/FreeRTOS/Source/timers.c **** 						}
 1621              		.loc 1 834 8 is_stmt 1 view .LVU439
 834:Middlewares/Third_Party/FreeRTOS/Source/timers.c **** 						}
 1622              		.loc 1 834 26 is_stmt 0 view .LVU440
 1623 00fa 23F00103 		bic	r3, r3, #1
 1624 00fe 84F82830 		strb	r3, [r4, #40]
 1625 0102 83E7     		b	.L101
 1626              	.L120:
 830:Middlewares/Third_Party/FreeRTOS/Source/timers.c **** 						}
 1627              		.loc 1 830 8 is_stmt 1 view .LVU441
 1628 0104 2046     		mov	r0, r4
 1629              	.LVL122:
 830:Middlewares/Third_Party/FreeRTOS/Source/timers.c **** 						}
 1630              		.loc 1 830 8 is_stmt 0 view .LVU442
 1631 0106 FFF7FEFF 		bl	vPortFree
 1632              	.LVL123:
 1633 010a 7FE7     		b	.L101
 1634              	.LVL124:
 1635              	.L118:
 854:Middlewares/Third_Party/FreeRTOS/Source/timers.c **** /*-----------------------------------------------------------*/
 1636              		.loc 1 854 1 view .LVU443
 1637 010c 08B0     		add	sp, sp, #32
 1638              	.LCFI36:
 1639              		.cfi_def_cfa_offset 8
 1640              		@ sp needed
 1641 010e 10BD     		pop	{r4, pc}
 1642              	.L122:
 1643              		.align	2
 1644              	.L121:
 1645 0110 00000000 		.word	xTimerQueue
 1646              		.cfi_endproc
 1647              	.LFE20:
 1649              		.section	.text.prvTimerTask,"ax",%progbits
 1650              		.align	1
 1651              		.syntax unified
 1652              		.thumb
 1653              		.thumb_func
 1655              	prvTimerTask:
 1656              	.LFB15:
 524:Middlewares/Third_Party/FreeRTOS/Source/timers.c **** TickType_t xNextExpireTime;
 1657              		.loc 1 524 1 is_stmt 1 view -0
 1658              		.cfi_startproc
 1659              		@ args = 0, pretend = 0, frame = 8
 1660              		@ frame_needed = 0, uses_anonymous_args = 0
 1661              	.LVL125:
 524:Middlewares/Third_Party/FreeRTOS/Source/timers.c **** TickType_t xNextExpireTime;
 1662              		.loc 1 524 1 is_stmt 0 view .LVU445
 1663 0000 00B5     		push	{lr}
ARM GAS  C:\Users\frees\AppData\Local\Temp\ccAseSOz.s 			page 57


 1664              	.LCFI37:
 1665              		.cfi_def_cfa_offset 4
 1666              		.cfi_offset 14, -4
 1667 0002 83B0     		sub	sp, sp, #12
 1668              	.LCFI38:
 1669              		.cfi_def_cfa_offset 16
 1670              	.LVL126:
 1671              	.L124:
 525:Middlewares/Third_Party/FreeRTOS/Source/timers.c **** BaseType_t xListWasEmpty;
 1672              		.loc 1 525 1 is_stmt 1 view .LVU446
 526:Middlewares/Third_Party/FreeRTOS/Source/timers.c **** 
 1673              		.loc 1 526 1 view .LVU447
 529:Middlewares/Third_Party/FreeRTOS/Source/timers.c **** 
 1674              		.loc 1 529 2 view .LVU448
 543:Middlewares/Third_Party/FreeRTOS/Source/timers.c **** 	{
 1675              		.loc 1 543 2 view .LVU449
 547:Middlewares/Third_Party/FreeRTOS/Source/timers.c **** 
 1676              		.loc 1 547 3 view .LVU450
 547:Middlewares/Third_Party/FreeRTOS/Source/timers.c **** 
 1677              		.loc 1 547 21 is_stmt 0 view .LVU451
 1678 0004 01A8     		add	r0, sp, #4
 1679 0006 FFF7FEFF 		bl	prvGetNextExpireTime
 1680              	.LVL127:
 551:Middlewares/Third_Party/FreeRTOS/Source/timers.c **** 
 1681              		.loc 1 551 3 is_stmt 1 view .LVU452
 1682 000a 0199     		ldr	r1, [sp, #4]
 1683 000c FFF7FEFF 		bl	prvProcessTimerOrBlockTask
 1684              	.LVL128:
 554:Middlewares/Third_Party/FreeRTOS/Source/timers.c **** 	}
 1685              		.loc 1 554 3 discriminator 1 view .LVU453
 1686 0010 FFF7FEFF 		bl	prvProcessReceivedCommands
 1687              	.LVL129:
 543:Middlewares/Third_Party/FreeRTOS/Source/timers.c **** 	{
 1688              		.loc 1 543 2 view .LVU454
 1689 0014 F6E7     		b	.L124
 1690              		.cfi_endproc
 1691              	.LFE15:
 1693              		.section	.text.xTimerGetTimerDaemonTaskHandle,"ax",%progbits
 1694              		.align	1
 1695              		.global	xTimerGetTimerDaemonTaskHandle
 1696              		.syntax unified
 1697              		.thumb
 1698              		.thumb_func
 1700              	xTimerGetTimerDaemonTaskHandle:
 1701              	.LFB9:
 425:Middlewares/Third_Party/FreeRTOS/Source/timers.c **** 	/* If xTimerGetTimerDaemonTaskHandle() is called before the scheduler has been
 1702              		.loc 1 425 1 view -0
 1703              		.cfi_startproc
 1704              		@ args = 0, pretend = 0, frame = 0
 1705              		@ frame_needed = 0, uses_anonymous_args = 0
 1706              		@ link register save eliminated.
 428:Middlewares/Third_Party/FreeRTOS/Source/timers.c **** 	return xTimerTaskHandle;
 1707              		.loc 1 428 2 view .LVU456
 1708 0000 074B     		ldr	r3, .L130
 1709 0002 1868     		ldr	r0, [r3]
 1710 0004 00B1     		cbz	r0, .L129
 430:Middlewares/Third_Party/FreeRTOS/Source/timers.c **** /*-----------------------------------------------------------*/
ARM GAS  C:\Users\frees\AppData\Local\Temp\ccAseSOz.s 			page 58


 1711              		.loc 1 430 1 is_stmt 0 view .LVU457
 1712 0006 7047     		bx	lr
 1713              	.L129:
 428:Middlewares/Third_Party/FreeRTOS/Source/timers.c **** 	return xTimerTaskHandle;
 1714              		.loc 1 428 2 is_stmt 1 discriminator 1 view .LVU458
 1715              	.LBB65:
 1716              	.LBI65:
 191:Middlewares/Third_Party/FreeRTOS/Source/portable/GCC/ARM_CM7/r0p1/portmacro.h **** {
 1717              		.loc 2 191 30 view .LVU459
 1718              	.LBB66:
 193:Middlewares/Third_Party/FreeRTOS/Source/portable/GCC/ARM_CM7/r0p1/portmacro.h **** 
 1719              		.loc 2 193 1 view .LVU460
 1720              		.loc 2 195 2 view .LVU461
 1721              		.syntax unified
 1722              	@ 195 "Middlewares/Third_Party/FreeRTOS/Source/portable/GCC/ARM_CM7/r0p1/portmacro.h" 1
 1723 0008 4FF05003 			mov r3, #80												
 1724 000c 72B6     		cpsid i													
 1725 000e 83F31188 		msr basepri, r3											
 1726 0012 BFF36F8F 		isb														
 1727 0016 BFF34F8F 		dsb														
 1728 001a 62B6     		cpsie i													
 1729              	
 1730              	@ 0 "" 2
 1731              		.thumb
 1732              		.syntax unified
 1733              	.L128:
 1734              	.LBE66:
 1735              	.LBE65:
 428:Middlewares/Third_Party/FreeRTOS/Source/timers.c **** 	return xTimerTaskHandle;
 1736              		.loc 1 428 2 discriminator 3 view .LVU462
 428:Middlewares/Third_Party/FreeRTOS/Source/timers.c **** 	return xTimerTaskHandle;
 1737              		.loc 1 428 2 discriminator 3 view .LVU463
 1738 001c FEE7     		b	.L128
 1739              	.L131:
 1740 001e 00BF     		.align	2
 1741              	.L130:
 1742 0020 00000000 		.word	xTimerTaskHandle
 1743              		.cfi_endproc
 1744              	.LFE9:
 1746              		.section	.text.xTimerGetPeriod,"ax",%progbits
 1747              		.align	1
 1748              		.global	xTimerGetPeriod
 1749              		.syntax unified
 1750              		.thumb
 1751              		.thumb_func
 1753              	xTimerGetPeriod:
 1754              	.LVL130:
 1755              	.LFB10:
 434:Middlewares/Third_Party/FreeRTOS/Source/timers.c **** Timer_t *pxTimer = xTimer;
 1756              		.loc 1 434 1 view -0
 1757              		.cfi_startproc
 1758              		@ args = 0, pretend = 0, frame = 0
 1759              		@ frame_needed = 0, uses_anonymous_args = 0
 1760              		@ link register save eliminated.
 435:Middlewares/Third_Party/FreeRTOS/Source/timers.c **** 
 1761              		.loc 1 435 1 view .LVU465
 437:Middlewares/Third_Party/FreeRTOS/Source/timers.c **** 	return pxTimer->xTimerPeriodInTicks;
ARM GAS  C:\Users\frees\AppData\Local\Temp\ccAseSOz.s 			page 59


 1762              		.loc 1 437 2 view .LVU466
 1763 0000 08B1     		cbz	r0, .L135
 437:Middlewares/Third_Party/FreeRTOS/Source/timers.c **** 	return pxTimer->xTimerPeriodInTicks;
 1764              		.loc 1 437 24 discriminator 2 view .LVU467
 438:Middlewares/Third_Party/FreeRTOS/Source/timers.c **** }
 1765              		.loc 1 438 2 view .LVU468
 439:Middlewares/Third_Party/FreeRTOS/Source/timers.c **** /*-----------------------------------------------------------*/
 1766              		.loc 1 439 1 is_stmt 0 view .LVU469
 1767 0002 8069     		ldr	r0, [r0, #24]
 1768              	.LVL131:
 439:Middlewares/Third_Party/FreeRTOS/Source/timers.c **** /*-----------------------------------------------------------*/
 1769              		.loc 1 439 1 view .LVU470
 1770 0004 7047     		bx	lr
 1771              	.LVL132:
 1772              	.L135:
 437:Middlewares/Third_Party/FreeRTOS/Source/timers.c **** 	return pxTimer->xTimerPeriodInTicks;
 1773              		.loc 1 437 2 is_stmt 1 discriminator 1 view .LVU471
 1774              	.LBB67:
 1775              	.LBI67:
 191:Middlewares/Third_Party/FreeRTOS/Source/portable/GCC/ARM_CM7/r0p1/portmacro.h **** {
 1776              		.loc 2 191 30 view .LVU472
 1777              	.LBB68:
 193:Middlewares/Third_Party/FreeRTOS/Source/portable/GCC/ARM_CM7/r0p1/portmacro.h **** 
 1778              		.loc 2 193 1 view .LVU473
 1779              		.loc 2 195 2 view .LVU474
 1780              		.syntax unified
 1781              	@ 195 "Middlewares/Third_Party/FreeRTOS/Source/portable/GCC/ARM_CM7/r0p1/portmacro.h" 1
 1782 0006 4FF05003 			mov r3, #80												
 1783 000a 72B6     		cpsid i													
 1784 000c 83F31188 		msr basepri, r3											
 1785 0010 BFF36F8F 		isb														
 1786 0014 BFF34F8F 		dsb														
 1787 0018 62B6     		cpsie i													
 1788              	
 1789              	@ 0 "" 2
 1790              		.thumb
 1791              		.syntax unified
 1792              	.L134:
 1793              	.LBE68:
 1794              	.LBE67:
 437:Middlewares/Third_Party/FreeRTOS/Source/timers.c **** 	return pxTimer->xTimerPeriodInTicks;
 1795              		.loc 1 437 2 discriminator 3 view .LVU475
 437:Middlewares/Third_Party/FreeRTOS/Source/timers.c **** 	return pxTimer->xTimerPeriodInTicks;
 1796              		.loc 1 437 2 discriminator 3 view .LVU476
 1797 001a FEE7     		b	.L134
 1798              		.cfi_endproc
 1799              	.LFE10:
 1801              		.section	.text.vTimerSetReloadMode,"ax",%progbits
 1802              		.align	1
 1803              		.global	vTimerSetReloadMode
 1804              		.syntax unified
 1805              		.thumb
 1806              		.thumb_func
 1808              	vTimerSetReloadMode:
 1809              	.LVL133:
 1810              	.LFB11:
 443:Middlewares/Third_Party/FreeRTOS/Source/timers.c **** Timer_t * pxTimer =  xTimer;
ARM GAS  C:\Users\frees\AppData\Local\Temp\ccAseSOz.s 			page 60


 1811              		.loc 1 443 1 view -0
 1812              		.cfi_startproc
 1813              		@ args = 0, pretend = 0, frame = 0
 1814              		@ frame_needed = 0, uses_anonymous_args = 0
 443:Middlewares/Third_Party/FreeRTOS/Source/timers.c **** Timer_t * pxTimer =  xTimer;
 1815              		.loc 1 443 1 is_stmt 0 view .LVU478
 1816 0000 38B5     		push	{r3, r4, r5, lr}
 1817              	.LCFI39:
 1818              		.cfi_def_cfa_offset 16
 1819              		.cfi_offset 3, -16
 1820              		.cfi_offset 4, -12
 1821              		.cfi_offset 5, -8
 1822              		.cfi_offset 14, -4
 444:Middlewares/Third_Party/FreeRTOS/Source/timers.c **** 
 1823              		.loc 1 444 1 is_stmt 1 view .LVU479
 1824              	.LVL134:
 446:Middlewares/Third_Party/FreeRTOS/Source/timers.c **** 	taskENTER_CRITICAL();
 1825              		.loc 1 446 2 view .LVU480
 1826 0002 68B1     		cbz	r0, .L142
 1827 0004 0C46     		mov	r4, r1
 1828 0006 0546     		mov	r5, r0
 446:Middlewares/Third_Party/FreeRTOS/Source/timers.c **** 	taskENTER_CRITICAL();
 1829              		.loc 1 446 24 discriminator 2 view .LVU481
 447:Middlewares/Third_Party/FreeRTOS/Source/timers.c **** 	{
 1830              		.loc 1 447 2 view .LVU482
 1831 0008 FFF7FEFF 		bl	vPortEnterCritical
 1832              	.LVL135:
 449:Middlewares/Third_Party/FreeRTOS/Source/timers.c **** 		{
 1833              		.loc 1 449 3 view .LVU483
 449:Middlewares/Third_Party/FreeRTOS/Source/timers.c **** 		{
 1834              		.loc 1 449 5 is_stmt 0 view .LVU484
 1835 000c 9CB1     		cbz	r4, .L139
 451:Middlewares/Third_Party/FreeRTOS/Source/timers.c **** 		}
 1836              		.loc 1 451 4 is_stmt 1 view .LVU485
 451:Middlewares/Third_Party/FreeRTOS/Source/timers.c **** 		}
 1837              		.loc 1 451 11 is_stmt 0 view .LVU486
 1838 000e 95F82830 		ldrb	r3, [r5, #40]	@ zero_extendqisi2
 451:Middlewares/Third_Party/FreeRTOS/Source/timers.c **** 		}
 1839              		.loc 1 451 22 view .LVU487
 1840 0012 43F00403 		orr	r3, r3, #4
 1841 0016 85F82830 		strb	r3, [r5, #40]
 1842              	.L140:
 458:Middlewares/Third_Party/FreeRTOS/Source/timers.c **** }
 1843              		.loc 1 458 2 is_stmt 1 view .LVU488
 1844 001a FFF7FEFF 		bl	vPortExitCritical
 1845              	.LVL136:
 459:Middlewares/Third_Party/FreeRTOS/Source/timers.c **** /*-----------------------------------------------------------*/
 1846              		.loc 1 459 1 is_stmt 0 view .LVU489
 1847 001e 38BD     		pop	{r3, r4, r5, pc}
 1848              	.LVL137:
 1849              	.L142:
 446:Middlewares/Third_Party/FreeRTOS/Source/timers.c **** 	taskENTER_CRITICAL();
 1850              		.loc 1 446 2 is_stmt 1 discriminator 1 view .LVU490
 1851              	.LBB69:
 1852              	.LBI69:
 191:Middlewares/Third_Party/FreeRTOS/Source/portable/GCC/ARM_CM7/r0p1/portmacro.h **** {
 1853              		.loc 2 191 30 view .LVU491
ARM GAS  C:\Users\frees\AppData\Local\Temp\ccAseSOz.s 			page 61


 1854              	.LBB70:
 193:Middlewares/Third_Party/FreeRTOS/Source/portable/GCC/ARM_CM7/r0p1/portmacro.h **** 
 1855              		.loc 2 193 1 view .LVU492
 1856              		.loc 2 195 2 view .LVU493
 1857              		.syntax unified
 1858              	@ 195 "Middlewares/Third_Party/FreeRTOS/Source/portable/GCC/ARM_CM7/r0p1/portmacro.h" 1
 1859 0020 4FF05003 			mov r3, #80												
 1860 0024 72B6     		cpsid i													
 1861 0026 83F31188 		msr basepri, r3											
 1862 002a BFF36F8F 		isb														
 1863 002e BFF34F8F 		dsb														
 1864 0032 62B6     		cpsie i													
 1865              	
 1866              	@ 0 "" 2
 1867              		.thumb
 1868              		.syntax unified
 1869              	.L138:
 1870              	.LBE70:
 1871              	.LBE69:
 446:Middlewares/Third_Party/FreeRTOS/Source/timers.c **** 	taskENTER_CRITICAL();
 1872              		.loc 1 446 2 discriminator 3 view .LVU494
 446:Middlewares/Third_Party/FreeRTOS/Source/timers.c **** 	taskENTER_CRITICAL();
 1873              		.loc 1 446 2 discriminator 3 view .LVU495
 1874 0034 FEE7     		b	.L138
 1875              	.LVL138:
 1876              	.L139:
 455:Middlewares/Third_Party/FreeRTOS/Source/timers.c **** 		}
 1877              		.loc 1 455 4 view .LVU496
 455:Middlewares/Third_Party/FreeRTOS/Source/timers.c **** 		}
 1878              		.loc 1 455 11 is_stmt 0 view .LVU497
 1879 0036 95F82830 		ldrb	r3, [r5, #40]	@ zero_extendqisi2
 455:Middlewares/Third_Party/FreeRTOS/Source/timers.c **** 		}
 1880              		.loc 1 455 22 view .LVU498
 1881 003a 23F00403 		bic	r3, r3, #4
 1882 003e 85F82830 		strb	r3, [r5, #40]
 1883 0042 EAE7     		b	.L140
 1884              		.cfi_endproc
 1885              	.LFE11:
 1887              		.section	.text.xTimerGetExpiryTime,"ax",%progbits
 1888              		.align	1
 1889              		.global	xTimerGetExpiryTime
 1890              		.syntax unified
 1891              		.thumb
 1892              		.thumb_func
 1894              	xTimerGetExpiryTime:
 1895              	.LVL139:
 1896              	.LFB12:
 463:Middlewares/Third_Party/FreeRTOS/Source/timers.c **** Timer_t * pxTimer =  xTimer;
 1897              		.loc 1 463 1 is_stmt 1 view -0
 1898              		.cfi_startproc
 1899              		@ args = 0, pretend = 0, frame = 0
 1900              		@ frame_needed = 0, uses_anonymous_args = 0
 1901              		@ link register save eliminated.
 464:Middlewares/Third_Party/FreeRTOS/Source/timers.c **** TickType_t xReturn;
 1902              		.loc 1 464 1 view .LVU500
 465:Middlewares/Third_Party/FreeRTOS/Source/timers.c **** 
 1903              		.loc 1 465 1 view .LVU501
ARM GAS  C:\Users\frees\AppData\Local\Temp\ccAseSOz.s 			page 62


 467:Middlewares/Third_Party/FreeRTOS/Source/timers.c **** 	xReturn = listGET_LIST_ITEM_VALUE( &( pxTimer->xTimerListItem ) );
 1904              		.loc 1 467 2 view .LVU502
 1905 0000 08B1     		cbz	r0, .L146
 467:Middlewares/Third_Party/FreeRTOS/Source/timers.c **** 	xReturn = listGET_LIST_ITEM_VALUE( &( pxTimer->xTimerListItem ) );
 1906              		.loc 1 467 24 discriminator 2 view .LVU503
 468:Middlewares/Third_Party/FreeRTOS/Source/timers.c **** 	return xReturn;
 1907              		.loc 1 468 2 view .LVU504
 1908              	.LVL140:
 469:Middlewares/Third_Party/FreeRTOS/Source/timers.c **** }
 1909              		.loc 1 469 2 view .LVU505
 470:Middlewares/Third_Party/FreeRTOS/Source/timers.c **** /*-----------------------------------------------------------*/
 1910              		.loc 1 470 1 is_stmt 0 view .LVU506
 1911 0002 4068     		ldr	r0, [r0, #4]
 1912              	.LVL141:
 470:Middlewares/Third_Party/FreeRTOS/Source/timers.c **** /*-----------------------------------------------------------*/
 1913              		.loc 1 470 1 view .LVU507
 1914 0004 7047     		bx	lr
 1915              	.LVL142:
 1916              	.L146:
 467:Middlewares/Third_Party/FreeRTOS/Source/timers.c **** 	xReturn = listGET_LIST_ITEM_VALUE( &( pxTimer->xTimerListItem ) );
 1917              		.loc 1 467 2 is_stmt 1 discriminator 1 view .LVU508
 1918              	.LBB71:
 1919              	.LBI71:
 191:Middlewares/Third_Party/FreeRTOS/Source/portable/GCC/ARM_CM7/r0p1/portmacro.h **** {
 1920              		.loc 2 191 30 view .LVU509
 1921              	.LBB72:
 193:Middlewares/Third_Party/FreeRTOS/Source/portable/GCC/ARM_CM7/r0p1/portmacro.h **** 
 1922              		.loc 2 193 1 view .LVU510
 1923              		.loc 2 195 2 view .LVU511
 1924              		.syntax unified
 1925              	@ 195 "Middlewares/Third_Party/FreeRTOS/Source/portable/GCC/ARM_CM7/r0p1/portmacro.h" 1
 1926 0006 4FF05003 			mov r3, #80												
 1927 000a 72B6     		cpsid i													
 1928 000c 83F31188 		msr basepri, r3											
 1929 0010 BFF36F8F 		isb														
 1930 0014 BFF34F8F 		dsb														
 1931 0018 62B6     		cpsie i													
 1932              	
 1933              	@ 0 "" 2
 1934              		.thumb
 1935              		.syntax unified
 1936              	.L145:
 1937              	.LBE72:
 1938              	.LBE71:
 467:Middlewares/Third_Party/FreeRTOS/Source/timers.c **** 	xReturn = listGET_LIST_ITEM_VALUE( &( pxTimer->xTimerListItem ) );
 1939              		.loc 1 467 2 discriminator 3 view .LVU512
 467:Middlewares/Third_Party/FreeRTOS/Source/timers.c **** 	xReturn = listGET_LIST_ITEM_VALUE( &( pxTimer->xTimerListItem ) );
 1940              		.loc 1 467 2 discriminator 3 view .LVU513
 1941 001a FEE7     		b	.L145
 1942              		.cfi_endproc
 1943              	.LFE12:
 1945              		.section	.text.pcTimerGetName,"ax",%progbits
 1946              		.align	1
 1947              		.global	pcTimerGetName
 1948              		.syntax unified
 1949              		.thumb
 1950              		.thumb_func
ARM GAS  C:\Users\frees\AppData\Local\Temp\ccAseSOz.s 			page 63


 1952              	pcTimerGetName:
 1953              	.LVL143:
 1954              	.LFB13:
 474:Middlewares/Third_Party/FreeRTOS/Source/timers.c **** Timer_t *pxTimer = xTimer;
 1955              		.loc 1 474 1 view -0
 1956              		.cfi_startproc
 1957              		@ args = 0, pretend = 0, frame = 0
 1958              		@ frame_needed = 0, uses_anonymous_args = 0
 1959              		@ link register save eliminated.
 475:Middlewares/Third_Party/FreeRTOS/Source/timers.c **** 
 1960              		.loc 1 475 1 view .LVU515
 477:Middlewares/Third_Party/FreeRTOS/Source/timers.c **** 	return pxTimer->pcTimerName;
 1961              		.loc 1 477 2 view .LVU516
 1962 0000 08B1     		cbz	r0, .L150
 477:Middlewares/Third_Party/FreeRTOS/Source/timers.c **** 	return pxTimer->pcTimerName;
 1963              		.loc 1 477 24 discriminator 2 view .LVU517
 478:Middlewares/Third_Party/FreeRTOS/Source/timers.c **** }
 1964              		.loc 1 478 2 view .LVU518
 479:Middlewares/Third_Party/FreeRTOS/Source/timers.c **** /*-----------------------------------------------------------*/
 1965              		.loc 1 479 1 is_stmt 0 view .LVU519
 1966 0002 0068     		ldr	r0, [r0]
 1967              	.LVL144:
 479:Middlewares/Third_Party/FreeRTOS/Source/timers.c **** /*-----------------------------------------------------------*/
 1968              		.loc 1 479 1 view .LVU520
 1969 0004 7047     		bx	lr
 1970              	.LVL145:
 1971              	.L150:
 477:Middlewares/Third_Party/FreeRTOS/Source/timers.c **** 	return pxTimer->pcTimerName;
 1972              		.loc 1 477 2 is_stmt 1 discriminator 1 view .LVU521
 1973              	.LBB73:
 1974              	.LBI73:
 191:Middlewares/Third_Party/FreeRTOS/Source/portable/GCC/ARM_CM7/r0p1/portmacro.h **** {
 1975              		.loc 2 191 30 view .LVU522
 1976              	.LBB74:
 193:Middlewares/Third_Party/FreeRTOS/Source/portable/GCC/ARM_CM7/r0p1/portmacro.h **** 
 1977              		.loc 2 193 1 view .LVU523
 1978              		.loc 2 195 2 view .LVU524
 1979              		.syntax unified
 1980              	@ 195 "Middlewares/Third_Party/FreeRTOS/Source/portable/GCC/ARM_CM7/r0p1/portmacro.h" 1
 1981 0006 4FF05003 			mov r3, #80												
 1982 000a 72B6     		cpsid i													
 1983 000c 83F31188 		msr basepri, r3											
 1984 0010 BFF36F8F 		isb														
 1985 0014 BFF34F8F 		dsb														
 1986 0018 62B6     		cpsie i													
 1987              	
 1988              	@ 0 "" 2
 1989              		.thumb
 1990              		.syntax unified
 1991              	.L149:
 1992              	.LBE74:
 1993              	.LBE73:
 477:Middlewares/Third_Party/FreeRTOS/Source/timers.c **** 	return pxTimer->pcTimerName;
 1994              		.loc 1 477 2 discriminator 3 view .LVU525
 477:Middlewares/Third_Party/FreeRTOS/Source/timers.c **** 	return pxTimer->pcTimerName;
 1995              		.loc 1 477 2 discriminator 3 view .LVU526
 1996 001a FEE7     		b	.L149
ARM GAS  C:\Users\frees\AppData\Local\Temp\ccAseSOz.s 			page 64


 1997              		.cfi_endproc
 1998              	.LFE13:
 2000              		.section	.text.xTimerIsTimerActive,"ax",%progbits
 2001              		.align	1
 2002              		.global	xTimerIsTimerActive
 2003              		.syntax unified
 2004              		.thumb
 2005              		.thumb_func
 2007              	xTimerIsTimerActive:
 2008              	.LVL146:
 2009              	.LFB23:
 965:Middlewares/Third_Party/FreeRTOS/Source/timers.c **** /*-----------------------------------------------------------*/
 966:Middlewares/Third_Party/FreeRTOS/Source/timers.c **** 
 967:Middlewares/Third_Party/FreeRTOS/Source/timers.c **** BaseType_t xTimerIsTimerActive( TimerHandle_t xTimer )
 968:Middlewares/Third_Party/FreeRTOS/Source/timers.c **** {
 2010              		.loc 1 968 1 view -0
 2011              		.cfi_startproc
 2012              		@ args = 0, pretend = 0, frame = 0
 2013              		@ frame_needed = 0, uses_anonymous_args = 0
 969:Middlewares/Third_Party/FreeRTOS/Source/timers.c **** BaseType_t xReturn;
 2014              		.loc 1 969 1 view .LVU528
 970:Middlewares/Third_Party/FreeRTOS/Source/timers.c **** Timer_t *pxTimer = xTimer;
 2015              		.loc 1 970 1 view .LVU529
 971:Middlewares/Third_Party/FreeRTOS/Source/timers.c **** 
 972:Middlewares/Third_Party/FreeRTOS/Source/timers.c **** 	configASSERT( xTimer );
 2016              		.loc 1 972 2 view .LVU530
 2017 0000 68B1     		cbz	r0, .L158
 968:Middlewares/Third_Party/FreeRTOS/Source/timers.c **** BaseType_t xReturn;
 2018              		.loc 1 968 1 is_stmt 0 view .LVU531
 2019 0002 10B5     		push	{r4, lr}
 2020              	.LCFI40:
 2021              		.cfi_def_cfa_offset 8
 2022              		.cfi_offset 4, -8
 2023              		.cfi_offset 14, -4
 2024 0004 0446     		mov	r4, r0
 2025              		.loc 1 972 24 is_stmt 1 discriminator 2 view .LVU532
 973:Middlewares/Third_Party/FreeRTOS/Source/timers.c **** 
 974:Middlewares/Third_Party/FreeRTOS/Source/timers.c **** 	/* Is the timer in the list of active timers? */
 975:Middlewares/Third_Party/FreeRTOS/Source/timers.c **** 	taskENTER_CRITICAL();
 2026              		.loc 1 975 2 view .LVU533
 2027 0006 FFF7FEFF 		bl	vPortEnterCritical
 2028              	.LVL147:
 976:Middlewares/Third_Party/FreeRTOS/Source/timers.c **** 	{
 977:Middlewares/Third_Party/FreeRTOS/Source/timers.c **** 		if( ( pxTimer->ucStatus & tmrSTATUS_IS_ACTIVE ) == 0 )
 2029              		.loc 1 977 3 view .LVU534
 2030              		.loc 1 977 16 is_stmt 0 view .LVU535
 2031 000a 94F82830 		ldrb	r3, [r4, #40]	@ zero_extendqisi2
 2032              		.loc 1 977 5 view .LVU536
 2033 000e 13F0010F 		tst	r3, #1
 2034 0012 0FD1     		bne	.L155
 978:Middlewares/Third_Party/FreeRTOS/Source/timers.c **** 		{
 979:Middlewares/Third_Party/FreeRTOS/Source/timers.c **** 			xReturn = pdFALSE;
 2035              		.loc 1 979 12 view .LVU537
 2036 0014 0024     		movs	r4, #0
 2037              	.LVL148:
 2038              	.L154:
 980:Middlewares/Third_Party/FreeRTOS/Source/timers.c **** 		}
ARM GAS  C:\Users\frees\AppData\Local\Temp\ccAseSOz.s 			page 65


 981:Middlewares/Third_Party/FreeRTOS/Source/timers.c **** 		else
 982:Middlewares/Third_Party/FreeRTOS/Source/timers.c **** 		{
 983:Middlewares/Third_Party/FreeRTOS/Source/timers.c **** 			xReturn = pdTRUE;
 984:Middlewares/Third_Party/FreeRTOS/Source/timers.c **** 		}
 985:Middlewares/Third_Party/FreeRTOS/Source/timers.c **** 	}
 986:Middlewares/Third_Party/FreeRTOS/Source/timers.c **** 	taskEXIT_CRITICAL();
 2039              		.loc 1 986 2 is_stmt 1 view .LVU538
 2040 0016 FFF7FEFF 		bl	vPortExitCritical
 2041              	.LVL149:
 987:Middlewares/Third_Party/FreeRTOS/Source/timers.c **** 
 988:Middlewares/Third_Party/FreeRTOS/Source/timers.c **** 	return xReturn;
 2042              		.loc 1 988 2 view .LVU539
 989:Middlewares/Third_Party/FreeRTOS/Source/timers.c **** } /*lint !e818 Can't be pointer to const due to the typedef. */
 2043              		.loc 1 989 1 is_stmt 0 view .LVU540
 2044 001a 2046     		mov	r0, r4
 2045 001c 10BD     		pop	{r4, pc}
 2046              	.LVL150:
 2047              	.L158:
 2048              	.LCFI41:
 2049              		.cfi_def_cfa_offset 0
 2050              		.cfi_restore 4
 2051              		.cfi_restore 14
 972:Middlewares/Third_Party/FreeRTOS/Source/timers.c **** 
 2052              		.loc 1 972 2 is_stmt 1 discriminator 1 view .LVU541
 2053              	.LBB75:
 2054              	.LBI75:
 191:Middlewares/Third_Party/FreeRTOS/Source/portable/GCC/ARM_CM7/r0p1/portmacro.h **** {
 2055              		.loc 2 191 30 view .LVU542
 2056              	.LBB76:
 193:Middlewares/Third_Party/FreeRTOS/Source/portable/GCC/ARM_CM7/r0p1/portmacro.h **** 
 2057              		.loc 2 193 1 view .LVU543
 2058              		.loc 2 195 2 view .LVU544
 2059              		.syntax unified
 2060              	@ 195 "Middlewares/Third_Party/FreeRTOS/Source/portable/GCC/ARM_CM7/r0p1/portmacro.h" 1
 2061 001e 4FF05003 			mov r3, #80												
 2062 0022 72B6     		cpsid i													
 2063 0024 83F31188 		msr basepri, r3											
 2064 0028 BFF36F8F 		isb														
 2065 002c BFF34F8F 		dsb														
 2066 0030 62B6     		cpsie i													
 2067              	
 2068              	@ 0 "" 2
 2069              		.thumb
 2070              		.syntax unified
 2071              	.L153:
 2072              	.LBE76:
 2073              	.LBE75:
 972:Middlewares/Third_Party/FreeRTOS/Source/timers.c **** 
 2074              		.loc 1 972 2 discriminator 3 view .LVU545
 972:Middlewares/Third_Party/FreeRTOS/Source/timers.c **** 
 2075              		.loc 1 972 2 discriminator 3 view .LVU546
 2076 0032 FEE7     		b	.L153
 2077              	.LVL151:
 2078              	.L155:
 2079              	.LCFI42:
 2080              		.cfi_def_cfa_offset 8
 2081              		.cfi_offset 4, -8
ARM GAS  C:\Users\frees\AppData\Local\Temp\ccAseSOz.s 			page 66


 2082              		.cfi_offset 14, -4
 983:Middlewares/Third_Party/FreeRTOS/Source/timers.c **** 		}
 2083              		.loc 1 983 12 is_stmt 0 view .LVU547
 2084 0034 0124     		movs	r4, #1
 2085              	.LVL152:
 983:Middlewares/Third_Party/FreeRTOS/Source/timers.c **** 		}
 2086              		.loc 1 983 12 view .LVU548
 2087 0036 EEE7     		b	.L154
 2088              		.cfi_endproc
 2089              	.LFE23:
 2091              		.section	.text.pvTimerGetTimerID,"ax",%progbits
 2092              		.align	1
 2093              		.global	pvTimerGetTimerID
 2094              		.syntax unified
 2095              		.thumb
 2096              		.thumb_func
 2098              	pvTimerGetTimerID:
 2099              	.LVL153:
 2100              	.LFB24:
 990:Middlewares/Third_Party/FreeRTOS/Source/timers.c **** /*-----------------------------------------------------------*/
 991:Middlewares/Third_Party/FreeRTOS/Source/timers.c **** 
 992:Middlewares/Third_Party/FreeRTOS/Source/timers.c **** void *pvTimerGetTimerID( const TimerHandle_t xTimer )
 993:Middlewares/Third_Party/FreeRTOS/Source/timers.c **** {
 2101              		.loc 1 993 1 is_stmt 1 view -0
 2102              		.cfi_startproc
 2103              		@ args = 0, pretend = 0, frame = 0
 2104              		@ frame_needed = 0, uses_anonymous_args = 0
 994:Middlewares/Third_Party/FreeRTOS/Source/timers.c **** Timer_t * const pxTimer = xTimer;
 2105              		.loc 1 994 1 view .LVU550
 995:Middlewares/Third_Party/FreeRTOS/Source/timers.c **** void *pvReturn;
 2106              		.loc 1 995 1 view .LVU551
 996:Middlewares/Third_Party/FreeRTOS/Source/timers.c **** 
 997:Middlewares/Third_Party/FreeRTOS/Source/timers.c **** 	configASSERT( xTimer );
 2107              		.loc 1 997 2 view .LVU552
 2108 0000 40B1     		cbz	r0, .L164
 993:Middlewares/Third_Party/FreeRTOS/Source/timers.c **** Timer_t * const pxTimer = xTimer;
 2109              		.loc 1 993 1 is_stmt 0 view .LVU553
 2110 0002 10B5     		push	{r4, lr}
 2111              	.LCFI43:
 2112              		.cfi_def_cfa_offset 8
 2113              		.cfi_offset 4, -8
 2114              		.cfi_offset 14, -4
 2115 0004 0446     		mov	r4, r0
 2116              		.loc 1 997 24 is_stmt 1 discriminator 2 view .LVU554
 998:Middlewares/Third_Party/FreeRTOS/Source/timers.c **** 
 999:Middlewares/Third_Party/FreeRTOS/Source/timers.c **** 	taskENTER_CRITICAL();
 2117              		.loc 1 999 2 view .LVU555
 2118 0006 FFF7FEFF 		bl	vPortEnterCritical
 2119              	.LVL154:
1000:Middlewares/Third_Party/FreeRTOS/Source/timers.c **** 	{
1001:Middlewares/Third_Party/FreeRTOS/Source/timers.c **** 		pvReturn = pxTimer->pvTimerID;
 2120              		.loc 1 1001 3 view .LVU556
 2121              		.loc 1 1001 12 is_stmt 0 view .LVU557
 2122 000a E469     		ldr	r4, [r4, #28]
 2123              	.LVL155:
1002:Middlewares/Third_Party/FreeRTOS/Source/timers.c **** 	}
1003:Middlewares/Third_Party/FreeRTOS/Source/timers.c **** 	taskEXIT_CRITICAL();
ARM GAS  C:\Users\frees\AppData\Local\Temp\ccAseSOz.s 			page 67


 2124              		.loc 1 1003 2 is_stmt 1 view .LVU558
 2125 000c FFF7FEFF 		bl	vPortExitCritical
 2126              	.LVL156:
1004:Middlewares/Third_Party/FreeRTOS/Source/timers.c **** 
1005:Middlewares/Third_Party/FreeRTOS/Source/timers.c **** 	return pvReturn;
 2127              		.loc 1 1005 2 view .LVU559
1006:Middlewares/Third_Party/FreeRTOS/Source/timers.c **** }
 2128              		.loc 1 1006 1 is_stmt 0 view .LVU560
 2129 0010 2046     		mov	r0, r4
 2130 0012 10BD     		pop	{r4, pc}
 2131              	.LVL157:
 2132              	.L164:
 2133              	.LCFI44:
 2134              		.cfi_def_cfa_offset 0
 2135              		.cfi_restore 4
 2136              		.cfi_restore 14
 997:Middlewares/Third_Party/FreeRTOS/Source/timers.c **** 
 2137              		.loc 1 997 2 is_stmt 1 discriminator 1 view .LVU561
 2138              	.LBB77:
 2139              	.LBI77:
 191:Middlewares/Third_Party/FreeRTOS/Source/portable/GCC/ARM_CM7/r0p1/portmacro.h **** {
 2140              		.loc 2 191 30 view .LVU562
 2141              	.LBB78:
 193:Middlewares/Third_Party/FreeRTOS/Source/portable/GCC/ARM_CM7/r0p1/portmacro.h **** 
 2142              		.loc 2 193 1 view .LVU563
 2143              		.loc 2 195 2 view .LVU564
 2144              		.syntax unified
 2145              	@ 195 "Middlewares/Third_Party/FreeRTOS/Source/portable/GCC/ARM_CM7/r0p1/portmacro.h" 1
 2146 0014 4FF05003 			mov r3, #80												
 2147 0018 72B6     		cpsid i													
 2148 001a 83F31188 		msr basepri, r3											
 2149 001e BFF36F8F 		isb														
 2150 0022 BFF34F8F 		dsb														
 2151 0026 62B6     		cpsie i													
 2152              	
 2153              	@ 0 "" 2
 2154              		.thumb
 2155              		.syntax unified
 2156              	.L161:
 2157              	.LBE78:
 2158              	.LBE77:
 997:Middlewares/Third_Party/FreeRTOS/Source/timers.c **** 
 2159              		.loc 1 997 2 discriminator 3 view .LVU565
 997:Middlewares/Third_Party/FreeRTOS/Source/timers.c **** 
 2160              		.loc 1 997 2 discriminator 3 view .LVU566
 2161 0028 FEE7     		b	.L161
 2162              		.cfi_endproc
 2163              	.LFE24:
 2165              		.section	.text.vTimerSetTimerID,"ax",%progbits
 2166              		.align	1
 2167              		.global	vTimerSetTimerID
 2168              		.syntax unified
 2169              		.thumb
 2170              		.thumb_func
 2172              	vTimerSetTimerID:
 2173              	.LVL158:
 2174              	.LFB25:
ARM GAS  C:\Users\frees\AppData\Local\Temp\ccAseSOz.s 			page 68


1007:Middlewares/Third_Party/FreeRTOS/Source/timers.c **** /*-----------------------------------------------------------*/
1008:Middlewares/Third_Party/FreeRTOS/Source/timers.c **** 
1009:Middlewares/Third_Party/FreeRTOS/Source/timers.c **** void vTimerSetTimerID( TimerHandle_t xTimer, void *pvNewID )
1010:Middlewares/Third_Party/FreeRTOS/Source/timers.c **** {
 2175              		.loc 1 1010 1 view -0
 2176              		.cfi_startproc
 2177              		@ args = 0, pretend = 0, frame = 0
 2178              		@ frame_needed = 0, uses_anonymous_args = 0
 2179              		.loc 1 1010 1 is_stmt 0 view .LVU568
 2180 0000 38B5     		push	{r3, r4, r5, lr}
 2181              	.LCFI45:
 2182              		.cfi_def_cfa_offset 16
 2183              		.cfi_offset 3, -16
 2184              		.cfi_offset 4, -12
 2185              		.cfi_offset 5, -8
 2186              		.cfi_offset 14, -4
1011:Middlewares/Third_Party/FreeRTOS/Source/timers.c **** Timer_t * const pxTimer = xTimer;
 2187              		.loc 1 1011 1 is_stmt 1 view .LVU569
 2188              	.LVL159:
1012:Middlewares/Third_Party/FreeRTOS/Source/timers.c **** 
1013:Middlewares/Third_Party/FreeRTOS/Source/timers.c **** 	configASSERT( xTimer );
 2189              		.loc 1 1013 2 view .LVU570
 2190 0002 38B1     		cbz	r0, .L169
 2191 0004 0C46     		mov	r4, r1
 2192 0006 0546     		mov	r5, r0
 2193              		.loc 1 1013 24 discriminator 2 view .LVU571
1014:Middlewares/Third_Party/FreeRTOS/Source/timers.c **** 
1015:Middlewares/Third_Party/FreeRTOS/Source/timers.c **** 	taskENTER_CRITICAL();
 2194              		.loc 1 1015 2 view .LVU572
 2195 0008 FFF7FEFF 		bl	vPortEnterCritical
 2196              	.LVL160:
1016:Middlewares/Third_Party/FreeRTOS/Source/timers.c **** 	{
1017:Middlewares/Third_Party/FreeRTOS/Source/timers.c **** 		pxTimer->pvTimerID = pvNewID;
 2197              		.loc 1 1017 3 view .LVU573
 2198              		.loc 1 1017 22 is_stmt 0 view .LVU574
 2199 000c EC61     		str	r4, [r5, #28]
1018:Middlewares/Third_Party/FreeRTOS/Source/timers.c **** 	}
1019:Middlewares/Third_Party/FreeRTOS/Source/timers.c **** 	taskEXIT_CRITICAL();
 2200              		.loc 1 1019 2 is_stmt 1 view .LVU575
 2201 000e FFF7FEFF 		bl	vPortExitCritical
